ARM GAS  C:\Users\DNIEL~1\AppData\Local\Temp\ccTkDJ5o.s 			page 1


   1              		.syntax unified
   2              		.cpu cortex-m3
   3              		.fpu softvfp
   4              		.eabi_attribute 20, 1
   5              		.eabi_attribute 21, 1
   6              		.eabi_attribute 23, 3
   7              		.eabi_attribute 24, 1
   8              		.eabi_attribute 25, 1
   9              		.eabi_attribute 26, 1
  10              		.eabi_attribute 30, 2
  11              		.eabi_attribute 18, 4
  12              		.thumb
  13              		.file	"adc.c"
  14              		.section	.debug_abbrev,"",%progbits
  15              	.Ldebug_abbrev0:
  16              		.section	.debug_info,"",%progbits
  17              	.Ldebug_info0:
  18              		.section	.debug_line,"",%progbits
  19              	.Ldebug_line0:
  20 0000 C6030000 		.text
  20      02008802 
  20      00000201 
  20      FB0E0D00 
  20      01010101 
  21              	.Ltext0:
  22              		.cfi_sections	.debug_frame
  23              		.section	.text.adcInit,"ax",%progbits
  24              		.align	2
  25              		.p2align 4,,15
  26              		.global	adcInit
  27              		.thumb
  28              		.thumb_func
  29              		.type	adcInit, %function
  30              	adcInit:
  31              	.LFB56:
  32              		.file 1 "../../../ChibiOS/os/hal/src/adc.c"
  33              		.loc 1 68 0
  34              		.cfi_startproc
  35              		@ args = 0, pretend = 0, frame = 0
  36              		@ frame_needed = 0, uses_anonymous_args = 0
  37              		@ link register save eliminated.
  38              		.loc 1 71 0
  39              		.loc 1 70 0
  40 0000 FFF7FEBF 		b	adc_lld_init
  41              		.cfi_endproc
  42              	.LFE56:
  43              		.size	adcInit, .-adcInit
  44 0004 AFF30080 		.section	.text.adcObjectInit,"ax",%progbits
  44      AFF30080 
  44      AFF30080 
  45              		.align	2
  46              		.p2align 4,,15
  47              		.global	adcObjectInit
  48              		.thumb
  49              		.thumb_func
  50              		.type	adcObjectInit, %function
  51              	adcObjectInit:
ARM GAS  C:\Users\DNIEL~1\AppData\Local\Temp\ccTkDJ5o.s 			page 2


  52              	.LFB57:
  53              		.loc 1 80 0
  54              		.cfi_startproc
  55              		@ args = 0, pretend = 0, frame = 0
  56              		@ frame_needed = 0, uses_anonymous_args = 0
  57              		@ link register save eliminated.
  58              	.LVL0:
  59              		.loc 1 83 0
  60 0000 0023     		movs	r3, #0
  61              		.loc 1 82 0
  62 0002 0122     		movs	r2, #1
  63 0004 0270     		strb	r2, [r0, #0]
  64              		.loc 1 83 0
  65 0006 4360     		str	r3, [r0, #4]
  66              		.loc 1 84 0
  67 0008 8360     		str	r3, [r0, #8]
  68              		.loc 1 85 0
  69 000a C360     		str	r3, [r0, #12]
  70              		.loc 1 86 0
  71 000c 0361     		str	r3, [r0, #16]
  72              		.loc 1 88 0
  73 000e 4361     		str	r3, [r0, #20]
  74              		.loc 1 92 0
  75 0010 1830     		adds	r0, r0, #24
  76              	.LVL1:
  77              		.loc 1 100 0
  78              		.loc 1 92 0
  79 0012 FFF7FEBF 		b	chMtxInit
  80              		.cfi_endproc
  81              	.LFE57:
  82              		.size	adcObjectInit, .-adcObjectInit
  83 0016 00BFAFF3 		.section	.text.adcStart,"ax",%progbits
  83      0080AFF3 
  83      0080
  84              		.align	2
  85              		.p2align 4,,15
  86              		.global	adcStart
  87              		.thumb
  88              		.thumb_func
  89              		.type	adcStart, %function
  90              	adcStart:
  91              	.LFB58:
  92              		.loc 1 111 0
  93              		.cfi_startproc
  94              		@ args = 0, pretend = 0, frame = 0
  95              		@ frame_needed = 0, uses_anonymous_args = 0
  96              	.LVL2:
  97 0000 10B5     		push	{r4, lr}
  98              	.LCFI0:
  99              		.cfi_def_cfa_offset 8
 100              		.loc 1 111 0
 101 0002 0446     		mov	r4, r0
 102              		.cfi_offset 14, -4
 103              		.cfi_offset 4, -8
 104              		.loc 1 115 0
 105              	@ 115 "../../../ChibiOS/os/hal/src/adc.c" 1
 106 0004 FFF7FEFF 		bl      _port_lock
ARM GAS  C:\Users\DNIEL~1\AppData\Local\Temp\ccTkDJ5o.s 			page 3


 107              	@ 0 "" 2
 108              		.loc 1 118 0
 109              		.thumb
 110 0008 4160     		str	r1, [r0, #4]
 111              		.loc 1 119 0
 112 000a FFF7FEFF 		bl	adc_lld_start
 113              	.LVL3:
 114              		.loc 1 120 0
 115 000e 0223     		movs	r3, #2
 116 0010 2370     		strb	r3, [r4, #0]
 117              		.loc 1 121 0
 118              	@ 121 "../../../ChibiOS/os/hal/src/adc.c" 1
 119 0012 FFF7FEFF 		bl      _port_unlock
 120              	@ 0 "" 2
 121              		.loc 1 122 0
 122              		.thumb
 123 0016 10BD     		pop	{r4, pc}
 124              		.cfi_endproc
 125              	.LFE58:
 126              		.size	adcStart, .-adcStart
 127 0018 AFF30080 		.section	.text.adcStop,"ax",%progbits
 127      AFF30080 
 128              		.align	2
 129              		.p2align 4,,15
 130              		.global	adcStop
 131              		.thumb
 132              		.thumb_func
 133              		.type	adcStop, %function
 134              	adcStop:
 135              	.LFB59:
 136              		.loc 1 131 0
 137              		.cfi_startproc
 138              		@ args = 0, pretend = 0, frame = 0
 139              		@ frame_needed = 0, uses_anonymous_args = 0
 140              	.LVL4:
 141 0000 10B5     		push	{r4, lr}
 142              	.LCFI1:
 143              		.cfi_def_cfa_offset 8
 144              		.loc 1 131 0
 145 0002 0446     		mov	r4, r0
 146              		.cfi_offset 14, -4
 147              		.cfi_offset 4, -8
 148              		.loc 1 135 0
 149              	@ 135 "../../../ChibiOS/os/hal/src/adc.c" 1
 150 0004 FFF7FEFF 		bl      _port_lock
 151              	@ 0 "" 2
 152              		.loc 1 138 0
 153              		.thumb
 154 0008 FFF7FEFF 		bl	adc_lld_stop
 155              	.LVL5:
 156              		.loc 1 139 0
 157 000c 0123     		movs	r3, #1
 158 000e 2370     		strb	r3, [r4, #0]
 159              		.loc 1 140 0
 160              	@ 140 "../../../ChibiOS/os/hal/src/adc.c" 1
 161 0010 FFF7FEFF 		bl      _port_unlock
 162              	@ 0 "" 2
ARM GAS  C:\Users\DNIEL~1\AppData\Local\Temp\ccTkDJ5o.s 			page 4


 163              		.loc 1 141 0
 164              		.thumb
 165 0014 10BD     		pop	{r4, pc}
 166              		.cfi_endproc
 167              	.LFE59:
 168              		.size	adcStop, .-adcStop
 169 0016 00BFAFF3 		.section	.text.adcStartConversion,"ax",%progbits
 169      0080AFF3 
 169      0080
 170              		.align	2
 171              		.p2align 4,,15
 172              		.global	adcStartConversion
 173              		.thumb
 174              		.thumb_func
 175              		.type	adcStartConversion, %function
 176              	adcStartConversion:
 177              	.LFB60:
 178              		.loc 1 162 0
 179              		.cfi_startproc
 180              		@ args = 0, pretend = 0, frame = 0
 181              		@ frame_needed = 0, uses_anonymous_args = 0
 182              	.LVL6:
 183 0000 38B5     		push	{r3, r4, r5, lr}
 184              	.LCFI2:
 185              		.cfi_def_cfa_offset 16
 186              		.loc 1 162 0
 187 0002 1D46     		mov	r5, r3
 188              		.cfi_offset 14, -4
 189              		.cfi_offset 5, -8
 190              		.cfi_offset 4, -12
 191              		.cfi_offset 3, -16
 192              		.loc 1 164 0
 193              	@ 164 "../../../ChibiOS/os/hal/src/adc.c" 1
 194 0004 FFF7FEFF 		bl      _port_lock
 195              	@ 0 "" 2
 196              	.LVL7:
 197              		.thumb
 198              	.LBB6:
 199              	.LBB7:
 200              		.loc 1 204 0
 201 0008 0323     		movs	r3, #3
 202              		.loc 1 201 0
 203 000a 8260     		str	r2, [r0, #8]
 204              		.loc 1 202 0
 205 000c C560     		str	r5, [r0, #12]
 206              		.loc 1 203 0
 207 000e 0161     		str	r1, [r0, #16]
 208              		.loc 1 204 0
 209 0010 0370     		strb	r3, [r0, #0]
 210              		.loc 1 205 0
 211 0012 FFF7FEFF 		bl	adc_lld_start_conversion
 212              	.LVL8:
 213              	.LBE7:
 214              	.LBE6:
 215              		.loc 1 166 0
 216              	@ 166 "../../../ChibiOS/os/hal/src/adc.c" 1
 217 0016 FFF7FEFF 		bl      _port_unlock
ARM GAS  C:\Users\DNIEL~1\AppData\Local\Temp\ccTkDJ5o.s 			page 5


 218              	@ 0 "" 2
 219              		.loc 1 167 0
 220              		.thumb
 221 001a 38BD     		pop	{r3, r4, r5, pc}
 222              		.cfi_endproc
 223              	.LFE60:
 224              		.size	adcStartConversion, .-adcStartConversion
 225 001c AFF30080 		.section	.text.adcStartConversionI,"ax",%progbits
 226              		.align	2
 227              		.p2align 4,,15
 228              		.global	adcStartConversionI
 229              		.thumb
 230              		.thumb_func
 231              		.type	adcStartConversionI, %function
 232              	adcStartConversionI:
 233              	.LFB61:
 234              		.loc 1 190 0
 235              		.cfi_startproc
 236              		@ args = 0, pretend = 0, frame = 0
 237              		@ frame_needed = 0, uses_anonymous_args = 0
 238              		@ link register save eliminated.
 239              	.LVL9:
 240 0000 10B4     		push	{r4}
 241              	.LCFI3:
 242              		.cfi_def_cfa_offset 4
 243              		.loc 1 202 0
 244 0002 C360     		str	r3, [r0, #12]
 245              		.loc 1 204 0
 246 0004 0323     		movs	r3, #3
 247              	.LVL10:
 248              		.loc 1 201 0
 249 0006 8260     		str	r2, [r0, #8]
 250              		.loc 1 203 0
 251 0008 0161     		str	r1, [r0, #16]
 252              		.loc 1 204 0
 253 000a 0370     		strb	r3, [r0, #0]
 254              		.loc 1 206 0
 255 000c 10BC     		pop	{r4}
 256              		.loc 1 205 0
 257              		.cfi_offset 4, -4
 258 000e FFF7FEBF 		b	adc_lld_start_conversion
 259              		.cfi_endproc
 260              	.LFE61:
 261              		.size	adcStartConversionI, .-adcStartConversionI
 262 0012 00BFAFF3 		.section	.text.adcStopConversion,"ax",%progbits
 262      0080AFF3 
 262      0080AFF3 
 262      0080
 263              		.align	2
 264              		.p2align 4,,15
 265              		.global	adcStopConversion
 266              		.thumb
 267              		.thumb_func
 268              		.type	adcStopConversion, %function
 269              	adcStopConversion:
 270              	.LFB62:
 271              		.loc 1 218 0
ARM GAS  C:\Users\DNIEL~1\AppData\Local\Temp\ccTkDJ5o.s 			page 6


 272              		.cfi_startproc
 273              		@ args = 0, pretend = 0, frame = 0
 274              		@ frame_needed = 0, uses_anonymous_args = 0
 275              	.LVL11:
 276 0000 10B5     		push	{r4, lr}
 277              	.LCFI4:
 278              		.cfi_def_cfa_offset 8
 279              		.loc 1 218 0
 280 0002 0446     		mov	r4, r0
 281              		.cfi_offset 14, -4
 282              		.cfi_offset 4, -8
 283              		.loc 1 222 0
 284              	@ 222 "../../../ChibiOS/os/hal/src/adc.c" 1
 285 0004 FFF7FEFF 		bl      _port_lock
 286              	@ 0 "" 2
 287              		.loc 1 226 0
 288              		.thumb
 289 0008 0378     		ldrb	r3, [r0, #0]	@ zero_extendqisi2
 290 000a 022B     		cmp	r3, #2
 291 000c 0CD0     		beq	.L8
 292              		.loc 1 227 0
 293 000e FFF7FEFF 		bl	adc_lld_stop_conversion
 294              	.LVL12:
 295              		.loc 1 230 0
 296 0012 6069     		ldr	r0, [r4, #20]
 297              		.loc 1 228 0
 298 0014 0023     		movs	r3, #0
 299              		.loc 1 229 0
 300 0016 0222     		movs	r2, #2
 301              		.loc 1 228 0
 302 0018 2361     		str	r3, [r4, #16]
 303              		.loc 1 229 0
 304 001a 2270     		strb	r2, [r4, #0]
 305              		.loc 1 230 0
 306 001c 20B1     		cbz	r0, .L8
 307              	.LVL13:
 308              	.LBB8:
 309              		.loc 1 230 0 is_stmt 0 discriminator 1
 310 001e 6361     		str	r3, [r4, #20]
 311 0020 6FF00101 		mvn	r1, #1
 312 0024 FFF7FEFF 		bl	chSchWakeupS
 313              	.LVL14:
 314              	.L8:
 315              	.LBE8:
 316              		.loc 1 232 0 is_stmt 1
 317              	@ 232 "../../../ChibiOS/os/hal/src/adc.c" 1
 318 0028 FFF7FEFF 		bl      _port_unlock
 319              	@ 0 "" 2
 320              		.loc 1 233 0
 321              		.thumb
 322 002c 10BD     		pop	{r4, pc}
 323              		.cfi_endproc
 324              	.LFE62:
 325              		.size	adcStopConversion, .-adcStopConversion
 326 002e 00BF     		.section	.text.adcStopConversionI,"ax",%progbits
 327              		.align	2
 328              		.p2align 4,,15
ARM GAS  C:\Users\DNIEL~1\AppData\Local\Temp\ccTkDJ5o.s 			page 7


 329              		.global	adcStopConversionI
 330              		.thumb
 331              		.thumb_func
 332              		.type	adcStopConversionI, %function
 333              	adcStopConversionI:
 334              	.LFB63:
 335              		.loc 1 245 0
 336              		.cfi_startproc
 337              		@ args = 0, pretend = 0, frame = 0
 338              		@ frame_needed = 0, uses_anonymous_args = 0
 339              	.LVL15:
 340              		.loc 1 254 0
 341 0000 0378     		ldrb	r3, [r0, #0]	@ zero_extendqisi2
 342              		.loc 1 245 0
 343 0002 10B5     		push	{r4, lr}
 344              	.LCFI5:
 345              		.cfi_def_cfa_offset 8
 346              		.loc 1 254 0
 347 0004 022B     		cmp	r3, #2
 348              		.loc 1 245 0
 349 0006 0446     		mov	r4, r0
 350              		.cfi_offset 14, -4
 351              		.cfi_offset 4, -8
 352              		.loc 1 254 0
 353 0008 10D0     		beq	.L10
 354              		.loc 1 255 0
 355 000a FFF7FEFF 		bl	adc_lld_stop_conversion
 356              	.LVL16:
 357              		.loc 1 258 0
 358 000e 6369     		ldr	r3, [r4, #20]
 359              		.loc 1 256 0
 360 0010 0022     		movs	r2, #0
 361              		.loc 1 257 0
 362 0012 0221     		movs	r1, #2
 363              		.loc 1 256 0
 364 0014 2261     		str	r2, [r4, #16]
 365              		.loc 1 257 0
 366 0016 2170     		strb	r1, [r4, #0]
 367              		.loc 1 258 0
 368 0018 43B1     		cbz	r3, .L10
 369              	.LVL17:
 370              	.LBB9:
 371              		.loc 1 258 0 is_stmt 0 discriminator 1
 372 001a 6261     		str	r2, [r4, #20]
 373 001c 1846     		mov	r0, r3
 374 001e 6FF00102 		mvn	r2, #1
 375 0022 5A62     		str	r2, [r3, #36]
 376              	.LBE9:
 377              		.loc 1 260 0 is_stmt 1 discriminator 1
 378 0024 BDE81040 		pop	{r4, lr}
 379              	.LBB10:
 380              		.loc 1 258 0 discriminator 1
 381 0028 FFF7FEBF 		b	chSchReadyI
 382              	.LVL18:
 383              	.L10:
 384 002c 10BD     		pop	{r4, pc}
 385              	.LBE10:
ARM GAS  C:\Users\DNIEL~1\AppData\Local\Temp\ccTkDJ5o.s 			page 8


 386              		.cfi_endproc
 387              	.LFE63:
 388              		.size	adcStopConversionI, .-adcStopConversionI
 389 002e 00BF     		.section	.text.adcConvert,"ax",%progbits
 390              		.align	2
 391              		.p2align 4,,15
 392              		.global	adcConvert
 393              		.thumb
 394              		.thumb_func
 395              		.type	adcConvert, %function
 396              	adcConvert:
 397              	.LFB64:
 398              		.loc 1 289 0
 399              		.cfi_startproc
 400              		@ args = 0, pretend = 0, frame = 0
 401              		@ frame_needed = 0, uses_anonymous_args = 0
 402              	.LVL19:
 403 0000 70B5     		push	{r4, r5, r6, lr}
 404              	.LCFI6:
 405              		.cfi_def_cfa_offset 16
 406              		.loc 1 289 0
 407 0002 0446     		mov	r4, r0
 408              		.cfi_offset 14, -4
 409              		.cfi_offset 6, -8
 410              		.cfi_offset 5, -12
 411              		.cfi_offset 4, -16
 412 0004 1D46     		mov	r5, r3
 413              		.loc 1 292 0
 414              	@ 292 "../../../ChibiOS/os/hal/src/adc.c" 1
 415 0006 FFF7FEFF 		bl      _port_lock
 416              	@ 0 "" 2
 417              	.LVL20:
 418              		.loc 1 295 0
 419              		.thumb
 420 000a 094E     		ldr	r6, .L13
 421              	.LBB11:
 422              	.LBB12:
 423              		.loc 1 201 0
 424 000c 8260     		str	r2, [r0, #8]
 425              		.loc 1 204 0
 426 000e 0322     		movs	r2, #3
 427              	.LVL21:
 428 0010 0270     		strb	r2, [r0, #0]
 429              		.loc 1 202 0
 430 0012 C560     		str	r5, [r0, #12]
 431              		.loc 1 203 0
 432 0014 0161     		str	r1, [r0, #16]
 433              		.loc 1 205 0
 434 0016 FFF7FEFF 		bl	adc_lld_start_conversion
 435              	.LVL22:
 436              	.LBE12:
 437              	.LBE11:
 438              		.loc 1 295 0
 439 001a B169     		ldr	r1, [r6, #24]
 440              		.loc 1 296 0
 441 001c 0220     		movs	r0, #2
 442              		.loc 1 295 0
ARM GAS  C:\Users\DNIEL~1\AppData\Local\Temp\ccTkDJ5o.s 			page 9


 443 001e 6161     		str	r1, [r4, #20]
 444              		.loc 1 296 0
 445 0020 FFF7FEFF 		bl	chSchGoSleepS
 446              		.loc 1 297 0
 447 0024 B369     		ldr	r3, [r6, #24]
 448 0026 586A     		ldr	r0, [r3, #36]
 449              	.LVL23:
 450              		.loc 1 298 0
 451              	@ 298 "../../../ChibiOS/os/hal/src/adc.c" 1
 452 0028 FFF7FEFF 		bl      _port_unlock
 453              	@ 0 "" 2
 454              		.loc 1 300 0
 455              		.thumb
 456 002c 70BD     		pop	{r4, r5, r6, pc}
 457              	.L14:
 458 002e 00BF     		.align	2
 459              	.L13:
 460 0030 00000000 		.word	rlist
 461              		.cfi_endproc
 462              	.LFE64:
 463              		.size	adcConvert, .-adcConvert
 464 0034 AFF30080 		.section	.text.adcAcquireBus,"ax",%progbits
 464      AFF30080 
 464      AFF30080 
 465              		.align	2
 466              		.p2align 4,,15
 467              		.global	adcAcquireBus
 468              		.thumb
 469              		.thumb_func
 470              		.type	adcAcquireBus, %function
 471              	adcAcquireBus:
 472              	.LFB65:
 473              		.loc 1 315 0
 474              		.cfi_startproc
 475              		@ args = 0, pretend = 0, frame = 0
 476              		@ frame_needed = 0, uses_anonymous_args = 0
 477              		@ link register save eliminated.
 478              	.LVL24:
 479              		.loc 1 320 0
 480 0000 1830     		adds	r0, r0, #24
 481              	.LVL25:
 482              		.loc 1 324 0
 483              		.loc 1 320 0
 484 0002 FFF7FEBF 		b	chMtxLock
 485              		.cfi_endproc
 486              	.LFE65:
 487              		.size	adcAcquireBus, .-adcAcquireBus
 488 0006 00BFAFF3 		.section	.text.adcReleaseBus,"ax",%progbits
 488      0080AFF3 
 488      0080
 489              		.align	2
 490              		.p2align 4,,15
 491              		.global	adcReleaseBus
 492              		.thumb
 493              		.thumb_func
 494              		.type	adcReleaseBus, %function
 495              	adcReleaseBus:
ARM GAS  C:\Users\DNIEL~1\AppData\Local\Temp\ccTkDJ5o.s 			page 10


 496              	.LFB66:
 497              		.loc 1 335 0
 498              		.cfi_startproc
 499              		@ args = 0, pretend = 0, frame = 0
 500              		@ frame_needed = 0, uses_anonymous_args = 0
 501              		@ link register save eliminated.
 502              	.LVL26:
 503              		.loc 1 345 0
 504              		.loc 1 341 0
 505 0000 FFF7FEBF 		b	chMtxUnlock
 506              		.cfi_endproc
 507              	.LFE66:
 508              		.size	adcReleaseBus, .-adcReleaseBus
 509 0004 AFF30080 		.text
 509      AFF30080 
 509      AFF30080 
 510              	.Letext0:
 511              		.section	.debug_loc,"",%progbits
 512              	.Ldebug_loc0:
 513              	.LLST0:
 514 0000 00000000 		.4byte	.LVL0
 515 0004 12000000 		.4byte	.LVL1
 516 0008 0100     		.2byte	0x1
 517 000a 50       		.byte	0x50
 518 000b 12000000 		.4byte	.LVL1
 519 000f 16000000 		.4byte	.LFE57
 520 0013 0300     		.2byte	0x3
 521 0015 70       		.byte	0x70
 522 0016 68       		.sleb128 -24
 523 0017 9F       		.byte	0x9f
 524 0018 00000000 		.4byte	0x0
 525 001c 00000000 		.4byte	0x0
 526              	.LLST1:
 527 0020 00000000 		.4byte	.LFB58
 528 0024 02000000 		.4byte	.LCFI0
 529 0028 0200     		.2byte	0x2
 530 002a 7D       		.byte	0x7d
 531 002b 00       		.sleb128 0
 532 002c 02000000 		.4byte	.LCFI0
 533 0030 18000000 		.4byte	.LFE58
 534 0034 0200     		.2byte	0x2
 535 0036 7D       		.byte	0x7d
 536 0037 08       		.sleb128 8
 537 0038 00000000 		.4byte	0x0
 538 003c 00000000 		.4byte	0x0
 539              	.LLST2:
 540 0040 00000000 		.4byte	.LVL2
 541 0044 0D000000 		.4byte	.LVL3-1
 542 0048 0100     		.2byte	0x1
 543 004a 50       		.byte	0x50
 544 004b 0D000000 		.4byte	.LVL3-1
 545 004f 18000000 		.4byte	.LFE58
 546 0053 0100     		.2byte	0x1
 547 0055 54       		.byte	0x54
 548 0056 00000000 		.4byte	0x0
 549 005a 00000000 		.4byte	0x0
 550              	.LLST3:
ARM GAS  C:\Users\DNIEL~1\AppData\Local\Temp\ccTkDJ5o.s 			page 11


 551 005e 00000000 		.4byte	.LVL2
 552 0062 0D000000 		.4byte	.LVL3-1
 553 0066 0100     		.2byte	0x1
 554 0068 51       		.byte	0x51
 555 0069 00000000 		.4byte	0x0
 556 006d 00000000 		.4byte	0x0
 557              	.LLST4:
 558 0071 00000000 		.4byte	.LFB59
 559 0075 02000000 		.4byte	.LCFI1
 560 0079 0200     		.2byte	0x2
 561 007b 7D       		.byte	0x7d
 562 007c 00       		.sleb128 0
 563 007d 02000000 		.4byte	.LCFI1
 564 0081 16000000 		.4byte	.LFE59
 565 0085 0200     		.2byte	0x2
 566 0087 7D       		.byte	0x7d
 567 0088 08       		.sleb128 8
 568 0089 00000000 		.4byte	0x0
 569 008d 00000000 		.4byte	0x0
 570              	.LLST5:
 571 0091 00000000 		.4byte	.LVL4
 572 0095 0B000000 		.4byte	.LVL5-1
 573 0099 0100     		.2byte	0x1
 574 009b 50       		.byte	0x50
 575 009c 0B000000 		.4byte	.LVL5-1
 576 00a0 16000000 		.4byte	.LFE59
 577 00a4 0100     		.2byte	0x1
 578 00a6 54       		.byte	0x54
 579 00a7 00000000 		.4byte	0x0
 580 00ab 00000000 		.4byte	0x0
 581              	.LLST6:
 582 00af 00000000 		.4byte	.LFB60
 583 00b3 02000000 		.4byte	.LCFI2
 584 00b7 0200     		.2byte	0x2
 585 00b9 7D       		.byte	0x7d
 586 00ba 00       		.sleb128 0
 587 00bb 02000000 		.4byte	.LCFI2
 588 00bf 1C000000 		.4byte	.LFE60
 589 00c3 0200     		.2byte	0x2
 590 00c5 7D       		.byte	0x7d
 591 00c6 10       		.sleb128 16
 592 00c7 00000000 		.4byte	0x0
 593 00cb 00000000 		.4byte	0x0
 594              	.LLST7:
 595 00cf 00000000 		.4byte	.LVL6
 596 00d3 15000000 		.4byte	.LVL8-1
 597 00d7 0100     		.2byte	0x1
 598 00d9 50       		.byte	0x50
 599 00da 00000000 		.4byte	0x0
 600 00de 00000000 		.4byte	0x0
 601              	.LLST8:
 602 00e2 00000000 		.4byte	.LVL6
 603 00e6 15000000 		.4byte	.LVL8-1
 604 00ea 0100     		.2byte	0x1
 605 00ec 51       		.byte	0x51
 606 00ed 00000000 		.4byte	0x0
 607 00f1 00000000 		.4byte	0x0
ARM GAS  C:\Users\DNIEL~1\AppData\Local\Temp\ccTkDJ5o.s 			page 12


 608              	.LLST9:
 609 00f5 00000000 		.4byte	.LVL6
 610 00f9 15000000 		.4byte	.LVL8-1
 611 00fd 0100     		.2byte	0x1
 612 00ff 52       		.byte	0x52
 613 0100 00000000 		.4byte	0x0
 614 0104 00000000 		.4byte	0x0
 615              	.LLST10:
 616 0108 00000000 		.4byte	.LVL6
 617 010c 08000000 		.4byte	.LVL7
 618 0110 0100     		.2byte	0x1
 619 0112 53       		.byte	0x53
 620 0113 08000000 		.4byte	.LVL7
 621 0117 1C000000 		.4byte	.LFE60
 622 011b 0100     		.2byte	0x1
 623 011d 55       		.byte	0x55
 624 011e 00000000 		.4byte	0x0
 625 0122 00000000 		.4byte	0x0
 626              	.LLST11:
 627 0126 08000000 		.4byte	.LVL7
 628 012a 15000000 		.4byte	.LVL8-1
 629 012e 0100     		.2byte	0x1
 630 0130 52       		.byte	0x52
 631 0131 00000000 		.4byte	0x0
 632 0135 00000000 		.4byte	0x0
 633              	.LLST12:
 634 0139 08000000 		.4byte	.LVL7
 635 013d 15000000 		.4byte	.LVL8-1
 636 0141 0100     		.2byte	0x1
 637 0143 51       		.byte	0x51
 638 0144 00000000 		.4byte	0x0
 639 0148 00000000 		.4byte	0x0
 640              	.LLST13:
 641 014c 00000000 		.4byte	.LFB61
 642 0150 02000000 		.4byte	.LCFI3
 643 0154 0200     		.2byte	0x2
 644 0156 7D       		.byte	0x7d
 645 0157 00       		.sleb128 0
 646 0158 02000000 		.4byte	.LCFI3
 647 015c 12000000 		.4byte	.LFE61
 648 0160 0200     		.2byte	0x2
 649 0162 7D       		.byte	0x7d
 650 0163 04       		.sleb128 4
 651 0164 00000000 		.4byte	0x0
 652 0168 00000000 		.4byte	0x0
 653              	.LLST14:
 654 016c 00000000 		.4byte	.LVL9
 655 0170 06000000 		.4byte	.LVL10
 656 0174 0100     		.2byte	0x1
 657 0176 53       		.byte	0x53
 658 0177 06000000 		.4byte	.LVL10
 659 017b 12000000 		.4byte	.LFE61
 660 017f 0200     		.2byte	0x2
 661 0181 70       		.byte	0x70
 662 0182 0C       		.sleb128 12
 663 0183 00000000 		.4byte	0x0
 664 0187 00000000 		.4byte	0x0
ARM GAS  C:\Users\DNIEL~1\AppData\Local\Temp\ccTkDJ5o.s 			page 13


 665              	.LLST15:
 666 018b 00000000 		.4byte	.LFB62
 667 018f 02000000 		.4byte	.LCFI4
 668 0193 0200     		.2byte	0x2
 669 0195 7D       		.byte	0x7d
 670 0196 00       		.sleb128 0
 671 0197 02000000 		.4byte	.LCFI4
 672 019b 2E000000 		.4byte	.LFE62
 673 019f 0200     		.2byte	0x2
 674 01a1 7D       		.byte	0x7d
 675 01a2 08       		.sleb128 8
 676 01a3 00000000 		.4byte	0x0
 677 01a7 00000000 		.4byte	0x0
 678              	.LLST16:
 679 01ab 00000000 		.4byte	.LVL11
 680 01af 11000000 		.4byte	.LVL12-1
 681 01b3 0100     		.2byte	0x1
 682 01b5 50       		.byte	0x50
 683 01b6 11000000 		.4byte	.LVL12-1
 684 01ba 2E000000 		.4byte	.LFE62
 685 01be 0100     		.2byte	0x1
 686 01c0 54       		.byte	0x54
 687 01c1 00000000 		.4byte	0x0
 688 01c5 00000000 		.4byte	0x0
 689              	.LLST17:
 690 01c9 1E000000 		.4byte	.LVL13
 691 01cd 27000000 		.4byte	.LVL14-1
 692 01d1 0200     		.2byte	0x2
 693 01d3 74       		.byte	0x74
 694 01d4 14       		.sleb128 20
 695 01d5 00000000 		.4byte	0x0
 696 01d9 00000000 		.4byte	0x0
 697              	.LLST18:
 698 01dd 00000000 		.4byte	.LFB63
 699 01e1 04000000 		.4byte	.LCFI5
 700 01e5 0200     		.2byte	0x2
 701 01e7 7D       		.byte	0x7d
 702 01e8 00       		.sleb128 0
 703 01e9 04000000 		.4byte	.LCFI5
 704 01ed 2E000000 		.4byte	.LFE63
 705 01f1 0200     		.2byte	0x2
 706 01f3 7D       		.byte	0x7d
 707 01f4 08       		.sleb128 8
 708 01f5 00000000 		.4byte	0x0
 709 01f9 00000000 		.4byte	0x0
 710              	.LLST19:
 711 01fd 00000000 		.4byte	.LVL15
 712 0201 0D000000 		.4byte	.LVL16-1
 713 0205 0100     		.2byte	0x1
 714 0207 50       		.byte	0x50
 715 0208 0D000000 		.4byte	.LVL16-1
 716 020c 2E000000 		.4byte	.LFE63
 717 0210 0100     		.2byte	0x1
 718 0212 54       		.byte	0x54
 719 0213 00000000 		.4byte	0x0
 720 0217 00000000 		.4byte	0x0
 721              	.LLST20:
ARM GAS  C:\Users\DNIEL~1\AppData\Local\Temp\ccTkDJ5o.s 			page 14


 722 021b 1A000000 		.4byte	.LVL17
 723 021f 2B000000 		.4byte	.LVL18-1
 724 0223 0200     		.2byte	0x2
 725 0225 74       		.byte	0x74
 726 0226 14       		.sleb128 20
 727 0227 00000000 		.4byte	0x0
 728 022b 00000000 		.4byte	0x0
 729              	.LLST21:
 730 022f 00000000 		.4byte	.LFB64
 731 0233 02000000 		.4byte	.LCFI6
 732 0237 0200     		.2byte	0x2
 733 0239 7D       		.byte	0x7d
 734 023a 00       		.sleb128 0
 735 023b 02000000 		.4byte	.LCFI6
 736 023f 34000000 		.4byte	.LFE64
 737 0243 0200     		.2byte	0x2
 738 0245 7D       		.byte	0x7d
 739 0246 10       		.sleb128 16
 740 0247 00000000 		.4byte	0x0
 741 024b 00000000 		.4byte	0x0
 742              	.LLST22:
 743 024f 00000000 		.4byte	.LVL19
 744 0253 19000000 		.4byte	.LVL22-1
 745 0257 0100     		.2byte	0x1
 746 0259 50       		.byte	0x50
 747 025a 00000000 		.4byte	0x0
 748 025e 00000000 		.4byte	0x0
 749              	.LLST23:
 750 0262 00000000 		.4byte	.LVL19
 751 0266 19000000 		.4byte	.LVL22-1
 752 026a 0100     		.2byte	0x1
 753 026c 51       		.byte	0x51
 754 026d 00000000 		.4byte	0x0
 755 0271 00000000 		.4byte	0x0
 756              	.LLST24:
 757 0275 00000000 		.4byte	.LVL19
 758 0279 10000000 		.4byte	.LVL21
 759 027d 0100     		.2byte	0x1
 760 027f 52       		.byte	0x52
 761 0280 10000000 		.4byte	.LVL21
 762 0284 19000000 		.4byte	.LVL22-1
 763 0288 0200     		.2byte	0x2
 764 028a 70       		.byte	0x70
 765 028b 08       		.sleb128 8
 766 028c 00000000 		.4byte	0x0
 767 0290 00000000 		.4byte	0x0
 768              	.LLST25:
 769 0294 00000000 		.4byte	.LVL19
 770 0298 0A000000 		.4byte	.LVL20
 771 029c 0100     		.2byte	0x1
 772 029e 53       		.byte	0x53
 773 029f 0A000000 		.4byte	.LVL20
 774 02a3 34000000 		.4byte	.LFE64
 775 02a7 0100     		.2byte	0x1
 776 02a9 55       		.byte	0x55
 777 02aa 00000000 		.4byte	0x0
 778 02ae 00000000 		.4byte	0x0
ARM GAS  C:\Users\DNIEL~1\AppData\Local\Temp\ccTkDJ5o.s 			page 15


 779              	.LLST26:
 780 02b2 0A000000 		.4byte	.LVL20
 781 02b6 10000000 		.4byte	.LVL21
 782 02ba 0100     		.2byte	0x1
 783 02bc 52       		.byte	0x52
 784 02bd 10000000 		.4byte	.LVL21
 785 02c1 19000000 		.4byte	.LVL22-1
 786 02c5 0200     		.2byte	0x2
 787 02c7 70       		.byte	0x70
 788 02c8 08       		.sleb128 8
 789 02c9 00000000 		.4byte	0x0
 790 02cd 00000000 		.4byte	0x0
 791              	.LLST27:
 792 02d1 0A000000 		.4byte	.LVL20
 793 02d5 19000000 		.4byte	.LVL22-1
 794 02d9 0100     		.2byte	0x1
 795 02db 51       		.byte	0x51
 796 02dc 00000000 		.4byte	0x0
 797 02e0 00000000 		.4byte	0x0
 798              	.LLST28:
 799 02e4 0A000000 		.4byte	.LVL20
 800 02e8 19000000 		.4byte	.LVL22-1
 801 02ec 0100     		.2byte	0x1
 802 02ee 50       		.byte	0x50
 803 02ef 19000000 		.4byte	.LVL22-1
 804 02f3 34000000 		.4byte	.LFE64
 805 02f7 0100     		.2byte	0x1
 806 02f9 54       		.byte	0x54
 807 02fa 00000000 		.4byte	0x0
 808 02fe 00000000 		.4byte	0x0
 809              	.LLST29:
 810 0302 00000000 		.4byte	.LVL24
 811 0306 02000000 		.4byte	.LVL25
 812 030a 0100     		.2byte	0x1
 813 030c 50       		.byte	0x50
 814 030d 02000000 		.4byte	.LVL25
 815 0311 06000000 		.4byte	.LFE65
 816 0315 0300     		.2byte	0x3
 817 0317 70       		.byte	0x70
 818 0318 68       		.sleb128 -24
 819 0319 9F       		.byte	0x9f
 820 031a 00000000 		.4byte	0x0
 821 031e 00000000 		.4byte	0x0
 822              		.file 2 "c:\\program files (x86)\\codesourcery\\sourcery g++ lite\\bin\\../lib/gcc/arm-none-eabi/4
 823              		.file 3 "c:\\program files (x86)\\codesourcery\\sourcery g++ lite\\bin\\../lib/gcc/arm-none-eabi/4
 824              		.file 4 "../../../ChibiOS/os/ports/GCC/ARMCMx/chtypes.h"
 825              		.file 5 "../../../ChibiOS/os/kernel/include/chlists.h"
 826              		.file 6 "../../../ChibiOS/os/kernel/include/chthreads.h"
 827              		.file 7 "../../../ChibiOS/os/ports/GCC/ARMCMx/chcore_v7m.h"
 828              		.file 8 "../../../ChibiOS/os/kernel/include/chschd.h"
 829              		.file 9 "../../../ChibiOS/os/kernel/include/chmtx.h"
 830              		.file 10 "../../../ChibiOS/os/hal/platforms/STM32F1xx/stm32f10x.h"
 831              		.file 11 "../../../ChibiOS/os/hal/platforms/STM32F1xx/stm32_dma.h"
 832              		.file 12 "../../../ChibiOS/os/hal/include/adc.h"
 833              		.file 13 "../../../ChibiOS/os/hal/platforms/STM32F1xx/adc_lld.h"
 834              		.file 14 "../../../ChibiOS/os/ports/common/ARMCMx/CMSIS/include/core_cm3.h"
 835              		.section	.debug_info
ARM GAS  C:\Users\DNIEL~1\AppData\Local\Temp\ccTkDJ5o.s 			page 16


 836 0000 F60B0000 		.4byte	0xbf6
 837 0004 0200     		.2byte	0x2
 838 0006 00000000 		.4byte	.Ldebug_abbrev0
 839 000a 04       		.byte	0x4
 840 000b 01       		.uleb128 0x1
 841 000c 6B020000 		.4byte	.LASF136
 842 0010 01       		.byte	0x1
 843 0011 99010000 		.4byte	.LASF137
 844 0015 29000000 		.4byte	.LASF138
 845 0019 00000000 		.4byte	0x0
 846 001d 00000000 		.4byte	0x0
 847 0021 18000000 		.4byte	.Ldebug_ranges0+0x18
 848 0025 00000000 		.4byte	.Ldebug_line0
 849 0029 02       		.uleb128 0x2
 850 002a 04       		.byte	0x4
 851 002b 05       		.byte	0x5
 852 002c 696E7400 		.ascii	"int\000"
 853 0030 03       		.uleb128 0x3
 854 0031 00000000 		.4byte	.LASF2
 855 0035 02       		.byte	0x2
 856 0036 D3       		.byte	0xd3
 857 0037 3B000000 		.4byte	0x3b
 858 003b 04       		.uleb128 0x4
 859 003c 04       		.byte	0x4
 860 003d 07       		.byte	0x7
 861 003e E8010000 		.4byte	.LASF0
 862 0042 04       		.uleb128 0x4
 863 0043 01       		.byte	0x1
 864 0044 06       		.byte	0x6
 865 0045 B6000000 		.4byte	.LASF1
 866 0049 03       		.uleb128 0x3
 867 004a B7040000 		.4byte	.LASF3
 868 004e 03       		.byte	0x3
 869 004f 2A       		.byte	0x2a
 870 0050 54000000 		.4byte	0x54
 871 0054 04       		.uleb128 0x4
 872 0055 01       		.byte	0x1
 873 0056 08       		.byte	0x8
 874 0057 88030000 		.4byte	.LASF4
 875 005b 04       		.uleb128 0x4
 876 005c 02       		.byte	0x2
 877 005d 05       		.byte	0x5
 878 005e A0030000 		.4byte	.LASF5
 879 0062 03       		.uleb128 0x3
 880 0063 39010000 		.4byte	.LASF6
 881 0067 03       		.byte	0x3
 882 0068 36       		.byte	0x36
 883 0069 6D000000 		.4byte	0x6d
 884 006d 04       		.uleb128 0x4
 885 006e 02       		.byte	0x2
 886 006f 07       		.byte	0x7
 887 0070 38020000 		.4byte	.LASF7
 888 0074 03       		.uleb128 0x3
 889 0075 80030000 		.4byte	.LASF8
 890 0079 03       		.byte	0x3
 891 007a 4F       		.byte	0x4f
 892 007b 7F000000 		.4byte	0x7f
ARM GAS  C:\Users\DNIEL~1\AppData\Local\Temp\ccTkDJ5o.s 			page 17


 893 007f 04       		.uleb128 0x4
 894 0080 04       		.byte	0x4
 895 0081 05       		.byte	0x5
 896 0082 FA000000 		.4byte	.LASF9
 897 0086 03       		.uleb128 0x3
 898 0087 00040000 		.4byte	.LASF10
 899 008b 03       		.byte	0x3
 900 008c 50       		.byte	0x50
 901 008d 91000000 		.4byte	0x91
 902 0091 04       		.uleb128 0x4
 903 0092 04       		.byte	0x4
 904 0093 07       		.byte	0x7
 905 0094 1D040000 		.4byte	.LASF11
 906 0098 04       		.uleb128 0x4
 907 0099 08       		.byte	0x8
 908 009a 05       		.byte	0x5
 909 009b A8000000 		.4byte	.LASF12
 910 009f 04       		.uleb128 0x4
 911 00a0 08       		.byte	0x8
 912 00a1 07       		.byte	0x7
 913 00a2 68000000 		.4byte	.LASF13
 914 00a6 03       		.uleb128 0x3
 915 00a7 CA000000 		.4byte	.LASF14
 916 00ab 04       		.byte	0x4
 917 00ac 2B       		.byte	0x2b
 918 00ad B1000000 		.4byte	0xb1
 919 00b1 04       		.uleb128 0x4
 920 00b2 01       		.byte	0x1
 921 00b3 02       		.byte	0x2
 922 00b4 7A030000 		.4byte	.LASF15
 923 00b8 03       		.uleb128 0x3
 924 00b9 77020000 		.4byte	.LASF16
 925 00bd 04       		.byte	0x4
 926 00be 2C       		.byte	0x2c
 927 00bf 49000000 		.4byte	0x49
 928 00c3 03       		.uleb128 0x3
 929 00c4 29010000 		.4byte	.LASF17
 930 00c8 04       		.byte	0x4
 931 00c9 2D       		.byte	0x2d
 932 00ca 49000000 		.4byte	0x49
 933 00ce 03       		.uleb128 0x3
 934 00cf 4A030000 		.4byte	.LASF18
 935 00d3 04       		.byte	0x4
 936 00d4 2E       		.byte	0x2e
 937 00d5 49000000 		.4byte	0x49
 938 00d9 03       		.uleb128 0x3
 939 00da DE010000 		.4byte	.LASF19
 940 00de 04       		.byte	0x4
 941 00df 2F       		.byte	0x2f
 942 00e0 49000000 		.4byte	0x49
 943 00e4 03       		.uleb128 0x3
 944 00e5 6C030000 		.4byte	.LASF20
 945 00e9 04       		.byte	0x4
 946 00ea 30       		.byte	0x30
 947 00eb 86000000 		.4byte	0x86
 948 00ef 03       		.uleb128 0x3
 949 00f0 5B020000 		.4byte	.LASF21
ARM GAS  C:\Users\DNIEL~1\AppData\Local\Temp\ccTkDJ5o.s 			page 18


 950 00f4 04       		.byte	0x4
 951 00f5 31       		.byte	0x31
 952 00f6 74000000 		.4byte	0x74
 953 00fa 03       		.uleb128 0x3
 954 00fb 98020000 		.4byte	.LASF22
 955 00ff 04       		.byte	0x4
 956 0100 33       		.byte	0x33
 957 0101 86000000 		.4byte	0x86
 958 0105 03       		.uleb128 0x3
 959 0106 4A040000 		.4byte	.LASF23
 960 010a 04       		.byte	0x4
 961 010b 35       		.byte	0x35
 962 010c 86000000 		.4byte	0x86
 963 0110 03       		.uleb128 0x3
 964 0111 C1010000 		.4byte	.LASF24
 965 0115 05       		.byte	0x5
 966 0116 2A       		.byte	0x2a
 967 0117 1B010000 		.4byte	0x11b
 968 011b 05       		.uleb128 0x5
 969 011c C1010000 		.4byte	.LASF24
 970 0120 48       		.byte	0x48
 971 0121 06       		.byte	0x6
 972 0122 5E       		.byte	0x5e
 973 0123 40020000 		.4byte	0x240
 974 0127 06       		.uleb128 0x6
 975 0128 D3030000 		.4byte	.LASF25
 976 012c 06       		.byte	0x6
 977 012d 5F       		.byte	0x5f
 978 012e 65020000 		.4byte	0x265
 979 0132 02       		.byte	0x2
 980 0133 23       		.byte	0x23
 981 0134 00       		.uleb128 0x0
 982 0135 06       		.uleb128 0x6
 983 0136 52030000 		.4byte	.LASF26
 984 013a 06       		.byte	0x6
 985 013b 61       		.byte	0x61
 986 013c 65020000 		.4byte	0x265
 987 0140 02       		.byte	0x2
 988 0141 23       		.byte	0x23
 989 0142 04       		.uleb128 0x4
 990 0143 06       		.uleb128 0x6
 991 0144 9C000000 		.4byte	.LASF27
 992 0148 06       		.byte	0x6
 993 0149 63       		.byte	0x63
 994 014a E4000000 		.4byte	0xe4
 995 014e 02       		.byte	0x2
 996 014f 23       		.byte	0x23
 997 0150 08       		.uleb128 0x8
 998 0151 06       		.uleb128 0x6
 999 0152 65050000 		.4byte	.LASF28
 1000 0156 06       		.byte	0x6
 1001 0157 64       		.byte	0x64
 1002 0158 33030000 		.4byte	0x333
 1003 015c 02       		.byte	0x2
 1004 015d 23       		.byte	0x23
 1005 015e 0C       		.uleb128 0xc
 1006 015f 06       		.uleb128 0x6
ARM GAS  C:\Users\DNIEL~1\AppData\Local\Temp\ccTkDJ5o.s 			page 19


 1007 0160 55010000 		.4byte	.LASF29
 1008 0164 06       		.byte	0x6
 1009 0165 66       		.byte	0x66
 1010 0166 65020000 		.4byte	0x265
 1011 016a 02       		.byte	0x2
 1012 016b 23       		.byte	0x23
 1013 016c 10       		.uleb128 0x10
 1014 016d 06       		.uleb128 0x6
 1015 016e E7020000 		.4byte	.LASF30
 1016 0172 06       		.byte	0x6
 1017 0173 67       		.byte	0x67
 1018 0174 65020000 		.4byte	0x265
 1019 0178 02       		.byte	0x2
 1020 0179 23       		.byte	0x23
 1021 017a 14       		.uleb128 0x14
 1022 017b 06       		.uleb128 0x6
 1023 017c 0D050000 		.4byte	.LASF31
 1024 0180 06       		.byte	0x6
 1025 0181 6E       		.byte	0x6e
 1026 0182 45040000 		.4byte	0x445
 1027 0186 02       		.byte	0x2
 1028 0187 23       		.byte	0x23
 1029 0188 18       		.uleb128 0x18
 1030 0189 06       		.uleb128 0x6
 1031 018a AA030000 		.4byte	.LASF32
 1032 018e 06       		.byte	0x6
 1033 018f 79       		.byte	0x79
 1034 0190 C3000000 		.4byte	0xc3
 1035 0194 02       		.byte	0x2
 1036 0195 23       		.byte	0x23
 1037 0196 1C       		.uleb128 0x1c
 1038 0197 06       		.uleb128 0x6
 1039 0198 DA030000 		.4byte	.LASF33
 1040 019c 06       		.byte	0x6
 1041 019d 7D       		.byte	0x7d
 1042 019e B8000000 		.4byte	0xb8
 1043 01a2 02       		.byte	0x2
 1044 01a3 23       		.byte	0x23
 1045 01a4 1D       		.uleb128 0x1d
 1046 01a5 06       		.uleb128 0x6
 1047 01a6 94040000 		.4byte	.LASF34
 1048 01aa 06       		.byte	0x6
 1049 01ab 82       		.byte	0x82
 1050 01ac CE000000 		.4byte	0xce
 1051 01b0 02       		.byte	0x2
 1052 01b1 23       		.byte	0x23
 1053 01b2 1E       		.uleb128 0x1e
 1054 01b3 06       		.uleb128 0x6
 1055 01b4 B2030000 		.4byte	.LASF35
 1056 01b8 06       		.byte	0x6
 1057 01b9 88       		.byte	0x88
 1058 01ba D9000000 		.4byte	0xd9
 1059 01be 02       		.byte	0x2
 1060 01bf 23       		.byte	0x23
 1061 01c0 1F       		.uleb128 0x1f
 1062 01c1 06       		.uleb128 0x6
 1063 01c2 42010000 		.4byte	.LASF36
ARM GAS  C:\Users\DNIEL~1\AppData\Local\Temp\ccTkDJ5o.s 			page 20


 1064 01c6 06       		.byte	0x6
 1065 01c7 8F       		.byte	0x8f
 1066 01c8 5B030000 		.4byte	0x35b
 1067 01cc 02       		.byte	0x2
 1068 01cd 23       		.byte	0x23
 1069 01ce 20       		.uleb128 0x20
 1070 01cf 07       		.uleb128 0x7
 1071 01d0 705F7500 		.ascii	"p_u\000"
 1072 01d4 06       		.byte	0x6
 1073 01d5 B4       		.byte	0xb4
 1074 01d6 10040000 		.4byte	0x410
 1075 01da 02       		.byte	0x2
 1076 01db 23       		.byte	0x23
 1077 01dc 24       		.uleb128 0x24
 1078 01dd 06       		.uleb128 0x6
 1079 01de 6B050000 		.4byte	.LASF37
 1080 01e2 06       		.byte	0x6
 1081 01e3 B9       		.byte	0xb9
 1082 01e4 8D020000 		.4byte	0x28d
 1083 01e8 02       		.byte	0x2
 1084 01e9 23       		.byte	0x23
 1085 01ea 28       		.uleb128 0x28
 1086 01eb 06       		.uleb128 0x6
 1087 01ec 08020000 		.4byte	.LASF38
 1088 01f0 06       		.byte	0x6
 1089 01f1 BF       		.byte	0xbf
 1090 01f2 6B020000 		.4byte	0x26b
 1091 01f6 02       		.byte	0x2
 1092 01f7 23       		.byte	0x23
 1093 01f8 2C       		.uleb128 0x2c
 1094 01f9 06       		.uleb128 0x6
 1095 01fa 27050000 		.4byte	.LASF39
 1096 01fe 06       		.byte	0x6
 1097 01ff C3       		.byte	0xc3
 1098 0200 EF000000 		.4byte	0xef
 1099 0204 02       		.byte	0x2
 1100 0205 23       		.byte	0x23
 1101 0206 34       		.uleb128 0x34
 1102 0207 06       		.uleb128 0x6
 1103 0208 F0030000 		.4byte	.LASF40
 1104 020c 06       		.byte	0x6
 1105 020d C9       		.byte	0xc9
 1106 020e FA000000 		.4byte	0xfa
 1107 0212 02       		.byte	0x2
 1108 0213 23       		.byte	0x23
 1109 0214 38       		.uleb128 0x38
 1110 0215 06       		.uleb128 0x6
 1111 0216 96030000 		.4byte	.LASF41
 1112 021a 06       		.byte	0x6
 1113 021b D0       		.byte	0xd0
 1114 021c 57040000 		.4byte	0x457
 1115 0220 02       		.byte	0x2
 1116 0221 23       		.byte	0x23
 1117 0222 3C       		.uleb128 0x3c
 1118 0223 06       		.uleb128 0x6
 1119 0224 54040000 		.4byte	.LASF42
 1120 0228 06       		.byte	0x6
ARM GAS  C:\Users\DNIEL~1\AppData\Local\Temp\ccTkDJ5o.s 			page 21


 1121 0229 D4       		.byte	0xd4
 1122 022a E4000000 		.4byte	0xe4
 1123 022e 02       		.byte	0x2
 1124 022f 23       		.byte	0x23
 1125 0230 40       		.uleb128 0x40
 1126 0231 06       		.uleb128 0x6
 1127 0232 C2000000 		.4byte	.LASF43
 1128 0236 06       		.byte	0x6
 1129 0237 DA       		.byte	0xda
 1130 0238 A3020000 		.4byte	0x2a3
 1131 023c 02       		.byte	0x2
 1132 023d 23       		.byte	0x23
 1133 023e 44       		.uleb128 0x44
 1134 023f 00       		.byte	0x0
 1135 0240 08       		.uleb128 0x8
 1136 0241 08       		.byte	0x8
 1137 0242 05       		.byte	0x5
 1138 0243 61       		.byte	0x61
 1139 0244 65020000 		.4byte	0x265
 1140 0248 06       		.uleb128 0x6
 1141 0249 D3030000 		.4byte	.LASF25
 1142 024d 05       		.byte	0x5
 1143 024e 62       		.byte	0x62
 1144 024f 65020000 		.4byte	0x265
 1145 0253 02       		.byte	0x2
 1146 0254 23       		.byte	0x23
 1147 0255 00       		.uleb128 0x0
 1148 0256 06       		.uleb128 0x6
 1149 0257 52030000 		.4byte	.LASF26
 1150 025b 05       		.byte	0x5
 1151 025c 64       		.byte	0x64
 1152 025d 65020000 		.4byte	0x265
 1153 0261 02       		.byte	0x2
 1154 0262 23       		.byte	0x23
 1155 0263 04       		.uleb128 0x4
 1156 0264 00       		.byte	0x0
 1157 0265 09       		.uleb128 0x9
 1158 0266 04       		.byte	0x4
 1159 0267 10010000 		.4byte	0x110
 1160 026b 03       		.uleb128 0x3
 1161 026c F5020000 		.4byte	.LASF44
 1162 0270 05       		.byte	0x5
 1163 0271 66       		.byte	0x66
 1164 0272 40020000 		.4byte	0x240
 1165 0276 08       		.uleb128 0x8
 1166 0277 04       		.byte	0x4
 1167 0278 05       		.byte	0x5
 1168 0279 6B       		.byte	0x6b
 1169 027a 8D020000 		.4byte	0x28d
 1170 027e 06       		.uleb128 0x6
 1171 027f D3030000 		.4byte	.LASF25
 1172 0283 05       		.byte	0x5
 1173 0284 6D       		.byte	0x6d
 1174 0285 65020000 		.4byte	0x265
 1175 0289 02       		.byte	0x2
 1176 028a 23       		.byte	0x23
 1177 028b 00       		.uleb128 0x0
ARM GAS  C:\Users\DNIEL~1\AppData\Local\Temp\ccTkDJ5o.s 			page 22


 1178 028c 00       		.byte	0x0
 1179 028d 03       		.uleb128 0x3
 1180 028e 8C020000 		.4byte	.LASF45
 1181 0292 05       		.byte	0x5
 1182 0293 70       		.byte	0x70
 1183 0294 76020000 		.4byte	0x276
 1184 0298 03       		.uleb128 0x3
 1185 0299 90010000 		.4byte	.LASF46
 1186 029d 07       		.byte	0x7
 1187 029e E5       		.byte	0xe5
 1188 029f A3020000 		.4byte	0x2a3
 1189 02a3 0A       		.uleb128 0xa
 1190 02a4 04       		.byte	0x4
 1191 02a5 0B       		.uleb128 0xb
 1192 02a6 7A040000 		.4byte	.LASF47
 1193 02aa 24       		.byte	0x24
 1194 02ab 07       		.byte	0x7
 1195 02ac 0C01     		.2byte	0x10c
 1196 02ae 33030000 		.4byte	0x333
 1197 02b2 0C       		.uleb128 0xc
 1198 02b3 723400   		.ascii	"r4\000"
 1199 02b6 07       		.byte	0x7
 1200 02b7 1F01     		.2byte	0x11f
 1201 02b9 98020000 		.4byte	0x298
 1202 02bd 02       		.byte	0x2
 1203 02be 23       		.byte	0x23
 1204 02bf 00       		.uleb128 0x0
 1205 02c0 0C       		.uleb128 0xc
 1206 02c1 723500   		.ascii	"r5\000"
 1207 02c4 07       		.byte	0x7
 1208 02c5 2001     		.2byte	0x120
 1209 02c7 98020000 		.4byte	0x298
 1210 02cb 02       		.byte	0x2
 1211 02cc 23       		.byte	0x23
 1212 02cd 04       		.uleb128 0x4
 1213 02ce 0C       		.uleb128 0xc
 1214 02cf 723600   		.ascii	"r6\000"
 1215 02d2 07       		.byte	0x7
 1216 02d3 2101     		.2byte	0x121
 1217 02d5 98020000 		.4byte	0x298
 1218 02d9 02       		.byte	0x2
 1219 02da 23       		.byte	0x23
 1220 02db 08       		.uleb128 0x8
 1221 02dc 0C       		.uleb128 0xc
 1222 02dd 723700   		.ascii	"r7\000"
 1223 02e0 07       		.byte	0x7
 1224 02e1 2201     		.2byte	0x122
 1225 02e3 98020000 		.4byte	0x298
 1226 02e7 02       		.byte	0x2
 1227 02e8 23       		.byte	0x23
 1228 02e9 0C       		.uleb128 0xc
 1229 02ea 0C       		.uleb128 0xc
 1230 02eb 723800   		.ascii	"r8\000"
 1231 02ee 07       		.byte	0x7
 1232 02ef 2301     		.2byte	0x123
 1233 02f1 98020000 		.4byte	0x298
 1234 02f5 02       		.byte	0x2
ARM GAS  C:\Users\DNIEL~1\AppData\Local\Temp\ccTkDJ5o.s 			page 23


 1235 02f6 23       		.byte	0x23
 1236 02f7 10       		.uleb128 0x10
 1237 02f8 0C       		.uleb128 0xc
 1238 02f9 723900   		.ascii	"r9\000"
 1239 02fc 07       		.byte	0x7
 1240 02fd 2401     		.2byte	0x124
 1241 02ff 98020000 		.4byte	0x298
 1242 0303 02       		.byte	0x2
 1243 0304 23       		.byte	0x23
 1244 0305 14       		.uleb128 0x14
 1245 0306 0C       		.uleb128 0xc
 1246 0307 72313000 		.ascii	"r10\000"
 1247 030b 07       		.byte	0x7
 1248 030c 2501     		.2byte	0x125
 1249 030e 98020000 		.4byte	0x298
 1250 0312 02       		.byte	0x2
 1251 0313 23       		.byte	0x23
 1252 0314 18       		.uleb128 0x18
 1253 0315 0C       		.uleb128 0xc
 1254 0316 72313100 		.ascii	"r11\000"
 1255 031a 07       		.byte	0x7
 1256 031b 2601     		.2byte	0x126
 1257 031d 98020000 		.4byte	0x298
 1258 0321 02       		.byte	0x2
 1259 0322 23       		.byte	0x23
 1260 0323 1C       		.uleb128 0x1c
 1261 0324 0C       		.uleb128 0xc
 1262 0325 6C7200   		.ascii	"lr\000"
 1263 0328 07       		.byte	0x7
 1264 0329 2701     		.2byte	0x127
 1265 032b 98020000 		.4byte	0x298
 1266 032f 02       		.byte	0x2
 1267 0330 23       		.byte	0x23
 1268 0331 20       		.uleb128 0x20
 1269 0332 00       		.byte	0x0
 1270 0333 0B       		.uleb128 0xb
 1271 0334 5F040000 		.4byte	.LASF48
 1272 0338 04       		.byte	0x4
 1273 0339 07       		.byte	0x7
 1274 033a 3101     		.2byte	0x131
 1275 033c 50030000 		.4byte	0x350
 1276 0340 0C       		.uleb128 0xc
 1277 0341 72313300 		.ascii	"r13\000"
 1278 0345 07       		.byte	0x7
 1279 0346 3201     		.2byte	0x132
 1280 0348 50030000 		.4byte	0x350
 1281 034c 02       		.byte	0x2
 1282 034d 23       		.byte	0x23
 1283 034e 00       		.uleb128 0x0
 1284 034f 00       		.byte	0x0
 1285 0350 09       		.uleb128 0x9
 1286 0351 04       		.byte	0x4
 1287 0352 A5020000 		.4byte	0x2a5
 1288 0356 0D       		.uleb128 0xd
 1289 0357 86000000 		.4byte	0x86
 1290 035b 0D       		.uleb128 0xd
 1291 035c 05010000 		.4byte	0x105
ARM GAS  C:\Users\DNIEL~1\AppData\Local\Temp\ccTkDJ5o.s 			page 24


 1292 0360 08       		.uleb128 0x8
 1293 0361 1C       		.byte	0x1c
 1294 0362 08       		.byte	0x8
 1295 0363 5E       		.byte	0x5e
 1296 0364 BD030000 		.4byte	0x3bd
 1297 0368 06       		.uleb128 0x6
 1298 0369 D6020000 		.4byte	.LASF49
 1299 036d 08       		.byte	0x8
 1300 036e 5F       		.byte	0x5f
 1301 036f 6B020000 		.4byte	0x26b
 1302 0373 02       		.byte	0x2
 1303 0374 23       		.byte	0x23
 1304 0375 00       		.uleb128 0x0
 1305 0376 06       		.uleb128 0x6
 1306 0377 C5030000 		.4byte	.LASF50
 1307 037b 08       		.byte	0x8
 1308 037c 60       		.byte	0x60
 1309 037d E4000000 		.4byte	0xe4
 1310 0381 02       		.byte	0x2
 1311 0382 23       		.byte	0x23
 1312 0383 08       		.uleb128 0x8
 1313 0384 06       		.uleb128 0x6
 1314 0385 EF020000 		.4byte	.LASF51
 1315 0389 08       		.byte	0x8
 1316 038a 62       		.byte	0x62
 1317 038b 33030000 		.4byte	0x333
 1318 038f 02       		.byte	0x2
 1319 0390 23       		.byte	0x23
 1320 0391 0C       		.uleb128 0xc
 1321 0392 06       		.uleb128 0x6
 1322 0393 7E010000 		.4byte	.LASF52
 1323 0397 08       		.byte	0x8
 1324 0398 65       		.byte	0x65
 1325 0399 65020000 		.4byte	0x265
 1326 039d 02       		.byte	0x2
 1327 039e 23       		.byte	0x23
 1328 039f 10       		.uleb128 0x10
 1329 03a0 06       		.uleb128 0x6
 1330 03a1 1F030000 		.4byte	.LASF53
 1331 03a5 08       		.byte	0x8
 1332 03a6 66       		.byte	0x66
 1333 03a7 65020000 		.4byte	0x265
 1334 03ab 02       		.byte	0x2
 1335 03ac 23       		.byte	0x23
 1336 03ad 14       		.uleb128 0x14
 1337 03ae 06       		.uleb128 0x6
 1338 03af 15030000 		.4byte	.LASF54
 1339 03b3 08       		.byte	0x8
 1340 03b4 69       		.byte	0x69
 1341 03b5 65020000 		.4byte	0x265
 1342 03b9 02       		.byte	0x2
 1343 03ba 23       		.byte	0x23
 1344 03bb 18       		.uleb128 0x18
 1345 03bc 00       		.byte	0x0
 1346 03bd 03       		.uleb128 0x3
 1347 03be 9B040000 		.4byte	.LASF55
 1348 03c2 08       		.byte	0x8
ARM GAS  C:\Users\DNIEL~1\AppData\Local\Temp\ccTkDJ5o.s 			page 25


 1349 03c3 6B       		.byte	0x6b
 1350 03c4 60030000 		.4byte	0x360
 1351 03c8 05       		.uleb128 0x5
 1352 03c9 D0020000 		.4byte	.LASF56
 1353 03cd 10       		.byte	0x10
 1354 03ce 09       		.byte	0x9
 1355 03cf 2C       		.byte	0x2c
 1356 03d0 FF030000 		.4byte	0x3ff
 1357 03d4 06       		.uleb128 0x6
 1358 03d5 D1000000 		.4byte	.LASF57
 1359 03d9 09       		.byte	0x9
 1360 03da 2D       		.byte	0x2d
 1361 03db 6B020000 		.4byte	0x26b
 1362 03df 02       		.byte	0x2
 1363 03e0 23       		.byte	0x23
 1364 03e1 00       		.uleb128 0x0
 1365 03e2 06       		.uleb128 0x6
 1366 03e3 4F050000 		.4byte	.LASF58
 1367 03e7 09       		.byte	0x9
 1368 03e8 2F       		.byte	0x2f
 1369 03e9 65020000 		.4byte	0x265
 1370 03ed 02       		.byte	0x2
 1371 03ee 23       		.byte	0x23
 1372 03ef 08       		.uleb128 0x8
 1373 03f0 06       		.uleb128 0x6
 1374 03f1 0E030000 		.4byte	.LASF59
 1375 03f5 09       		.byte	0x9
 1376 03f6 31       		.byte	0x31
 1377 03f7 FF030000 		.4byte	0x3ff
 1378 03fb 02       		.byte	0x2
 1379 03fc 23       		.byte	0x23
 1380 03fd 0C       		.uleb128 0xc
 1381 03fe 00       		.byte	0x0
 1382 03ff 09       		.uleb128 0x9
 1383 0400 04       		.byte	0x4
 1384 0401 C8030000 		.4byte	0x3c8
 1385 0405 03       		.uleb128 0x3
 1386 0406 D0020000 		.4byte	.LASF56
 1387 040a 09       		.byte	0x9
 1388 040b 33       		.byte	0x33
 1389 040c C8030000 		.4byte	0x3c8
 1390 0410 0E       		.uleb128 0xe
 1391 0411 04       		.byte	0x4
 1392 0412 06       		.byte	0x6
 1393 0413 96       		.byte	0x96
 1394 0414 45040000 		.4byte	0x445
 1395 0418 0F       		.uleb128 0xf
 1396 0419 07000000 		.4byte	.LASF60
 1397 041d 06       		.byte	0x6
 1398 041e 9D       		.byte	0x9d
 1399 041f EF000000 		.4byte	0xef
 1400 0423 0F       		.uleb128 0xf
 1401 0424 7F000000 		.4byte	.LASF61
 1402 0428 06       		.byte	0x6
 1403 0429 A4       		.byte	0xa4
 1404 042a EF000000 		.4byte	0xef
 1405 042e 0F       		.uleb128 0xf
ARM GAS  C:\Users\DNIEL~1\AppData\Local\Temp\ccTkDJ5o.s 			page 26


 1406 042f F9040000 		.4byte	.LASF62
 1407 0433 06       		.byte	0x6
 1408 0434 AB       		.byte	0xab
 1409 0435 A3020000 		.4byte	0x2a3
 1410 0439 0F       		.uleb128 0xf
 1411 043a CC030000 		.4byte	.LASF63
 1412 043e 06       		.byte	0x6
 1413 043f B2       		.byte	0xb2
 1414 0440 FA000000 		.4byte	0xfa
 1415 0444 00       		.byte	0x0
 1416 0445 09       		.uleb128 0x9
 1417 0446 04       		.byte	0x4
 1418 0447 4B040000 		.4byte	0x44b
 1419 044b 10       		.uleb128 0x10
 1420 044c 50040000 		.4byte	0x450
 1421 0450 04       		.uleb128 0x4
 1422 0451 01       		.byte	0x1
 1423 0452 08       		.byte	0x8
 1424 0453 2F040000 		.4byte	.LASF64
 1425 0457 09       		.uleb128 0x9
 1426 0458 04       		.byte	0x4
 1427 0459 05040000 		.4byte	0x405
 1428 045d 0D       		.uleb128 0xd
 1429 045e 74000000 		.4byte	0x74
 1430 0462 11       		.uleb128 0x11
 1431 0463 50       		.byte	0x50
 1432 0464 0A       		.byte	0xa
 1433 0465 2D02     		.2byte	0x22d
 1434 0467 96050000 		.4byte	0x596
 1435 046b 0C       		.uleb128 0xc
 1436 046c 535200   		.ascii	"SR\000"
 1437 046f 0A       		.byte	0xa
 1438 0470 2F02     		.2byte	0x22f
 1439 0472 56030000 		.4byte	0x356
 1440 0476 02       		.byte	0x2
 1441 0477 23       		.byte	0x23
 1442 0478 00       		.uleb128 0x0
 1443 0479 0C       		.uleb128 0xc
 1444 047a 43523100 		.ascii	"CR1\000"
 1445 047e 0A       		.byte	0xa
 1446 047f 3002     		.2byte	0x230
 1447 0481 56030000 		.4byte	0x356
 1448 0485 02       		.byte	0x2
 1449 0486 23       		.byte	0x23
 1450 0487 04       		.uleb128 0x4
 1451 0488 0C       		.uleb128 0xc
 1452 0489 43523200 		.ascii	"CR2\000"
 1453 048d 0A       		.byte	0xa
 1454 048e 3102     		.2byte	0x231
 1455 0490 56030000 		.4byte	0x356
 1456 0494 02       		.byte	0x2
 1457 0495 23       		.byte	0x23
 1458 0496 08       		.uleb128 0x8
 1459 0497 12       		.uleb128 0x12
 1460 0498 02030000 		.4byte	.LASF65
 1461 049c 0A       		.byte	0xa
 1462 049d 3202     		.2byte	0x232
ARM GAS  C:\Users\DNIEL~1\AppData\Local\Temp\ccTkDJ5o.s 			page 27


 1463 049f 56030000 		.4byte	0x356
 1464 04a3 02       		.byte	0x2
 1465 04a4 23       		.byte	0x23
 1466 04a5 0C       		.uleb128 0xc
 1467 04a6 12       		.uleb128 0x12
 1468 04a7 08030000 		.4byte	.LASF66
 1469 04ab 0A       		.byte	0xa
 1470 04ac 3302     		.2byte	0x233
 1471 04ae 56030000 		.4byte	0x356
 1472 04b2 02       		.byte	0x2
 1473 04b3 23       		.byte	0x23
 1474 04b4 10       		.uleb128 0x10
 1475 04b5 12       		.uleb128 0x12
 1476 04b6 B6020000 		.4byte	.LASF67
 1477 04ba 0A       		.byte	0xa
 1478 04bb 3402     		.2byte	0x234
 1479 04bd 56030000 		.4byte	0x356
 1480 04c1 02       		.byte	0x2
 1481 04c2 23       		.byte	0x23
 1482 04c3 14       		.uleb128 0x14
 1483 04c4 12       		.uleb128 0x12
 1484 04c5 BC020000 		.4byte	.LASF68
 1485 04c9 0A       		.byte	0xa
 1486 04ca 3502     		.2byte	0x235
 1487 04cc 56030000 		.4byte	0x356
 1488 04d0 02       		.byte	0x2
 1489 04d1 23       		.byte	0x23
 1490 04d2 18       		.uleb128 0x18
 1491 04d3 12       		.uleb128 0x12
 1492 04d4 C2020000 		.4byte	.LASF69
 1493 04d8 0A       		.byte	0xa
 1494 04d9 3602     		.2byte	0x236
 1495 04db 56030000 		.4byte	0x356
 1496 04df 02       		.byte	0x2
 1497 04e0 23       		.byte	0x23
 1498 04e1 1C       		.uleb128 0x1c
 1499 04e2 12       		.uleb128 0x12
 1500 04e3 E2030000 		.4byte	.LASF70
 1501 04e7 0A       		.byte	0xa
 1502 04e8 3702     		.2byte	0x237
 1503 04ea 56030000 		.4byte	0x356
 1504 04ee 02       		.byte	0x2
 1505 04ef 23       		.byte	0x23
 1506 04f0 20       		.uleb128 0x20
 1507 04f1 0C       		.uleb128 0xc
 1508 04f2 48545200 		.ascii	"HTR\000"
 1509 04f6 0A       		.byte	0xa
 1510 04f7 3802     		.2byte	0x238
 1511 04f9 56030000 		.4byte	0x356
 1512 04fd 02       		.byte	0x2
 1513 04fe 23       		.byte	0x23
 1514 04ff 24       		.uleb128 0x24
 1515 0500 0C       		.uleb128 0xc
 1516 0501 4C545200 		.ascii	"LTR\000"
 1517 0505 0A       		.byte	0xa
 1518 0506 3902     		.2byte	0x239
 1519 0508 56030000 		.4byte	0x356
ARM GAS  C:\Users\DNIEL~1\AppData\Local\Temp\ccTkDJ5o.s 			page 28


 1520 050c 02       		.byte	0x2
 1521 050d 23       		.byte	0x23
 1522 050e 28       		.uleb128 0x28
 1523 050f 12       		.uleb128 0x12
 1524 0510 27030000 		.4byte	.LASF71
 1525 0514 0A       		.byte	0xa
 1526 0515 3A02     		.2byte	0x23a
 1527 0517 56030000 		.4byte	0x356
 1528 051b 02       		.byte	0x2
 1529 051c 23       		.byte	0x23
 1530 051d 2C       		.uleb128 0x2c
 1531 051e 12       		.uleb128 0x12
 1532 051f 2C030000 		.4byte	.LASF72
 1533 0523 0A       		.byte	0xa
 1534 0524 3B02     		.2byte	0x23b
 1535 0526 56030000 		.4byte	0x356
 1536 052a 02       		.byte	0x2
 1537 052b 23       		.byte	0x23
 1538 052c 30       		.uleb128 0x30
 1539 052d 12       		.uleb128 0x12
 1540 052e 31030000 		.4byte	.LASF73
 1541 0532 0A       		.byte	0xa
 1542 0533 3C02     		.2byte	0x23c
 1543 0535 56030000 		.4byte	0x356
 1544 0539 02       		.byte	0x2
 1545 053a 23       		.byte	0x23
 1546 053b 34       		.uleb128 0x34
 1547 053c 12       		.uleb128 0x12
 1548 053d A3000000 		.4byte	.LASF74
 1549 0541 0A       		.byte	0xa
 1550 0542 3D02     		.2byte	0x23d
 1551 0544 56030000 		.4byte	0x356
 1552 0548 02       		.byte	0x2
 1553 0549 23       		.byte	0x23
 1554 054a 38       		.uleb128 0x38
 1555 054b 12       		.uleb128 0x12
 1556 054c E5040000 		.4byte	.LASF75
 1557 0550 0A       		.byte	0xa
 1558 0551 3E02     		.2byte	0x23e
 1559 0553 56030000 		.4byte	0x356
 1560 0557 02       		.byte	0x2
 1561 0558 23       		.byte	0x23
 1562 0559 3C       		.uleb128 0x3c
 1563 055a 12       		.uleb128 0x12
 1564 055b EA040000 		.4byte	.LASF76
 1565 055f 0A       		.byte	0xa
 1566 0560 3F02     		.2byte	0x23f
 1567 0562 56030000 		.4byte	0x356
 1568 0566 02       		.byte	0x2
 1569 0567 23       		.byte	0x23
 1570 0568 40       		.uleb128 0x40
 1571 0569 12       		.uleb128 0x12
 1572 056a EF040000 		.4byte	.LASF77
 1573 056e 0A       		.byte	0xa
 1574 056f 4002     		.2byte	0x240
 1575 0571 56030000 		.4byte	0x356
 1576 0575 02       		.byte	0x2
ARM GAS  C:\Users\DNIEL~1\AppData\Local\Temp\ccTkDJ5o.s 			page 29


 1577 0576 23       		.byte	0x23
 1578 0577 44       		.uleb128 0x44
 1579 0578 12       		.uleb128 0x12
 1580 0579 F4040000 		.4byte	.LASF78
 1581 057d 0A       		.byte	0xa
 1582 057e 4102     		.2byte	0x241
 1583 0580 56030000 		.4byte	0x356
 1584 0584 02       		.byte	0x2
 1585 0585 23       		.byte	0x23
 1586 0586 48       		.uleb128 0x48
 1587 0587 0C       		.uleb128 0xc
 1588 0588 445200   		.ascii	"DR\000"
 1589 058b 0A       		.byte	0xa
 1590 058c 4202     		.2byte	0x242
 1591 058e 56030000 		.4byte	0x356
 1592 0592 02       		.byte	0x2
 1593 0593 23       		.byte	0x23
 1594 0594 4C       		.uleb128 0x4c
 1595 0595 00       		.byte	0x0
 1596 0596 13       		.uleb128 0x13
 1597 0597 49010000 		.4byte	.LASF79
 1598 059b 0A       		.byte	0xa
 1599 059c 4302     		.2byte	0x243
 1600 059e 62040000 		.4byte	0x462
 1601 05a2 11       		.uleb128 0x11
 1602 05a3 10       		.byte	0x10
 1603 05a4 0A       		.byte	0xa
 1604 05a5 2D03     		.2byte	0x32d
 1605 05a7 E8050000 		.4byte	0x5e8
 1606 05ab 0C       		.uleb128 0xc
 1607 05ac 43435200 		.ascii	"CCR\000"
 1608 05b0 0A       		.byte	0xa
 1609 05b1 2F03     		.2byte	0x32f
 1610 05b3 56030000 		.4byte	0x356
 1611 05b7 02       		.byte	0x2
 1612 05b8 23       		.byte	0x23
 1613 05b9 00       		.uleb128 0x0
 1614 05ba 12       		.uleb128 0x12
 1615 05bb A5040000 		.4byte	.LASF80
 1616 05bf 0A       		.byte	0xa
 1617 05c0 3003     		.2byte	0x330
 1618 05c2 56030000 		.4byte	0x356
 1619 05c6 02       		.byte	0x2
 1620 05c7 23       		.byte	0x23
 1621 05c8 04       		.uleb128 0x4
 1622 05c9 12       		.uleb128 0x12
 1623 05ca 03020000 		.4byte	.LASF81
 1624 05ce 0A       		.byte	0xa
 1625 05cf 3103     		.2byte	0x331
 1626 05d1 56030000 		.4byte	0x356
 1627 05d5 02       		.byte	0x2
 1628 05d6 23       		.byte	0x23
 1629 05d7 08       		.uleb128 0x8
 1630 05d8 12       		.uleb128 0x12
 1631 05d9 AC020000 		.4byte	.LASF82
 1632 05dd 0A       		.byte	0xa
 1633 05de 3203     		.2byte	0x332
ARM GAS  C:\Users\DNIEL~1\AppData\Local\Temp\ccTkDJ5o.s 			page 30


 1634 05e0 56030000 		.4byte	0x356
 1635 05e4 02       		.byte	0x2
 1636 05e5 23       		.byte	0x23
 1637 05e6 0C       		.uleb128 0xc
 1638 05e7 00       		.byte	0x0
 1639 05e8 13       		.uleb128 0x13
 1640 05e9 1D020000 		.4byte	.LASF83
 1641 05ed 0A       		.byte	0xa
 1642 05ee 3303     		.2byte	0x333
 1643 05f0 A2050000 		.4byte	0x5a2
 1644 05f4 08       		.uleb128 0x8
 1645 05f5 0C       		.byte	0xc
 1646 05f6 0B       		.byte	0xb
 1647 05f7 C1       		.byte	0xc1
 1648 05f8 43060000 		.4byte	0x643
 1649 05fc 06       		.uleb128 0x6
 1650 05fd E8030000 		.4byte	.LASF84
 1651 0601 0B       		.byte	0xb
 1652 0602 C2       		.byte	0xc2
 1653 0603 43060000 		.4byte	0x643
 1654 0607 02       		.byte	0x2
 1655 0608 23       		.byte	0x23
 1656 0609 00       		.uleb128 0x0
 1657 060a 06       		.uleb128 0x6
 1658 060b FB030000 		.4byte	.LASF85
 1659 060f 0B       		.byte	0xb
 1660 0610 C3       		.byte	0xc3
 1661 0611 49060000 		.4byte	0x649
 1662 0615 02       		.byte	0x2
 1663 0616 23       		.byte	0x23
 1664 0617 04       		.uleb128 0x4
 1665 0618 06       		.uleb128 0x6
 1666 0619 31020000 		.4byte	.LASF86
 1667 061d 0B       		.byte	0xb
 1668 061e C4       		.byte	0xc4
 1669 061f 49000000 		.4byte	0x49
 1670 0623 02       		.byte	0x2
 1671 0624 23       		.byte	0x23
 1672 0625 08       		.uleb128 0x8
 1673 0626 06       		.uleb128 0x6
 1674 0627 61020000 		.4byte	.LASF87
 1675 062b 0B       		.byte	0xb
 1676 062c C6       		.byte	0xc6
 1677 062d 49000000 		.4byte	0x49
 1678 0631 02       		.byte	0x2
 1679 0632 23       		.byte	0x23
 1680 0633 09       		.uleb128 0x9
 1681 0634 06       		.uleb128 0x6
 1682 0635 88000000 		.4byte	.LASF88
 1683 0639 0B       		.byte	0xb
 1684 063a C7       		.byte	0xc7
 1685 063b 49000000 		.4byte	0x49
 1686 063f 02       		.byte	0x2
 1687 0640 23       		.byte	0x23
 1688 0641 0A       		.uleb128 0xa
 1689 0642 00       		.byte	0x0
 1690 0643 09       		.uleb128 0x9
ARM GAS  C:\Users\DNIEL~1\AppData\Local\Temp\ccTkDJ5o.s 			page 31


 1691 0644 04       		.byte	0x4
 1692 0645 E8050000 		.4byte	0x5e8
 1693 0649 09       		.uleb128 0x9
 1694 064a 04       		.byte	0x4
 1695 064b 56030000 		.4byte	0x356
 1696 064f 03       		.uleb128 0x3
 1697 0650 59030000 		.4byte	.LASF89
 1698 0654 0B       		.byte	0xb
 1699 0655 C8       		.byte	0xc8
 1700 0656 F4050000 		.4byte	0x5f4
 1701 065a 14       		.uleb128 0x14
 1702 065b 01       		.byte	0x1
 1703 065c 0C       		.byte	0xc
 1704 065d 55       		.byte	0x55
 1705 065e 87060000 		.4byte	0x687
 1706 0662 15       		.uleb128 0x15
 1707 0663 C8010000 		.4byte	.LASF90
 1708 0667 00       		.sleb128 0
 1709 0668 15       		.uleb128 0x15
 1710 0669 DE020000 		.4byte	.LASF91
 1711 066d 01       		.sleb128 1
 1712 066e 15       		.uleb128 0x15
 1713 066f 4B020000 		.4byte	.LASF92
 1714 0673 02       		.sleb128 2
 1715 0674 15       		.uleb128 0x15
 1716 0675 D3010000 		.4byte	.LASF93
 1717 0679 03       		.sleb128 3
 1718 067a 15       		.uleb128 0x15
 1719 067b 00050000 		.4byte	.LASF94
 1720 067f 04       		.sleb128 4
 1721 0680 15       		.uleb128 0x15
 1722 0681 81040000 		.4byte	.LASF95
 1723 0685 05       		.sleb128 5
 1724 0686 00       		.byte	0x0
 1725 0687 03       		.uleb128 0x3
 1726 0688 16000000 		.4byte	.LASF96
 1727 068c 0C       		.byte	0xc
 1728 068d 5C       		.byte	0x5c
 1729 068e 5A060000 		.4byte	0x65a
 1730 0692 03       		.uleb128 0x3
 1731 0693 72010000 		.4byte	.LASF97
 1732 0697 0D       		.byte	0xd
 1733 0698 87       		.byte	0x87
 1734 0699 62000000 		.4byte	0x62
 1735 069d 03       		.uleb128 0x3
 1736 069e 14050000 		.4byte	.LASF98
 1737 06a2 0D       		.byte	0xd
 1738 06a3 8C       		.byte	0x8c
 1739 06a4 62000000 		.4byte	0x62
 1740 06a8 14       		.uleb128 0x14
 1741 06a9 01       		.byte	0x1
 1742 06aa 0D       		.byte	0xd
 1743 06ab 93       		.byte	0x93
 1744 06ac B7060000 		.4byte	0x6b7
 1745 06b0 15       		.uleb128 0x15
 1746 06b1 03010000 		.4byte	.LASF99
 1747 06b5 00       		.sleb128 0
ARM GAS  C:\Users\DNIEL~1\AppData\Local\Temp\ccTkDJ5o.s 			page 32


 1748 06b6 00       		.byte	0x0
 1749 06b7 03       		.uleb128 0x3
 1750 06b8 D9000000 		.4byte	.LASF100
 1751 06bc 0D       		.byte	0xd
 1752 06bd 95       		.byte	0x95
 1753 06be A8060000 		.4byte	0x6a8
 1754 06c2 03       		.uleb128 0x3
 1755 06c3 13020000 		.4byte	.LASF101
 1756 06c7 0D       		.byte	0xd
 1757 06c8 9A       		.byte	0x9a
 1758 06c9 CD060000 		.4byte	0x6cd
 1759 06cd 05       		.uleb128 0x5
 1760 06ce 13020000 		.4byte	.LASF101
 1761 06d2 34       		.byte	0x34
 1762 06d3 0D       		.byte	0xd
 1763 06d4 FE       		.byte	0xfe
 1764 06d5 70070000 		.4byte	0x770
 1765 06d9 12       		.uleb128 0x12
 1766 06da EB000000 		.4byte	.LASF102
 1767 06de 0D       		.byte	0xd
 1768 06df 0201     		.2byte	0x102
 1769 06e1 87060000 		.4byte	0x687
 1770 06e5 02       		.byte	0x2
 1771 06e6 23       		.byte	0x23
 1772 06e7 00       		.uleb128 0x0
 1773 06e8 12       		.uleb128 0x12
 1774 06e9 34040000 		.4byte	.LASF103
 1775 06ed 0D       		.byte	0xd
 1776 06ee 0601     		.2byte	0x106
 1777 06f0 95080000 		.4byte	0x895
 1778 06f4 02       		.byte	0x2
 1779 06f5 23       		.byte	0x23
 1780 06f6 04       		.uleb128 0x4
 1781 06f7 12       		.uleb128 0x12
 1782 06f8 C8020000 		.4byte	.LASF104
 1783 06fc 0D       		.byte	0xd
 1784 06fd 0A01     		.2byte	0x10a
 1785 06ff 9D070000 		.4byte	0x79d
 1786 0703 02       		.byte	0x2
 1787 0704 23       		.byte	0x23
 1788 0705 08       		.uleb128 0x8
 1789 0706 12       		.uleb128 0x12
 1790 0707 55020000 		.4byte	.LASF105
 1791 070b 0D       		.byte	0xd
 1792 070c 0E01     		.2byte	0x10e
 1793 070e 30000000 		.4byte	0x30
 1794 0712 02       		.byte	0x2
 1795 0713 23       		.byte	0x23
 1796 0714 0C       		.uleb128 0xc
 1797 0715 12       		.uleb128 0x12
 1798 0716 B1020000 		.4byte	.LASF106
 1799 071a 0D       		.byte	0xd
 1800 071b 1201     		.2byte	0x112
 1801 071d A0080000 		.4byte	0x8a0
 1802 0721 02       		.byte	0x2
 1803 0722 23       		.byte	0x23
 1804 0723 10       		.uleb128 0x10
ARM GAS  C:\Users\DNIEL~1\AppData\Local\Temp\ccTkDJ5o.s 			page 33


 1805 0724 12       		.uleb128 0x12
 1806 0725 32010000 		.4byte	.LASF107
 1807 0729 0D       		.byte	0xd
 1808 072a 1701     		.2byte	0x117
 1809 072c 65020000 		.4byte	0x265
 1810 0730 02       		.byte	0x2
 1811 0731 23       		.byte	0x23
 1812 0732 14       		.uleb128 0x14
 1813 0733 12       		.uleb128 0x12
 1814 0734 74030000 		.4byte	.LASF108
 1815 0738 0D       		.byte	0xd
 1816 0739 1E01     		.2byte	0x11e
 1817 073b 05040000 		.4byte	0x405
 1818 073f 02       		.byte	0x2
 1819 0740 23       		.byte	0x23
 1820 0741 18       		.uleb128 0x18
 1821 0742 0C       		.uleb128 0xc
 1822 0743 61646300 		.ascii	"adc\000"
 1823 0747 0D       		.byte	0xd
 1824 0748 2A01     		.2byte	0x12a
 1825 074a AB080000 		.4byte	0x8ab
 1826 074e 02       		.byte	0x2
 1827 074f 23       		.byte	0x23
 1828 0750 28       		.uleb128 0x28
 1829 0751 12       		.uleb128 0x12
 1830 0752 E4000000 		.4byte	.LASF109
 1831 0756 0D       		.byte	0xd
 1832 0757 2E01     		.2byte	0x12e
 1833 0759 B1080000 		.4byte	0x8b1
 1834 075d 02       		.byte	0x2
 1835 075e 23       		.byte	0x23
 1836 075f 2C       		.uleb128 0x2c
 1837 0760 12       		.uleb128 0x12
 1838 0761 0E000000 		.4byte	.LASF110
 1839 0765 0D       		.byte	0xd
 1840 0766 3201     		.2byte	0x132
 1841 0768 86000000 		.4byte	0x86
 1842 076c 02       		.byte	0x2
 1843 076d 23       		.byte	0x23
 1844 076e 30       		.uleb128 0x30
 1845 076f 00       		.byte	0x0
 1846 0770 03       		.uleb128 0x3
 1847 0771 64010000 		.4byte	.LASF111
 1848 0775 0D       		.byte	0xd
 1849 0776 A4       		.byte	0xa4
 1850 0777 7B070000 		.4byte	0x77b
 1851 077b 09       		.uleb128 0x9
 1852 077c 04       		.byte	0x4
 1853 077d 81070000 		.4byte	0x781
 1854 0781 16       		.uleb128 0x16
 1855 0782 01       		.byte	0x1
 1856 0783 97070000 		.4byte	0x797
 1857 0787 17       		.uleb128 0x17
 1858 0788 97070000 		.4byte	0x797
 1859 078c 17       		.uleb128 0x17
 1860 078d 9D070000 		.4byte	0x79d
 1861 0791 17       		.uleb128 0x17
ARM GAS  C:\Users\DNIEL~1\AppData\Local\Temp\ccTkDJ5o.s 			page 34


 1862 0792 30000000 		.4byte	0x30
 1863 0796 00       		.byte	0x0
 1864 0797 09       		.uleb128 0x9
 1865 0798 04       		.byte	0x4
 1866 0799 C2060000 		.4byte	0x6c2
 1867 079d 09       		.uleb128 0x9
 1868 079e 04       		.byte	0x4
 1869 079f 92060000 		.4byte	0x692
 1870 07a3 03       		.uleb128 0x3
 1871 07a4 16010000 		.4byte	.LASF112
 1872 07a8 0D       		.byte	0xd
 1873 07a9 AD       		.byte	0xad
 1874 07aa AE070000 		.4byte	0x7ae
 1875 07ae 09       		.uleb128 0x9
 1876 07af 04       		.byte	0x4
 1877 07b0 B4070000 		.4byte	0x7b4
 1878 07b4 16       		.uleb128 0x16
 1879 07b5 01       		.byte	0x1
 1880 07b6 C5070000 		.4byte	0x7c5
 1881 07ba 17       		.uleb128 0x17
 1882 07bb 97070000 		.4byte	0x797
 1883 07bf 17       		.uleb128 0x17
 1884 07c0 B7060000 		.4byte	0x6b7
 1885 07c4 00       		.byte	0x0
 1886 07c5 08       		.uleb128 0x8
 1887 07c6 28       		.byte	0x28
 1888 07c7 0D       		.byte	0xd
 1889 07c8 B7       		.byte	0xb7
 1890 07c9 68080000 		.4byte	0x868
 1891 07cd 06       		.uleb128 0x6
 1892 07ce F1000000 		.4byte	.LASF113
 1893 07d2 0D       		.byte	0xd
 1894 07d3 BB       		.byte	0xbb
 1895 07d4 A6000000 		.4byte	0xa6
 1896 07d8 02       		.byte	0x2
 1897 07d9 23       		.byte	0x23
 1898 07da 00       		.uleb128 0x0
 1899 07db 06       		.uleb128 0x6
 1900 07dc 7F020000 		.4byte	.LASF114
 1901 07e0 0D       		.byte	0xd
 1902 07e1 BF       		.byte	0xbf
 1903 07e2 9D060000 		.4byte	0x69d
 1904 07e6 02       		.byte	0x2
 1905 07e7 23       		.byte	0x23
 1906 07e8 02       		.uleb128 0x2
 1907 07e9 06       		.uleb128 0x6
 1908 07ea 5D010000 		.4byte	.LASF115
 1909 07ee 0D       		.byte	0xd
 1910 07ef C3       		.byte	0xc3
 1911 07f0 70070000 		.4byte	0x770
 1912 07f4 02       		.byte	0x2
 1913 07f5 23       		.byte	0x23
 1914 07f6 04       		.uleb128 0x4
 1915 07f7 06       		.uleb128 0x6
 1916 07f8 BC030000 		.4byte	.LASF116
 1917 07fc 0D       		.byte	0xd
 1918 07fd C7       		.byte	0xc7
ARM GAS  C:\Users\DNIEL~1\AppData\Local\Temp\ccTkDJ5o.s 			page 35


 1919 07fe A3070000 		.4byte	0x7a3
 1920 0802 02       		.byte	0x2
 1921 0803 23       		.byte	0x23
 1922 0804 08       		.uleb128 0x8
 1923 0805 07       		.uleb128 0x7
 1924 0806 63723100 		.ascii	"cr1\000"
 1925 080a 0D       		.byte	0xd
 1926 080b CE       		.byte	0xce
 1927 080c 86000000 		.4byte	0x86
 1928 0810 02       		.byte	0x2
 1929 0811 23       		.byte	0x23
 1930 0812 0C       		.uleb128 0xc
 1931 0813 07       		.uleb128 0x7
 1932 0814 63723200 		.ascii	"cr2\000"
 1933 0818 0D       		.byte	0xd
 1934 0819 D5       		.byte	0xd5
 1935 081a 86000000 		.4byte	0x86
 1936 081e 02       		.byte	0x2
 1937 081f 23       		.byte	0x23
 1938 0820 10       		.uleb128 0x10
 1939 0821 06       		.uleb128 0x6
 1940 0822 17040000 		.4byte	.LASF117
 1941 0826 0D       		.byte	0xd
 1942 0827 DB       		.byte	0xdb
 1943 0828 86000000 		.4byte	0x86
 1944 082c 02       		.byte	0x2
 1945 082d 23       		.byte	0x23
 1946 082e 14       		.uleb128 0x14
 1947 082f 06       		.uleb128 0x6
 1948 0830 AB040000 		.4byte	.LASF118
 1949 0834 0D       		.byte	0xd
 1950 0835 E1       		.byte	0xe1
 1951 0836 86000000 		.4byte	0x86
 1952 083a 02       		.byte	0x2
 1953 083b 23       		.byte	0x23
 1954 083c 18       		.uleb128 0x18
 1955 083d 06       		.uleb128 0x6
 1956 083e 3B040000 		.4byte	.LASF119
 1957 0842 0D       		.byte	0xd
 1958 0843 E6       		.byte	0xe6
 1959 0844 86000000 		.4byte	0x86
 1960 0848 02       		.byte	0x2
 1961 0849 23       		.byte	0x23
 1962 084a 1C       		.uleb128 0x1c
 1963 084b 06       		.uleb128 0x6
 1964 084c 40040000 		.4byte	.LASF120
 1965 0850 0D       		.byte	0xd
 1966 0851 EB       		.byte	0xeb
 1967 0852 86000000 		.4byte	0x86
 1968 0856 02       		.byte	0x2
 1969 0857 23       		.byte	0x23
 1970 0858 20       		.uleb128 0x20
 1971 0859 06       		.uleb128 0x6
 1972 085a 45040000 		.4byte	.LASF121
 1973 085e 0D       		.byte	0xd
 1974 085f F0       		.byte	0xf0
 1975 0860 86000000 		.4byte	0x86
ARM GAS  C:\Users\DNIEL~1\AppData\Local\Temp\ccTkDJ5o.s 			page 36


 1976 0864 02       		.byte	0x2
 1977 0865 23       		.byte	0x23
 1978 0866 24       		.uleb128 0x24
 1979 0867 00       		.byte	0x0
 1980 0868 03       		.uleb128 0x3
 1981 0869 D2040000 		.4byte	.LASF122
 1982 086d 0D       		.byte	0xd
 1983 086e F1       		.byte	0xf1
 1984 086f C5070000 		.4byte	0x7c5
 1985 0873 08       		.uleb128 0x8
 1986 0874 04       		.byte	0x4
 1987 0875 0D       		.byte	0xd
 1988 0876 F7       		.byte	0xf7
 1989 0877 8A080000 		.4byte	0x88a
 1990 087b 06       		.uleb128 0x6
 1991 087c BB010000 		.4byte	.LASF123
 1992 0880 0D       		.byte	0xd
 1993 0881 F8       		.byte	0xf8
 1994 0882 86000000 		.4byte	0x86
 1995 0886 02       		.byte	0x2
 1996 0887 23       		.byte	0x23
 1997 0888 00       		.uleb128 0x0
 1998 0889 00       		.byte	0x0
 1999 088a 03       		.uleb128 0x3
 2000 088b 86010000 		.4byte	.LASF124
 2001 088f 0D       		.byte	0xd
 2002 0890 F9       		.byte	0xf9
 2003 0891 73080000 		.4byte	0x873
 2004 0895 09       		.uleb128 0x9
 2005 0896 04       		.byte	0x4
 2006 0897 9B080000 		.4byte	0x89b
 2007 089b 10       		.uleb128 0x10
 2008 089c 8A080000 		.4byte	0x88a
 2009 08a0 09       		.uleb128 0x9
 2010 08a1 04       		.byte	0x4
 2011 08a2 A6080000 		.4byte	0x8a6
 2012 08a6 10       		.uleb128 0x10
 2013 08a7 68080000 		.4byte	0x868
 2014 08ab 09       		.uleb128 0x9
 2015 08ac 04       		.byte	0x4
 2016 08ad 96050000 		.4byte	0x596
 2017 08b1 09       		.uleb128 0x9
 2018 08b2 04       		.byte	0x4
 2019 08b3 B7080000 		.4byte	0x8b7
 2020 08b7 10       		.uleb128 0x10
 2021 08b8 4F060000 		.4byte	0x64f
 2022 08bc 18       		.uleb128 0x18
 2023 08bd 01       		.byte	0x1
 2024 08be 36030000 		.4byte	.LASF139
 2025 08c2 01       		.byte	0x1
 2026 08c3 BB       		.byte	0xbb
 2027 08c4 01       		.byte	0x1
 2028 08c5 01       		.byte	0x1
 2029 08c6 F7080000 		.4byte	0x8f7
 2030 08ca 19       		.uleb128 0x19
 2031 08cb 2D050000 		.4byte	.LASF125
 2032 08cf 01       		.byte	0x1
ARM GAS  C:\Users\DNIEL~1\AppData\Local\Temp\ccTkDJ5o.s 			page 37


 2033 08d0 BB       		.byte	0xbb
 2034 08d1 97070000 		.4byte	0x797
 2035 08d5 19       		.uleb128 0x19
 2036 08d6 B1020000 		.4byte	.LASF106
 2037 08da 01       		.byte	0x1
 2038 08db BC       		.byte	0xbc
 2039 08dc A0080000 		.4byte	0x8a0
 2040 08e0 19       		.uleb128 0x19
 2041 08e1 C8020000 		.4byte	.LASF104
 2042 08e5 01       		.byte	0x1
 2043 08e6 BD       		.byte	0xbd
 2044 08e7 9D070000 		.4byte	0x79d
 2045 08eb 19       		.uleb128 0x19
 2046 08ec 55020000 		.4byte	.LASF105
 2047 08f0 01       		.byte	0x1
 2048 08f1 BE       		.byte	0xbe
 2049 08f2 30000000 		.4byte	0x30
 2050 08f6 00       		.byte	0x0
 2051 08f7 1A       		.uleb128 0x1a
 2052 08f8 01       		.byte	0x1
 2053 08f9 A4020000 		.4byte	.LASF140
 2054 08fd 01       		.byte	0x1
 2055 08fe 44       		.byte	0x44
 2056 08ff 01       		.byte	0x1
 2057 0900 00000000 		.4byte	.LFB56
 2058 0904 04000000 		.4byte	.LFE56
 2059 0908 02       		.byte	0x2
 2060 0909 7D       		.byte	0x7d
 2061 090a 00       		.sleb128 0
 2062 090b 1B       		.uleb128 0x1b
 2063 090c 01       		.byte	0x1
 2064 090d F5010000 		.4byte	.LASF126
 2065 0911 01       		.byte	0x1
 2066 0912 50       		.byte	0x50
 2067 0913 01       		.byte	0x1
 2068 0914 00000000 		.4byte	.LFB57
 2069 0918 16000000 		.4byte	.LFE57
 2070 091c 02       		.byte	0x2
 2071 091d 7D       		.byte	0x7d
 2072 091e 00       		.sleb128 0
 2073 091f 33090000 		.4byte	0x933
 2074 0923 1C       		.uleb128 0x1c
 2075 0924 2D050000 		.4byte	.LASF125
 2076 0928 01       		.byte	0x1
 2077 0929 50       		.byte	0x50
 2078 092a 97070000 		.4byte	0x797
 2079 092e 00000000 		.4byte	.LLST0
 2080 0932 00       		.byte	0x0
 2081 0933 1D       		.uleb128 0x1d
 2082 0934 01       		.byte	0x1
 2083 0935 8B040000 		.4byte	.LASF127
 2084 0939 01       		.byte	0x1
 2085 093a 6F       		.byte	0x6f
 2086 093b 01       		.byte	0x1
 2087 093c 00000000 		.4byte	.LFB58
 2088 0940 18000000 		.4byte	.LFE58
 2089 0944 20000000 		.4byte	.LLST1
ARM GAS  C:\Users\DNIEL~1\AppData\Local\Temp\ccTkDJ5o.s 			page 38


 2090 0948 6B090000 		.4byte	0x96b
 2091 094c 1C       		.uleb128 0x1c
 2092 094d 2D050000 		.4byte	.LASF125
 2093 0951 01       		.byte	0x1
 2094 0952 6F       		.byte	0x6f
 2095 0953 97070000 		.4byte	0x797
 2096 0957 40000000 		.4byte	.LLST2
 2097 095b 1C       		.uleb128 0x1c
 2098 095c 34040000 		.4byte	.LASF103
 2099 0960 01       		.byte	0x1
 2100 0961 6F       		.byte	0x6f
 2101 0962 95080000 		.4byte	0x895
 2102 0966 5E000000 		.4byte	.LLST3
 2103 096a 00       		.byte	0x0
 2104 096b 1D       		.uleb128 0x1d
 2105 096c 01       		.byte	0x1
 2106 096d 21000000 		.4byte	.LASF128
 2107 0971 01       		.byte	0x1
 2108 0972 83       		.byte	0x83
 2109 0973 01       		.byte	0x1
 2110 0974 00000000 		.4byte	.LFB59
 2111 0978 16000000 		.4byte	.LFE59
 2112 097c 71000000 		.4byte	.LLST4
 2113 0980 94090000 		.4byte	0x994
 2114 0984 1C       		.uleb128 0x1c
 2115 0985 2D050000 		.4byte	.LASF125
 2116 0989 01       		.byte	0x1
 2117 098a 83       		.byte	0x83
 2118 098b 97070000 		.4byte	0x797
 2119 098f 91000000 		.4byte	.LLST5
 2120 0993 00       		.byte	0x0
 2121 0994 1D       		.uleb128 0x1d
 2122 0995 01       		.byte	0x1
 2123 0996 67040000 		.4byte	.LASF129
 2124 099a 01       		.byte	0x1
 2125 099b 9F       		.byte	0x9f
 2126 099c 01       		.byte	0x1
 2127 099d 00000000 		.4byte	.LFB60
 2128 09a1 1C000000 		.4byte	.LFE60
 2129 09a5 AF000000 		.4byte	.LLST6
 2130 09a9 1A0A0000 		.4byte	0xa1a
 2131 09ad 1C       		.uleb128 0x1c
 2132 09ae 2D050000 		.4byte	.LASF125
 2133 09b2 01       		.byte	0x1
 2134 09b3 9F       		.byte	0x9f
 2135 09b4 97070000 		.4byte	0x797
 2136 09b8 CF000000 		.4byte	.LLST7
 2137 09bc 1C       		.uleb128 0x1c
 2138 09bd B1020000 		.4byte	.LASF106
 2139 09c1 01       		.byte	0x1
 2140 09c2 A0       		.byte	0xa0
 2141 09c3 A0080000 		.4byte	0x8a0
 2142 09c7 E2000000 		.4byte	.LLST8
 2143 09cb 1C       		.uleb128 0x1c
 2144 09cc C8020000 		.4byte	.LASF104
 2145 09d0 01       		.byte	0x1
 2146 09d1 A1       		.byte	0xa1
ARM GAS  C:\Users\DNIEL~1\AppData\Local\Temp\ccTkDJ5o.s 			page 39


 2147 09d2 9D070000 		.4byte	0x79d
 2148 09d6 F5000000 		.4byte	.LLST9
 2149 09da 1C       		.uleb128 0x1c
 2150 09db 55020000 		.4byte	.LASF105
 2151 09df 01       		.byte	0x1
 2152 09e0 A2       		.byte	0xa2
 2153 09e1 30000000 		.4byte	0x30
 2154 09e5 08010000 		.4byte	.LLST10
 2155 09e9 1E       		.uleb128 0x1e
 2156 09ea BC080000 		.4byte	0x8bc
 2157 09ee 08000000 		.4byte	.LBB6
 2158 09f2 16000000 		.4byte	.LBE6
 2159 09f6 01       		.byte	0x1
 2160 09f7 A5       		.byte	0xa5
 2161 09f8 1F       		.uleb128 0x1f
 2162 09f9 EB080000 		.4byte	0x8eb
 2163 09fd 01       		.byte	0x1
 2164 09fe 55       		.byte	0x55
 2165 09ff 20       		.uleb128 0x20
 2166 0a00 E0080000 		.4byte	0x8e0
 2167 0a04 26010000 		.4byte	.LLST11
 2168 0a08 20       		.uleb128 0x20
 2169 0a09 D5080000 		.4byte	0x8d5
 2170 0a0d 39010000 		.4byte	.LLST12
 2171 0a11 1F       		.uleb128 0x1f
 2172 0a12 CA080000 		.4byte	0x8ca
 2173 0a16 01       		.byte	0x1
 2174 0a17 54       		.byte	0x54
 2175 0a18 00       		.byte	0x0
 2176 0a19 00       		.byte	0x0
 2177 0a1a 21       		.uleb128 0x21
 2178 0a1b BC080000 		.4byte	0x8bc
 2179 0a1f 00000000 		.4byte	.LFB61
 2180 0a23 12000000 		.4byte	.LFE61
 2181 0a27 4C010000 		.4byte	.LLST13
 2182 0a2b 4E0A0000 		.4byte	0xa4e
 2183 0a2f 1F       		.uleb128 0x1f
 2184 0a30 CA080000 		.4byte	0x8ca
 2185 0a34 01       		.byte	0x1
 2186 0a35 50       		.byte	0x50
 2187 0a36 1F       		.uleb128 0x1f
 2188 0a37 D5080000 		.4byte	0x8d5
 2189 0a3b 01       		.byte	0x1
 2190 0a3c 51       		.byte	0x51
 2191 0a3d 1F       		.uleb128 0x1f
 2192 0a3e E0080000 		.4byte	0x8e0
 2193 0a42 01       		.byte	0x1
 2194 0a43 52       		.byte	0x52
 2195 0a44 20       		.uleb128 0x20
 2196 0a45 EB080000 		.4byte	0x8eb
 2197 0a49 6C010000 		.4byte	.LLST14
 2198 0a4d 00       		.byte	0x0
 2199 0a4e 1D       		.uleb128 0x1d
 2200 0a4f 01       		.byte	0x1
 2201 0a50 3D050000 		.4byte	.LASF130
 2202 0a54 01       		.byte	0x1
 2203 0a55 DA       		.byte	0xda
ARM GAS  C:\Users\DNIEL~1\AppData\Local\Temp\ccTkDJ5o.s 			page 40


 2204 0a56 01       		.byte	0x1
 2205 0a57 00000000 		.4byte	.LFB62
 2206 0a5b 2E000000 		.4byte	.LFE62
 2207 0a5f 8B010000 		.4byte	.LLST15
 2208 0a63 8F0A0000 		.4byte	0xa8f
 2209 0a67 1C       		.uleb128 0x1c
 2210 0a68 2D050000 		.4byte	.LASF125
 2211 0a6c 01       		.byte	0x1
 2212 0a6d DA       		.byte	0xda
 2213 0a6e 97070000 		.4byte	0x797
 2214 0a72 AB010000 		.4byte	.LLST16
 2215 0a76 22       		.uleb128 0x22
 2216 0a77 1E000000 		.4byte	.LBB8
 2217 0a7b 28000000 		.4byte	.LBE8
 2218 0a7f 23       		.uleb128 0x23
 2219 0a80 747000   		.ascii	"tp\000"
 2220 0a83 01       		.byte	0x1
 2221 0a84 E6       		.byte	0xe6
 2222 0a85 65020000 		.4byte	0x265
 2223 0a89 C9010000 		.4byte	.LLST17
 2224 0a8d 00       		.byte	0x0
 2225 0a8e 00       		.byte	0x0
 2226 0a8f 1D       		.uleb128 0x1d
 2227 0a90 01       		.byte	0x1
 2228 0a91 BF040000 		.4byte	.LASF131
 2229 0a95 01       		.byte	0x1
 2230 0a96 F5       		.byte	0xf5
 2231 0a97 01       		.byte	0x1
 2232 0a98 00000000 		.4byte	.LFB63
 2233 0a9c 2E000000 		.4byte	.LFE63
 2234 0aa0 DD010000 		.4byte	.LLST18
 2235 0aa4 CD0A0000 		.4byte	0xacd
 2236 0aa8 1C       		.uleb128 0x1c
 2237 0aa9 2D050000 		.4byte	.LASF125
 2238 0aad 01       		.byte	0x1
 2239 0aae F5       		.byte	0xf5
 2240 0aaf 97070000 		.4byte	0x797
 2241 0ab3 FD010000 		.4byte	.LLST19
 2242 0ab7 24       		.uleb128 0x24
 2243 0ab8 00000000 		.4byte	.Ldebug_ranges0+0x0
 2244 0abc 25       		.uleb128 0x25
 2245 0abd 747000   		.ascii	"tp\000"
 2246 0ac0 01       		.byte	0x1
 2247 0ac1 0201     		.2byte	0x102
 2248 0ac3 65020000 		.4byte	0x265
 2249 0ac7 1B020000 		.4byte	.LLST20
 2250 0acb 00       		.byte	0x0
 2251 0acc 00       		.byte	0x0
 2252 0acd 26       		.uleb128 0x26
 2253 0ace 01       		.byte	0x1
 2254 0acf 32050000 		.4byte	.LASF141
 2255 0ad3 01       		.byte	0x1
 2256 0ad4 1E01     		.2byte	0x11e
 2257 0ad6 01       		.byte	0x1
 2258 0ad7 EF000000 		.4byte	0xef
 2259 0adb 00000000 		.4byte	.LFB64
 2260 0adf 34000000 		.4byte	.LFE64
ARM GAS  C:\Users\DNIEL~1\AppData\Local\Temp\ccTkDJ5o.s 			page 41


 2261 0ae3 2F020000 		.4byte	.LLST21
 2262 0ae7 710B0000 		.4byte	0xb71
 2263 0aeb 27       		.uleb128 0x27
 2264 0aec 2D050000 		.4byte	.LASF125
 2265 0af0 01       		.byte	0x1
 2266 0af1 1E01     		.2byte	0x11e
 2267 0af3 97070000 		.4byte	0x797
 2268 0af7 4F020000 		.4byte	.LLST22
 2269 0afb 27       		.uleb128 0x27
 2270 0afc B1020000 		.4byte	.LASF106
 2271 0b00 01       		.byte	0x1
 2272 0b01 1F01     		.2byte	0x11f
 2273 0b03 A0080000 		.4byte	0x8a0
 2274 0b07 62020000 		.4byte	.LLST23
 2275 0b0b 27       		.uleb128 0x27
 2276 0b0c C8020000 		.4byte	.LASF104
 2277 0b10 01       		.byte	0x1
 2278 0b11 2001     		.2byte	0x120
 2279 0b13 9D070000 		.4byte	0x79d
 2280 0b17 75020000 		.4byte	.LLST24
 2281 0b1b 27       		.uleb128 0x27
 2282 0b1c 55020000 		.4byte	.LASF105
 2283 0b20 01       		.byte	0x1
 2284 0b21 2101     		.2byte	0x121
 2285 0b23 30000000 		.4byte	0x30
 2286 0b27 94020000 		.4byte	.LLST25
 2287 0b2b 28       		.uleb128 0x28
 2288 0b2c 6D736700 		.ascii	"msg\000"
 2289 0b30 01       		.byte	0x1
 2290 0b31 2201     		.2byte	0x122
 2291 0b33 EF000000 		.4byte	0xef
 2292 0b37 05       		.byte	0x5
 2293 0b38 76       		.byte	0x76
 2294 0b39 18       		.sleb128 24
 2295 0b3a 06       		.byte	0x6
 2296 0b3b 23       		.byte	0x23
 2297 0b3c 24       		.uleb128 0x24
 2298 0b3d 29       		.uleb128 0x29
 2299 0b3e BC080000 		.4byte	0x8bc
 2300 0b42 0C000000 		.4byte	.LBB11
 2301 0b46 1A000000 		.4byte	.LBE11
 2302 0b4a 01       		.byte	0x1
 2303 0b4b 2601     		.2byte	0x126
 2304 0b4d 1F       		.uleb128 0x1f
 2305 0b4e EB080000 		.4byte	0x8eb
 2306 0b52 01       		.byte	0x1
 2307 0b53 55       		.byte	0x55
 2308 0b54 20       		.uleb128 0x20
 2309 0b55 E0080000 		.4byte	0x8e0
 2310 0b59 B2020000 		.4byte	.LLST26
 2311 0b5d 20       		.uleb128 0x20
 2312 0b5e D5080000 		.4byte	0x8d5
 2313 0b62 D1020000 		.4byte	.LLST27
 2314 0b66 20       		.uleb128 0x20
 2315 0b67 CA080000 		.4byte	0x8ca
 2316 0b6b E4020000 		.4byte	.LLST28
 2317 0b6f 00       		.byte	0x0
ARM GAS  C:\Users\DNIEL~1\AppData\Local\Temp\ccTkDJ5o.s 			page 42


 2318 0b70 00       		.byte	0x0
 2319 0b71 2A       		.uleb128 0x2a
 2320 0b72 01       		.byte	0x1
 2321 0b73 57050000 		.4byte	.LASF132
 2322 0b77 01       		.byte	0x1
 2323 0b78 3B01     		.2byte	0x13b
 2324 0b7a 01       		.byte	0x1
 2325 0b7b 00000000 		.4byte	.LFB65
 2326 0b7f 06000000 		.4byte	.LFE65
 2327 0b83 02       		.byte	0x2
 2328 0b84 7D       		.byte	0x7d
 2329 0b85 00       		.sleb128 0
 2330 0b86 9B0B0000 		.4byte	0xb9b
 2331 0b8a 27       		.uleb128 0x27
 2332 0b8b 2D050000 		.4byte	.LASF125
 2333 0b8f 01       		.byte	0x1
 2334 0b90 3B01     		.2byte	0x13b
 2335 0b92 97070000 		.4byte	0x797
 2336 0b96 02030000 		.4byte	.LLST29
 2337 0b9a 00       		.byte	0x0
 2338 0b9b 2A       		.uleb128 0x2a
 2339 0b9c 01       		.byte	0x1
 2340 0b9d 09040000 		.4byte	.LASF133
 2341 0ba1 01       		.byte	0x1
 2342 0ba2 4F01     		.2byte	0x14f
 2343 0ba4 01       		.byte	0x1
 2344 0ba5 00000000 		.4byte	.LFB66
 2345 0ba9 04000000 		.4byte	.LFE66
 2346 0bad 02       		.byte	0x2
 2347 0bae 7D       		.byte	0x7d
 2348 0baf 00       		.sleb128 0
 2349 0bb0 C30B0000 		.4byte	0xbc3
 2350 0bb4 2B       		.uleb128 0x2b
 2351 0bb5 2D050000 		.4byte	.LASF125
 2352 0bb9 01       		.byte	0x1
 2353 0bba 4F01     		.2byte	0x14f
 2354 0bbc 97070000 		.4byte	0x797
 2355 0bc0 01       		.byte	0x1
 2356 0bc1 50       		.byte	0x50
 2357 0bc2 00       		.byte	0x0
 2358 0bc3 2C       		.uleb128 0x2c
 2359 0bc4 B1040000 		.4byte	.LASF134
 2360 0bc8 08       		.byte	0x8
 2361 0bc9 6F       		.byte	0x6f
 2362 0bca BD030000 		.4byte	0x3bd
 2363 0bce 01       		.byte	0x1
 2364 0bcf 01       		.byte	0x1
 2365 0bd0 2D       		.uleb128 0x2d
 2366 0bd1 8F000000 		.4byte	.LASF135
 2367 0bd5 0E       		.byte	0xe
 2368 0bd6 0706     		.2byte	0x607
 2369 0bd8 5D040000 		.4byte	0x45d
 2370 0bdc 01       		.byte	0x1
 2371 0bdd 01       		.byte	0x1
 2372 0bde 2C       		.uleb128 0x2c
 2373 0bdf B1040000 		.4byte	.LASF134
 2374 0be3 08       		.byte	0x8
ARM GAS  C:\Users\DNIEL~1\AppData\Local\Temp\ccTkDJ5o.s 			page 43


 2375 0be4 6F       		.byte	0x6f
 2376 0be5 BD030000 		.4byte	0x3bd
 2377 0be9 01       		.byte	0x1
 2378 0bea 01       		.byte	0x1
 2379 0beb 2D       		.uleb128 0x2d
 2380 0bec 8F000000 		.4byte	.LASF135
 2381 0bf0 0E       		.byte	0xe
 2382 0bf1 0706     		.2byte	0x607
 2383 0bf3 5D040000 		.4byte	0x45d
 2384 0bf7 01       		.byte	0x1
 2385 0bf8 01       		.byte	0x1
 2386 0bf9 00       		.byte	0x0
 2387              		.section	.debug_abbrev
 2388 0000 01       		.uleb128 0x1
 2389 0001 11       		.uleb128 0x11
 2390 0002 01       		.byte	0x1
 2391 0003 25       		.uleb128 0x25
 2392 0004 0E       		.uleb128 0xe
 2393 0005 13       		.uleb128 0x13
 2394 0006 0B       		.uleb128 0xb
 2395 0007 03       		.uleb128 0x3
 2396 0008 0E       		.uleb128 0xe
 2397 0009 1B       		.uleb128 0x1b
 2398 000a 0E       		.uleb128 0xe
 2399 000b 11       		.uleb128 0x11
 2400 000c 01       		.uleb128 0x1
 2401 000d 52       		.uleb128 0x52
 2402 000e 01       		.uleb128 0x1
 2403 000f 55       		.uleb128 0x55
 2404 0010 06       		.uleb128 0x6
 2405 0011 10       		.uleb128 0x10
 2406 0012 06       		.uleb128 0x6
 2407 0013 00       		.byte	0x0
 2408 0014 00       		.byte	0x0
 2409 0015 02       		.uleb128 0x2
 2410 0016 24       		.uleb128 0x24
 2411 0017 00       		.byte	0x0
 2412 0018 0B       		.uleb128 0xb
 2413 0019 0B       		.uleb128 0xb
 2414 001a 3E       		.uleb128 0x3e
 2415 001b 0B       		.uleb128 0xb
 2416 001c 03       		.uleb128 0x3
 2417 001d 08       		.uleb128 0x8
 2418 001e 00       		.byte	0x0
 2419 001f 00       		.byte	0x0
 2420 0020 03       		.uleb128 0x3
 2421 0021 16       		.uleb128 0x16
 2422 0022 00       		.byte	0x0
 2423 0023 03       		.uleb128 0x3
 2424 0024 0E       		.uleb128 0xe
 2425 0025 3A       		.uleb128 0x3a
 2426 0026 0B       		.uleb128 0xb
 2427 0027 3B       		.uleb128 0x3b
 2428 0028 0B       		.uleb128 0xb
 2429 0029 49       		.uleb128 0x49
 2430 002a 13       		.uleb128 0x13
 2431 002b 00       		.byte	0x0
ARM GAS  C:\Users\DNIEL~1\AppData\Local\Temp\ccTkDJ5o.s 			page 44


 2432 002c 00       		.byte	0x0
 2433 002d 04       		.uleb128 0x4
 2434 002e 24       		.uleb128 0x24
 2435 002f 00       		.byte	0x0
 2436 0030 0B       		.uleb128 0xb
 2437 0031 0B       		.uleb128 0xb
 2438 0032 3E       		.uleb128 0x3e
 2439 0033 0B       		.uleb128 0xb
 2440 0034 03       		.uleb128 0x3
 2441 0035 0E       		.uleb128 0xe
 2442 0036 00       		.byte	0x0
 2443 0037 00       		.byte	0x0
 2444 0038 05       		.uleb128 0x5
 2445 0039 13       		.uleb128 0x13
 2446 003a 01       		.byte	0x1
 2447 003b 03       		.uleb128 0x3
 2448 003c 0E       		.uleb128 0xe
 2449 003d 0B       		.uleb128 0xb
 2450 003e 0B       		.uleb128 0xb
 2451 003f 3A       		.uleb128 0x3a
 2452 0040 0B       		.uleb128 0xb
 2453 0041 3B       		.uleb128 0x3b
 2454 0042 0B       		.uleb128 0xb
 2455 0043 01       		.uleb128 0x1
 2456 0044 13       		.uleb128 0x13
 2457 0045 00       		.byte	0x0
 2458 0046 00       		.byte	0x0
 2459 0047 06       		.uleb128 0x6
 2460 0048 0D       		.uleb128 0xd
 2461 0049 00       		.byte	0x0
 2462 004a 03       		.uleb128 0x3
 2463 004b 0E       		.uleb128 0xe
 2464 004c 3A       		.uleb128 0x3a
 2465 004d 0B       		.uleb128 0xb
 2466 004e 3B       		.uleb128 0x3b
 2467 004f 0B       		.uleb128 0xb
 2468 0050 49       		.uleb128 0x49
 2469 0051 13       		.uleb128 0x13
 2470 0052 38       		.uleb128 0x38
 2471 0053 0A       		.uleb128 0xa
 2472 0054 00       		.byte	0x0
 2473 0055 00       		.byte	0x0
 2474 0056 07       		.uleb128 0x7
 2475 0057 0D       		.uleb128 0xd
 2476 0058 00       		.byte	0x0
 2477 0059 03       		.uleb128 0x3
 2478 005a 08       		.uleb128 0x8
 2479 005b 3A       		.uleb128 0x3a
 2480 005c 0B       		.uleb128 0xb
 2481 005d 3B       		.uleb128 0x3b
 2482 005e 0B       		.uleb128 0xb
 2483 005f 49       		.uleb128 0x49
 2484 0060 13       		.uleb128 0x13
 2485 0061 38       		.uleb128 0x38
 2486 0062 0A       		.uleb128 0xa
 2487 0063 00       		.byte	0x0
 2488 0064 00       		.byte	0x0
ARM GAS  C:\Users\DNIEL~1\AppData\Local\Temp\ccTkDJ5o.s 			page 45


 2489 0065 08       		.uleb128 0x8
 2490 0066 13       		.uleb128 0x13
 2491 0067 01       		.byte	0x1
 2492 0068 0B       		.uleb128 0xb
 2493 0069 0B       		.uleb128 0xb
 2494 006a 3A       		.uleb128 0x3a
 2495 006b 0B       		.uleb128 0xb
 2496 006c 3B       		.uleb128 0x3b
 2497 006d 0B       		.uleb128 0xb
 2498 006e 01       		.uleb128 0x1
 2499 006f 13       		.uleb128 0x13
 2500 0070 00       		.byte	0x0
 2501 0071 00       		.byte	0x0
 2502 0072 09       		.uleb128 0x9
 2503 0073 0F       		.uleb128 0xf
 2504 0074 00       		.byte	0x0
 2505 0075 0B       		.uleb128 0xb
 2506 0076 0B       		.uleb128 0xb
 2507 0077 49       		.uleb128 0x49
 2508 0078 13       		.uleb128 0x13
 2509 0079 00       		.byte	0x0
 2510 007a 00       		.byte	0x0
 2511 007b 0A       		.uleb128 0xa
 2512 007c 0F       		.uleb128 0xf
 2513 007d 00       		.byte	0x0
 2514 007e 0B       		.uleb128 0xb
 2515 007f 0B       		.uleb128 0xb
 2516 0080 00       		.byte	0x0
 2517 0081 00       		.byte	0x0
 2518 0082 0B       		.uleb128 0xb
 2519 0083 13       		.uleb128 0x13
 2520 0084 01       		.byte	0x1
 2521 0085 03       		.uleb128 0x3
 2522 0086 0E       		.uleb128 0xe
 2523 0087 0B       		.uleb128 0xb
 2524 0088 0B       		.uleb128 0xb
 2525 0089 3A       		.uleb128 0x3a
 2526 008a 0B       		.uleb128 0xb
 2527 008b 3B       		.uleb128 0x3b
 2528 008c 05       		.uleb128 0x5
 2529 008d 01       		.uleb128 0x1
 2530 008e 13       		.uleb128 0x13
 2531 008f 00       		.byte	0x0
 2532 0090 00       		.byte	0x0
 2533 0091 0C       		.uleb128 0xc
 2534 0092 0D       		.uleb128 0xd
 2535 0093 00       		.byte	0x0
 2536 0094 03       		.uleb128 0x3
 2537 0095 08       		.uleb128 0x8
 2538 0096 3A       		.uleb128 0x3a
 2539 0097 0B       		.uleb128 0xb
 2540 0098 3B       		.uleb128 0x3b
 2541 0099 05       		.uleb128 0x5
 2542 009a 49       		.uleb128 0x49
 2543 009b 13       		.uleb128 0x13
 2544 009c 38       		.uleb128 0x38
 2545 009d 0A       		.uleb128 0xa
ARM GAS  C:\Users\DNIEL~1\AppData\Local\Temp\ccTkDJ5o.s 			page 46


 2546 009e 00       		.byte	0x0
 2547 009f 00       		.byte	0x0
 2548 00a0 0D       		.uleb128 0xd
 2549 00a1 35       		.uleb128 0x35
 2550 00a2 00       		.byte	0x0
 2551 00a3 49       		.uleb128 0x49
 2552 00a4 13       		.uleb128 0x13
 2553 00a5 00       		.byte	0x0
 2554 00a6 00       		.byte	0x0
 2555 00a7 0E       		.uleb128 0xe
 2556 00a8 17       		.uleb128 0x17
 2557 00a9 01       		.byte	0x1
 2558 00aa 0B       		.uleb128 0xb
 2559 00ab 0B       		.uleb128 0xb
 2560 00ac 3A       		.uleb128 0x3a
 2561 00ad 0B       		.uleb128 0xb
 2562 00ae 3B       		.uleb128 0x3b
 2563 00af 0B       		.uleb128 0xb
 2564 00b0 01       		.uleb128 0x1
 2565 00b1 13       		.uleb128 0x13
 2566 00b2 00       		.byte	0x0
 2567 00b3 00       		.byte	0x0
 2568 00b4 0F       		.uleb128 0xf
 2569 00b5 0D       		.uleb128 0xd
 2570 00b6 00       		.byte	0x0
 2571 00b7 03       		.uleb128 0x3
 2572 00b8 0E       		.uleb128 0xe
 2573 00b9 3A       		.uleb128 0x3a
 2574 00ba 0B       		.uleb128 0xb
 2575 00bb 3B       		.uleb128 0x3b
 2576 00bc 0B       		.uleb128 0xb
 2577 00bd 49       		.uleb128 0x49
 2578 00be 13       		.uleb128 0x13
 2579 00bf 00       		.byte	0x0
 2580 00c0 00       		.byte	0x0
 2581 00c1 10       		.uleb128 0x10
 2582 00c2 26       		.uleb128 0x26
 2583 00c3 00       		.byte	0x0
 2584 00c4 49       		.uleb128 0x49
 2585 00c5 13       		.uleb128 0x13
 2586 00c6 00       		.byte	0x0
 2587 00c7 00       		.byte	0x0
 2588 00c8 11       		.uleb128 0x11
 2589 00c9 13       		.uleb128 0x13
 2590 00ca 01       		.byte	0x1
 2591 00cb 0B       		.uleb128 0xb
 2592 00cc 0B       		.uleb128 0xb
 2593 00cd 3A       		.uleb128 0x3a
 2594 00ce 0B       		.uleb128 0xb
 2595 00cf 3B       		.uleb128 0x3b
 2596 00d0 05       		.uleb128 0x5
 2597 00d1 01       		.uleb128 0x1
 2598 00d2 13       		.uleb128 0x13
 2599 00d3 00       		.byte	0x0
 2600 00d4 00       		.byte	0x0
 2601 00d5 12       		.uleb128 0x12
 2602 00d6 0D       		.uleb128 0xd
ARM GAS  C:\Users\DNIEL~1\AppData\Local\Temp\ccTkDJ5o.s 			page 47


 2603 00d7 00       		.byte	0x0
 2604 00d8 03       		.uleb128 0x3
 2605 00d9 0E       		.uleb128 0xe
 2606 00da 3A       		.uleb128 0x3a
 2607 00db 0B       		.uleb128 0xb
 2608 00dc 3B       		.uleb128 0x3b
 2609 00dd 05       		.uleb128 0x5
 2610 00de 49       		.uleb128 0x49
 2611 00df 13       		.uleb128 0x13
 2612 00e0 38       		.uleb128 0x38
 2613 00e1 0A       		.uleb128 0xa
 2614 00e2 00       		.byte	0x0
 2615 00e3 00       		.byte	0x0
 2616 00e4 13       		.uleb128 0x13
 2617 00e5 16       		.uleb128 0x16
 2618 00e6 00       		.byte	0x0
 2619 00e7 03       		.uleb128 0x3
 2620 00e8 0E       		.uleb128 0xe
 2621 00e9 3A       		.uleb128 0x3a
 2622 00ea 0B       		.uleb128 0xb
 2623 00eb 3B       		.uleb128 0x3b
 2624 00ec 05       		.uleb128 0x5
 2625 00ed 49       		.uleb128 0x49
 2626 00ee 13       		.uleb128 0x13
 2627 00ef 00       		.byte	0x0
 2628 00f0 00       		.byte	0x0
 2629 00f1 14       		.uleb128 0x14
 2630 00f2 04       		.uleb128 0x4
 2631 00f3 01       		.byte	0x1
 2632 00f4 0B       		.uleb128 0xb
 2633 00f5 0B       		.uleb128 0xb
 2634 00f6 3A       		.uleb128 0x3a
 2635 00f7 0B       		.uleb128 0xb
 2636 00f8 3B       		.uleb128 0x3b
 2637 00f9 0B       		.uleb128 0xb
 2638 00fa 01       		.uleb128 0x1
 2639 00fb 13       		.uleb128 0x13
 2640 00fc 00       		.byte	0x0
 2641 00fd 00       		.byte	0x0
 2642 00fe 15       		.uleb128 0x15
 2643 00ff 28       		.uleb128 0x28
 2644 0100 00       		.byte	0x0
 2645 0101 03       		.uleb128 0x3
 2646 0102 0E       		.uleb128 0xe
 2647 0103 1C       		.uleb128 0x1c
 2648 0104 0D       		.uleb128 0xd
 2649 0105 00       		.byte	0x0
 2650 0106 00       		.byte	0x0
 2651 0107 16       		.uleb128 0x16
 2652 0108 15       		.uleb128 0x15
 2653 0109 01       		.byte	0x1
 2654 010a 27       		.uleb128 0x27
 2655 010b 0C       		.uleb128 0xc
 2656 010c 01       		.uleb128 0x1
 2657 010d 13       		.uleb128 0x13
 2658 010e 00       		.byte	0x0
 2659 010f 00       		.byte	0x0
ARM GAS  C:\Users\DNIEL~1\AppData\Local\Temp\ccTkDJ5o.s 			page 48


 2660 0110 17       		.uleb128 0x17
 2661 0111 05       		.uleb128 0x5
 2662 0112 00       		.byte	0x0
 2663 0113 49       		.uleb128 0x49
 2664 0114 13       		.uleb128 0x13
 2665 0115 00       		.byte	0x0
 2666 0116 00       		.byte	0x0
 2667 0117 18       		.uleb128 0x18
 2668 0118 2E       		.uleb128 0x2e
 2669 0119 01       		.byte	0x1
 2670 011a 3F       		.uleb128 0x3f
 2671 011b 0C       		.uleb128 0xc
 2672 011c 03       		.uleb128 0x3
 2673 011d 0E       		.uleb128 0xe
 2674 011e 3A       		.uleb128 0x3a
 2675 011f 0B       		.uleb128 0xb
 2676 0120 3B       		.uleb128 0x3b
 2677 0121 0B       		.uleb128 0xb
 2678 0122 27       		.uleb128 0x27
 2679 0123 0C       		.uleb128 0xc
 2680 0124 20       		.uleb128 0x20
 2681 0125 0B       		.uleb128 0xb
 2682 0126 01       		.uleb128 0x1
 2683 0127 13       		.uleb128 0x13
 2684 0128 00       		.byte	0x0
 2685 0129 00       		.byte	0x0
 2686 012a 19       		.uleb128 0x19
 2687 012b 05       		.uleb128 0x5
 2688 012c 00       		.byte	0x0
 2689 012d 03       		.uleb128 0x3
 2690 012e 0E       		.uleb128 0xe
 2691 012f 3A       		.uleb128 0x3a
 2692 0130 0B       		.uleb128 0xb
 2693 0131 3B       		.uleb128 0x3b
 2694 0132 0B       		.uleb128 0xb
 2695 0133 49       		.uleb128 0x49
 2696 0134 13       		.uleb128 0x13
 2697 0135 00       		.byte	0x0
 2698 0136 00       		.byte	0x0
 2699 0137 1A       		.uleb128 0x1a
 2700 0138 2E       		.uleb128 0x2e
 2701 0139 00       		.byte	0x0
 2702 013a 3F       		.uleb128 0x3f
 2703 013b 0C       		.uleb128 0xc
 2704 013c 03       		.uleb128 0x3
 2705 013d 0E       		.uleb128 0xe
 2706 013e 3A       		.uleb128 0x3a
 2707 013f 0B       		.uleb128 0xb
 2708 0140 3B       		.uleb128 0x3b
 2709 0141 0B       		.uleb128 0xb
 2710 0142 27       		.uleb128 0x27
 2711 0143 0C       		.uleb128 0xc
 2712 0144 11       		.uleb128 0x11
 2713 0145 01       		.uleb128 0x1
 2714 0146 12       		.uleb128 0x12
 2715 0147 01       		.uleb128 0x1
 2716 0148 40       		.uleb128 0x40
ARM GAS  C:\Users\DNIEL~1\AppData\Local\Temp\ccTkDJ5o.s 			page 49


 2717 0149 0A       		.uleb128 0xa
 2718 014a 00       		.byte	0x0
 2719 014b 00       		.byte	0x0
 2720 014c 1B       		.uleb128 0x1b
 2721 014d 2E       		.uleb128 0x2e
 2722 014e 01       		.byte	0x1
 2723 014f 3F       		.uleb128 0x3f
 2724 0150 0C       		.uleb128 0xc
 2725 0151 03       		.uleb128 0x3
 2726 0152 0E       		.uleb128 0xe
 2727 0153 3A       		.uleb128 0x3a
 2728 0154 0B       		.uleb128 0xb
 2729 0155 3B       		.uleb128 0x3b
 2730 0156 0B       		.uleb128 0xb
 2731 0157 27       		.uleb128 0x27
 2732 0158 0C       		.uleb128 0xc
 2733 0159 11       		.uleb128 0x11
 2734 015a 01       		.uleb128 0x1
 2735 015b 12       		.uleb128 0x12
 2736 015c 01       		.uleb128 0x1
 2737 015d 40       		.uleb128 0x40
 2738 015e 0A       		.uleb128 0xa
 2739 015f 01       		.uleb128 0x1
 2740 0160 13       		.uleb128 0x13
 2741 0161 00       		.byte	0x0
 2742 0162 00       		.byte	0x0
 2743 0163 1C       		.uleb128 0x1c
 2744 0164 05       		.uleb128 0x5
 2745 0165 00       		.byte	0x0
 2746 0166 03       		.uleb128 0x3
 2747 0167 0E       		.uleb128 0xe
 2748 0168 3A       		.uleb128 0x3a
 2749 0169 0B       		.uleb128 0xb
 2750 016a 3B       		.uleb128 0x3b
 2751 016b 0B       		.uleb128 0xb
 2752 016c 49       		.uleb128 0x49
 2753 016d 13       		.uleb128 0x13
 2754 016e 02       		.uleb128 0x2
 2755 016f 06       		.uleb128 0x6
 2756 0170 00       		.byte	0x0
 2757 0171 00       		.byte	0x0
 2758 0172 1D       		.uleb128 0x1d
 2759 0173 2E       		.uleb128 0x2e
 2760 0174 01       		.byte	0x1
 2761 0175 3F       		.uleb128 0x3f
 2762 0176 0C       		.uleb128 0xc
 2763 0177 03       		.uleb128 0x3
 2764 0178 0E       		.uleb128 0xe
 2765 0179 3A       		.uleb128 0x3a
 2766 017a 0B       		.uleb128 0xb
 2767 017b 3B       		.uleb128 0x3b
 2768 017c 0B       		.uleb128 0xb
 2769 017d 27       		.uleb128 0x27
 2770 017e 0C       		.uleb128 0xc
 2771 017f 11       		.uleb128 0x11
 2772 0180 01       		.uleb128 0x1
 2773 0181 12       		.uleb128 0x12
ARM GAS  C:\Users\DNIEL~1\AppData\Local\Temp\ccTkDJ5o.s 			page 50


 2774 0182 01       		.uleb128 0x1
 2775 0183 40       		.uleb128 0x40
 2776 0184 06       		.uleb128 0x6
 2777 0185 01       		.uleb128 0x1
 2778 0186 13       		.uleb128 0x13
 2779 0187 00       		.byte	0x0
 2780 0188 00       		.byte	0x0
 2781 0189 1E       		.uleb128 0x1e
 2782 018a 1D       		.uleb128 0x1d
 2783 018b 01       		.byte	0x1
 2784 018c 31       		.uleb128 0x31
 2785 018d 13       		.uleb128 0x13
 2786 018e 11       		.uleb128 0x11
 2787 018f 01       		.uleb128 0x1
 2788 0190 12       		.uleb128 0x12
 2789 0191 01       		.uleb128 0x1
 2790 0192 58       		.uleb128 0x58
 2791 0193 0B       		.uleb128 0xb
 2792 0194 59       		.uleb128 0x59
 2793 0195 0B       		.uleb128 0xb
 2794 0196 00       		.byte	0x0
 2795 0197 00       		.byte	0x0
 2796 0198 1F       		.uleb128 0x1f
 2797 0199 05       		.uleb128 0x5
 2798 019a 00       		.byte	0x0
 2799 019b 31       		.uleb128 0x31
 2800 019c 13       		.uleb128 0x13
 2801 019d 02       		.uleb128 0x2
 2802 019e 0A       		.uleb128 0xa
 2803 019f 00       		.byte	0x0
 2804 01a0 00       		.byte	0x0
 2805 01a1 20       		.uleb128 0x20
 2806 01a2 05       		.uleb128 0x5
 2807 01a3 00       		.byte	0x0
 2808 01a4 31       		.uleb128 0x31
 2809 01a5 13       		.uleb128 0x13
 2810 01a6 02       		.uleb128 0x2
 2811 01a7 06       		.uleb128 0x6
 2812 01a8 00       		.byte	0x0
 2813 01a9 00       		.byte	0x0
 2814 01aa 21       		.uleb128 0x21
 2815 01ab 2E       		.uleb128 0x2e
 2816 01ac 01       		.byte	0x1
 2817 01ad 31       		.uleb128 0x31
 2818 01ae 13       		.uleb128 0x13
 2819 01af 11       		.uleb128 0x11
 2820 01b0 01       		.uleb128 0x1
 2821 01b1 12       		.uleb128 0x12
 2822 01b2 01       		.uleb128 0x1
 2823 01b3 40       		.uleb128 0x40
 2824 01b4 06       		.uleb128 0x6
 2825 01b5 01       		.uleb128 0x1
 2826 01b6 13       		.uleb128 0x13
 2827 01b7 00       		.byte	0x0
 2828 01b8 00       		.byte	0x0
 2829 01b9 22       		.uleb128 0x22
 2830 01ba 0B       		.uleb128 0xb
ARM GAS  C:\Users\DNIEL~1\AppData\Local\Temp\ccTkDJ5o.s 			page 51


 2831 01bb 01       		.byte	0x1
 2832 01bc 11       		.uleb128 0x11
 2833 01bd 01       		.uleb128 0x1
 2834 01be 12       		.uleb128 0x12
 2835 01bf 01       		.uleb128 0x1
 2836 01c0 00       		.byte	0x0
 2837 01c1 00       		.byte	0x0
 2838 01c2 23       		.uleb128 0x23
 2839 01c3 34       		.uleb128 0x34
 2840 01c4 00       		.byte	0x0
 2841 01c5 03       		.uleb128 0x3
 2842 01c6 08       		.uleb128 0x8
 2843 01c7 3A       		.uleb128 0x3a
 2844 01c8 0B       		.uleb128 0xb
 2845 01c9 3B       		.uleb128 0x3b
 2846 01ca 0B       		.uleb128 0xb
 2847 01cb 49       		.uleb128 0x49
 2848 01cc 13       		.uleb128 0x13
 2849 01cd 02       		.uleb128 0x2
 2850 01ce 06       		.uleb128 0x6
 2851 01cf 00       		.byte	0x0
 2852 01d0 00       		.byte	0x0
 2853 01d1 24       		.uleb128 0x24
 2854 01d2 0B       		.uleb128 0xb
 2855 01d3 01       		.byte	0x1
 2856 01d4 55       		.uleb128 0x55
 2857 01d5 06       		.uleb128 0x6
 2858 01d6 00       		.byte	0x0
 2859 01d7 00       		.byte	0x0
 2860 01d8 25       		.uleb128 0x25
 2861 01d9 34       		.uleb128 0x34
 2862 01da 00       		.byte	0x0
 2863 01db 03       		.uleb128 0x3
 2864 01dc 08       		.uleb128 0x8
 2865 01dd 3A       		.uleb128 0x3a
 2866 01de 0B       		.uleb128 0xb
 2867 01df 3B       		.uleb128 0x3b
 2868 01e0 05       		.uleb128 0x5
 2869 01e1 49       		.uleb128 0x49
 2870 01e2 13       		.uleb128 0x13
 2871 01e3 02       		.uleb128 0x2
 2872 01e4 06       		.uleb128 0x6
 2873 01e5 00       		.byte	0x0
 2874 01e6 00       		.byte	0x0
 2875 01e7 26       		.uleb128 0x26
 2876 01e8 2E       		.uleb128 0x2e
 2877 01e9 01       		.byte	0x1
 2878 01ea 3F       		.uleb128 0x3f
 2879 01eb 0C       		.uleb128 0xc
 2880 01ec 03       		.uleb128 0x3
 2881 01ed 0E       		.uleb128 0xe
 2882 01ee 3A       		.uleb128 0x3a
 2883 01ef 0B       		.uleb128 0xb
 2884 01f0 3B       		.uleb128 0x3b
 2885 01f1 05       		.uleb128 0x5
 2886 01f2 27       		.uleb128 0x27
 2887 01f3 0C       		.uleb128 0xc
ARM GAS  C:\Users\DNIEL~1\AppData\Local\Temp\ccTkDJ5o.s 			page 52


 2888 01f4 49       		.uleb128 0x49
 2889 01f5 13       		.uleb128 0x13
 2890 01f6 11       		.uleb128 0x11
 2891 01f7 01       		.uleb128 0x1
 2892 01f8 12       		.uleb128 0x12
 2893 01f9 01       		.uleb128 0x1
 2894 01fa 40       		.uleb128 0x40
 2895 01fb 06       		.uleb128 0x6
 2896 01fc 01       		.uleb128 0x1
 2897 01fd 13       		.uleb128 0x13
 2898 01fe 00       		.byte	0x0
 2899 01ff 00       		.byte	0x0
 2900 0200 27       		.uleb128 0x27
 2901 0201 05       		.uleb128 0x5
 2902 0202 00       		.byte	0x0
 2903 0203 03       		.uleb128 0x3
 2904 0204 0E       		.uleb128 0xe
 2905 0205 3A       		.uleb128 0x3a
 2906 0206 0B       		.uleb128 0xb
 2907 0207 3B       		.uleb128 0x3b
 2908 0208 05       		.uleb128 0x5
 2909 0209 49       		.uleb128 0x49
 2910 020a 13       		.uleb128 0x13
 2911 020b 02       		.uleb128 0x2
 2912 020c 06       		.uleb128 0x6
 2913 020d 00       		.byte	0x0
 2914 020e 00       		.byte	0x0
 2915 020f 28       		.uleb128 0x28
 2916 0210 34       		.uleb128 0x34
 2917 0211 00       		.byte	0x0
 2918 0212 03       		.uleb128 0x3
 2919 0213 08       		.uleb128 0x8
 2920 0214 3A       		.uleb128 0x3a
 2921 0215 0B       		.uleb128 0xb
 2922 0216 3B       		.uleb128 0x3b
 2923 0217 05       		.uleb128 0x5
 2924 0218 49       		.uleb128 0x49
 2925 0219 13       		.uleb128 0x13
 2926 021a 02       		.uleb128 0x2
 2927 021b 0A       		.uleb128 0xa
 2928 021c 00       		.byte	0x0
 2929 021d 00       		.byte	0x0
 2930 021e 29       		.uleb128 0x29
 2931 021f 1D       		.uleb128 0x1d
 2932 0220 01       		.byte	0x1
 2933 0221 31       		.uleb128 0x31
 2934 0222 13       		.uleb128 0x13
 2935 0223 11       		.uleb128 0x11
 2936 0224 01       		.uleb128 0x1
 2937 0225 12       		.uleb128 0x12
 2938 0226 01       		.uleb128 0x1
 2939 0227 58       		.uleb128 0x58
 2940 0228 0B       		.uleb128 0xb
 2941 0229 59       		.uleb128 0x59
 2942 022a 05       		.uleb128 0x5
 2943 022b 00       		.byte	0x0
 2944 022c 00       		.byte	0x0
ARM GAS  C:\Users\DNIEL~1\AppData\Local\Temp\ccTkDJ5o.s 			page 53


 2945 022d 2A       		.uleb128 0x2a
 2946 022e 2E       		.uleb128 0x2e
 2947 022f 01       		.byte	0x1
 2948 0230 3F       		.uleb128 0x3f
 2949 0231 0C       		.uleb128 0xc
 2950 0232 03       		.uleb128 0x3
 2951 0233 0E       		.uleb128 0xe
 2952 0234 3A       		.uleb128 0x3a
 2953 0235 0B       		.uleb128 0xb
 2954 0236 3B       		.uleb128 0x3b
 2955 0237 05       		.uleb128 0x5
 2956 0238 27       		.uleb128 0x27
 2957 0239 0C       		.uleb128 0xc
 2958 023a 11       		.uleb128 0x11
 2959 023b 01       		.uleb128 0x1
 2960 023c 12       		.uleb128 0x12
 2961 023d 01       		.uleb128 0x1
 2962 023e 40       		.uleb128 0x40
 2963 023f 0A       		.uleb128 0xa
 2964 0240 01       		.uleb128 0x1
 2965 0241 13       		.uleb128 0x13
 2966 0242 00       		.byte	0x0
 2967 0243 00       		.byte	0x0
 2968 0244 2B       		.uleb128 0x2b
 2969 0245 05       		.uleb128 0x5
 2970 0246 00       		.byte	0x0
 2971 0247 03       		.uleb128 0x3
 2972 0248 0E       		.uleb128 0xe
 2973 0249 3A       		.uleb128 0x3a
 2974 024a 0B       		.uleb128 0xb
 2975 024b 3B       		.uleb128 0x3b
 2976 024c 05       		.uleb128 0x5
 2977 024d 49       		.uleb128 0x49
 2978 024e 13       		.uleb128 0x13
 2979 024f 02       		.uleb128 0x2
 2980 0250 0A       		.uleb128 0xa
 2981 0251 00       		.byte	0x0
 2982 0252 00       		.byte	0x0
 2983 0253 2C       		.uleb128 0x2c
 2984 0254 34       		.uleb128 0x34
 2985 0255 00       		.byte	0x0
 2986 0256 03       		.uleb128 0x3
 2987 0257 0E       		.uleb128 0xe
 2988 0258 3A       		.uleb128 0x3a
 2989 0259 0B       		.uleb128 0xb
 2990 025a 3B       		.uleb128 0x3b
 2991 025b 0B       		.uleb128 0xb
 2992 025c 49       		.uleb128 0x49
 2993 025d 13       		.uleb128 0x13
 2994 025e 3F       		.uleb128 0x3f
 2995 025f 0C       		.uleb128 0xc
 2996 0260 3C       		.uleb128 0x3c
 2997 0261 0C       		.uleb128 0xc
 2998 0262 00       		.byte	0x0
 2999 0263 00       		.byte	0x0
 3000 0264 2D       		.uleb128 0x2d
 3001 0265 34       		.uleb128 0x34
ARM GAS  C:\Users\DNIEL~1\AppData\Local\Temp\ccTkDJ5o.s 			page 54


 3002 0266 00       		.byte	0x0
 3003 0267 03       		.uleb128 0x3
 3004 0268 0E       		.uleb128 0xe
 3005 0269 3A       		.uleb128 0x3a
 3006 026a 0B       		.uleb128 0xb
 3007 026b 3B       		.uleb128 0x3b
 3008 026c 05       		.uleb128 0x5
 3009 026d 49       		.uleb128 0x49
 3010 026e 13       		.uleb128 0x13
 3011 026f 3F       		.uleb128 0x3f
 3012 0270 0C       		.uleb128 0xc
 3013 0271 3C       		.uleb128 0x3c
 3014 0272 0C       		.uleb128 0xc
 3015 0273 00       		.byte	0x0
 3016 0274 00       		.byte	0x0
 3017 0275 00       		.byte	0x0
 3018              		.section	.debug_pubnames,"",%progbits
 3019 0000 D4000000 		.4byte	0xd4
 3020 0004 0200     		.2byte	0x2
 3021 0006 00000000 		.4byte	.Ldebug_info0
 3022 000a FA0B0000 		.4byte	0xbfa
 3023 000e F7080000 		.4byte	0x8f7
 3024 0012 61646349 		.ascii	"adcInit\000"
 3024      6E697400 
 3025 001a 0B090000 		.4byte	0x90b
 3026 001e 6164634F 		.ascii	"adcObjectInit\000"
 3026      626A6563 
 3026      74496E69 
 3026      7400
 3027 002c 33090000 		.4byte	0x933
 3028 0030 61646353 		.ascii	"adcStart\000"
 3028      74617274 
 3028      00
 3029 0039 6B090000 		.4byte	0x96b
 3030 003d 61646353 		.ascii	"adcStop\000"
 3030      746F7000 
 3031 0045 94090000 		.4byte	0x994
 3032 0049 61646353 		.ascii	"adcStartConversion\000"
 3032      74617274 
 3032      436F6E76 
 3032      65727369 
 3032      6F6E00
 3033 005c 1A0A0000 		.4byte	0xa1a
 3034 0060 61646353 		.ascii	"adcStartConversionI\000"
 3034      74617274 
 3034      436F6E76 
 3034      65727369 
 3034      6F6E4900 
 3035 0074 4E0A0000 		.4byte	0xa4e
 3036 0078 61646353 		.ascii	"adcStopConversion\000"
 3036      746F7043 
 3036      6F6E7665 
 3036      7273696F 
 3036      6E00
 3037 008a 8F0A0000 		.4byte	0xa8f
 3038 008e 61646353 		.ascii	"adcStopConversionI\000"
 3038      746F7043 
ARM GAS  C:\Users\DNIEL~1\AppData\Local\Temp\ccTkDJ5o.s 			page 55


 3038      6F6E7665 
 3038      7273696F 
 3038      6E4900
 3039 00a1 CD0A0000 		.4byte	0xacd
 3040 00a5 61646343 		.ascii	"adcConvert\000"
 3040      6F6E7665 
 3040      727400
 3041 00b0 710B0000 		.4byte	0xb71
 3042 00b4 61646341 		.ascii	"adcAcquireBus\000"
 3042      63717569 
 3042      72654275 
 3042      7300
 3043 00c2 9B0B0000 		.4byte	0xb9b
 3044 00c6 61646352 		.ascii	"adcReleaseBus\000"
 3044      656C6561 
 3044      73654275 
 3044      7300
 3045 00d4 00000000 		.4byte	0x0
 3046              		.section	.debug_pubtypes,"",%progbits
 3047 0000 28020000 		.4byte	0x228
 3048 0004 0200     		.2byte	0x2
 3049 0006 00000000 		.4byte	.Ldebug_info0
 3050 000a FA0B0000 		.4byte	0xbfa
 3051 000e 30000000 		.4byte	0x30
 3052 0012 73697A65 		.ascii	"size_t\000"
 3052      5F7400
 3053 0019 49000000 		.4byte	0x49
 3054 001d 75696E74 		.ascii	"uint8_t\000"
 3054      385F7400 
 3055 0025 62000000 		.4byte	0x62
 3056 0029 75696E74 		.ascii	"uint16_t\000"
 3056      31365F74 
 3056      00
 3057 0032 74000000 		.4byte	0x74
 3058 0036 696E7433 		.ascii	"int32_t\000"
 3058      325F7400 
 3059 003e 86000000 		.4byte	0x86
 3060 0042 75696E74 		.ascii	"uint32_t\000"
 3060      33325F74 
 3060      00
 3061 004b A6000000 		.4byte	0xa6
 3062 004f 626F6F6C 		.ascii	"bool_t\000"
 3062      5F7400
 3063 0056 B8000000 		.4byte	0xb8
 3064 005a 746D6F64 		.ascii	"tmode_t\000"
 3064      655F7400 
 3065 0062 C3000000 		.4byte	0xc3
 3066 0066 74737461 		.ascii	"tstate_t\000"
 3066      74655F74 
 3066      00
 3067 006f CE000000 		.4byte	0xce
 3068 0073 74726566 		.ascii	"trefs_t\000"
 3068      735F7400 
 3069 007b D9000000 		.4byte	0xd9
 3070 007f 74736C69 		.ascii	"tslices_t\000"
 3070      6365735F 
 3070      7400
ARM GAS  C:\Users\DNIEL~1\AppData\Local\Temp\ccTkDJ5o.s 			page 56


 3071 0089 E4000000 		.4byte	0xe4
 3072 008d 74707269 		.ascii	"tprio_t\000"
 3072      6F5F7400 
 3073 0095 EF000000 		.4byte	0xef
 3074 0099 6D73675F 		.ascii	"msg_t\000"
 3074      7400
 3075 009f FA000000 		.4byte	0xfa
 3076 00a3 6576656E 		.ascii	"eventmask_t\000"
 3076      746D6173 
 3076      6B5F7400 
 3077 00af 05010000 		.4byte	0x105
 3078 00b3 73797374 		.ascii	"systime_t\000"
 3078      696D655F 
 3078      7400
 3079 00bd 10010000 		.4byte	0x110
 3080 00c1 54687265 		.ascii	"Thread\000"
 3080      616400
 3081 00c8 6B020000 		.4byte	0x26b
 3082 00cc 54687265 		.ascii	"ThreadsQueue\000"
 3082      61647351 
 3082      75657565 
 3082      00
 3083 00d9 8D020000 		.4byte	0x28d
 3084 00dd 54687265 		.ascii	"ThreadsList\000"
 3084      6164734C 
 3084      69737400 
 3085 00e9 98020000 		.4byte	0x298
 3086 00ed 72656761 		.ascii	"regarm_t\000"
 3086      726D5F74 
 3086      00
 3087 00f6 A5020000 		.4byte	0x2a5
 3088 00fa 696E7463 		.ascii	"intctx\000"
 3088      747800
 3089 0101 33030000 		.4byte	0x333
 3090 0105 636F6E74 		.ascii	"context\000"
 3090      65787400 
 3091 010d BD030000 		.4byte	0x3bd
 3092 0111 52656164 		.ascii	"ReadyList\000"
 3092      794C6973 
 3092      7400
 3093 011b C8030000 		.4byte	0x3c8
 3094 011f 4D757465 		.ascii	"Mutex\000"
 3094      7800
 3095 0125 05040000 		.4byte	0x405
 3096 0129 4D757465 		.ascii	"Mutex\000"
 3096      7800
 3097 012f 1B010000 		.4byte	0x11b
 3098 0133 54687265 		.ascii	"Thread\000"
 3098      616400
 3099 013a 96050000 		.4byte	0x596
 3100 013e 4144435F 		.ascii	"ADC_TypeDef\000"
 3100      54797065 
 3100      44656600 
 3101 014a E8050000 		.4byte	0x5e8
 3102 014e 444D415F 		.ascii	"DMA_Channel_TypeDef\000"
 3102      4368616E 
 3102      6E656C5F 
ARM GAS  C:\Users\DNIEL~1\AppData\Local\Temp\ccTkDJ5o.s 			page 57


 3102      54797065 
 3102      44656600 
 3103 0162 4F060000 		.4byte	0x64f
 3104 0166 73746D33 		.ascii	"stm32_dma_stream_t\000"
 3104      325F646D 
 3104      615F7374 
 3104      7265616D 
 3104      5F7400
 3105 0179 87060000 		.4byte	0x687
 3106 017d 61646373 		.ascii	"adcstate_t\000"
 3106      74617465 
 3106      5F7400
 3107 0188 92060000 		.4byte	0x692
 3108 018c 61646373 		.ascii	"adcsample_t\000"
 3108      616D706C 
 3108      655F7400 
 3109 0198 9D060000 		.4byte	0x69d
 3110 019c 6164635F 		.ascii	"adc_channels_num_t\000"
 3110      6368616E 
 3110      6E656C73 
 3110      5F6E756D 
 3110      5F7400
 3111 01af B7060000 		.4byte	0x6b7
 3112 01b3 61646365 		.ascii	"adcerror_t\000"
 3112      72726F72 
 3112      5F7400
 3113 01be C2060000 		.4byte	0x6c2
 3114 01c2 41444344 		.ascii	"ADCDriver\000"
 3114      72697665 
 3114      7200
 3115 01cc 70070000 		.4byte	0x770
 3116 01d0 61646363 		.ascii	"adccallback_t\000"
 3116      616C6C62 
 3116      61636B5F 
 3116      7400
 3117 01de A3070000 		.4byte	0x7a3
 3118 01e2 61646365 		.ascii	"adcerrorcallback_t\000"
 3118      72726F72 
 3118      63616C6C 
 3118      6261636B 
 3118      5F7400
 3119 01f5 68080000 		.4byte	0x868
 3120 01f9 41444343 		.ascii	"ADCConversionGroup\000"
 3120      6F6E7665 
 3120      7273696F 
 3120      6E47726F 
 3120      757000
 3121 020c 8A080000 		.4byte	0x88a
 3122 0210 41444343 		.ascii	"ADCConfig\000"
 3122      6F6E6669 
 3122      6700
 3123 021a CD060000 		.4byte	0x6cd
 3124 021e 41444344 		.ascii	"ADCDriver\000"
 3124      72697665 
 3124      7200
 3125 0228 00000000 		.4byte	0x0
 3126              		.section	.debug_aranges,"",%progbits
ARM GAS  C:\Users\DNIEL~1\AppData\Local\Temp\ccTkDJ5o.s 			page 58


 3127 0000 6C000000 		.4byte	0x6c
 3128 0004 0200     		.2byte	0x2
 3129 0006 00000000 		.4byte	.Ldebug_info0
 3130 000a 04       		.byte	0x4
 3131 000b 00       		.byte	0x0
 3132 000c 0000     		.2byte	0x0
 3133 000e 0000     		.2byte	0x0
 3134 0010 00000000 		.4byte	.LFB56
 3135 0014 04000000 		.4byte	.LFE56-.LFB56
 3136 0018 00000000 		.4byte	.LFB57
 3137 001c 16000000 		.4byte	.LFE57-.LFB57
 3138 0020 00000000 		.4byte	.LFB58
 3139 0024 18000000 		.4byte	.LFE58-.LFB58
 3140 0028 00000000 		.4byte	.LFB59
 3141 002c 16000000 		.4byte	.LFE59-.LFB59
 3142 0030 00000000 		.4byte	.LFB60
 3143 0034 1C000000 		.4byte	.LFE60-.LFB60
 3144 0038 00000000 		.4byte	.LFB61
 3145 003c 12000000 		.4byte	.LFE61-.LFB61
 3146 0040 00000000 		.4byte	.LFB62
 3147 0044 2E000000 		.4byte	.LFE62-.LFB62
 3148 0048 00000000 		.4byte	.LFB63
 3149 004c 2E000000 		.4byte	.LFE63-.LFB63
 3150 0050 00000000 		.4byte	.LFB64
 3151 0054 34000000 		.4byte	.LFE64-.LFB64
 3152 0058 00000000 		.4byte	.LFB65
 3153 005c 06000000 		.4byte	.LFE65-.LFB65
 3154 0060 00000000 		.4byte	.LFB66
 3155 0064 04000000 		.4byte	.LFE66-.LFB66
 3156 0068 00000000 		.4byte	0x0
 3157 006c 00000000 		.4byte	0x0
 3158              		.section	.debug_ranges,"",%progbits
 3159              	.Ldebug_ranges0:
 3160 0000 1A000000 		.4byte	.LBB9
 3161 0004 24000000 		.4byte	.LBE9
 3162 0008 28000000 		.4byte	.LBB10
 3163 000c 2E000000 		.4byte	.LBE10
 3164 0010 00000000 		.4byte	0x0
 3165 0014 00000000 		.4byte	0x0
 3166 0018 00000000 		.4byte	.LFB56
 3167 001c 04000000 		.4byte	.LFE56
 3168 0020 00000000 		.4byte	.LFB57
 3169 0024 16000000 		.4byte	.LFE57
 3170 0028 00000000 		.4byte	.LFB58
 3171 002c 18000000 		.4byte	.LFE58
 3172 0030 00000000 		.4byte	.LFB59
 3173 0034 16000000 		.4byte	.LFE59
 3174 0038 00000000 		.4byte	.LFB60
 3175 003c 1C000000 		.4byte	.LFE60
 3176 0040 00000000 		.4byte	.LFB61
 3177 0044 12000000 		.4byte	.LFE61
 3178 0048 00000000 		.4byte	.LFB62
 3179 004c 2E000000 		.4byte	.LFE62
 3180 0050 00000000 		.4byte	.LFB63
 3181 0054 2E000000 		.4byte	.LFE63
 3182 0058 00000000 		.4byte	.LFB64
 3183 005c 34000000 		.4byte	.LFE64
ARM GAS  C:\Users\DNIEL~1\AppData\Local\Temp\ccTkDJ5o.s 			page 59


 3184 0060 00000000 		.4byte	.LFB65
 3185 0064 06000000 		.4byte	.LFE65
 3186 0068 00000000 		.4byte	.LFB66
 3187 006c 04000000 		.4byte	.LFE66
 3188 0070 00000000 		.4byte	0x0
 3189 0074 00000000 		.4byte	0x0
 3190              		.section	.debug_str,"MS",%progbits,1
 3191              	.LASF2:
 3192 0000 73697A65 		.ascii	"size_t\000"
 3192      5F7400
 3193              	.LASF60:
 3194 0007 7264796D 		.ascii	"rdymsg\000"
 3194      736700
 3195              	.LASF110:
 3196 000e 646D616D 		.ascii	"dmamode\000"
 3196      6F646500 
 3197              	.LASF96:
 3198 0016 61646373 		.ascii	"adcstate_t\000"
 3198      74617465 
 3198      5F7400
 3199              	.LASF128:
 3200 0021 61646353 		.ascii	"adcStop\000"
 3200      746F7000 
 3201              	.LASF138:
 3202 0029 433A5C44 		.ascii	"C:\\Dani\\MegaLux\\Repo\\LuxControl\\LuxControl\\lu"
 3202      616E695C 
 3202      4D656761 
 3202      4C75785C 
 3202      5265706F 
 3203 0056 78636F6E 		.ascii	"xcontrol\\firmware\000"
 3203      74726F6C 
 3203      5C666972 
 3203      6D776172 
 3203      6500
 3204              	.LASF13:
 3205 0068 6C6F6E67 		.ascii	"long long unsigned int\000"
 3205      206C6F6E 
 3205      6720756E 
 3205      7369676E 
 3205      65642069 
 3206              	.LASF61:
 3207 007f 65786974 		.ascii	"exitcode\000"
 3207      636F6465 
 3207      00
 3208              	.LASF88:
 3209 0088 76656374 		.ascii	"vector\000"
 3209      6F7200
 3210              	.LASF135:
 3211 008f 49544D5F 		.ascii	"ITM_RxBuffer\000"
 3211      52784275 
 3211      66666572 
 3211      00
 3212              	.LASF27:
 3213 009c 705F7072 		.ascii	"p_prio\000"
 3213      696F00
 3214              	.LASF74:
 3215 00a3 4A535152 		.ascii	"JSQR\000"
ARM GAS  C:\Users\DNIEL~1\AppData\Local\Temp\ccTkDJ5o.s 			page 60


 3215      00
 3216              	.LASF12:
 3217 00a8 6C6F6E67 		.ascii	"long long int\000"
 3217      206C6F6E 
 3217      6720696E 
 3217      7400
 3218              	.LASF1:
 3219 00b6 7369676E 		.ascii	"signed char\000"
 3219      65642063 
 3219      68617200 
 3220              	.LASF43:
 3221 00c2 705F6D70 		.ascii	"p_mpool\000"
 3221      6F6F6C00 
 3222              	.LASF14:
 3223 00ca 626F6F6C 		.ascii	"bool_t\000"
 3223      5F7400
 3224              	.LASF57:
 3225 00d1 6D5F7175 		.ascii	"m_queue\000"
 3225      65756500 
 3226              	.LASF100:
 3227 00d9 61646365 		.ascii	"adcerror_t\000"
 3227      72726F72 
 3227      5F7400
 3228              	.LASF109:
 3229 00e4 646D6173 		.ascii	"dmastp\000"
 3229      747000
 3230              	.LASF102:
 3231 00eb 73746174 		.ascii	"state\000"
 3231      6500
 3232              	.LASF113:
 3233 00f1 63697263 		.ascii	"circular\000"
 3233      756C6172 
 3233      00
 3234              	.LASF9:
 3235 00fa 6C6F6E67 		.ascii	"long int\000"
 3235      20696E74 
 3235      00
 3236              	.LASF99:
 3237 0103 4144435F 		.ascii	"ADC_ERR_DMAFAILURE\000"
 3237      4552525F 
 3237      444D4146 
 3237      41494C55 
 3237      524500
 3238              	.LASF112:
 3239 0116 61646365 		.ascii	"adcerrorcallback_t\000"
 3239      72726F72 
 3239      63616C6C 
 3239      6261636B 
 3239      5F7400
 3240              	.LASF17:
 3241 0129 74737461 		.ascii	"tstate_t\000"
 3241      74655F74 
 3241      00
 3242              	.LASF107:
 3243 0132 74687265 		.ascii	"thread\000"
 3243      616400
 3244              	.LASF6:
ARM GAS  C:\Users\DNIEL~1\AppData\Local\Temp\ccTkDJ5o.s 			page 61


 3245 0139 75696E74 		.ascii	"uint16_t\000"
 3245      31365F74 
 3245      00
 3246              	.LASF36:
 3247 0142 705F7469 		.ascii	"p_time\000"
 3247      6D6500
 3248              	.LASF79:
 3249 0149 4144435F 		.ascii	"ADC_TypeDef\000"
 3249      54797065 
 3249      44656600 
 3250              	.LASF29:
 3251 0155 705F6E65 		.ascii	"p_newer\000"
 3251      77657200 
 3252              	.LASF115:
 3253 015d 656E645F 		.ascii	"end_cb\000"
 3253      636200
 3254              	.LASF111:
 3255 0164 61646363 		.ascii	"adccallback_t\000"
 3255      616C6C62 
 3255      61636B5F 
 3255      7400
 3256              	.LASF97:
 3257 0172 61646373 		.ascii	"adcsample_t\000"
 3257      616D706C 
 3257      655F7400 
 3258              	.LASF52:
 3259 017e 725F6E65 		.ascii	"r_newer\000"
 3259      77657200 
 3260              	.LASF124:
 3261 0186 41444343 		.ascii	"ADCConfig\000"
 3261      6F6E6669 
 3261      6700
 3262              	.LASF46:
 3263 0190 72656761 		.ascii	"regarm_t\000"
 3263      726D5F74 
 3263      00
 3264              	.LASF137:
 3265 0199 2E2E2F2E 		.ascii	"../../../ChibiOS/os/hal/src/adc.c\000"
 3265      2E2F2E2E 
 3265      2F436869 
 3265      62694F53 
 3265      2F6F732F 
 3266              	.LASF123:
 3267 01bb 64756D6D 		.ascii	"dummy\000"
 3267      7900
 3268              	.LASF24:
 3269 01c1 54687265 		.ascii	"Thread\000"
 3269      616400
 3270              	.LASF90:
 3271 01c8 4144435F 		.ascii	"ADC_UNINIT\000"
 3271      554E494E 
 3271      495400
 3272              	.LASF93:
 3273 01d3 4144435F 		.ascii	"ADC_ACTIVE\000"
 3273      41435449 
 3273      564500
 3274              	.LASF19:
ARM GAS  C:\Users\DNIEL~1\AppData\Local\Temp\ccTkDJ5o.s 			page 62


 3275 01de 74736C69 		.ascii	"tslices_t\000"
 3275      6365735F 
 3275      7400
 3276              	.LASF0:
 3277 01e8 756E7369 		.ascii	"unsigned int\000"
 3277      676E6564 
 3277      20696E74 
 3277      00
 3278              	.LASF126:
 3279 01f5 6164634F 		.ascii	"adcObjectInit\000"
 3279      626A6563 
 3279      74496E69 
 3279      7400
 3280              	.LASF81:
 3281 0203 43504152 		.ascii	"CPAR\000"
 3281      00
 3282              	.LASF38:
 3283 0208 705F6D73 		.ascii	"p_msgqueue\000"
 3283      67717565 
 3283      756500
 3284              	.LASF101:
 3285 0213 41444344 		.ascii	"ADCDriver\000"
 3285      72697665 
 3285      7200
 3286              	.LASF83:
 3287 021d 444D415F 		.ascii	"DMA_Channel_TypeDef\000"
 3287      4368616E 
 3287      6E656C5F 
 3287      54797065 
 3287      44656600 
 3288              	.LASF86:
 3289 0231 69736869 		.ascii	"ishift\000"
 3289      667400
 3290              	.LASF7:
 3291 0238 73686F72 		.ascii	"short unsigned int\000"
 3291      7420756E 
 3291      7369676E 
 3291      65642069 
 3291      6E7400
 3292              	.LASF92:
 3293 024b 4144435F 		.ascii	"ADC_READY\000"
 3293      52454144 
 3293      5900
 3294              	.LASF105:
 3295 0255 64657074 		.ascii	"depth\000"
 3295      6800
 3296              	.LASF21:
 3297 025b 6D73675F 		.ascii	"msg_t\000"
 3297      7400
 3298              	.LASF87:
 3299 0261 73656C66 		.ascii	"selfindex\000"
 3299      696E6465 
 3299      7800
 3300              	.LASF136:
 3301 026b 474E5520 		.ascii	"GNU C 4.5.2\000"
 3301      4320342E 
 3301      352E3200 
ARM GAS  C:\Users\DNIEL~1\AppData\Local\Temp\ccTkDJ5o.s 			page 63


 3302              	.LASF16:
 3303 0277 746D6F64 		.ascii	"tmode_t\000"
 3303      655F7400 
 3304              	.LASF114:
 3305 027f 6E756D5F 		.ascii	"num_channels\000"
 3305      6368616E 
 3305      6E656C73 
 3305      00
 3306              	.LASF45:
 3307 028c 54687265 		.ascii	"ThreadsList\000"
 3307      6164734C 
 3307      69737400 
 3308              	.LASF22:
 3309 0298 6576656E 		.ascii	"eventmask_t\000"
 3309      746D6173 
 3309      6B5F7400 
 3310              	.LASF140:
 3311 02a4 61646349 		.ascii	"adcInit\000"
 3311      6E697400 
 3312              	.LASF82:
 3313 02ac 434D4152 		.ascii	"CMAR\000"
 3313      00
 3314              	.LASF106:
 3315 02b1 67727070 		.ascii	"grpp\000"
 3315      00
 3316              	.LASF67:
 3317 02b6 4A4F4652 		.ascii	"JOFR1\000"
 3317      3100
 3318              	.LASF68:
 3319 02bc 4A4F4652 		.ascii	"JOFR2\000"
 3319      3200
 3320              	.LASF69:
 3321 02c2 4A4F4652 		.ascii	"JOFR3\000"
 3321      3300
 3322              	.LASF104:
 3323 02c8 73616D70 		.ascii	"samples\000"
 3323      6C657300 
 3324              	.LASF56:
 3325 02d0 4D757465 		.ascii	"Mutex\000"
 3325      7800
 3326              	.LASF49:
 3327 02d6 725F7175 		.ascii	"r_queue\000"
 3327      65756500 
 3328              	.LASF91:
 3329 02de 4144435F 		.ascii	"ADC_STOP\000"
 3329      53544F50 
 3329      00
 3330              	.LASF30:
 3331 02e7 705F6F6C 		.ascii	"p_older\000"
 3331      64657200 
 3332              	.LASF51:
 3333 02ef 725F6374 		.ascii	"r_ctx\000"
 3333      7800
 3334              	.LASF44:
 3335 02f5 54687265 		.ascii	"ThreadsQueue\000"
 3335      61647351 
 3335      75657565 
ARM GAS  C:\Users\DNIEL~1\AppData\Local\Temp\ccTkDJ5o.s 			page 64


 3335      00
 3336              	.LASF65:
 3337 0302 534D5052 		.ascii	"SMPR1\000"
 3337      3100
 3338              	.LASF66:
 3339 0308 534D5052 		.ascii	"SMPR2\000"
 3339      3200
 3340              	.LASF59:
 3341 030e 6D5F6E65 		.ascii	"m_next\000"
 3341      787400
 3342              	.LASF54:
 3343 0315 725F6375 		.ascii	"r_current\000"
 3343      7272656E 
 3343      7400
 3344              	.LASF53:
 3345 031f 725F6F6C 		.ascii	"r_older\000"
 3345      64657200 
 3346              	.LASF71:
 3347 0327 53515231 		.ascii	"SQR1\000"
 3347      00
 3348              	.LASF72:
 3349 032c 53515232 		.ascii	"SQR2\000"
 3349      00
 3350              	.LASF73:
 3351 0331 53515233 		.ascii	"SQR3\000"
 3351      00
 3352              	.LASF139:
 3353 0336 61646353 		.ascii	"adcStartConversionI\000"
 3353      74617274 
 3353      436F6E76 
 3353      65727369 
 3353      6F6E4900 
 3354              	.LASF18:
 3355 034a 74726566 		.ascii	"trefs_t\000"
 3355      735F7400 
 3356              	.LASF26:
 3357 0352 705F7072 		.ascii	"p_prev\000"
 3357      657600
 3358              	.LASF89:
 3359 0359 73746D33 		.ascii	"stm32_dma_stream_t\000"
 3359      325F646D 
 3359      615F7374 
 3359      7265616D 
 3359      5F7400
 3360              	.LASF20:
 3361 036c 74707269 		.ascii	"tprio_t\000"
 3361      6F5F7400 
 3362              	.LASF108:
 3363 0374 6D757465 		.ascii	"mutex\000"
 3363      7800
 3364              	.LASF15:
 3365 037a 5F426F6F 		.ascii	"_Bool\000"
 3365      6C00
 3366              	.LASF8:
 3367 0380 696E7433 		.ascii	"int32_t\000"
 3367      325F7400 
 3368              	.LASF4:
ARM GAS  C:\Users\DNIEL~1\AppData\Local\Temp\ccTkDJ5o.s 			page 65


 3369 0388 756E7369 		.ascii	"unsigned char\000"
 3369      676E6564 
 3369      20636861 
 3369      7200
 3370              	.LASF41:
 3371 0396 705F6D74 		.ascii	"p_mtxlist\000"
 3371      786C6973 
 3371      7400
 3372              	.LASF5:
 3373 03a0 73686F72 		.ascii	"short int\000"
 3373      7420696E 
 3373      7400
 3374              	.LASF32:
 3375 03aa 705F7374 		.ascii	"p_state\000"
 3375      61746500 
 3376              	.LASF35:
 3377 03b2 705F7072 		.ascii	"p_preempt\000"
 3377      65656D70 
 3377      7400
 3378              	.LASF116:
 3379 03bc 6572726F 		.ascii	"error_cb\000"
 3379      725F6362 
 3379      00
 3380              	.LASF50:
 3381 03c5 725F7072 		.ascii	"r_prio\000"
 3381      696F00
 3382              	.LASF63:
 3383 03cc 65776D61 		.ascii	"ewmask\000"
 3383      736B00
 3384              	.LASF25:
 3385 03d3 705F6E65 		.ascii	"p_next\000"
 3385      787400
 3386              	.LASF33:
 3387 03da 705F666C 		.ascii	"p_flags\000"
 3387      61677300 
 3388              	.LASF70:
 3389 03e2 4A4F4652 		.ascii	"JOFR4\000"
 3389      3400
 3390              	.LASF84:
 3391 03e8 6368616E 		.ascii	"channel\000"
 3391      6E656C00 
 3392              	.LASF40:
 3393 03f0 705F6570 		.ascii	"p_epending\000"
 3393      656E6469 
 3393      6E6700
 3394              	.LASF85:
 3395 03fb 69666372 		.ascii	"ifcr\000"
 3395      00
 3396              	.LASF10:
 3397 0400 75696E74 		.ascii	"uint32_t\000"
 3397      33325F74 
 3397      00
 3398              	.LASF133:
 3399 0409 61646352 		.ascii	"adcReleaseBus\000"
 3399      656C6561 
 3399      73654275 
 3399      7300
ARM GAS  C:\Users\DNIEL~1\AppData\Local\Temp\ccTkDJ5o.s 			page 66


 3400              	.LASF117:
 3401 0417 736D7072 		.ascii	"smpr1\000"
 3401      3100
 3402              	.LASF11:
 3403 041d 6C6F6E67 		.ascii	"long unsigned int\000"
 3403      20756E73 
 3403      69676E65 
 3403      6420696E 
 3403      7400
 3404              	.LASF64:
 3405 042f 63686172 		.ascii	"char\000"
 3405      00
 3406              	.LASF103:
 3407 0434 636F6E66 		.ascii	"config\000"
 3407      696700
 3408              	.LASF119:
 3409 043b 73717231 		.ascii	"sqr1\000"
 3409      00
 3410              	.LASF120:
 3411 0440 73717232 		.ascii	"sqr2\000"
 3411      00
 3412              	.LASF121:
 3413 0445 73717233 		.ascii	"sqr3\000"
 3413      00
 3414              	.LASF23:
 3415 044a 73797374 		.ascii	"systime_t\000"
 3415      696D655F 
 3415      7400
 3416              	.LASF42:
 3417 0454 705F7265 		.ascii	"p_realprio\000"
 3417      616C7072 
 3417      696F00
 3418              	.LASF48:
 3419 045f 636F6E74 		.ascii	"context\000"
 3419      65787400 
 3420              	.LASF129:
 3421 0467 61646353 		.ascii	"adcStartConversion\000"
 3421      74617274 
 3421      436F6E76 
 3421      65727369 
 3421      6F6E00
 3422              	.LASF47:
 3423 047a 696E7463 		.ascii	"intctx\000"
 3423      747800
 3424              	.LASF95:
 3425 0481 4144435F 		.ascii	"ADC_ERROR\000"
 3425      4552524F 
 3425      5200
 3426              	.LASF127:
 3427 048b 61646353 		.ascii	"adcStart\000"
 3427      74617274 
 3427      00
 3428              	.LASF34:
 3429 0494 705F7265 		.ascii	"p_refs\000"
 3429      667300
 3430              	.LASF55:
 3431 049b 52656164 		.ascii	"ReadyList\000"
ARM GAS  C:\Users\DNIEL~1\AppData\Local\Temp\ccTkDJ5o.s 			page 67


 3431      794C6973 
 3431      7400
 3432              	.LASF80:
 3433 04a5 434E4454 		.ascii	"CNDTR\000"
 3433      5200
 3434              	.LASF118:
 3435 04ab 736D7072 		.ascii	"smpr2\000"
 3435      3200
 3436              	.LASF134:
 3437 04b1 726C6973 		.ascii	"rlist\000"
 3437      7400
 3438              	.LASF3:
 3439 04b7 75696E74 		.ascii	"uint8_t\000"
 3439      385F7400 
 3440              	.LASF131:
 3441 04bf 61646353 		.ascii	"adcStopConversionI\000"
 3441      746F7043 
 3441      6F6E7665 
 3441      7273696F 
 3441      6E4900
 3442              	.LASF122:
 3443 04d2 41444343 		.ascii	"ADCConversionGroup\000"
 3443      6F6E7665 
 3443      7273696F 
 3443      6E47726F 
 3443      757000
 3444              	.LASF75:
 3445 04e5 4A445231 		.ascii	"JDR1\000"
 3445      00
 3446              	.LASF76:
 3447 04ea 4A445232 		.ascii	"JDR2\000"
 3447      00
 3448              	.LASF77:
 3449 04ef 4A445233 		.ascii	"JDR3\000"
 3449      00
 3450              	.LASF78:
 3451 04f4 4A445234 		.ascii	"JDR4\000"
 3451      00
 3452              	.LASF62:
 3453 04f9 77746F62 		.ascii	"wtobjp\000"
 3453      6A7000
 3454              	.LASF94:
 3455 0500 4144435F 		.ascii	"ADC_COMPLETE\000"
 3455      434F4D50 
 3455      4C455445 
 3455      00
 3456              	.LASF31:
 3457 050d 705F6E61 		.ascii	"p_name\000"
 3457      6D6500
 3458              	.LASF98:
 3459 0514 6164635F 		.ascii	"adc_channels_num_t\000"
 3459      6368616E 
 3459      6E656C73 
 3459      5F6E756D 
 3459      5F7400
 3460              	.LASF39:
 3461 0527 705F6D73 		.ascii	"p_msg\000"
ARM GAS  C:\Users\DNIEL~1\AppData\Local\Temp\ccTkDJ5o.s 			page 68


 3461      6700
 3462              	.LASF125:
 3463 052d 61646370 		.ascii	"adcp\000"
 3463      00
 3464              	.LASF141:
 3465 0532 61646343 		.ascii	"adcConvert\000"
 3465      6F6E7665 
 3465      727400
 3466              	.LASF130:
 3467 053d 61646353 		.ascii	"adcStopConversion\000"
 3467      746F7043 
 3467      6F6E7665 
 3467      7273696F 
 3467      6E00
 3468              	.LASF58:
 3469 054f 6D5F6F77 		.ascii	"m_owner\000"
 3469      6E657200 
 3470              	.LASF132:
 3471 0557 61646341 		.ascii	"adcAcquireBus\000"
 3471      63717569 
 3471      72654275 
 3471      7300
 3472              	.LASF28:
 3473 0565 705F6374 		.ascii	"p_ctx\000"
 3473      7800
 3474              	.LASF37:
 3475 056b 705F7761 		.ascii	"p_waiting\000"
 3475      6974696E 
 3475      6700
 3476              		.ident	"GCC: (Sourcery G++ Lite 2011.03-42) 4.5.2"
ARM GAS  C:\Users\DNIEL~1\AppData\Local\Temp\ccTkDJ5o.s 			page 69


DEFINED SYMBOLS
                            *ABS*:00000000 adc.c
C:\Users\DNIEL~1\AppData\Local\Temp\ccTkDJ5o.s:24     .text.adcInit:00000000 $t
C:\Users\DNIEL~1\AppData\Local\Temp\ccTkDJ5o.s:30     .text.adcInit:00000000 adcInit
C:\Users\DNIEL~1\AppData\Local\Temp\ccTkDJ5o.s:45     .text.adcObjectInit:00000000 $t
C:\Users\DNIEL~1\AppData\Local\Temp\ccTkDJ5o.s:51     .text.adcObjectInit:00000000 adcObjectInit
C:\Users\DNIEL~1\AppData\Local\Temp\ccTkDJ5o.s:84     .text.adcStart:00000000 $t
C:\Users\DNIEL~1\AppData\Local\Temp\ccTkDJ5o.s:90     .text.adcStart:00000000 adcStart
C:\Users\DNIEL~1\AppData\Local\Temp\ccTkDJ5o.s:128    .text.adcStop:00000000 $t
C:\Users\DNIEL~1\AppData\Local\Temp\ccTkDJ5o.s:134    .text.adcStop:00000000 adcStop
C:\Users\DNIEL~1\AppData\Local\Temp\ccTkDJ5o.s:170    .text.adcStartConversion:00000000 $t
C:\Users\DNIEL~1\AppData\Local\Temp\ccTkDJ5o.s:176    .text.adcStartConversion:00000000 adcStartConversion
C:\Users\DNIEL~1\AppData\Local\Temp\ccTkDJ5o.s:226    .text.adcStartConversionI:00000000 $t
C:\Users\DNIEL~1\AppData\Local\Temp\ccTkDJ5o.s:232    .text.adcStartConversionI:00000000 adcStartConversionI
C:\Users\DNIEL~1\AppData\Local\Temp\ccTkDJ5o.s:263    .text.adcStopConversion:00000000 $t
C:\Users\DNIEL~1\AppData\Local\Temp\ccTkDJ5o.s:269    .text.adcStopConversion:00000000 adcStopConversion
C:\Users\DNIEL~1\AppData\Local\Temp\ccTkDJ5o.s:327    .text.adcStopConversionI:00000000 $t
C:\Users\DNIEL~1\AppData\Local\Temp\ccTkDJ5o.s:333    .text.adcStopConversionI:00000000 adcStopConversionI
C:\Users\DNIEL~1\AppData\Local\Temp\ccTkDJ5o.s:390    .text.adcConvert:00000000 $t
C:\Users\DNIEL~1\AppData\Local\Temp\ccTkDJ5o.s:396    .text.adcConvert:00000000 adcConvert
C:\Users\DNIEL~1\AppData\Local\Temp\ccTkDJ5o.s:460    .text.adcConvert:00000030 $d
C:\Users\DNIEL~1\AppData\Local\Temp\ccTkDJ5o.s:465    .text.adcAcquireBus:00000000 $t
C:\Users\DNIEL~1\AppData\Local\Temp\ccTkDJ5o.s:471    .text.adcAcquireBus:00000000 adcAcquireBus
C:\Users\DNIEL~1\AppData\Local\Temp\ccTkDJ5o.s:489    .text.adcReleaseBus:00000000 $t
C:\Users\DNIEL~1\AppData\Local\Temp\ccTkDJ5o.s:495    .text.adcReleaseBus:00000000 adcReleaseBus
                     .debug_frame:00000010 $d
C:\Users\DNIEL~1\AppData\Local\Temp\ccTkDJ5o.s:464    .text.adcConvert:00000034 $t

UNDEFINED SYMBOLS
adc_lld_init
chMtxInit
_port_lock
adc_lld_start
_port_unlock
adc_lld_stop
adc_lld_start_conversion
adc_lld_stop_conversion
chSchWakeupS
chSchReadyI
chSchGoSleepS
rlist
chMtxLock
chMtxUnlock
