ARM GAS  C:\Users\DNIEL~1\AppData\Local\Temp\ccTkDJ5o.s 			page 1


   1              		.syntax unified
   2              		.cpu cortex-m3
   3              		.fpu softvfp
   4              		.eabi_attribute 20, 1
   5              		.eabi_attribute 21, 1
   6              		.eabi_attribute 23, 3
   7              		.eabi_attribute 24, 1
   8              		.eabi_attribute 25, 1
   9              		.eabi_attribute 26, 1
  10              		.eabi_attribute 30, 2
  11              		.eabi_attribute 18, 4
  12              		.thumb
  13              		.file	"adc.c"
  20 0000 C6030000 		.text
  20      02008802 
  20      00000201 
  20      FB0E0D00 
  20      01010101 
  21              	.Ltext0:
  22              		.cfi_sections	.debug_frame
  23              		.section	.text.adcInit,"ax",%progbits
  24              		.align	2
  25              		.p2align 4,,15
  26              		.global	adcInit
  27              		.thumb
  28              		.thumb_func
  29              		.type	adcInit, %function
  30              	adcInit:
  31              	.LFB56:
  32              		.file 1 "../../../ChibiOS/os/hal/src/adc.c"
  33              		.loc 1 68 0
  34              		.cfi_startproc
  35              		@ args = 0, pretend = 0, frame = 0
  36              		@ frame_needed = 0, uses_anonymous_args = 0
  37              		@ link register save eliminated.
  38              		.loc 1 71 0
  39              		.loc 1 70 0
  40 0000 FFF7FEBF 		b	adc_lld_init
  41              		.cfi_endproc
  42              	.LFE56:
  43              		.size	adcInit, .-adcInit
  44 0004 AFF30080 		.section	.text.adcObjectInit,"ax",%progbits
  44      AFF30080 
  44      AFF30080 
  45              		.align	2
  46              		.p2align 4,,15
  47              		.global	adcObjectInit
  48              		.thumb
  49              		.thumb_func
  50              		.type	adcObjectInit, %function
  51              	adcObjectInit:
ARM GAS  C:\Users\DNIEL~1\AppData\Local\Temp\ccTkDJ5o.s 			page 2


  52              	.LFB57:
  53              		.loc 1 80 0
  54              		.cfi_startproc
  55              		@ args = 0, pretend = 0, frame = 0
  56              		@ frame_needed = 0, uses_anonymous_args = 0
  57              		@ link register save eliminated.
  58              	.LVL0:
  59              		.loc 1 83 0
  60 0000 0023     		movs	r3, #0
  61              		.loc 1 82 0
  62 0002 0122     		movs	r2, #1
  63 0004 0270     		strb	r2, [r0, #0]
  64              		.loc 1 83 0
  65 0006 4360     		str	r3, [r0, #4]
  66              		.loc 1 84 0
  67 0008 8360     		str	r3, [r0, #8]
  68              		.loc 1 85 0
  69 000a C360     		str	r3, [r0, #12]
  70              		.loc 1 86 0
  71 000c 0361     		str	r3, [r0, #16]
  72              		.loc 1 88 0
  73 000e 4361     		str	r3, [r0, #20]
  74              		.loc 1 92 0
  75 0010 1830     		adds	r0, r0, #24
  76              	.LVL1:
  77              		.loc 1 100 0
  78              		.loc 1 92 0
  79 0012 FFF7FEBF 		b	chMtxInit
  80              		.cfi_endproc
  81              	.LFE57:
  82              		.size	adcObjectInit, .-adcObjectInit
  83 0016 00BFAFF3 		.section	.text.adcStart,"ax",%progbits
  83      0080AFF3 
  83      0080
  84              		.align	2
  85              		.p2align 4,,15
  86              		.global	adcStart
  87              		.thumb
  88              		.thumb_func
  89              		.type	adcStart, %function
  90              	adcStart:
  91              	.LFB58:
  92              		.loc 1 111 0
  93              		.cfi_startproc
  94              		@ args = 0, pretend = 0, frame = 0
  95              		@ frame_needed = 0, uses_anonymous_args = 0
  96              	.LVL2:
  97 0000 10B5     		push	{r4, lr}
  98              	.LCFI0:
  99              		.cfi_def_cfa_offset 8
 100              		.loc 1 111 0
 101 0002 0446     		mov	r4, r0
 102              		.cfi_offset 14, -4
 103              		.cfi_offset 4, -8
 104              		.loc 1 115 0
 105              	@ 115 "../../../ChibiOS/os/hal/src/adc.c" 1
 106 0004 FFF7FEFF 		bl      _port_lock
ARM GAS  C:\Users\DNIEL~1\AppData\Local\Temp\ccTkDJ5o.s 			page 3


 107              	@ 0 "" 2
 108              		.loc 1 118 0
 109              		.thumb
 110 0008 4160     		str	r1, [r0, #4]
 111              		.loc 1 119 0
 112 000a FFF7FEFF 		bl	adc_lld_start
 113              	.LVL3:
 114              		.loc 1 120 0
 115 000e 0223     		movs	r3, #2
 116 0010 2370     		strb	r3, [r4, #0]
 117              		.loc 1 121 0
 118              	@ 121 "../../../ChibiOS/os/hal/src/adc.c" 1
 119 0012 FFF7FEFF 		bl      _port_unlock
 120              	@ 0 "" 2
 121              		.loc 1 122 0
 122              		.thumb
 123 0016 10BD     		pop	{r4, pc}
 124              		.cfi_endproc
 125              	.LFE58:
 126              		.size	adcStart, .-adcStart
 127 0018 AFF30080 		.section	.text.adcStop,"ax",%progbits
 127      AFF30080 
 128              		.align	2
 129              		.p2align 4,,15
 130              		.global	adcStop
 131              		.thumb
 132              		.thumb_func
 133              		.type	adcStop, %function
 134              	adcStop:
 135              	.LFB59:
 136              		.loc 1 131 0
 137              		.cfi_startproc
 138              		@ args = 0, pretend = 0, frame = 0
 139              		@ frame_needed = 0, uses_anonymous_args = 0
 140              	.LVL4:
 141 0000 10B5     		push	{r4, lr}
 142              	.LCFI1:
 143              		.cfi_def_cfa_offset 8
 144              		.loc 1 131 0
 145 0002 0446     		mov	r4, r0
 146              		.cfi_offset 14, -4
 147              		.cfi_offset 4, -8
 148              		.loc 1 135 0
 149              	@ 135 "../../../ChibiOS/os/hal/src/adc.c" 1
 150 0004 FFF7FEFF 		bl      _port_lock
 151              	@ 0 "" 2
 152              		.loc 1 138 0
 153              		.thumb
 154 0008 FFF7FEFF 		bl	adc_lld_stop
 155              	.LVL5:
 156              		.loc 1 139 0
 157 000c 0123     		movs	r3, #1
 158 000e 2370     		strb	r3, [r4, #0]
 159              		.loc 1 140 0
 160              	@ 140 "../../../ChibiOS/os/hal/src/adc.c" 1
 161 0010 FFF7FEFF 		bl      _port_unlock
 162              	@ 0 "" 2
ARM GAS  C:\Users\DNIEL~1\AppData\Local\Temp\ccTkDJ5o.s 			page 4


 163              		.loc 1 141 0
 164              		.thumb
 165 0014 10BD     		pop	{r4, pc}
 166              		.cfi_endproc
 167              	.LFE59:
 168              		.size	adcStop, .-adcStop
 169 0016 00BFAFF3 		.section	.text.adcStartConversion,"ax",%progbits
 169      0080AFF3 
 169      0080
 170              		.align	2
 171              		.p2align 4,,15
 172              		.global	adcStartConversion
 173              		.thumb
 174              		.thumb_func
 175              		.type	adcStartConversion, %function
 176              	adcStartConversion:
 177              	.LFB60:
 178              		.loc 1 162 0
 179              		.cfi_startproc
 180              		@ args = 0, pretend = 0, frame = 0
 181              		@ frame_needed = 0, uses_anonymous_args = 0
 182              	.LVL6:
 183 0000 38B5     		push	{r3, r4, r5, lr}
 184              	.LCFI2:
 185              		.cfi_def_cfa_offset 16
 186              		.loc 1 162 0
 187 0002 1D46     		mov	r5, r3
 188              		.cfi_offset 14, -4
 189              		.cfi_offset 5, -8
 190              		.cfi_offset 4, -12
 191              		.cfi_offset 3, -16
 192              		.loc 1 164 0
 193              	@ 164 "../../../ChibiOS/os/hal/src/adc.c" 1
 194 0004 FFF7FEFF 		bl      _port_lock
 195              	@ 0 "" 2
 196              	.LVL7:
 197              		.thumb
 198              	.LBB6:
 199              	.LBB7:
 200              		.loc 1 204 0
 201 0008 0323     		movs	r3, #3
 202              		.loc 1 201 0
 203 000a 8260     		str	r2, [r0, #8]
 204              		.loc 1 202 0
 205 000c C560     		str	r5, [r0, #12]
 206              		.loc 1 203 0
 207 000e 0161     		str	r1, [r0, #16]
 208              		.loc 1 204 0
 209 0010 0370     		strb	r3, [r0, #0]
 210              		.loc 1 205 0
 211 0012 FFF7FEFF 		bl	adc_lld_start_conversion
 212              	.LVL8:
 213              	.LBE7:
 214              	.LBE6:
 215              		.loc 1 166 0
 216              	@ 166 "../../../ChibiOS/os/hal/src/adc.c" 1
 217 0016 FFF7FEFF 		bl      _port_unlock
ARM GAS  C:\Users\DNIEL~1\AppData\Local\Temp\ccTkDJ5o.s 			page 5


 218              	@ 0 "" 2
 219              		.loc 1 167 0
 220              		.thumb
 221 001a 38BD     		pop	{r3, r4, r5, pc}
 222              		.cfi_endproc
 223              	.LFE60:
 224              		.size	adcStartConversion, .-adcStartConversion
 225 001c AFF30080 		.section	.text.adcStartConversionI,"ax",%progbits
 226              		.align	2
 227              		.p2align 4,,15
 228              		.global	adcStartConversionI
 229              		.thumb
 230              		.thumb_func
 231              		.type	adcStartConversionI, %function
 232              	adcStartConversionI:
 233              	.LFB61:
 234              		.loc 1 190 0
 235              		.cfi_startproc
 236              		@ args = 0, pretend = 0, frame = 0
 237              		@ frame_needed = 0, uses_anonymous_args = 0
 238              		@ link register save eliminated.
 239              	.LVL9:
 240 0000 10B4     		push	{r4}
 241              	.LCFI3:
 242              		.cfi_def_cfa_offset 4
 243              		.loc 1 202 0
 244 0002 C360     		str	r3, [r0, #12]
 245              		.loc 1 204 0
 246 0004 0323     		movs	r3, #3
 247              	.LVL10:
 248              		.loc 1 201 0
 249 0006 8260     		str	r2, [r0, #8]
 250              		.loc 1 203 0
 251 0008 0161     		str	r1, [r0, #16]
 252              		.loc 1 204 0
 253 000a 0370     		strb	r3, [r0, #0]
 254              		.loc 1 206 0
 255 000c 10BC     		pop	{r4}
 256              		.loc 1 205 0
 257              		.cfi_offset 4, -4
 258 000e FFF7FEBF 		b	adc_lld_start_conversion
 259              		.cfi_endproc
 260              	.LFE61:
 261              		.size	adcStartConversionI, .-adcStartConversionI
 262 0012 00BFAFF3 		.section	.text.adcStopConversion,"ax",%progbits
 262      0080AFF3 
 262      0080AFF3 
 262      0080
 263              		.align	2
 264              		.p2align 4,,15
 265              		.global	adcStopConversion
 266              		.thumb
 267              		.thumb_func
 268              		.type	adcStopConversion, %function
 269              	adcStopConversion:
 270              	.LFB62:
 271              		.loc 1 218 0
ARM GAS  C:\Users\DNIEL~1\AppData\Local\Temp\ccTkDJ5o.s 			page 6


 272              		.cfi_startproc
 273              		@ args = 0, pretend = 0, frame = 0
 274              		@ frame_needed = 0, uses_anonymous_args = 0
 275              	.LVL11:
 276 0000 10B5     		push	{r4, lr}
 277              	.LCFI4:
 278              		.cfi_def_cfa_offset 8
 279              		.loc 1 218 0
 280 0002 0446     		mov	r4, r0
 281              		.cfi_offset 14, -4
 282              		.cfi_offset 4, -8
 283              		.loc 1 222 0
 284              	@ 222 "../../../ChibiOS/os/hal/src/adc.c" 1
 285 0004 FFF7FEFF 		bl      _port_lock
 286              	@ 0 "" 2
 287              		.loc 1 226 0
 288              		.thumb
 289 0008 0378     		ldrb	r3, [r0, #0]	@ zero_extendqisi2
 290 000a 022B     		cmp	r3, #2
 291 000c 0CD0     		beq	.L8
 292              		.loc 1 227 0
 293 000e FFF7FEFF 		bl	adc_lld_stop_conversion
 294              	.LVL12:
 295              		.loc 1 230 0
 296 0012 6069     		ldr	r0, [r4, #20]
 297              		.loc 1 228 0
 298 0014 0023     		movs	r3, #0
 299              		.loc 1 229 0
 300 0016 0222     		movs	r2, #2
 301              		.loc 1 228 0
 302 0018 2361     		str	r3, [r4, #16]
 303              		.loc 1 229 0
 304 001a 2270     		strb	r2, [r4, #0]
 305              		.loc 1 230 0
 306 001c 20B1     		cbz	r0, .L8
 307              	.LVL13:
 308              	.LBB8:
 309              		.loc 1 230 0 is_stmt 0 discriminator 1
 310 001e 6361     		str	r3, [r4, #20]
 311 0020 6FF00101 		mvn	r1, #1
 312 0024 FFF7FEFF 		bl	chSchWakeupS
 313              	.LVL14:
 314              	.L8:
 315              	.LBE8:
 316              		.loc 1 232 0 is_stmt 1
 317              	@ 232 "../../../ChibiOS/os/hal/src/adc.c" 1
 318 0028 FFF7FEFF 		bl      _port_unlock
 319              	@ 0 "" 2
 320              		.loc 1 233 0
 321              		.thumb
 322 002c 10BD     		pop	{r4, pc}
 323              		.cfi_endproc
 324              	.LFE62:
 325              		.size	adcStopConversion, .-adcStopConversion
 326 002e 00BF     		.section	.text.adcStopConversionI,"ax",%progbits
 327              		.align	2
 328              		.p2align 4,,15
ARM GAS  C:\Users\DNIEL~1\AppData\Local\Temp\ccTkDJ5o.s 			page 7


 329              		.global	adcStopConversionI
 330              		.thumb
 331              		.thumb_func
 332              		.type	adcStopConversionI, %function
 333              	adcStopConversionI:
 334              	.LFB63:
 335              		.loc 1 245 0
 336              		.cfi_startproc
 337              		@ args = 0, pretend = 0, frame = 0
 338              		@ frame_needed = 0, uses_anonymous_args = 0
 339              	.LVL15:
 340              		.loc 1 254 0
 341 0000 0378     		ldrb	r3, [r0, #0]	@ zero_extendqisi2
 342              		.loc 1 245 0
 343 0002 10B5     		push	{r4, lr}
 344              	.LCFI5:
 345              		.cfi_def_cfa_offset 8
 346              		.loc 1 254 0
 347 0004 022B     		cmp	r3, #2
 348              		.loc 1 245 0
 349 0006 0446     		mov	r4, r0
 350              		.cfi_offset 14, -4
 351              		.cfi_offset 4, -8
 352              		.loc 1 254 0
 353 0008 10D0     		beq	.L10
 354              		.loc 1 255 0
 355 000a FFF7FEFF 		bl	adc_lld_stop_conversion
 356              	.LVL16:
 357              		.loc 1 258 0
 358 000e 6369     		ldr	r3, [r4, #20]
 359              		.loc 1 256 0
 360 0010 0022     		movs	r2, #0
 361              		.loc 1 257 0
 362 0012 0221     		movs	r1, #2
 363              		.loc 1 256 0
 364 0014 2261     		str	r2, [r4, #16]
 365              		.loc 1 257 0
 366 0016 2170     		strb	r1, [r4, #0]
 367              		.loc 1 258 0
 368 0018 43B1     		cbz	r3, .L10
 369              	.LVL17:
 370              	.LBB9:
 371              		.loc 1 258 0 is_stmt 0 discriminator 1
 372 001a 6261     		str	r2, [r4, #20]
 373 001c 1846     		mov	r0, r3
 374 001e 6FF00102 		mvn	r2, #1
 375 0022 5A62     		str	r2, [r3, #36]
 376              	.LBE9:
 377              		.loc 1 260 0 is_stmt 1 discriminator 1
 378 0024 BDE81040 		pop	{r4, lr}
 379              	.LBB10:
 380              		.loc 1 258 0 discriminator 1
 381 0028 FFF7FEBF 		b	chSchReadyI
 382              	.LVL18:
 383              	.L10:
 384 002c 10BD     		pop	{r4, pc}
 385              	.LBE10:
ARM GAS  C:\Users\DNIEL~1\AppData\Local\Temp\ccTkDJ5o.s 			page 8


 386              		.cfi_endproc
 387              	.LFE63:
 388              		.size	adcStopConversionI, .-adcStopConversionI
 389 002e 00BF     		.section	.text.adcConvert,"ax",%progbits
 390              		.align	2
 391              		.p2align 4,,15
 392              		.global	adcConvert
 393              		.thumb
 394              		.thumb_func
 395              		.type	adcConvert, %function
 396              	adcConvert:
 397              	.LFB64:
 398              		.loc 1 289 0
 399              		.cfi_startproc
 400              		@ args = 0, pretend = 0, frame = 0
 401              		@ frame_needed = 0, uses_anonymous_args = 0
 402              	.LVL19:
 403 0000 70B5     		push	{r4, r5, r6, lr}
 404              	.LCFI6:
 405              		.cfi_def_cfa_offset 16
 406              		.loc 1 289 0
 407 0002 0446     		mov	r4, r0
 408              		.cfi_offset 14, -4
 409              		.cfi_offset 6, -8
 410              		.cfi_offset 5, -12
 411              		.cfi_offset 4, -16
 412 0004 1D46     		mov	r5, r3
 413              		.loc 1 292 0
 414              	@ 292 "../../../ChibiOS/os/hal/src/adc.c" 1
 415 0006 FFF7FEFF 		bl      _port_lock
 416              	@ 0 "" 2
 417              	.LVL20:
 418              		.loc 1 295 0
 419              		.thumb
 420 000a 094E     		ldr	r6, .L13
 421              	.LBB11:
 422              	.LBB12:
 423              		.loc 1 201 0
 424 000c 8260     		str	r2, [r0, #8]
 425              		.loc 1 204 0
 426 000e 0322     		movs	r2, #3
 427              	.LVL21:
 428 0010 0270     		strb	r2, [r0, #0]
 429              		.loc 1 202 0
 430 0012 C560     		str	r5, [r0, #12]
 431              		.loc 1 203 0
 432 0014 0161     		str	r1, [r0, #16]
 433              		.loc 1 205 0
 434 0016 FFF7FEFF 		bl	adc_lld_start_conversion
 435              	.LVL22:
 436              	.LBE12:
 437              	.LBE11:
 438              		.loc 1 295 0
 439 001a B169     		ldr	r1, [r6, #24]
 440              		.loc 1 296 0
 441 001c 0220     		movs	r0, #2
 442              		.loc 1 295 0
ARM GAS  C:\Users\DNIEL~1\AppData\Local\Temp\ccTkDJ5o.s 			page 9


 443 001e 6161     		str	r1, [r4, #20]
 444              		.loc 1 296 0
 445 0020 FFF7FEFF 		bl	chSchGoSleepS
 446              		.loc 1 297 0
 447 0024 B369     		ldr	r3, [r6, #24]
 448 0026 586A     		ldr	r0, [r3, #36]
 449              	.LVL23:
 450              		.loc 1 298 0
 451              	@ 298 "../../../ChibiOS/os/hal/src/adc.c" 1
 452 0028 FFF7FEFF 		bl      _port_unlock
 453              	@ 0 "" 2
 454              		.loc 1 300 0
 455              		.thumb
 456 002c 70BD     		pop	{r4, r5, r6, pc}
 457              	.L14:
 458 002e 00BF     		.align	2
 459              	.L13:
 460 0030 00000000 		.word	rlist
 461              		.cfi_endproc
 462              	.LFE64:
 463              		.size	adcConvert, .-adcConvert
 464 0034 AFF30080 		.section	.text.adcAcquireBus,"ax",%progbits
 464      AFF30080 
 464      AFF30080 
 465              		.align	2
 466              		.p2align 4,,15
 467              		.global	adcAcquireBus
 468              		.thumb
 469              		.thumb_func
 470              		.type	adcAcquireBus, %function
 471              	adcAcquireBus:
 472              	.LFB65:
 473              		.loc 1 315 0
 474              		.cfi_startproc
 475              		@ args = 0, pretend = 0, frame = 0
 476              		@ frame_needed = 0, uses_anonymous_args = 0
 477              		@ link register save eliminated.
 478              	.LVL24:
 479              		.loc 1 320 0
 480 0000 1830     		adds	r0, r0, #24
 481              	.LVL25:
 482              		.loc 1 324 0
 483              		.loc 1 320 0
 484 0002 FFF7FEBF 		b	chMtxLock
 485              		.cfi_endproc
 486              	.LFE65:
 487              		.size	adcAcquireBus, .-adcAcquireBus
 488 0006 00BFAFF3 		.section	.text.adcReleaseBus,"ax",%progbits
 488      0080AFF3 
 488      0080
 489              		.align	2
 490              		.p2align 4,,15
 491              		.global	adcReleaseBus
 492              		.thumb
 493              		.thumb_func
 494              		.type	adcReleaseBus, %function
 495              	adcReleaseBus:
ARM GAS  C:\Users\DNIEL~1\AppData\Local\Temp\ccTkDJ5o.s 			page 10


 496              	.LFB66:
 497              		.loc 1 335 0
 498              		.cfi_startproc
 499              		@ args = 0, pretend = 0, frame = 0
 500              		@ frame_needed = 0, uses_anonymous_args = 0
 501              		@ link register save eliminated.
 502              	.LVL26:
 503              		.loc 1 345 0
 504              		.loc 1 341 0
 505 0000 FFF7FEBF 		b	chMtxUnlock
 506              		.cfi_endproc
 507              	.LFE66:
 508              		.size	adcReleaseBus, .-adcReleaseBus
 509 0004 AFF30080 		.text
 509      AFF30080 
 509      AFF30080 
 510              	.Letext0: