ARM GAS  C:\Users\DNIEL~1\AppData\Local\Temp\ccpq0yK7.s 			page 1


   1              		.syntax unified
   2              		.cpu cortex-m3
   3              		.fpu softvfp
   4              		.eabi_attribute 20, 1
   5              		.eabi_attribute 21, 1
   6              		.eabi_attribute 23, 3
   7              		.eabi_attribute 24, 1
   8              		.eabi_attribute 25, 1
   9              		.eabi_attribute 26, 1
  10              		.eabi_attribute 30, 2
  11              		.eabi_attribute 18, 4
  12              		.thumb
  13              		.file	"adc_lld.c"
  20 0000 E4030000 		.text
  20      02006402 
  20      00000201 
  20      FB0E0D00 
  20      01010101 
  21              	.Ltext0:
  22              		.cfi_sections	.debug_frame
  23              		.section	.text.adc_lld_serve_rx_interrupt,"ax",%progbits
  24              		.align	2
  25              		.p2align 4,,15
  26              		.thumb
  27              		.thumb_func
  28              		.type	adc_lld_serve_rx_interrupt, %function
  29              	adc_lld_serve_rx_interrupt:
  30              	.LFB56:
  31              		.file 1 "../../../ChibiOS/os/hal/platforms/STM32F1xx/adc_lld.c"
  32              		.loc 1 57 0
  33              		.cfi_startproc
  34              		@ args = 0, pretend = 0, frame = 0
  35              		@ frame_needed = 0, uses_anonymous_args = 0
  36              	.LVL0:
  37              		.loc 1 60 0
  38 0000 11F0080F 		tst	r1, #8
  39              		.loc 1 57 0
  40 0004 F8B5     		push	{r3, r4, r5, r6, r7, lr}
  41              	.LCFI0:
  42              		.cfi_def_cfa_offset 24
  43              		.loc 1 57 0
  44 0006 0D46     		mov	r5, r1
  45              		.cfi_offset 14, -4
  46              		.cfi_offset 7, -8
  47              		.cfi_offset 6, -12
  48              		.cfi_offset 5, -16
  49              		.cfi_offset 4, -20
  50              		.cfi_offset 3, -24
  51 0008 0446     		mov	r4, r0
  52              		.loc 1 60 0
  53 000a 26D0     		beq	.L2
ARM GAS  C:\Users\DNIEL~1\AppData\Local\Temp\ccpq0yK7.s 			page 2


  54              	.LVL1:
  55              	.LBB10:
  56              	.LBB12:
  57              		.loc 1 229 0
  58 000c C36A     		ldr	r3, [r0, #44]
  59              	.LBE12:
  60              	.LBE10:
  61              		.loc 1 63 0
  62 000e 0169     		ldr	r1, [r0, #16]
  63              	.LVL2:
  64              	.LBB14:
  65              	.LBB11:
  66              		.loc 1 229 0
  67 0010 1A68     		ldr	r2, [r3, #0]
  68 0012 5D68     		ldr	r5, [r3, #4]
  69              	.LVL3:
  70 0014 1668     		ldr	r6, [r2, #0]
  71 0016 26F00106 		bic	r6, r6, #1
  72 001a 1660     		str	r6, [r2, #0]
  73 001c 1B7A     		ldrb	r3, [r3, #8]	@ zero_extendqisi2
  74 001e 0F26     		movs	r6, #15
  75 0020 9E40     		lsls	r6, r6, r3
  76              		.loc 1 230 0
  77 0022 826A     		ldr	r2, [r0, #40]
  78              	.LBE11:
  79              	.LBE14:
  80              		.loc 1 63 0
  81 0024 CB68     		ldr	r3, [r1, #12]
  82              	.LBB15:
  83              	.LBB13:
  84              		.loc 1 230 0
  85 0026 0021     		movs	r1, #0
  86              		.loc 1 229 0
  87 0028 2E60     		str	r6, [r5, #0]
  88              		.loc 1 230 0
  89 002a 9160     		str	r1, [r2, #8]
  90              	.LBE13:
  91              	.LBE15:
  92              		.loc 1 63 0
  93 002c 2BB1     		cbz	r3, .L3
  94              		.loc 1 63 0 is_stmt 0 discriminator 1
  95 002e 0522     		movs	r2, #5
  96 0030 0270     		strb	r2, [r0, #0]
  97 0032 9847     		blx	r3
  98              	.LVL4:
  99 0034 2078     		ldrb	r0, [r4, #0]	@ zero_extendqisi2
 100 0036 0528     		cmp	r0, #5
 101 0038 63D0     		beq	.L15
 102              	.L3:
 103              		.loc 1 63 0 discriminator 2
 104 003a 0022     		movs	r2, #0
 105 003c 2261     		str	r2, [r4, #16]
 106              	@ 63 "../../../ChibiOS/os/hal/platforms/STM32F1xx/adc_lld.c" 1
 107 003e FFF7FEFF 		bl      _port_lock
 108              	@ 0 "" 2
 109              		.thumb
 110 0042 6369     		ldr	r3, [r4, #20]
ARM GAS  C:\Users\DNIEL~1\AppData\Local\Temp\ccpq0yK7.s 			page 3


 111 0044 33B1     		cbz	r3, .L4
 112              	.LVL5:
 113              	.LBB16:
 114              		.loc 1 63 0 discriminator 4
 115 0046 6261     		str	r2, [r4, #20]
 116 0048 4FF0FF32 		mov	r2, #-1
 117 004c 1846     		mov	r0, r3
 118 004e 5A62     		str	r2, [r3, #36]
 119 0050 FFF7FEFF 		bl	chSchReadyI
 120              	.LVL6:
 121              	.L4:
 122              	.LBE16:
 123              		.loc 1 63 0 discriminator 5
 124              	@ 63 "../../../ChibiOS/os/hal/platforms/STM32F1xx/adc_lld.c" 1
 125 0054 FFF7FEFF 		bl      _port_unlock
 126              	@ 0 "" 2
 127              		.thumb
 128 0058 F8BD     		pop	{r3, r4, r5, r6, r7, pc}
 129              	.LVL7:
 130              	.L2:
 131              		.loc 1 66 0 is_stmt 1
 132 005a 11F0040F 		tst	r1, #4
 133 005e 06D0     		beq	.L6
 134              		.loc 1 68 0
 135 0060 0369     		ldr	r3, [r0, #16]
 136 0062 9B68     		ldr	r3, [r3, #8]
 137 0064 1BB1     		cbz	r3, .L6
 138              		.loc 1 68 0 is_stmt 0 discriminator 1
 139 0066 C268     		ldr	r2, [r0, #12]
 140 0068 8168     		ldr	r1, [r0, #8]
 141              	.LVL8:
 142 006a 5208     		lsrs	r2, r2, #1
 143 006c 9847     		blx	r3
 144              	.L6:
 145              		.loc 1 70 0 is_stmt 1
 146 006e 15F0020F 		tst	r5, #2
 147 0072 35D0     		beq	.L1
 148              		.loc 1 72 0
 149 0074 2169     		ldr	r1, [r4, #16]
 150 0076 0A68     		ldr	r2, [r1, #0]
 151 0078 002A     		cmp	r2, #0
 152 007a 32D1     		bne	.L16
 153              	.LVL9:
 154              	.LBB17:
 155              	.LBB18:
 156              		.loc 1 229 0
 157 007c E36A     		ldr	r3, [r4, #44]
 158              		.loc 1 230 0
 159 007e A56A     		ldr	r5, [r4, #40]
 160              	.LVL10:
 161              		.loc 1 229 0
 162 0080 1868     		ldr	r0, [r3, #0]
 163 0082 5E68     		ldr	r6, [r3, #4]
 164 0084 0768     		ldr	r7, [r0, #0]
 165 0086 27F00107 		bic	r7, r7, #1
 166 008a 0760     		str	r7, [r0, #0]
 167 008c 187A     		ldrb	r0, [r3, #8]	@ zero_extendqisi2
ARM GAS  C:\Users\DNIEL~1\AppData\Local\Temp\ccpq0yK7.s 			page 4


 168 008e 0F27     		movs	r7, #15
 169 0090 17FA00F0 		lsls	r0, r7, r0
 170              	.LBE18:
 171              	.LBE17:
 172              		.loc 1 72 0
 173 0094 8B68     		ldr	r3, [r1, #8]
 174              	.LBB20:
 175              	.LBB19:
 176              		.loc 1 229 0
 177 0096 3060     		str	r0, [r6, #0]
 178              		.loc 1 230 0
 179 0098 AA60     		str	r2, [r5, #8]
 180              	.LBE19:
 181              	.LBE20:
 182              		.loc 1 72 0
 183 009a 002B     		cmp	r3, #0
 184 009c 34D0     		beq	.L9
 185              		.loc 1 72 0 is_stmt 0 discriminator 6
 186 009e E268     		ldr	r2, [r4, #12]
 187 00a0 0420     		movs	r0, #4
 188 00a2 012A     		cmp	r2, #1
 189 00a4 2070     		strb	r0, [r4, #0]
 190 00a6 36D9     		bls	.L10
 191              	.LBB21:
 192              		.loc 1 72 0 discriminator 8
 193 00a8 B1F804C0 		ldrh	ip, [r1, #4]
 194 00ac 5208     		lsrs	r2, r2, #1
 195              	.LVL11:
 196 00ae 0CFB02F5 		mul	r5, ip, r2
 197 00b2 A168     		ldr	r1, [r4, #8]
 198 00b4 2046     		mov	r0, r4
 199 00b6 01EB4501 		add	r1, r1, r5, lsl #1
 200 00ba 9847     		blx	r3
 201              	.LVL12:
 202              	.L11:
 203              	.LBE21:
 204              		.loc 1 72 0 discriminator 10
 205 00bc 94F800E0 		ldrb	lr, [r4, #0]	@ zero_extendqisi2
 206 00c0 BEF1040F 		cmp	lr, #4
 207 00c4 20D0     		beq	.L9
 208              	.L12:
 209              		.loc 1 72 0 discriminator 12
 210 00c6 0022     		movs	r2, #0
 211 00c8 2261     		str	r2, [r4, #16]
 212              	@ 72 "../../../ChibiOS/os/hal/platforms/STM32F1xx/adc_lld.c" 1
 213 00ca FFF7FEFF 		bl      _port_lock
 214              	@ 0 "" 2
 215              		.thumb
 216 00ce 6369     		ldr	r3, [r4, #20]
 217 00d0 23B1     		cbz	r3, .L13
 218              	.LVL13:
 219              	.LBB22:
 220              		.loc 1 72 0 discriminator 13
 221 00d2 6261     		str	r2, [r4, #20]
 222 00d4 1846     		mov	r0, r3
 223 00d6 5A62     		str	r2, [r3, #36]
 224 00d8 FFF7FEFF 		bl	chSchReadyI
ARM GAS  C:\Users\DNIEL~1\AppData\Local\Temp\ccpq0yK7.s 			page 5


 225              	.LVL14:
 226              	.L13:
 227              	.LBE22:
 228              		.loc 1 72 0 discriminator 14
 229              	@ 72 "../../../ChibiOS/os/hal/platforms/STM32F1xx/adc_lld.c" 1
 230 00dc FFF7FEFF 		bl      _port_unlock
 231              	@ 0 "" 2
 232              	.LVL15:
 233              		.thumb
 234              	.L1:
 235 00e0 F8BD     		pop	{r3, r4, r5, r6, r7, pc}
 236              	.LVL16:
 237              	.L16:
 238              		.loc 1 72 0 discriminator 1
 239 00e2 8B68     		ldr	r3, [r1, #8]
 240 00e4 002B     		cmp	r3, #0
 241 00e6 FBD0     		beq	.L1
 242              		.loc 1 72 0 discriminator 3
 243 00e8 E268     		ldr	r2, [r4, #12]
 244 00ea 012A     		cmp	r2, #1
 245 00ec 0FD9     		bls	.L8
 246              	.LBB23:
 247              		.loc 1 72 0 discriminator 4
 248 00ee 8D88     		ldrh	r5, [r1, #4]
 249              	.LVL17:
 250 00f0 5208     		lsrs	r2, r2, #1
 251              	.LVL18:
 252 00f2 05FB02F5 		mul	r5, r5, r2
 253 00f6 A168     		ldr	r1, [r4, #8]
 254 00f8 2046     		mov	r0, r4
 255 00fa 01EB4501 		add	r1, r1, r5, lsl #1
 256 00fe 9847     		blx	r3
 257              	.LVL19:
 258 0100 F8BD     		pop	{r3, r4, r5, r6, r7, pc}
 259              	.LVL20:
 260              	.L15:
 261              	.LBE23:
 262              		.loc 1 63 0 is_stmt 1 discriminator 3
 263 0102 0221     		movs	r1, #2
 264 0104 2170     		strb	r1, [r4, #0]
 265 0106 98E7     		b	.L3
 266              	.LVL21:
 267              	.L9:
 268              		.loc 1 72 0 discriminator 7
 269 0108 0222     		movs	r2, #2
 270 010a 2270     		strb	r2, [r4, #0]
 271 010c DBE7     		b	.L12
 272              	.LVL22:
 273              	.L8:
 274              		.loc 1 72 0 is_stmt 0 discriminator 5
 275 010e 2046     		mov	r0, r4
 276 0110 A168     		ldr	r1, [r4, #8]
 277 0112 9847     		blx	r3
 278 0114 F8BD     		pop	{r3, r4, r5, r6, r7, pc}
 279              	.LVL23:
 280              	.L10:
 281              		.loc 1 72 0 discriminator 9
ARM GAS  C:\Users\DNIEL~1\AppData\Local\Temp\ccpq0yK7.s 			page 6


 282 0116 2046     		mov	r0, r4
 283 0118 A168     		ldr	r1, [r4, #8]
 284 011a 9847     		blx	r3
 285 011c CEE7     		b	.L11
 286              		.cfi_endproc
 287              	.LFE56:
 288              		.size	adc_lld_serve_rx_interrupt, .-adc_lld_serve_rx_interrupt
 289 011e 00BF     		.section	.text.adc_lld_init,"ax",%progbits
 290              		.align	2
 291              		.p2align 4,,15
 292              		.global	adc_lld_init
 293              		.thumb
 294              		.thumb_func
 295              		.type	adc_lld_init, %function
 296              	adc_lld_init:
 297              	.LFB57:
 298              		.loc 1 90 0 is_stmt 1
 299              		.cfi_startproc
 300              		@ args = 0, pretend = 0, frame = 0
 301              		@ frame_needed = 0, uses_anonymous_args = 0
 302 0000 10B5     		push	{r4, lr}
 303              	.LCFI1:
 304              		.cfi_def_cfa_offset 8
 305              		.loc 1 94 0
 306 0002 144C     		ldr	r4, .L22
 307              		.cfi_offset 14, -4
 308              		.cfi_offset 4, -8
 309 0004 2046     		mov	r0, r4
 310 0006 FFF7FEFF 		bl	adcObjectInit
 311              		.loc 1 103 0
 312 000a 134B     		ldr	r3, .L22+4
 313              		.loc 1 95 0
 314 000c 1349     		ldr	r1, .L22+8
 315              		.loc 1 103 0
 316 000e 9869     		ldr	r0, [r3, #24]
 317 0010 40F40072 		orr	r2, r0, #512
 318 0014 9A61     		str	r2, [r3, #24]
 319              		.loc 1 96 0
 320 0016 124B     		ldr	r3, .L22+12
 321              		.loc 1 104 0
 322 0018 0020     		movs	r0, #0
 323              		.loc 1 95 0
 324 001a A162     		str	r1, [r4, #40]
 325              		.loc 1 105 0
 326 001c 0122     		movs	r2, #1
 327              		.loc 1 104 0
 328 001e 4860     		str	r0, [r1, #4]
 329              		.loc 1 96 0
 330 0020 E362     		str	r3, [r4, #44]
 331              		.loc 1 97 0
 332 0022 42F28A50 		movw	r0, #9610
 333              		.loc 1 108 0
 334 0026 0923     		movs	r3, #9
 335              		.loc 1 105 0
 336 0028 8A60     		str	r2, [r1, #8]
 337              		.loc 1 97 0
 338 002a 2063     		str	r0, [r4, #48]
ARM GAS  C:\Users\DNIEL~1\AppData\Local\Temp\ccpq0yK7.s 			page 7


 339              		.loc 1 108 0
 340 002c 8B60     		str	r3, [r1, #8]
 341              	.L18:
 342              		.loc 1 109 0 discriminator 1
 343 002e 8B68     		ldr	r3, [r1, #8]
 344 0030 0A4A     		ldr	r2, .L22+8
 345 0032 13F0080F 		tst	r3, #8
 346 0036 FAD1     		bne	.L18
 347              		.loc 1 113 0
 348 0038 0521     		movs	r1, #5
 349 003a 9160     		str	r1, [r2, #8]
 350              	.L19:
 351              		.loc 1 114 0 discriminator 1
 352 003c 9068     		ldr	r0, [r2, #8]
 353 003e 10F00403 		ands	r3, r0, #4
 354 0042 FBD1     		bne	.L19
 355              		.loc 1 118 0
 356 0044 0548     		ldr	r0, .L22+8
 357              		.loc 1 119 0
 358 0046 044A     		ldr	r2, .L22+4
 359              		.loc 1 118 0
 360 0048 8360     		str	r3, [r0, #8]
 361              		.loc 1 119 0
 362 004a 9169     		ldr	r1, [r2, #24]
 363 004c 21F40073 		bic	r3, r1, #512
 364 0050 9361     		str	r3, [r2, #24]
 365              		.loc 1 121 0
 366 0052 10BD     		pop	{r4, pc}
 367              	.L23:
 368              		.align	2
 369              	.L22:
 370 0054 00000000 		.word	.LANCHOR0
 371 0058 00100240 		.word	1073876992
 372 005c 00240140 		.word	1073816576
 373 0060 00000000 		.word	_stm32_dma_streams
 374              		.cfi_endproc
 375              	.LFE57:
 376              		.size	adc_lld_init, .-adc_lld_init
 377 0064 AFF30080 		.section	.text.adc_lld_start,"ax",%progbits
 377      AFF30080 
 377      AFF30080 
 378              		.align	2
 379              		.p2align 4,,15
 380              		.global	adc_lld_start
 381              		.thumb
 382              		.thumb_func
 383              		.type	adc_lld_start, %function
 384              	adc_lld_start:
 385              	.LFB58:
 386              		.loc 1 130 0
 387              		.cfi_startproc
 388              		@ args = 0, pretend = 0, frame = 0
 389              		@ frame_needed = 0, uses_anonymous_args = 0
 390              	.LVL24:
 391              		.loc 1 133 0
 392 0000 0378     		ldrb	r3, [r0, #0]	@ zero_extendqisi2
 393              		.loc 1 130 0
ARM GAS  C:\Users\DNIEL~1\AppData\Local\Temp\ccpq0yK7.s 			page 8


 394 0002 10B5     		push	{r4, lr}
 395              	.LCFI2:
 396              		.cfi_def_cfa_offset 8
 397              		.loc 1 133 0
 398 0004 012B     		cmp	r3, #1
 399              		.loc 1 130 0
 400 0006 0446     		mov	r4, r0
 401              		.cfi_offset 14, -4
 402              		.cfi_offset 4, -8
 403              		.loc 1 133 0
 404 0008 00D0     		beq	.L27
 405 000a 10BD     		pop	{r4, pc}
 406              	.L27:
 407              		.loc 1 135 0
 408 000c 0B49     		ldr	r1, .L29
 409 000e 8842     		cmp	r0, r1
 410 0010 04D0     		beq	.L28
 411              	.LVL25:
 412              	.L26:
 413              		.loc 1 149 0
 414 0012 A36A     		ldr	r3, [r4, #40]
 415 0014 0021     		movs	r1, #0
 416 0016 5960     		str	r1, [r3, #4]
 417              		.loc 1 150 0
 418 0018 9960     		str	r1, [r3, #8]
 419 001a 10BD     		pop	{r4, pc}
 420              	.L28:
 421              	.LBB24:
 422              		.loc 1 137 0
 423 001c 0621     		movs	r1, #6
 424 001e 084A     		ldr	r2, .L29+4
 425 0020 2346     		mov	r3, r4
 426 0022 C06A     		ldr	r0, [r0, #44]
 427 0024 FFF7FEFF 		bl	dmaStreamAllocate
 428              		.loc 1 142 0
 429 0028 E06A     		ldr	r0, [r4, #44]
 430 002a 0649     		ldr	r1, .L29+8
 431 002c 0268     		ldr	r2, [r0, #0]
 432              		.loc 1 143 0
 433 002e 0648     		ldr	r0, .L29+12
 434              		.loc 1 142 0
 435 0030 9160     		str	r1, [r2, #8]
 436              		.loc 1 143 0
 437 0032 8369     		ldr	r3, [r0, #24]
 438 0034 43F40072 		orr	r2, r3, #512
 439 0038 8261     		str	r2, [r0, #24]
 440 003a EAE7     		b	.L26
 441              	.L30:
 442              		.align	2
 443              	.L29:
 444 003c 00000000 		.word	.LANCHOR0
 445 0040 00000000 		.word	adc_lld_serve_rx_interrupt
 446 0044 4C240140 		.word	1073816652
 447 0048 00100240 		.word	1073876992
 448              	.LBE24:
 449              		.cfi_endproc
 450              	.LFE58:
ARM GAS  C:\Users\DNIEL~1\AppData\Local\Temp\ccpq0yK7.s 			page 9


 451              		.size	adc_lld_start, .-adc_lld_start
 452 004c AFF30080 		.section	.text.adc_lld_stop,"ax",%progbits
 453              		.align	2
 454              		.p2align 4,,15
 455              		.global	adc_lld_stop
 456              		.thumb
 457              		.thumb_func
 458              		.type	adc_lld_stop, %function
 459              	adc_lld_stop:
 460              	.LFB59:
 461              		.loc 1 161 0
 462              		.cfi_startproc
 463              		@ args = 0, pretend = 0, frame = 0
 464              		@ frame_needed = 0, uses_anonymous_args = 0
 465              	.LVL26:
 466 0000 08B5     		push	{r3, lr}
 467              	.LCFI3:
 468              		.cfi_def_cfa_offset 8
 469              		.loc 1 164 0
 470 0002 0378     		ldrb	r3, [r0, #0]	@ zero_extendqisi2
 471              		.cfi_offset 14, -4
 472              		.cfi_offset 3, -8
 473 0004 022B     		cmp	r3, #2
 474 0006 00D0     		beq	.L33
 475              	.LVL27:
 476              	.L31:
 477 0008 08BD     		pop	{r3, pc}
 478              	.LVL28:
 479              	.L33:
 480              		.loc 1 166 0
 481 000a 0849     		ldr	r1, .L34
 482 000c 8842     		cmp	r0, r1
 483 000e FBD1     		bne	.L31
 484              		.loc 1 167 0
 485 0010 074A     		ldr	r2, .L34+4
 486 0012 0021     		movs	r1, #0
 487              		.loc 1 169 0
 488 0014 C06A     		ldr	r0, [r0, #44]
 489              	.LVL29:
 490              		.loc 1 167 0
 491 0016 5160     		str	r1, [r2, #4]
 492              		.loc 1 168 0
 493 0018 9160     		str	r1, [r2, #8]
 494              		.loc 1 169 0
 495 001a FFF7FEFF 		bl	dmaStreamRelease
 496              		.loc 1 170 0
 497 001e 0548     		ldr	r0, .L34+8
 498 0020 8369     		ldr	r3, [r0, #24]
 499 0022 23F40072 		bic	r2, r3, #512
 500 0026 8261     		str	r2, [r0, #24]
 501 0028 EEE7     		b	.L31
 502              	.L35:
 503 002a 00BF     		.align	2
 504              	.L34:
 505 002c 00000000 		.word	.LANCHOR0
 506 0030 00240140 		.word	1073816576
 507 0034 00100240 		.word	1073876992
ARM GAS  C:\Users\DNIEL~1\AppData\Local\Temp\ccpq0yK7.s 			page 10


 508              		.cfi_endproc
 509              	.LFE59:
 510              		.size	adc_lld_stop, .-adc_lld_stop
 511 0038 AFF30080 		.section	.text.adc_lld_start_conversion,"ax",%progbits
 511      AFF30080 
 512              		.align	2
 513              		.p2align 4,,15
 514              		.global	adc_lld_start_conversion
 515              		.thumb
 516              		.thumb_func
 517              		.type	adc_lld_start_conversion, %function
 518              	adc_lld_start_conversion:
 519              	.LFB60:
 520              		.loc 1 183 0
 521              		.cfi_startproc
 522              		@ args = 0, pretend = 0, frame = 0
 523              		@ frame_needed = 0, uses_anonymous_args = 0
 524              		@ link register save eliminated.
 525              	.LVL30:
 526              		.loc 1 185 0
 527 0000 0369     		ldr	r3, [r0, #16]
 528              	.LVL31:
 529              		.loc 1 183 0
 530 0002 F0B4     		push	{r4, r5, r6, r7}
 531              	.LCFI4:
 532              		.cfi_def_cfa_offset 16
 533              		.loc 1 189 0
 534 0004 1968     		ldr	r1, [r3, #0]
 535              		.loc 1 188 0
 536 0006 026B     		ldr	r2, [r0, #48]
 537              	.LVL32:
 538              		.loc 1 189 0
 539 0008 09B1     		cbz	r1, .L37
 540              		.cfi_offset 7, -4
 541              		.cfi_offset 6, -8
 542              		.cfi_offset 5, -12
 543              		.cfi_offset 4, -16
 544              	.LVL33:
 545              		.loc 1 190 0
 546 000a 42F02002 		orr	r2, r2, #32
 547              	.LVL34:
 548              	.L37:
 549              		.loc 1 191 0
 550 000e C168     		ldr	r1, [r0, #12]
 551              		.loc 1 195 0
 552 0010 9D88     		ldrh	r5, [r3, #4]
 553              		.loc 1 191 0
 554 0012 0129     		cmp	r1, #1
 555              		.loc 1 199 0
 556 0014 C46A     		ldr	r4, [r0, #44]
 557              		.loc 1 195 0
 558 0016 88BF     		it	hi
 559 0018 4D43     		mulhi	r5, r1, r5
 560              		.loc 1 199 0
 561 001a 8668     		ldr	r6, [r0, #8]
 562 001c 2168     		ldr	r1, [r4, #0]
 563              		.loc 1 194 0
ARM GAS  C:\Users\DNIEL~1\AppData\Local\Temp\ccpq0yK7.s 			page 11


 564 001e 88BF     		it	hi
 565 0020 42F00402 		orrhi	r2, r2, #4
 566              	.LVL35:
 567              		.loc 1 206 0
 568 0024 5C69     		ldr	r4, [r3, #20]
 569              		.loc 1 199 0
 570 0026 CE60     		str	r6, [r1, #12]
 571              		.loc 1 200 0
 572 0028 4D60     		str	r5, [r1, #4]
 573              		.loc 1 201 0
 574 002a 0A60     		str	r2, [r1, #0]
 575              		.loc 1 202 0
 576 002c 0F68     		ldr	r7, [r1, #0]
 577              		.loc 1 205 0
 578 002e 1E69     		ldr	r6, [r3, #16]
 579              		.loc 1 206 0
 580 0030 44F48075 		orr	r5, r4, #256
 581              	.LVL36:
 582              		.loc 1 205 0
 583 0034 826A     		ldr	r2, [r0, #40]
 584              	.LVL37:
 585              		.loc 1 206 0
 586 0036 45F00100 		orr	r0, r5, #1
 587              	.LVL38:
 588              		.loc 1 202 0
 589 003a 47F00107 		orr	r7, r7, #1
 590              		.loc 1 205 0
 591 003e 46F48076 		orr	r6, r6, #256
 592              		.loc 1 207 0
 593 0042 10F4841F 		tst	r0, #1081344
 594              		.loc 1 202 0
 595 0046 0F60     		str	r7, [r1, #0]
 596              		.loc 1 208 0
 597 0048 08BF     		it	eq
 598 004a 45F00300 		orreq	r0, r5, #3
 599              	.LVL39:
 600              		.loc 1 205 0
 601 004e 5660     		str	r6, [r2, #4]
 602              		.loc 1 210 0
 603 0050 9F69     		ldr	r7, [r3, #24]
 604              		.loc 1 211 0
 605 0052 DE69     		ldr	r6, [r3, #28]
 606              		.loc 1 212 0
 607 0054 1D6A     		ldr	r5, [r3, #32]
 608              		.loc 1 213 0
 609 0056 596A     		ldr	r1, [r3, #36]
 610              	.LVL40:
 611              		.loc 1 214 0
 612 0058 9B6A     		ldr	r3, [r3, #40]
 613              	.LVL41:
 614              		.loc 1 209 0
 615 005a 40EA0404 		orr	r4, r0, r4
 616 005e 9460     		str	r4, [r2, #8]
 617              		.loc 1 210 0
 618 0060 D760     		str	r7, [r2, #12]
 619              		.loc 1 211 0
 620 0062 1661     		str	r6, [r2, #16]
ARM GAS  C:\Users\DNIEL~1\AppData\Local\Temp\ccpq0yK7.s 			page 12


 621              		.loc 1 212 0
 622 0064 D562     		str	r5, [r2, #44]
 623              		.loc 1 213 0
 624 0066 1163     		str	r1, [r2, #48]
 625              		.loc 1 214 0
 626 0068 5363     		str	r3, [r2, #52]
 627              		.loc 1 217 0
 628 006a 9060     		str	r0, [r2, #8]
 629              		.loc 1 218 0
 630 006c F0BC     		pop	{r4, r5, r6, r7}
 631 006e 7047     		bx	lr
 632              		.cfi_endproc
 633              	.LFE60:
 634              		.size	adc_lld_start_conversion, .-adc_lld_start_conversion
 635              		.section	.text.adc_lld_stop_conversion,"ax",%progbits
 636              		.align	2
 637              		.p2align 4,,15
 638              		.global	adc_lld_stop_conversion
 639              		.thumb
 640              		.thumb_func
 641              		.type	adc_lld_stop_conversion, %function
 642              	adc_lld_stop_conversion:
 643              	.LFB61:
 644              		.loc 1 227 0
 645              		.cfi_startproc
 646              		@ args = 0, pretend = 0, frame = 0
 647              		@ frame_needed = 0, uses_anonymous_args = 0
 648              		@ link register save eliminated.
 649              	.LVL42:
 650              		.loc 1 229 0
 651 0000 C36A     		ldr	r3, [r0, #44]
 652              		.loc 1 227 0
 653 0002 30B4     		push	{r4, r5}
 654              	.LCFI5:
 655              		.cfi_def_cfa_offset 8
 656              		.loc 1 229 0
 657 0004 1A68     		ldr	r2, [r3, #0]
 658              		.loc 1 230 0
 659 0006 816A     		ldr	r1, [r0, #40]
 660              		.loc 1 229 0
 661 0008 1568     		ldr	r5, [r2, #0]
 662              		.cfi_offset 5, -4
 663              		.cfi_offset 4, -8
 664 000a 5C68     		ldr	r4, [r3, #4]
 665 000c 25F00100 		bic	r0, r5, #1
 666              	.LVL43:
 667 0010 1060     		str	r0, [r2, #0]
 668 0012 1B7A     		ldrb	r3, [r3, #8]	@ zero_extendqisi2
 669 0014 0F22     		movs	r2, #15
 670 0016 12FA03F0 		lsls	r0, r2, r3
 671              		.loc 1 230 0
 672 001a 0023     		movs	r3, #0
 673              		.loc 1 229 0
 674 001c 2060     		str	r0, [r4, #0]
 675              		.loc 1 230 0
 676 001e 8B60     		str	r3, [r1, #8]
 677              		.loc 1 231 0
ARM GAS  C:\Users\DNIEL~1\AppData\Local\Temp\ccpq0yK7.s 			page 13


 678 0020 30BC     		pop	{r4, r5}
 679 0022 7047     		bx	lr
 680              		.cfi_endproc
 681              	.LFE61:
 682              		.size	adc_lld_stop_conversion, .-adc_lld_stop_conversion
 683              		.global	ADCD1
 684 0024 AFF30080 		.section	.bss.ADCD1,"aw",%nobits
 684      AFF30080 
 684      AFF30080 
 685              		.align	2
 686              		.set	.LANCHOR0,. + 0
 687              		.type	ADCD1, %object
 688              		.size	ADCD1, 52
 689              	ADCD1:
 690 0000 00000000 		.space	52
 690      00000000 
 690      00000000 
 690      00000000 
 690      00000000 
 691              		.text
 692              	.Letext0: