ARM GAS  C:\Users\DNIEL~1\AppData\Local\Temp\ccITf261.s 			page 1


   1              		.syntax unified
   2              		.cpu cortex-m3
   3              		.fpu softvfp
   4              		.eabi_attribute 20, 1
   5              		.eabi_attribute 21, 1
   6              		.eabi_attribute 23, 3
   7              		.eabi_attribute 24, 1
   8              		.eabi_attribute 25, 1
   9              		.eabi_attribute 26, 1
  10              		.eabi_attribute 30, 2
  11              		.eabi_attribute 18, 4
  12              		.thumb
  13              		.file	"can_comm.c"
  20 0000 25030000 		.text
  20      02008802 
  20      00000201 
  20      FB0E0D00 
  20      01010101 
  21              	.Ltext0:
  22              		.cfi_sections	.debug_frame
  23              		.section	.text.can_rx,"ax",%progbits
  24              		.align	2
  25              		.p2align 4,,15
  26              		.thumb
  27              		.thumb_func
  28              		.type	can_rx, %function
  29              	can_rx:
  30              	.LFB56:
  31              		.file 1 "src/can_comm.c"
  32              		.loc 1 70 0
  33              		.cfi_startproc
  34              		@ args = 0, pretend = 0, frame = 16
  35              		@ frame_needed = 0, uses_anonymous_args = 0
  36              	.LVL0:
  37 0000 2DE9F043 		push	{r4, r5, r6, r7, r8, r9, lr}
  38              	.LCFI0:
  39              		.cfi_def_cfa_offset 28
  40              		.loc 1 75 0
  41 0004 DFF8C880 		ldr	r8, .L15+28
  42              		.cfi_offset 14, -4
  43              		.cfi_offset 9, -8
  44              		.cfi_offset 8, -12
  45              		.cfi_offset 7, -16
  46              		.cfi_offset 6, -20
  47              		.cfi_offset 5, -24
  48              		.cfi_offset 4, -28
  49 0008 2A4A     		ldr	r2, .L15
  50 000a D8F81830 		ldr	r3, [r8, #24]
  51              		.loc 1 70 0
  52 000e 85B0     		sub	sp, sp, #20
  53              	.LCFI1:
ARM GAS  C:\Users\DNIEL~1\AppData\Local\Temp\ccITf261.s 			page 2


  54              		.cfi_def_cfa_offset 48
  55              		.loc 1 75 0
  56 0010 9A61     		str	r2, [r3, #24]
  57              		.loc 1 76 0
  58 0012 2948     		ldr	r0, .L15+4
  59              	.LVL1:
  60 0014 6946     		mov	r1, sp
  61 0016 0122     		movs	r2, #1
  62 0018 FFF7FEFF 		bl	chEvtRegisterMask
  63              		.loc 1 80 0
  64 001c 274D     		ldr	r5, .L15+8
  65              		.loc 1 82 0
  66 001e 284E     		ldr	r6, .L15+12
  67              		.loc 1 123 0
  68 0020 284F     		ldr	r7, .L15+16
  69 0022 DFF8B090 		ldr	r9, .L15+32
  70              	.LVL2:
  71              	.L11:
  72              		.loc 1 77 0 discriminator 1
  73 0026 D8F81810 		ldr	r1, [r8, #24]
  74 002a 91F81DC0 		ldrb	ip, [r1, #29]	@ zero_extendqisi2
  75 002e 1CF0040F 		tst	ip, #4
  76 0032 37D1     		bne	.L14
  77              		.loc 1 78 0
  78 0034 4FF0FF30 		mov	r0, #-1
  79 0038 6421     		movs	r1, #100
  80 003a FFF7FEFF 		bl	chEvtWaitAnyTimeout
  81 003e 0028     		cmp	r0, #0
  82 0040 F1D0     		beq	.L11
  83              	.L12:
  84              		.loc 1 80 0 discriminator 1
  85 0042 0021     		movs	r1, #0
  86 0044 0B46     		mov	r3, r1
  87 0046 1D4A     		ldr	r2, .L15+8
  88 0048 1F48     		ldr	r0, .L15+20
  89 004a FFF7FEFF 		bl	canReceive
  90 004e 0446     		mov	r4, r0
  91 0050 0028     		cmp	r0, #0
  92 0052 E8D1     		bne	.L11
  93              		.loc 1 82 0
  94 0054 A968     		ldr	r1, [r5, #8]
  95 0056 C1F31C00 		ubfx	r0, r1, #0, #29
  96 005a B042     		cmp	r0, r6
  97 005c F1D1     		bne	.L12
  98              		.loc 1 123 0
  99 005e B9F80000 		ldrh	r0, [r9, #0]
 100 0062 7968     		ldr	r1, [r7, #4]
 101 0064 0202     		lsls	r2, r0, #8
 102 0066 531C     		adds	r3, r2, #1
 103 0068 63F31C01 		bfi	r1, r3, #0, #29
 104 006c 7960     		str	r1, [r7, #4]
 105              		.loc 1 125 0
 106 006e 0220     		movs	r0, #2
 107 0070 FFF7FEFF 		bl	measGetValue
 108 0074 B860     		str	r0, [r7, #8]
 109              		.loc 1 126 0
 110 0076 0320     		movs	r0, #3
ARM GAS  C:\Users\DNIEL~1\AppData\Local\Temp\ccITf261.s 			page 3


 111 0078 FFF7FEFF 		bl	measGetValue
 112              		.loc 1 129 0
 113 007c 2146     		mov	r1, r4
 114              		.loc 1 126 0
 115 007e F860     		str	r0, [r7, #12]
 116              		.loc 1 129 0
 117 0080 6423     		movs	r3, #100
 118 0082 104A     		ldr	r2, .L15+16
 119 0084 1048     		ldr	r0, .L15+20
 120 0086 FFF7FEFF 		bl	canTransmit
 121              		.loc 1 131 0
 122 008a 104B     		ldr	r3, .L15+24
 123              		.loc 1 130 0
 124 008c AA68     		ldr	r2, [r5, #8]
 125              		.loc 1 131 0
 126 008e D868     		ldr	r0, [r3, #12]
 127              		.loc 1 130 0
 128 0090 64F31C02 		bfi	r2, r4, #0, #29
 129              		.loc 1 131 0
 130 0094 80F00204 		eor	r4, r0, #2
 131              		.loc 1 130 0
 132 0098 AA60     		str	r2, [r5, #8]
 133              		.loc 1 133 0
 134 009a C820     		movs	r0, #200
 135              		.loc 1 131 0
 136 009c DC60     		str	r4, [r3, #12]
 137              		.loc 1 133 0
 138 009e FFF7FEFF 		bl	chThdSleep
 139 00a2 CEE7     		b	.L12
 140              	.L14:
 141              		.loc 1 140 0
 142 00a4 0448     		ldr	r0, .L15+4
 143 00a6 6946     		mov	r1, sp
 144 00a8 FFF7FEFF 		bl	chEvtUnregister
 145              		.loc 1 142 0
 146 00ac 0020     		movs	r0, #0
 147 00ae 05B0     		add	sp, sp, #20
 148 00b0 BDE8F083 		pop	{r4, r5, r6, r7, r8, r9, pc}
 149              	.L16:
 150              		.align	2
 151              	.L15:
 152 00b4 00000000 		.word	.LC0
 153 00b8 20000000 		.word	CAND1+32
 154 00bc 00000000 		.word	.LANCHOR0
 155 00c0 67452301 		.word	19088743
 156 00c4 00000000 		.word	.LANCHOR1
 157 00c8 00000000 		.word	CAND1
 158 00cc 00080140 		.word	1073809408
 159 00d0 00000000 		.word	rlist
 160 00d4 00000000 		.word	.LANCHOR2
 161              		.cfi_endproc
 162              	.LFE56:
 163              		.size	can_rx, .-can_rx
 164 00d8 AFF30080 		.section	.text.can_commInit,"ax",%progbits
 164      AFF30080 
 165              		.align	2
 166              		.p2align 4,,15
ARM GAS  C:\Users\DNIEL~1\AppData\Local\Temp\ccITf261.s 			page 4


 167              		.global	can_commInit
 168              		.thumb
 169              		.thumb_func
 170              		.type	can_commInit, %function
 171              	can_commInit:
 172              	.LFB58:
 173              		.loc 1 166 0
 174              		.cfi_startproc
 175              		@ args = 0, pretend = 0, frame = 0
 176              		@ frame_needed = 0, uses_anonymous_args = 0
 177 0000 30B5     		push	{r4, r5, lr}
 178              	.LCFI2:
 179              		.cfi_def_cfa_offset 12
 180              		.loc 1 171 0
 181 0002 2C4D     		ldr	r5, .L28
 182              		.cfi_offset 14, -4
 183              		.cfi_offset 5, -8
 184              		.cfi_offset 4, -12
 185              		.loc 1 176 0
 186 0004 2C48     		ldr	r0, .L28+4
 187              		.loc 1 171 0
 188 0006 A968     		ldr	r1, [r5, #8]
 189              		.loc 1 172 0
 190 0008 AA68     		ldr	r2, [r5, #8]
 191              		.loc 1 171 0
 192 000a 11F0800F 		tst	r1, #128
 193              		.loc 1 173 0
 194 000e AB68     		ldr	r3, [r5, #8]
 195              		.loc 1 171 0
 196 0010 14BF     		ite	ne
 197 0012 4024     		movne	r4, #64
 198 0014 4124     		moveq	r4, #65
 199              		.loc 1 174 0
 200 0016 A968     		ldr	r1, [r5, #8]
 201              		.loc 1 172 0
 202 0018 12F0400F 		tst	r2, #64
 203 001c 14BF     		ite	ne
 204 001e 4FF0000C 		movne	ip, #0
 205 0022 4FF0020C 		moveq	ip, #2
 206              		.loc 1 173 0
 207 0026 13F0200F 		tst	r3, #32
 208              		.loc 1 175 0
 209 002a AD68     		ldr	r5, [r5, #8]
 210              		.loc 1 172 0
 211 002c 04EB0C0E 		add	lr, r4, ip
 212              		.loc 1 173 0
 213 0030 14BF     		ite	ne
 214 0032 0022     		movne	r2, #0
 215 0034 0422     		moveq	r2, #4
 216              		.loc 1 176 0
 217 0036 8468     		ldr	r4, [r0, #8]
 218              		.loc 1 174 0
 219 0038 11F0100F 		tst	r1, #16
 220              		.loc 1 168 0
 221 003c 1F4B     		ldr	r3, .L28+8
 222              		.loc 1 173 0
 223 003e 0EEB0200 		add	r0, lr, r2
ARM GAS  C:\Users\DNIEL~1\AppData\Local\Temp\ccITf261.s 			page 5


 224              		.loc 1 174 0
 225 0042 14BF     		ite	ne
 226 0044 4FF0000C 		movne	ip, #0
 227 0048 4FF0080C 		moveq	ip, #8
 228 004c 00EB0C01 		add	r1, r0, ip
 229              		.loc 1 176 0
 230 0050 14F4807F 		tst	r4, #256
 231              		.loc 1 175 0
 232 0054 C5F3C004 		ubfx	r4, r5, #3, #1
 233              		.loc 1 181 0
 234 0058 93F800E0 		ldrb	lr, [r3, #0]	@ zero_extendqisi2
 235              		.loc 1 175 0
 236 005c 01EB0415 		add	r5, r1, r4, lsl #4
 237              		.loc 1 168 0
 238 0060 5C68     		ldr	r4, [r3, #4]
 239              		.loc 1 176 0
 240 0062 14BF     		ite	ne
 241 0064 0022     		movne	r2, #0
 242 0066 2022     		moveq	r2, #32
 243              		.loc 1 168 0
 244 0068 4020     		movs	r0, #64
 245              		.loc 1 182 0
 246 006a 4EF0200C 		orr	ip, lr, #32
 247              		.loc 1 168 0
 248 006e 60F31C04 		bfi	r4, r0, #0, #29
 249              		.loc 1 178 0
 250 0072 AD18     		adds	r5, r5, r2
 251              		.loc 1 168 0
 252 0074 5C60     		str	r4, [r3, #4]
 253              		.loc 1 183 0
 254 0076 0CF0EF02 		and	r2, ip, #239
 255 007a 0821     		movs	r1, #8
 256              		.loc 1 179 0
 257 007c 402D     		cmp	r5, #64
 258 007e 38BF     		it	cc
 259 0080 4025     		movcc	r5, #64
 260 0082 0F4C     		ldr	r4, .L28+12
 261              		.loc 1 183 0
 262 0084 61F30302 		bfi	r2, r1, #0, #4
 263              		.loc 1 179 0
 264 0088 5F2D     		cmp	r5, #95
 265 008a 28BF     		it	cs
 266 008c 5F25     		movcs	r5, #95
 267 008e 2580     		strh	r5, [r4, #0]	@ movhi
 268              		.loc 1 166 0
 269 0090 83B0     		sub	sp, sp, #12
 270              	.LCFI3:
 271              		.cfi_def_cfa_offset 24
 272              		.loc 1 183 0
 273 0092 1A70     		strb	r2, [r3, #0]
 274              		.loc 1 185 0
 275 0094 0B48     		ldr	r0, .L28+16
 276 0096 0C49     		ldr	r1, .L28+20
 277 0098 FFF7FEFF 		bl	canStart
 278              		.loc 1 187 0
 279 009c 0024     		movs	r4, #0
 280 009e 4FF4E871 		mov	r1, #464
ARM GAS  C:\Users\DNIEL~1\AppData\Local\Temp\ccITf261.s 			page 6


 281 00a2 4722     		movs	r2, #71
 282 00a4 094B     		ldr	r3, .L28+24
 283 00a6 0A48     		ldr	r0, .L28+28
 284 00a8 0094     		str	r4, [sp, #0]
 285 00aa FFF7FEFF 		bl	chThdCreateStatic
 286              		.loc 1 189 0
 287 00ae 03B0     		add	sp, sp, #12
 288 00b0 30BD     		pop	{r4, r5, pc}
 289              	.L29:
 290 00b2 00BF     		.align	2
 291              	.L28:
 292 00b4 000C0140 		.word	1073810432
 293 00b8 00080140 		.word	1073809408
 294 00bc 00000000 		.word	.LANCHOR1
 295 00c0 00000000 		.word	.LANCHOR2
 296 00c4 00000000 		.word	CAND1
 297 00c8 00000000 		.word	.LANCHOR3
 298 00cc 00000000 		.word	can_rx
 299 00d0 00000000 		.word	.LANCHOR4
 300              		.cfi_endproc
 301              	.LFE58:
 302              		.size	can_commInit, .-can_commInit
 303 00d4 AFF30080 		.section	.text.can_commCalc,"ax",%progbits
 303      AFF30080 
 303      AFF30080 
 304              		.align	2
 305              		.p2align 4,,15
 306              		.global	can_commCalc
 307              		.thumb
 308              		.thumb_func
 309              		.type	can_commCalc, %function
 310              	can_commCalc:
 311              	.LFB59:
 312              		.loc 1 191 0
 313              		.cfi_startproc
 314              		@ args = 0, pretend = 0, frame = 0
 315              		@ frame_needed = 0, uses_anonymous_args = 0
 316              		@ link register save eliminated.
 317              		.loc 1 192 0
 318 0000 7047     		bx	lr
 319              		.cfi_endproc
 320              	.LFE59:
 321              		.size	can_commCalc, .-can_commCalc
 322              		.global	canComands
 323              		.global	canRxEID
 324 0002 00BFAFF3 		.section	.bss.id,"aw",%nobits
 324      0080AFF3 
 324      0080AFF3 
 324      0080
 325              		.align	1
 326              		.set	.LANCHOR2,. + 0
 327              		.type	id, %object
 328              		.size	id, 2
 329              	id:
 330 0000 0000     		.space	2
 331              		.section	.bss.txmsg,"aw",%nobits
 332              		.align	2
ARM GAS  C:\Users\DNIEL~1\AppData\Local\Temp\ccITf261.s 			page 7


 333              		.set	.LANCHOR1,. + 0
 334              		.type	txmsg, %object
 335              		.size	txmsg, 16
 336              	txmsg:
 337 0000 00000000 		.space	16
 337      00000000 
 337      00000000 
 337      00000000 
 338              		.section	.bss.can_rx_wa,"aw",%nobits
 339              		.align	3
 340              		.set	.LANCHOR4,. + 0
 341              		.type	can_rx_wa, %object
 342              		.size	can_rx_wa, 464
 343              	can_rx_wa:
 344 0000 00000000 		.space	464
 344      00000000 
 344      00000000 
 344      00000000 
 344      00000000 
 345              		.section	.bss.canComands,"aw",%nobits
 346              		.align	2
 347              		.type	canComands, %object
 348              		.size	canComands, 4
 349              	canComands:
 350 0000 00000000 		.space	4
 351              		.section	.rodata.str1.4,"aMS",%progbits,1
 352              		.align	2
 353              	.LC0:
 354 0000 72656365 		.ascii	"receiver\000"
 354      69766572 
 354      00
 355 0009 000000   		.section	.bss.rxmsg,"aw",%nobits
 356              		.align	2
 357              		.set	.LANCHOR0,. + 0
 358              		.type	rxmsg, %object
 359              		.size	rxmsg, 20
 360              	rxmsg:
 361 0000 00000000 		.space	20
 361      00000000 
 361      00000000 
 361      00000000 
 361      00000000 
 362              		.section	.rodata.cancfg,"a",%progbits
 363              		.align	2
 364              		.set	.LANCHOR3,. + 0
 365              		.type	cancfg, %object
 366              		.size	cancfg, 8
 367              	cancfg:
 368 0000 40000000 		.word	64
 369 0004 05001800 		.word	1572869
 370              		.section	.bss.canRxEID,"aw",%nobits
 371              		.align	2
 372              		.type	canRxEID, %object
 373              		.size	canRxEID, 4
 374              	canRxEID:
 375 0000 00000000 		.space	4
 376              		.text
ARM GAS  C:\Users\DNIEL~1\AppData\Local\Temp\ccITf261.s 			page 8


 377              	.Letext0: