ARM GAS  C:\Users\DNIEL~1\AppData\Local\Temp\cc72pSZU.s 			page 1


   1              		.syntax unified
   2              		.cpu cortex-m3
   3              		.fpu softvfp
   4              		.eabi_attribute 20, 1
   5              		.eabi_attribute 21, 1
   6              		.eabi_attribute 23, 3
   7              		.eabi_attribute 24, 1
   8              		.eabi_attribute 25, 1
   9              		.eabi_attribute 26, 1
  10              		.eabi_attribute 30, 2
  11              		.eabi_attribute 18, 4
  12              		.thumb
  13              		.file	"can_comm.c"
  14              		.section	.debug_abbrev,"",%progbits
  15              	.Ldebug_abbrev0:
  16              		.section	.debug_info,"",%progbits
  17              	.Ldebug_info0:
  18              		.section	.debug_line,"",%progbits
  19              	.Ldebug_line0:
  20 0000 52030000 		.text
  20      02004C02 
  20      00000201 
  20      FB0E0D00 
  20      01010101 
  21              	.Ltext0:
  22              		.cfi_sections	.debug_frame
  23              		.section	.text.can_tx,"ax",%progbits
  24              		.align	2
  25              		.p2align 4,,15
  26              		.thumb
  27              		.thumb_func
  28              		.type	can_tx, %function
  29              	can_tx:
  30              	.LFB57:
  31              		.file 1 "src/can_comm.c"
  32              		.loc 1 215 0
  33              		.cfi_startproc
  34              		@ args = 0, pretend = 0, frame = 0
  35              		@ frame_needed = 0, uses_anonymous_args = 0
  36              	.LVL0:
  37 0000 2DE9F041 		push	{r4, r5, r6, r7, r8, lr}
  38              	.LCFI0:
  39              		.cfi_def_cfa_offset 24
  40              		.loc 1 218 0
  41 0004 314F     		ldr	r7, .L12
  42              		.cfi_offset 14, -4
  43              		.cfi_offset 8, -8
  44              		.cfi_offset 7, -12
  45              		.cfi_offset 6, -16
  46              		.cfi_offset 5, -20
  47              		.cfi_offset 4, -24
  48 0006 3249     		ldr	r1, .L12+4
  49 0008 BB69     		ldr	r3, [r7, #24]
  50              		.loc 1 222 0
  51 000a 5A7F     		ldrb	r2, [r3, #29]	@ zero_extendqisi2
  52              		.loc 1 218 0
  53 000c 9961     		str	r1, [r3, #24]
ARM GAS  C:\Users\DNIEL~1\AppData\Local\Temp\cc72pSZU.s 			page 2


  54              		.loc 1 222 0
  55 000e 12F0040F 		tst	r2, #4
  56 0012 3DD1     		bne	.L3
  57              		.loc 1 247 0
  58 0014 2F4C     		ldr	r4, .L12+8
  59 0016 304E     		ldr	r6, .L12+12
  60              	.LVL1:
  61              	.L9:
  62              		.loc 1 215 0
  63 0018 0125     		movs	r5, #1
  64              	.LVL2:
  65              	.L8:
  66 001a 6B1E     		subs	r3, r5, #1
  67              		.loc 1 224 0
  68 001c 012B     		cmp	r3, #1
  69 001e 3AD0     		beq	.L5
  70 0020 022B     		cmp	r3, #2
  71 0022 27D0     		beq	.L6
  72              		.loc 1 227 0
  73              	@ 227 "src/can_comm.c" 1
  74 0024 FFF7FEFF 		bl      _port_lock
  75              	@ 0 "" 2
  76              		.loc 1 230 0
  77              		.thumb
  78 0028 3388     		ldrh	r3, [r6, #0]
  79 002a 6168     		ldr	r1, [r4, #4]
  80 002c 1A02     		lsls	r2, r3, #8
  81 002e 501C     		adds	r0, r2, #1
  82 0030 60F31C01 		bfi	r1, r0, #0, #29
  83              		.loc 1 232 0
  84 0034 0020     		movs	r0, #0
  85              		.loc 1 230 0
  86 0036 6160     		str	r1, [r4, #4]
  87              		.loc 1 232 0
  88 0038 FFF7FEFF 		bl	measGetValue
  89 003c 2072     		strb	r0, [r4, #8]
  90              		.loc 1 233 0
  91 003e 0220     		movs	r0, #2
  92 0040 FFF7FEFF 		bl	measGetValue
  93 0044 6072     		strb	r0, [r4, #9]
  94              		.loc 1 234 0
  95 0046 0320     		movs	r0, #3
  96 0048 FFF7FEFF 		bl	measGetValue
  97              		.loc 1 235 0
  98 004c 4FF00008 		mov	r8, #0
  99              		.loc 1 234 0
 100 0050 A072     		strb	r0, [r4, #10]
 101              		.loc 1 235 0
 102 0052 84F80B80 		strb	r8, [r4, #11]
 103              		.loc 1 236 0
 104 0056 FFF7FEFF 		bl	SPV1020VIN
 105 005a A081     		strh	r0, [r4, #12]	@ movhi
 106              		.loc 1 237 0
 107 005c 0120     		movs	r0, #1
 108 005e FFF7FEFF 		bl	measGetValue
 109 0062 E081     		strh	r0, [r4, #14]	@ movhi
 110              		.loc 1 238 0
ARM GAS  C:\Users\DNIEL~1\AppData\Local\Temp\cc72pSZU.s 			page 3


 111              	@ 238 "src/can_comm.c" 1
 112 0064 FFF7FEFF 		bl      _port_unlock
 113              	@ 0 "" 2
 114              		.loc 1 240 0
 115              		.thumb
 116 0068 1A4A     		ldr	r2, .L12+8
 117 006a 4146     		mov	r1, r8
 118 006c 6423     		movs	r3, #100
 119 006e 1B48     		ldr	r0, .L12+16
 120 0070 FFF7FEFF 		bl	canTransmit
 121              	.L6:
 122              		.loc 1 271 0
 123 0074 1420     		movs	r0, #20
 124 0076 FFF7FEFF 		bl	chThdSleep
 125              	.LVL3:
 126              		.loc 1 223 0
 127 007a 022D     		cmp	r5, #2
 128 007c 24DD     		ble	.L7
 129              		.loc 1 273 0
 130 007e 6420     		movs	r0, #100
 131 0080 FFF7FEFF 		bl	chThdSleep
 132              		.loc 1 222 0
 133 0084 B969     		ldr	r1, [r7, #24]
 134 0086 91F81DC0 		ldrb	ip, [r1, #29]	@ zero_extendqisi2
 135 008a 1CF0040F 		tst	ip, #4
 136 008e C3D0     		beq	.L9
 137              	.LVL4:
 138              	.L3:
 139              		.loc 1 276 0
 140 0090 0020     		movs	r0, #0
 141 0092 BDE8F081 		pop	{r4, r5, r6, r7, r8, pc}
 142              	.L5:
 143              		.loc 1 247 0
 144 0096 3388     		ldrh	r3, [r6, #0]
 145 0098 6168     		ldr	r1, [r4, #4]
 146 009a 1A02     		lsls	r2, r3, #8
 147 009c 901C     		adds	r0, r2, #2
 148 009e 60F31C01 		bfi	r1, r0, #0, #29
 149 00a2 6160     		str	r1, [r4, #4]
 150              		.loc 1 249 0
 151 00a4 FFF7FEFF 		bl	SPV1020STATUS
 152 00a8 2081     		strh	r0, [r4, #8]	@ movhi
 153              		.loc 1 250 0
 154 00aa FFF7FEFF 		bl	SPV1020PWM
 155 00ae 6081     		strh	r0, [r4, #10]	@ movhi
 156              		.loc 1 251 0
 157 00b0 FFF7FEFF 		bl	SPV1020CURR_IN
 158              		.loc 1 253 0
 159 00b4 0021     		movs	r1, #0
 160              		.loc 1 251 0
 161 00b6 A081     		strh	r0, [r4, #12]	@ movhi
 162              		.loc 1 253 0
 163 00b8 064A     		ldr	r2, .L12+8
 164 00ba 6423     		movs	r3, #100
 165 00bc 0748     		ldr	r0, .L12+16
 166 00be FFF7FEFF 		bl	canTransmit
 167              		.loc 1 271 0
ARM GAS  C:\Users\DNIEL~1\AppData\Local\Temp\cc72pSZU.s 			page 4


 168 00c2 1420     		movs	r0, #20
 169 00c4 FFF7FEFF 		bl	chThdSleep
 170              	.LVL5:
 171              	.L7:
 172              		.loc 1 222 0
 173 00c8 0135     		adds	r5, r5, #1
 174 00ca A6E7     		b	.L8
 175              	.L13:
 176              		.align	2
 177              	.L12:
 178 00cc 00000000 		.word	rlist
 179 00d0 00000000 		.word	.LC0
 180 00d4 00000000 		.word	.LANCHOR0
 181 00d8 00000000 		.word	.LANCHOR1
 182 00dc 00000000 		.word	CAND1
 183              		.cfi_endproc
 184              	.LFE57:
 185              		.size	can_tx, .-can_tx
 186              		.section	.text.can_rx,"ax",%progbits
 187              		.align	2
 188              		.p2align 4,,15
 189              		.thumb
 190              		.thumb_func
 191              		.type	can_rx, %function
 192              	can_rx:
 193              	.LFB56:
 194              		.loc 1 117 0
 195              		.cfi_startproc
 196              		@ args = 0, pretend = 0, frame = 16
 197              		@ frame_needed = 0, uses_anonymous_args = 0
 198              	.LVL6:
 199 0000 2DE9F047 		push	{r4, r5, r6, r7, r8, r9, sl, lr}
 200              	.LCFI1:
 201              		.cfi_def_cfa_offset 32
 202              		.loc 1 122 0
 203 0004 DFF84081 		ldr	r8, .L39+32
 204              		.cfi_offset 14, -4
 205              		.cfi_offset 10, -8
 206              		.cfi_offset 9, -12
 207              		.cfi_offset 8, -16
 208              		.cfi_offset 7, -20
 209              		.cfi_offset 6, -24
 210              		.cfi_offset 5, -28
 211              		.cfi_offset 4, -32
 212 0008 474A     		ldr	r2, .L39
 213 000a D8F81830 		ldr	r3, [r8, #24]
 214              		.loc 1 117 0
 215 000e 84B0     		sub	sp, sp, #16
 216              	.LCFI2:
 217              		.cfi_def_cfa_offset 48
 218              		.loc 1 122 0
 219 0010 9A61     		str	r2, [r3, #24]
 220              		.loc 1 123 0
 221 0012 4648     		ldr	r0, .L39+4
 222              	.LVL7:
 223 0014 6946     		mov	r1, sp
 224 0016 0122     		movs	r2, #1
ARM GAS  C:\Users\DNIEL~1\AppData\Local\Temp\cc72pSZU.s 			page 5


 225 0018 FFF7FEFF 		bl	chEvtRegisterMask
 226              		.loc 1 127 0
 227 001c 444C     		ldr	r4, .L39+8
 228              		.loc 1 130 0
 229 001e 454F     		ldr	r7, .L39+12
 230              		.loc 1 131 0
 231 0020 454D     		ldr	r5, .L39+16
 232              		.loc 1 154 0
 233 0022 464E     		ldr	r6, .L39+20
 234              	.L32:
 235              		.loc 1 124 0 discriminator 1
 236 0024 D8F81820 		ldr	r2, [r8, #24]
 237 0028 92F81DC0 		ldrb	ip, [r2, #29]	@ zero_extendqisi2
 238 002c 1CF0040F 		tst	ip, #4
 239 0030 6ED1     		bne	.L36
 240              		.loc 1 125 0
 241 0032 4FF0FF30 		mov	r0, #-1
 242 0036 6421     		movs	r1, #100
 243 0038 FFF7FEFF 		bl	chEvtWaitAnyTimeout
 244 003c 0028     		cmp	r0, #0
 245 003e F1D0     		beq	.L32
 246              	.L33:
 247              		.loc 1 127 0 discriminator 1
 248 0040 0021     		movs	r1, #0
 249 0042 3F48     		ldr	r0, .L39+24
 250 0044 3A4A     		ldr	r2, .L39+8
 251 0046 0B46     		mov	r3, r1
 252 0048 FFF7FEFF 		bl	canReceive
 253 004c 0028     		cmp	r0, #0
 254 004e E9D1     		bne	.L32
 255              		.loc 1 130 0
 256 0050 A168     		ldr	r1, [r4, #8]
 257 0052 C1F31C0C 		ubfx	ip, r1, #0, #29
 258 0056 CCF30F23 		ubfx	r3, ip, #8, #16
 259              		.loc 1 131 0
 260 005a 5FFA8CF2 		uxtb	r2, ip
 261              		.loc 1 133 0
 262 005e 0F2B     		cmp	r3, #15
 263              		.loc 1 130 0
 264 0060 3B80     		strh	r3, [r7, #0]	@ movhi
 265              		.loc 1 131 0
 266 0062 2A80     		strh	r2, [r5, #0]	@ movhi
 267              		.loc 1 133 0
 268 0064 1DD8     		bhi	.L18
 269              	.L38:
 270              		.loc 1 161 0
 271 0066 1FFA82FE 		uxth	lr, r2
 272              		.loc 1 135 0
 273 006a 60F31C01 		bfi	r1, r0, #0, #29
 274              		.loc 1 161 0
 275 006e BEF1020F 		cmp	lr, #2
 276              		.loc 1 134 0
 277 0072 3070     		strb	r0, [r6, #0]
 278              		.loc 1 135 0
 279 0074 A160     		str	r1, [r4, #8]
 280              		.loc 1 161 0
 281 0076 38D0     		beq	.L37
ARM GAS  C:\Users\DNIEL~1\AppData\Local\Temp\cc72pSZU.s 			page 6


 282              	.L20:
 283              		.loc 1 179 0
 284 0078 0520     		movs	r0, #5
 285              		.loc 1 127 0
 286 007a 0021     		movs	r1, #0
 287              		.loc 1 179 0
 288 007c 3070     		strb	r0, [r6, #0]
 289              		.loc 1 127 0
 290 007e 2C4A     		ldr	r2, .L39+8
 291 0080 2F48     		ldr	r0, .L39+24
 292 0082 0B46     		mov	r3, r1
 293 0084 FFF7FEFF 		bl	canReceive
 294 0088 0028     		cmp	r0, #0
 295 008a CBD1     		bne	.L32
 296              		.loc 1 130 0
 297 008c A168     		ldr	r1, [r4, #8]
 298 008e C1F31C0C 		ubfx	ip, r1, #0, #29
 299 0092 CCF30F23 		ubfx	r3, ip, #8, #16
 300              		.loc 1 131 0
 301 0096 5FFA8CF2 		uxtb	r2, ip
 302              		.loc 1 133 0
 303 009a 0F2B     		cmp	r3, #15
 304              		.loc 1 130 0
 305 009c 3B80     		strh	r3, [r7, #0]	@ movhi
 306              		.loc 1 131 0
 307 009e 2A80     		strh	r2, [r5, #0]	@ movhi
 308              		.loc 1 133 0
 309 00a0 E1D9     		bls	.L38
 310              	.L18:
 311              		.loc 1 137 0
 312 00a2 A3F1100C 		sub	ip, r3, #16
 313 00a6 1FFA8CF2 		uxth	r2, ip
 314 00aa 0F2A     		cmp	r2, #15
 315 00ac 17D9     		bls	.L34
 316              		.loc 1 141 0
 317 00ae A3F12002 		sub	r2, r3, #32
 318 00b2 1FFA82FE 		uxth	lr, r2
 319 00b6 BEF10F0F 		cmp	lr, #15
 320 00ba 10D9     		bls	.L34
 321              		.loc 1 145 0
 322 00bc A3F1300E 		sub	lr, r3, #48
 323 00c0 1FFA8EFC 		uxth	ip, lr
 324 00c4 BCF10F0F 		cmp	ip, #15
 325 00c8 09D9     		bls	.L34
 326              		.loc 1 149 0
 327 00ca 403B     		subs	r3, r3, #64
 328 00cc 9BB2     		uxth	r3, r3
 329 00ce 1F2B     		cmp	r3, #31
 330 00d0 05D9     		bls	.L34
 331              		.loc 1 155 0
 332 00d2 60F31C01 		bfi	r1, r0, #0, #29
 333              		.loc 1 154 0
 334 00d6 0522     		movs	r2, #5
 335 00d8 3270     		strb	r2, [r6, #0]
 336              		.loc 1 155 0
 337 00da A160     		str	r1, [r4, #8]
 338 00dc B0E7     		b	.L33
ARM GAS  C:\Users\DNIEL~1\AppData\Local\Temp\cc72pSZU.s 			page 7


 339              	.L34:
 340              		.loc 1 151 0
 341 00de 60F31C01 		bfi	r1, r0, #0, #29
 342              		.loc 1 195 0
 343 00e2 0520     		movs	r0, #5
 344              		.loc 1 151 0
 345 00e4 A160     		str	r1, [r4, #8]
 346              		.loc 1 195 0
 347 00e6 3070     		strb	r0, [r6, #0]
 348              		.loc 1 196 0
 349 00e8 AAE7     		b	.L33
 350              	.L37:
 351              		.loc 1 162 0
 352 00ea 94F80C90 		ldrb	r9, [r4, #12]	@ zero_extendqisi2
 353 00ee 19F00209 		ands	r9, r9, #2
 354 00f2 02D0     		beq	.L27
 355              		.loc 1 164 0
 356 00f4 1349     		ldr	r1, .L39+28
 357 00f6 0870     		strb	r0, [r1, #0]
 358 00f8 BEE7     		b	.L20
 359              	.L27:
 360              		.loc 1 172 0
 361 00fa DFF848A0 		ldr	sl, .L39+28
 362 00fe 9AF80030 		ldrb	r3, [sl, #0]	@ zero_extendqisi2
 363 0102 002B     		cmp	r3, #0
 364 0104 B8D0     		beq	.L20
 365              		.loc 1 174 0
 366 0106 FFF7FEFF 		bl	SPV1020SHUT_DOWN
 367              		.loc 1 175 0
 368 010a 8AF80090 		strb	r9, [sl, #0]
 369 010e B3E7     		b	.L20
 370              	.L36:
 371              		.loc 1 206 0
 372 0110 6946     		mov	r1, sp
 373 0112 0648     		ldr	r0, .L39+4
 374 0114 FFF7FEFF 		bl	chEvtUnregister
 375              		.loc 1 207 0
 376 0118 C820     		movs	r0, #200
 377 011a FFF7FEFF 		bl	chThdSleep
 378              		.loc 1 209 0
 379 011e 0020     		movs	r0, #0
 380 0120 04B0     		add	sp, sp, #16
 381 0122 BDE8F087 		pop	{r4, r5, r6, r7, r8, r9, sl, pc}
 382              	.L40:
 383 0126 00BF     		.align	2
 384              	.L39:
 385 0128 0C000000 		.word	.LC1
 386 012c 20000000 		.word	CAND1+32
 387 0130 00000000 		.word	.LANCHOR2
 388 0134 00000000 		.word	.LANCHOR3
 389 0138 00000000 		.word	.LANCHOR4
 390 013c 00000000 		.word	.LANCHOR5
 391 0140 00000000 		.word	CAND1
 392 0144 00000000 		.word	.LANCHOR6
 393 0148 00000000 		.word	rlist
 394              		.cfi_endproc
 395              	.LFE56:
ARM GAS  C:\Users\DNIEL~1\AppData\Local\Temp\cc72pSZU.s 			page 8


 396              		.size	can_rx, .-can_rx
 397 014c AFF30080 		.section	.text.can_commInit,"ax",%progbits
 398              		.align	2
 399              		.p2align 4,,15
 400              		.global	can_commInit
 401              		.thumb
 402              		.thumb_func
 403              		.type	can_commInit, %function
 404              	can_commInit:
 405              	.LFB58:
 406              		.loc 1 278 0
 407              		.cfi_startproc
 408              		@ args = 0, pretend = 0, frame = 0
 409              		@ frame_needed = 0, uses_anonymous_args = 0
 410 0000 F0B5     		push	{r4, r5, r6, r7, lr}
 411              	.LCFI3:
 412              		.cfi_def_cfa_offset 20
 413              		.loc 1 282 0
 414 0002 364E     		ldr	r6, .L52
 415              		.cfi_offset 14, -4
 416              		.cfi_offset 7, -8
 417              		.cfi_offset 6, -12
 418              		.cfi_offset 5, -16
 419              		.cfi_offset 4, -20
 420              		.loc 1 278 0
 421 0004 83B0     		sub	sp, sp, #12
 422              	.LCFI4:
 423              		.cfi_def_cfa_offset 32
 424              		.loc 1 282 0
 425 0006 B768     		ldr	r7, [r6, #8]
 426              		.loc 1 283 0
 427 0008 B468     		ldr	r4, [r6, #8]
 428              		.loc 1 282 0
 429 000a 17F0800F 		tst	r7, #128
 430              		.loc 1 284 0
 431 000e B168     		ldr	r1, [r6, #8]
 432              		.loc 1 282 0
 433 0010 14BF     		ite	ne
 434 0012 4FF0400E 		movne	lr, #64
 435 0016 4FF0410E 		moveq	lr, #65
 436              		.loc 1 285 0
 437 001a B568     		ldr	r5, [r6, #8]
 438              		.loc 1 283 0
 439 001c 14F0400F 		tst	r4, #64
 440 0020 14BF     		ite	ne
 441 0022 0020     		movne	r0, #0
 442 0024 0220     		moveq	r0, #2
 443              		.loc 1 287 0
 444 0026 A6F58063 		sub	r3, r6, #1024
 445              		.loc 1 284 0
 446 002a 11F0200F 		tst	r1, #32
 447              		.loc 1 283 0
 448 002e 0EEB000C 		add	ip, lr, r0
 449              		.loc 1 286 0
 450 0032 B168     		ldr	r1, [r6, #8]
 451              		.loc 1 284 0
 452 0034 14BF     		ite	ne
ARM GAS  C:\Users\DNIEL~1\AppData\Local\Temp\cc72pSZU.s 			page 9


 453 0036 0022     		movne	r2, #0
 454 0038 0422     		moveq	r2, #4
 455              		.loc 1 287 0
 456 003a 9F68     		ldr	r7, [r3, #8]
 457              		.loc 1 285 0
 458 003c 15F0100F 		tst	r5, #16
 459              		.loc 1 296 0
 460 0040 274B     		ldr	r3, .L52+4
 461              		.loc 1 292 0
 462 0042 284D     		ldr	r5, .L52+8
 463              		.loc 1 284 0
 464 0044 0CEB0206 		add	r6, ip, r2
 465              		.loc 1 285 0
 466 0048 14BF     		ite	ne
 467 004a 0024     		movne	r4, #0
 468 004c 0824     		moveq	r4, #8
 469              		.loc 1 292 0
 470 004e 95F800C0 		ldrb	ip, [r5, #0]	@ zero_extendqisi2
 471              		.loc 1 287 0
 472 0052 17F4807F 		tst	r7, #256
 473              		.loc 1 285 0
 474 0056 06EB0400 		add	r0, r6, r4
 475              		.loc 1 296 0
 476 005a 1F79     		ldrb	r7, [r3, #4]	@ zero_extendqisi2
 477              		.loc 1 286 0
 478 005c C1F3C00E 		ubfx	lr, r1, #3, #1
 479              		.loc 1 287 0
 480 0060 14BF     		ite	ne
 481 0062 0022     		movne	r2, #0
 482 0064 2022     		moveq	r2, #32
 483              		.loc 1 286 0
 484 0066 00EB0E14 		add	r4, r0, lr, lsl #4
 485              		.loc 1 289 0
 486 006a 04EB020E 		add	lr, r4, r2
 487              		.loc 1 297 0
 488 006e 47F02000 		orr	r0, r7, #32
 489              		.loc 1 293 0
 490 0072 4CF02006 		orr	r6, ip, #32
 491              		.loc 1 294 0
 492 0076 0821     		movs	r1, #8
 493              		.loc 1 290 0
 494 0078 BEF1400F 		cmp	lr, #64
 495 007c 38BF     		it	cc
 496 007e 4FF0400E 		movcc	lr, #64
 497              		.loc 1 298 0
 498 0082 00F0EF0C 		and	ip, r0, #239
 499              		.loc 1 290 0
 500 0086 184F     		ldr	r7, .L52+12
 501              		.loc 1 294 0
 502 0088 06F0EF06 		and	r6, r6, #239
 503              		.loc 1 298 0
 504 008c 61F3030C 		bfi	ip, r1, #0, #4
 505              		.loc 1 290 0
 506 0090 BEF15F0F 		cmp	lr, #95
 507 0094 28BF     		it	cs
 508 0096 4FF05F0E 		movcs	lr, #95
 509              		.loc 1 294 0
ARM GAS  C:\Users\DNIEL~1\AppData\Local\Temp\cc72pSZU.s 			page 10


 510 009a 61F30306 		bfi	r6, r1, #0, #4
 511              		.loc 1 290 0
 512 009e A7F800E0 		strh	lr, [r7, #0]	@ movhi
 513              		.loc 1 294 0
 514 00a2 2E70     		strb	r6, [r5, #0]
 515              		.loc 1 298 0
 516 00a4 83F804C0 		strb	ip, [r3, #4]
 517              		.loc 1 300 0
 518 00a8 104B     		ldr	r3, .L52+16
 519 00aa 0122     		movs	r2, #1
 520 00ac 1A70     		strb	r2, [r3, #0]
 521              		.loc 1 302 0
 522 00ae 1048     		ldr	r0, .L52+20
 523 00b0 1049     		ldr	r1, .L52+24
 524 00b2 FFF7FEFF 		bl	canStart
 525              		.loc 1 304 0
 526 00b6 0024     		movs	r4, #0
 527 00b8 4722     		movs	r2, #71
 528 00ba 4FF4E871 		mov	r1, #464
 529 00be 0E4B     		ldr	r3, .L52+28
 530 00c0 0E48     		ldr	r0, .L52+32
 531 00c2 0094     		str	r4, [sp, #0]
 532 00c4 FFF7FEFF 		bl	chThdCreateStatic
 533              		.loc 1 305 0
 534 00c8 4FF4E871 		mov	r1, #464
 535 00cc 4722     		movs	r2, #71
 536 00ce 0C4B     		ldr	r3, .L52+36
 537 00d0 0C48     		ldr	r0, .L52+40
 538 00d2 0094     		str	r4, [sp, #0]
 539 00d4 FFF7FEFF 		bl	chThdCreateStatic
 540              		.loc 1 306 0
 541 00d8 03B0     		add	sp, sp, #12
 542 00da F0BD     		pop	{r4, r5, r6, r7, pc}
 543              	.L53:
 544              		.align	2
 545              	.L52:
 546 00dc 000C0140 		.word	1073810432
 547 00e0 00000000 		.word	.LANCHOR2
 548 00e4 00000000 		.word	.LANCHOR0
 549 00e8 00000000 		.word	.LANCHOR1
 550 00ec 00000000 		.word	.LANCHOR6
 551 00f0 00000000 		.word	CAND1
 552 00f4 00000000 		.word	.LANCHOR7
 553 00f8 00000000 		.word	can_rx
 554 00fc 00000000 		.word	.LANCHOR8
 555 0100 00000000 		.word	can_tx
 556 0104 00000000 		.word	.LANCHOR9
 557              		.cfi_endproc
 558              	.LFE58:
 559              		.size	can_commInit, .-can_commInit
 560              		.global	canstate
 561              		.global	canMessages
 562 0108 AFF30080 		.section	.bss.can_tx_wa,"aw",%nobits
 562      AFF30080 
 563              		.align	3
 564              		.set	.LANCHOR9,. + 0
 565              		.type	can_tx_wa, %object
ARM GAS  C:\Users\DNIEL~1\AppData\Local\Temp\cc72pSZU.s 			page 11


 566              		.size	can_tx_wa, 464
 567              	can_tx_wa:
 568 0000 00000000 		.space	464
 568      00000000 
 568      00000000 
 568      00000000 
 568      00000000 
 569              		.section	.bss.rx_id,"aw",%nobits
 570              		.align	1
 571              		.set	.LANCHOR3,. + 0
 572              		.type	rx_id, %object
 573              		.size	rx_id, 2
 574              	rx_id:
 575 0000 0000     		.space	2
 576              		.section	.bss.txmsg,"aw",%nobits
 577              		.align	2
 578              		.set	.LANCHOR0,. + 0
 579              		.type	txmsg, %object
 580              		.size	txmsg, 16
 581              	txmsg:
 582 0000 00000000 		.space	16
 582      00000000 
 582      00000000 
 582      00000000 
 583              		.section	.bss.can_rx_wa,"aw",%nobits
 584              		.align	3
 585              		.set	.LANCHOR8,. + 0
 586              		.type	can_rx_wa, %object
 587              		.size	can_rx_wa, 464
 588              	can_rx_wa:
 589 0000 00000000 		.space	464
 589      00000000 
 589      00000000 
 589      00000000 
 589      00000000 
 590              		.section	.bss.switch_on,"aw",%nobits
 591              		.set	.LANCHOR6,. + 0
 592              		.type	switch_on, %object
 593              		.size	switch_on, 1
 594              	switch_on:
 595 0000 00       		.space	1
 596              		.section	.bss.canMessages,"aw",%nobits
 597              		.type	canMessages, %object
 598              		.size	canMessages, 1
 599              	canMessages:
 600 0000 00       		.space	1
 601              		.section	.rodata.str1.4,"aMS",%progbits,1
 602              		.align	2
 603              	.LC0:
 604 0000 7472616E 		.ascii	"transmitter\000"
 604      736D6974 
 604      74657200 
 605              	.LC1:
 606 000c 72656365 		.ascii	"receiver\000"
 606      69766572 
 606      00
 607 0015 000000   		.section	.bss.canstate,"aw",%nobits
ARM GAS  C:\Users\DNIEL~1\AppData\Local\Temp\cc72pSZU.s 			page 12


 608              		.set	.LANCHOR5,. + 0
 609              		.type	canstate, %object
 610              		.size	canstate, 1
 611              	canstate:
 612 0000 00       		.space	1
 613              		.section	.bss.messages,"aw",%nobits
 614              		.align	1
 615              		.set	.LANCHOR4,. + 0
 616              		.type	messages, %object
 617              		.size	messages, 2
 618              	messages:
 619 0000 0000     		.space	2
 620              		.section	.bss.rxmsg,"aw",%nobits
 621              		.align	2
 622              		.set	.LANCHOR2,. + 0
 623              		.type	rxmsg, %object
 624              		.size	rxmsg, 20
 625              	rxmsg:
 626 0000 00000000 		.space	20
 626      00000000 
 626      00000000 
 626      00000000 
 626      00000000 
 627              		.section	.bss.tx_id,"aw",%nobits
 628              		.align	1
 629              		.set	.LANCHOR1,. + 0
 630              		.type	tx_id, %object
 631              		.size	tx_id, 2
 632              	tx_id:
 633 0000 0000     		.space	2
 634              		.section	.rodata.cancfg,"a",%progbits
 635              		.align	2
 636              		.set	.LANCHOR7,. + 0
 637              		.type	cancfg, %object
 638              		.size	cancfg, 8
 639              	cancfg:
 640 0000 40000000 		.word	64
 641 0004 05001800 		.word	1572869
 642              		.text
 643              	.Letext0:
 644              		.section	.debug_loc,"",%progbits
 645              	.Ldebug_loc0:
 646              	.LLST0:
 647 0000 00000000 		.4byte	.LFB57
 648 0004 04000000 		.4byte	.LCFI0
 649 0008 0200     		.2byte	0x2
 650 000a 7D       		.byte	0x7d
 651 000b 00       		.sleb128 0
 652 000c 04000000 		.4byte	.LCFI0
 653 0010 E0000000 		.4byte	.LFE57
 654 0014 0200     		.2byte	0x2
 655 0016 7D       		.byte	0x7d
 656 0017 18       		.sleb128 24
 657 0018 00000000 		.4byte	0x0
 658 001c 00000000 		.4byte	0x0
 659              	.LLST1:
 660 0020 00000000 		.4byte	.LVL0
ARM GAS  C:\Users\DNIEL~1\AppData\Local\Temp\cc72pSZU.s 			page 13


 661 0024 18000000 		.4byte	.LVL1
 662 0028 0100     		.2byte	0x1
 663 002a 50       		.byte	0x50
 664 002b 00000000 		.4byte	0x0
 665 002f 00000000 		.4byte	0x0
 666              	.LLST2:
 667 0033 18000000 		.4byte	.LVL1
 668 0037 1A000000 		.4byte	.LVL2
 669 003b 0200     		.2byte	0x2
 670 003d 30       		.byte	0x30
 671 003e 9F       		.byte	0x9f
 672 003f 7A000000 		.4byte	.LVL3
 673 0043 90000000 		.4byte	.LVL4
 674 0047 0100     		.2byte	0x1
 675 0049 55       		.byte	0x55
 676 004a 00000000 		.4byte	0x0
 677 004e 00000000 		.4byte	0x0
 678              	.LLST3:
 679 0052 00000000 		.4byte	.LFB56
 680 0056 04000000 		.4byte	.LCFI1
 681 005a 0200     		.2byte	0x2
 682 005c 7D       		.byte	0x7d
 683 005d 00       		.sleb128 0
 684 005e 04000000 		.4byte	.LCFI1
 685 0062 10000000 		.4byte	.LCFI2
 686 0066 0200     		.2byte	0x2
 687 0068 7D       		.byte	0x7d
 688 0069 20       		.sleb128 32
 689 006a 10000000 		.4byte	.LCFI2
 690 006e 4C010000 		.4byte	.LFE56
 691 0072 0200     		.2byte	0x2
 692 0074 7D       		.byte	0x7d
 693 0075 30       		.sleb128 48
 694 0076 00000000 		.4byte	0x0
 695 007a 00000000 		.4byte	0x0
 696              	.LLST4:
 697 007e 00000000 		.4byte	.LVL6
 698 0082 14000000 		.4byte	.LVL7
 699 0086 0100     		.2byte	0x1
 700 0088 50       		.byte	0x50
 701 0089 00000000 		.4byte	0x0
 702 008d 00000000 		.4byte	0x0
 703              	.LLST5:
 704 0091 00000000 		.4byte	.LFB58
 705 0095 02000000 		.4byte	.LCFI3
 706 0099 0200     		.2byte	0x2
 707 009b 7D       		.byte	0x7d
 708 009c 00       		.sleb128 0
 709 009d 02000000 		.4byte	.LCFI3
 710 00a1 06000000 		.4byte	.LCFI4
 711 00a5 0200     		.2byte	0x2
 712 00a7 7D       		.byte	0x7d
 713 00a8 14       		.sleb128 20
 714 00a9 06000000 		.4byte	.LCFI4
 715 00ad 08010000 		.4byte	.LFE58
 716 00b1 0200     		.2byte	0x2
 717 00b3 7D       		.byte	0x7d
ARM GAS  C:\Users\DNIEL~1\AppData\Local\Temp\cc72pSZU.s 			page 14


 718 00b4 20       		.sleb128 32
 719 00b5 00000000 		.4byte	0x0
 720 00b9 00000000 		.4byte	0x0
 721              		.file 2 "c:\\program files (x86)\\codesourcery\\sourcery g++ lite\\bin\\../lib/gcc/arm-none-eabi/4
 722              		.file 3 "../../../ChibiOS/os/ports/GCC/ARMCMx/chtypes.h"
 723              		.file 4 "../../../ChibiOS/os/kernel/include/chlists.h"
 724              		.file 5 "../../../ChibiOS/os/kernel/include/chthreads.h"
 725              		.file 6 "../../../ChibiOS/os/ports/GCC/ARMCMx/chcore_v7m.h"
 726              		.file 7 "../../../ChibiOS/os/kernel/include/chschd.h"
 727              		.file 8 "../../../ChibiOS/os/kernel/include/chsem.h"
 728              		.file 9 "../../../ChibiOS/os/kernel/include/chmtx.h"
 729              		.file 10 "../../../ChibiOS/os/kernel/include/chevents.h"
 730              		.file 11 "../../../ChibiOS/os/hal/platforms/STM32F1xx/stm32f10x.h"
 731              		.file 12 "../../../ChibiOS/os/hal/include/can.h"
 732              		.file 13 "../../../ChibiOS/os/hal/platforms/STM32/can_lld.h"
 733              		.file 14 "include/meas.h"
 734              		.file 15 "../../../ChibiOS/os/ports/common/ARMCMx/CMSIS/include/core_cm3.h"
 735              		.section	.debug_info
 736 0000 EA0D0000 		.4byte	0xdea
 737 0004 0200     		.2byte	0x2
 738 0006 00000000 		.4byte	.Ldebug_abbrev0
 739 000a 04       		.byte	0x4
 740 000b 01       		.uleb128 0x1
 741 000c 42060000 		.4byte	.LASF165
 742 0010 01       		.byte	0x1
 743 0011 A2050000 		.4byte	.LASF166
 744 0015 45000000 		.4byte	.LASF167
 745 0019 00000000 		.4byte	0x0
 746 001d 00000000 		.4byte	0x0
 747 0021 00000000 		.4byte	.Ldebug_ranges0+0x0
 748 0025 00000000 		.4byte	.Ldebug_line0
 749 0029 02       		.uleb128 0x2
 750 002a 04       		.byte	0x4
 751 002b 07       		.byte	0x7
 752 002c F1010000 		.4byte	.LASF0
 753 0030 02       		.uleb128 0x2
 754 0031 01       		.byte	0x1
 755 0032 06       		.byte	0x6
 756 0033 D3000000 		.4byte	.LASF1
 757 0037 02       		.uleb128 0x2
 758 0038 01       		.byte	0x1
 759 0039 08       		.byte	0x8
 760 003a 4B040000 		.4byte	.LASF2
 761 003e 02       		.uleb128 0x2
 762 003f 02       		.byte	0x2
 763 0040 05       		.byte	0x5
 764 0041 9F040000 		.4byte	.LASF3
 765 0045 02       		.uleb128 0x2
 766 0046 02       		.byte	0x2
 767 0047 07       		.byte	0x7
 768 0048 47020000 		.4byte	.LASF4
 769 004c 03       		.uleb128 0x3
 770 004d 04       		.byte	0x4
 771 004e 05       		.byte	0x5
 772 004f 696E7400 		.ascii	"int\000"
 773 0053 02       		.uleb128 0x2
 774 0054 08       		.byte	0x8
ARM GAS  C:\Users\DNIEL~1\AppData\Local\Temp\cc72pSZU.s 			page 15


 775 0055 05       		.byte	0x5
 776 0056 C5000000 		.4byte	.LASF5
 777 005a 02       		.uleb128 0x2
 778 005b 08       		.byte	0x8
 779 005c 07       		.byte	0x7
 780 005d 84000000 		.4byte	.LASF6
 781 0061 02       		.uleb128 0x2
 782 0062 04       		.byte	0x4
 783 0063 05       		.byte	0x5
 784 0064 31010000 		.4byte	.LASF7
 785 0068 04       		.uleb128 0x4
 786 0069 04       		.byte	0x4
 787 006a 02       		.uleb128 0x2
 788 006b 04       		.byte	0x4
 789 006c 07       		.byte	0x7
 790 006d 37050000 		.4byte	.LASF8
 791 0071 02       		.uleb128 0x2
 792 0072 01       		.byte	0x1
 793 0073 08       		.byte	0x8
 794 0074 49050000 		.4byte	.LASF9
 795 0078 05       		.uleb128 0x5
 796 0079 04       		.byte	0x4
 797 007a 7E000000 		.4byte	0x7e
 798 007e 06       		.uleb128 0x6
 799 007f 71000000 		.4byte	0x71
 800 0083 07       		.uleb128 0x7
 801 0084 FD050000 		.4byte	.LASF10
 802 0088 02       		.byte	0x2
 803 0089 2A       		.byte	0x2a
 804 008a 37000000 		.4byte	0x37
 805 008e 07       		.uleb128 0x7
 806 008f 73010000 		.4byte	.LASF11
 807 0093 02       		.byte	0x2
 808 0094 36       		.byte	0x36
 809 0095 45000000 		.4byte	0x45
 810 0099 07       		.uleb128 0x7
 811 009a 43040000 		.4byte	.LASF12
 812 009e 02       		.byte	0x2
 813 009f 4F       		.byte	0x4f
 814 00a0 61000000 		.4byte	0x61
 815 00a4 07       		.uleb128 0x7
 816 00a5 18050000 		.4byte	.LASF13
 817 00a9 02       		.byte	0x2
 818 00aa 50       		.byte	0x50
 819 00ab 6A000000 		.4byte	0x6a
 820 00af 07       		.uleb128 0x7
 821 00b0 26000000 		.4byte	.LASF14
 822 00b4 02       		.byte	0x2
 823 00b5 78       		.byte	0x78
 824 00b6 5A000000 		.4byte	0x5a
 825 00ba 07       		.uleb128 0x7
 826 00bb F9000000 		.4byte	.LASF15
 827 00bf 03       		.byte	0x3
 828 00c0 2B       		.byte	0x2b
 829 00c1 C5000000 		.4byte	0xc5
 830 00c5 02       		.uleb128 0x2
 831 00c6 01       		.byte	0x1
ARM GAS  C:\Users\DNIEL~1\AppData\Local\Temp\cc72pSZU.s 			page 16


 832 00c7 02       		.byte	0x2
 833 00c8 3D040000 		.4byte	.LASF16
 834 00cc 07       		.uleb128 0x7
 835 00cd 90020000 		.4byte	.LASF17
 836 00d1 03       		.byte	0x3
 837 00d2 2C       		.byte	0x2c
 838 00d3 83000000 		.4byte	0x83
 839 00d7 07       		.uleb128 0x7
 840 00d8 3A010000 		.4byte	.LASF18
 841 00dc 03       		.byte	0x3
 842 00dd 2D       		.byte	0x2d
 843 00de 83000000 		.4byte	0x83
 844 00e2 07       		.uleb128 0x7
 845 00e3 E9030000 		.4byte	.LASF19
 846 00e7 03       		.byte	0x3
 847 00e8 2E       		.byte	0x2e
 848 00e9 83000000 		.4byte	0x83
 849 00ed 07       		.uleb128 0x7
 850 00ee 15010000 		.4byte	.LASF20
 851 00f2 03       		.byte	0x3
 852 00f3 2F       		.byte	0x2f
 853 00f4 83000000 		.4byte	0x83
 854 00f8 07       		.uleb128 0x7
 855 00f9 2A040000 		.4byte	.LASF21
 856 00fd 03       		.byte	0x3
 857 00fe 30       		.byte	0x30
 858 00ff A4000000 		.4byte	0xa4
 859 0103 07       		.uleb128 0x7
 860 0104 82020000 		.4byte	.LASF22
 861 0108 03       		.byte	0x3
 862 0109 31       		.byte	0x31
 863 010a 99000000 		.4byte	0x99
 864 010e 07       		.uleb128 0x7
 865 010f B4020000 		.4byte	.LASF23
 866 0113 03       		.byte	0x3
 867 0114 33       		.byte	0x33
 868 0115 A4000000 		.4byte	0xa4
 869 0119 07       		.uleb128 0x7
 870 011a EF020000 		.4byte	.LASF24
 871 011e 03       		.byte	0x3
 872 011f 34       		.byte	0x34
 873 0120 A4000000 		.4byte	0xa4
 874 0124 07       		.uleb128 0x7
 875 0125 6A050000 		.4byte	.LASF25
 876 0129 03       		.byte	0x3
 877 012a 35       		.byte	0x35
 878 012b A4000000 		.4byte	0xa4
 879 012f 07       		.uleb128 0x7
 880 0130 EB010000 		.4byte	.LASF26
 881 0134 03       		.byte	0x3
 882 0135 36       		.byte	0x36
 883 0136 99000000 		.4byte	0x99
 884 013a 07       		.uleb128 0x7
 885 013b EB040000 		.4byte	.LASF27
 886 013f 04       		.byte	0x4
 887 0140 2A       		.byte	0x2a
 888 0141 45010000 		.4byte	0x145
ARM GAS  C:\Users\DNIEL~1\AppData\Local\Temp\cc72pSZU.s 			page 17


 889 0145 08       		.uleb128 0x8
 890 0146 EB040000 		.4byte	.LASF27
 891 014a 48       		.byte	0x48
 892 014b 05       		.byte	0x5
 893 014c 5E       		.byte	0x5e
 894 014d 6A020000 		.4byte	0x26a
 895 0151 09       		.uleb128 0x9
 896 0152 D7040000 		.4byte	.LASF28
 897 0156 05       		.byte	0x5
 898 0157 5F       		.byte	0x5f
 899 0158 8F020000 		.4byte	0x28f
 900 015c 02       		.byte	0x2
 901 015d 23       		.byte	0x23
 902 015e 00       		.uleb128 0x0
 903 015f 09       		.uleb128 0x9
 904 0160 23040000 		.4byte	.LASF29
 905 0164 05       		.byte	0x5
 906 0165 61       		.byte	0x61
 907 0166 8F020000 		.4byte	0x28f
 908 016a 02       		.byte	0x2
 909 016b 23       		.byte	0x23
 910 016c 04       		.uleb128 0x4
 911 016d 09       		.uleb128 0x9
 912 016e B5000000 		.4byte	.LASF30
 913 0172 05       		.byte	0x5
 914 0173 63       		.byte	0x63
 915 0174 F8000000 		.4byte	0xf8
 916 0178 02       		.byte	0x2
 917 0179 23       		.byte	0x23
 918 017a 08       		.uleb128 0x8
 919 017b 09       		.uleb128 0x9
 920 017c 71060000 		.4byte	.LASF31
 921 0180 05       		.byte	0x5
 922 0181 64       		.byte	0x64
 923 0182 66030000 		.4byte	0x366
 924 0186 02       		.byte	0x2
 925 0187 23       		.byte	0x23
 926 0188 0C       		.uleb128 0xc
 927 0189 09       		.uleb128 0x9
 928 018a 81010000 		.4byte	.LASF32
 929 018e 05       		.byte	0x5
 930 018f 66       		.byte	0x66
 931 0190 8F020000 		.4byte	0x28f
 932 0194 02       		.byte	0x2
 933 0195 23       		.byte	0x23
 934 0196 10       		.uleb128 0x10
 935 0197 09       		.uleb128 0x9
 936 0198 59030000 		.4byte	.LASF33
 937 019c 05       		.byte	0x5
 938 019d 67       		.byte	0x67
 939 019e 8F020000 		.4byte	0x28f
 940 01a2 02       		.byte	0x2
 941 01a3 23       		.byte	0x23
 942 01a4 14       		.uleb128 0x14
 943 01a5 09       		.uleb128 0x9
 944 01a6 4E060000 		.4byte	.LASF34
 945 01aa 05       		.byte	0x5
ARM GAS  C:\Users\DNIEL~1\AppData\Local\Temp\cc72pSZU.s 			page 18


 946 01ab 6E       		.byte	0x6e
 947 01ac 78000000 		.4byte	0x78
 948 01b0 02       		.byte	0x2
 949 01b1 23       		.byte	0x23
 950 01b2 18       		.uleb128 0x18
 951 01b3 09       		.uleb128 0x9
 952 01b4 A9040000 		.4byte	.LASF35
 953 01b8 05       		.byte	0x5
 954 01b9 79       		.byte	0x79
 955 01ba D7000000 		.4byte	0xd7
 956 01be 02       		.byte	0x2
 957 01bf 23       		.byte	0x23
 958 01c0 1C       		.uleb128 0x1c
 959 01c1 09       		.uleb128 0x9
 960 01c2 DE040000 		.4byte	.LASF36
 961 01c6 05       		.byte	0x5
 962 01c7 7D       		.byte	0x7d
 963 01c8 CC000000 		.4byte	0xcc
 964 01cc 02       		.byte	0x2
 965 01cd 23       		.byte	0x23
 966 01ce 1D       		.uleb128 0x1d
 967 01cf 09       		.uleb128 0x9
 968 01d0 63010000 		.4byte	.LASF37
 969 01d4 05       		.byte	0x5
 970 01d5 82       		.byte	0x82
 971 01d6 E2000000 		.4byte	0xe2
 972 01da 02       		.byte	0x2
 973 01db 23       		.byte	0x23
 974 01dc 1E       		.uleb128 0x1e
 975 01dd 09       		.uleb128 0x9
 976 01de B1040000 		.4byte	.LASF38
 977 01e2 05       		.byte	0x5
 978 01e3 88       		.byte	0x88
 979 01e4 ED000000 		.4byte	0xed
 980 01e8 02       		.byte	0x2
 981 01e9 23       		.byte	0x23
 982 01ea 1F       		.uleb128 0x1f
 983 01eb 09       		.uleb128 0x9
 984 01ec 12000000 		.4byte	.LASF39
 985 01f0 05       		.byte	0x5
 986 01f1 8F       		.byte	0x8f
 987 01f2 8E030000 		.4byte	0x38e
 988 01f6 02       		.byte	0x2
 989 01f7 23       		.byte	0x23
 990 01f8 20       		.uleb128 0x20
 991 01f9 0A       		.uleb128 0xa
 992 01fa 705F7500 		.ascii	"p_u\000"
 993 01fe 05       		.byte	0x5
 994 01ff B4       		.byte	0xb4
 995 0200 F3040000 		.4byte	0x4f3
 996 0204 02       		.byte	0x2
 997 0205 23       		.byte	0x23
 998 0206 24       		.uleb128 0x24
 999 0207 09       		.uleb128 0x9
 1000 0208 77060000 		.4byte	.LASF40
 1001 020c 05       		.byte	0x5
 1002 020d B9       		.byte	0xb9
ARM GAS  C:\Users\DNIEL~1\AppData\Local\Temp\cc72pSZU.s 			page 19


 1003 020e B7020000 		.4byte	0x2b7
 1004 0212 02       		.byte	0x2
 1005 0213 23       		.byte	0x23
 1006 0214 28       		.uleb128 0x28
 1007 0215 09       		.uleb128 0x9
 1008 0216 0F020000 		.4byte	.LASF41
 1009 021a 05       		.byte	0x5
 1010 021b BF       		.byte	0xbf
 1011 021c 95020000 		.4byte	0x295
 1012 0220 02       		.byte	0x2
 1013 0221 23       		.byte	0x23
 1014 0222 2C       		.uleb128 0x2c
 1015 0223 09       		.uleb128 0x9
 1016 0224 55060000 		.4byte	.LASF42
 1017 0228 05       		.byte	0x5
 1018 0229 C3       		.byte	0xc3
 1019 022a 03010000 		.4byte	0x103
 1020 022e 02       		.byte	0x2
 1021 022f 23       		.byte	0x23
 1022 0230 34       		.uleb128 0x34
 1023 0231 09       		.uleb128 0x9
 1024 0232 03050000 		.4byte	.LASF43
 1025 0236 05       		.byte	0x5
 1026 0237 C9       		.byte	0xc9
 1027 0238 0E010000 		.4byte	0x10e
 1028 023c 02       		.byte	0x2
 1029 023d 23       		.byte	0x23
 1030 023e 38       		.uleb128 0x38
 1031 023f 09       		.uleb128 0x9
 1032 0240 95040000 		.4byte	.LASF44
 1033 0244 05       		.byte	0x5
 1034 0245 D0       		.byte	0xd0
 1035 0246 28050000 		.4byte	0x528
 1036 024a 02       		.byte	0x2
 1037 024b 23       		.byte	0x23
 1038 024c 3C       		.uleb128 0x3c
 1039 024d 09       		.uleb128 0x9
 1040 024e 74050000 		.4byte	.LASF45
 1041 0252 05       		.byte	0x5
 1042 0253 D4       		.byte	0xd4
 1043 0254 F8000000 		.4byte	0xf8
 1044 0258 02       		.byte	0x2
 1045 0259 23       		.byte	0x23
 1046 025a 40       		.uleb128 0x40
 1047 025b 09       		.uleb128 0x9
 1048 025c F1000000 		.4byte	.LASF46
 1049 0260 05       		.byte	0x5
 1050 0261 DA       		.byte	0xda
 1051 0262 68000000 		.4byte	0x68
 1052 0266 02       		.byte	0x2
 1053 0267 23       		.byte	0x23
 1054 0268 44       		.uleb128 0x44
 1055 0269 00       		.byte	0x0
 1056 026a 0B       		.uleb128 0xb
 1057 026b 08       		.byte	0x8
 1058 026c 04       		.byte	0x4
 1059 026d 61       		.byte	0x61
ARM GAS  C:\Users\DNIEL~1\AppData\Local\Temp\cc72pSZU.s 			page 20


 1060 026e 8F020000 		.4byte	0x28f
 1061 0272 09       		.uleb128 0x9
 1062 0273 D7040000 		.4byte	.LASF28
 1063 0277 04       		.byte	0x4
 1064 0278 62       		.byte	0x62
 1065 0279 8F020000 		.4byte	0x28f
 1066 027d 02       		.byte	0x2
 1067 027e 23       		.byte	0x23
 1068 027f 00       		.uleb128 0x0
 1069 0280 09       		.uleb128 0x9
 1070 0281 23040000 		.4byte	.LASF29
 1071 0285 04       		.byte	0x4
 1072 0286 64       		.byte	0x64
 1073 0287 8F020000 		.4byte	0x28f
 1074 028b 02       		.byte	0x2
 1075 028c 23       		.byte	0x23
 1076 028d 04       		.uleb128 0x4
 1077 028e 00       		.byte	0x0
 1078 028f 05       		.uleb128 0x5
 1079 0290 04       		.byte	0x4
 1080 0291 3A010000 		.4byte	0x13a
 1081 0295 07       		.uleb128 0x7
 1082 0296 72030000 		.4byte	.LASF47
 1083 029a 04       		.byte	0x4
 1084 029b 66       		.byte	0x66
 1085 029c 6A020000 		.4byte	0x26a
 1086 02a0 0B       		.uleb128 0xb
 1087 02a1 04       		.byte	0x4
 1088 02a2 04       		.byte	0x4
 1089 02a3 6B       		.byte	0x6b
 1090 02a4 B7020000 		.4byte	0x2b7
 1091 02a8 09       		.uleb128 0x9
 1092 02a9 D7040000 		.4byte	.LASF28
 1093 02ad 04       		.byte	0x4
 1094 02ae 6D       		.byte	0x6d
 1095 02af 8F020000 		.4byte	0x28f
 1096 02b3 02       		.byte	0x2
 1097 02b4 23       		.byte	0x23
 1098 02b5 00       		.uleb128 0x0
 1099 02b6 00       		.byte	0x0
 1100 02b7 07       		.uleb128 0x7
 1101 02b8 98020000 		.4byte	.LASF48
 1102 02bc 04       		.byte	0x4
 1103 02bd 70       		.byte	0x70
 1104 02be A0020000 		.4byte	0x2a0
 1105 02c2 07       		.uleb128 0x7
 1106 02c3 CB010000 		.4byte	.LASF49
 1107 02c7 06       		.byte	0x6
 1108 02c8 E5       		.byte	0xe5
 1109 02c9 68000000 		.4byte	0x68
 1110 02cd 07       		.uleb128 0x7
 1111 02ce E4020000 		.4byte	.LASF50
 1112 02d2 06       		.byte	0x6
 1113 02d3 EB       		.byte	0xeb
 1114 02d4 AF000000 		.4byte	0xaf
 1115 02d8 0C       		.uleb128 0xc
 1116 02d9 94050000 		.4byte	.LASF51
ARM GAS  C:\Users\DNIEL~1\AppData\Local\Temp\cc72pSZU.s 			page 21


 1117 02dd 24       		.byte	0x24
 1118 02de 06       		.byte	0x6
 1119 02df 0C01     		.2byte	0x10c
 1120 02e1 66030000 		.4byte	0x366
 1121 02e5 0D       		.uleb128 0xd
 1122 02e6 723400   		.ascii	"r4\000"
 1123 02e9 06       		.byte	0x6
 1124 02ea 1F01     		.2byte	0x11f
 1125 02ec C2020000 		.4byte	0x2c2
 1126 02f0 02       		.byte	0x2
 1127 02f1 23       		.byte	0x23
 1128 02f2 00       		.uleb128 0x0
 1129 02f3 0D       		.uleb128 0xd
 1130 02f4 723500   		.ascii	"r5\000"
 1131 02f7 06       		.byte	0x6
 1132 02f8 2001     		.2byte	0x120
 1133 02fa C2020000 		.4byte	0x2c2
 1134 02fe 02       		.byte	0x2
 1135 02ff 23       		.byte	0x23
 1136 0300 04       		.uleb128 0x4
 1137 0301 0D       		.uleb128 0xd
 1138 0302 723600   		.ascii	"r6\000"
 1139 0305 06       		.byte	0x6
 1140 0306 2101     		.2byte	0x121
 1141 0308 C2020000 		.4byte	0x2c2
 1142 030c 02       		.byte	0x2
 1143 030d 23       		.byte	0x23
 1144 030e 08       		.uleb128 0x8
 1145 030f 0D       		.uleb128 0xd
 1146 0310 723700   		.ascii	"r7\000"
 1147 0313 06       		.byte	0x6
 1148 0314 2201     		.2byte	0x122
 1149 0316 C2020000 		.4byte	0x2c2
 1150 031a 02       		.byte	0x2
 1151 031b 23       		.byte	0x23
 1152 031c 0C       		.uleb128 0xc
 1153 031d 0D       		.uleb128 0xd
 1154 031e 723800   		.ascii	"r8\000"
 1155 0321 06       		.byte	0x6
 1156 0322 2301     		.2byte	0x123
 1157 0324 C2020000 		.4byte	0x2c2
 1158 0328 02       		.byte	0x2
 1159 0329 23       		.byte	0x23
 1160 032a 10       		.uleb128 0x10
 1161 032b 0D       		.uleb128 0xd
 1162 032c 723900   		.ascii	"r9\000"
 1163 032f 06       		.byte	0x6
 1164 0330 2401     		.2byte	0x124
 1165 0332 C2020000 		.4byte	0x2c2
 1166 0336 02       		.byte	0x2
 1167 0337 23       		.byte	0x23
 1168 0338 14       		.uleb128 0x14
 1169 0339 0D       		.uleb128 0xd
 1170 033a 72313000 		.ascii	"r10\000"
 1171 033e 06       		.byte	0x6
 1172 033f 2501     		.2byte	0x125
 1173 0341 C2020000 		.4byte	0x2c2
ARM GAS  C:\Users\DNIEL~1\AppData\Local\Temp\cc72pSZU.s 			page 22


 1174 0345 02       		.byte	0x2
 1175 0346 23       		.byte	0x23
 1176 0347 18       		.uleb128 0x18
 1177 0348 0D       		.uleb128 0xd
 1178 0349 72313100 		.ascii	"r11\000"
 1179 034d 06       		.byte	0x6
 1180 034e 2601     		.2byte	0x126
 1181 0350 C2020000 		.4byte	0x2c2
 1182 0354 02       		.byte	0x2
 1183 0355 23       		.byte	0x23
 1184 0356 1C       		.uleb128 0x1c
 1185 0357 0D       		.uleb128 0xd
 1186 0358 6C7200   		.ascii	"lr\000"
 1187 035b 06       		.byte	0x6
 1188 035c 2701     		.2byte	0x127
 1189 035e C2020000 		.4byte	0x2c2
 1190 0362 02       		.byte	0x2
 1191 0363 23       		.byte	0x23
 1192 0364 20       		.uleb128 0x20
 1193 0365 00       		.byte	0x0
 1194 0366 0C       		.uleb128 0xc
 1195 0367 8C050000 		.4byte	.LASF52
 1196 036b 04       		.byte	0x4
 1197 036c 06       		.byte	0x6
 1198 036d 3101     		.2byte	0x131
 1199 036f 83030000 		.4byte	0x383
 1200 0373 0D       		.uleb128 0xd
 1201 0374 72313300 		.ascii	"r13\000"
 1202 0378 06       		.byte	0x6
 1203 0379 3201     		.2byte	0x132
 1204 037b 83030000 		.4byte	0x383
 1205 037f 02       		.byte	0x2
 1206 0380 23       		.byte	0x23
 1207 0381 00       		.uleb128 0x0
 1208 0382 00       		.byte	0x0
 1209 0383 05       		.uleb128 0x5
 1210 0384 04       		.byte	0x4
 1211 0385 D8020000 		.4byte	0x2d8
 1212 0389 0E       		.uleb128 0xe
 1213 038a A4000000 		.4byte	0xa4
 1214 038e 0E       		.uleb128 0xe
 1215 038f 24010000 		.4byte	0x124
 1216 0393 0B       		.uleb128 0xb
 1217 0394 1C       		.byte	0x1c
 1218 0395 07       		.byte	0x7
 1219 0396 5E       		.byte	0x5e
 1220 0397 F0030000 		.4byte	0x3f0
 1221 039b 09       		.uleb128 0x9
 1222 039c 21050000 		.4byte	.LASF53
 1223 03a0 07       		.byte	0x7
 1224 03a1 5F       		.byte	0x5f
 1225 03a2 95020000 		.4byte	0x295
 1226 03a6 02       		.byte	0x2
 1227 03a7 23       		.byte	0x23
 1228 03a8 00       		.uleb128 0x0
 1229 03a9 09       		.uleb128 0x9
 1230 03aa C9040000 		.4byte	.LASF54
ARM GAS  C:\Users\DNIEL~1\AppData\Local\Temp\cc72pSZU.s 			page 23


 1231 03ae 07       		.byte	0x7
 1232 03af 60       		.byte	0x60
 1233 03b0 F8000000 		.4byte	0xf8
 1234 03b4 02       		.byte	0x2
 1235 03b5 23       		.byte	0x23
 1236 03b6 08       		.uleb128 0x8
 1237 03b7 09       		.uleb128 0x9
 1238 03b8 61030000 		.4byte	.LASF55
 1239 03bc 07       		.byte	0x7
 1240 03bd 62       		.byte	0x62
 1241 03be 66030000 		.4byte	0x366
 1242 03c2 02       		.byte	0x2
 1243 03c3 23       		.byte	0x23
 1244 03c4 0C       		.uleb128 0xc
 1245 03c5 09       		.uleb128 0x9
 1246 03c6 C3010000 		.4byte	.LASF56
 1247 03ca 07       		.byte	0x7
 1248 03cb 65       		.byte	0x65
 1249 03cc 8F020000 		.4byte	0x28f
 1250 03d0 02       		.byte	0x2
 1251 03d1 23       		.byte	0x23
 1252 03d2 10       		.uleb128 0x10
 1253 03d3 09       		.uleb128 0x9
 1254 03d4 8E030000 		.4byte	.LASF57
 1255 03d8 07       		.byte	0x7
 1256 03d9 66       		.byte	0x66
 1257 03da 8F020000 		.4byte	0x28f
 1258 03de 02       		.byte	0x2
 1259 03df 23       		.byte	0x23
 1260 03e0 14       		.uleb128 0x14
 1261 03e1 09       		.uleb128 0x9
 1262 03e2 84030000 		.4byte	.LASF58
 1263 03e6 07       		.byte	0x7
 1264 03e7 69       		.byte	0x69
 1265 03e8 8F020000 		.4byte	0x28f
 1266 03ec 02       		.byte	0x2
 1267 03ed 23       		.byte	0x23
 1268 03ee 18       		.uleb128 0x18
 1269 03ef 00       		.byte	0x0
 1270 03f0 07       		.uleb128 0x7
 1271 03f1 D5050000 		.4byte	.LASF59
 1272 03f5 07       		.byte	0x7
 1273 03f6 6B       		.byte	0x6b
 1274 03f7 93030000 		.4byte	0x393
 1275 03fb 08       		.uleb128 0x8
 1276 03fc B1050000 		.4byte	.LASF60
 1277 0400 0C       		.byte	0xc
 1278 0401 08       		.byte	0x8
 1279 0402 2C       		.byte	0x2c
 1280 0403 24040000 		.4byte	0x424
 1281 0407 09       		.uleb128 0x9
 1282 0408 89010000 		.4byte	.LASF61
 1283 040c 08       		.byte	0x8
 1284 040d 2D       		.byte	0x2d
 1285 040e 95020000 		.4byte	0x295
 1286 0412 02       		.byte	0x2
 1287 0413 23       		.byte	0x23
ARM GAS  C:\Users\DNIEL~1\AppData\Local\Temp\cc72pSZU.s 			page 24


 1288 0414 00       		.uleb128 0x0
 1289 0415 09       		.uleb128 0x9
 1290 0416 41020000 		.4byte	.LASF62
 1291 041a 08       		.byte	0x8
 1292 041b 2F       		.byte	0x2f
 1293 041c 2F010000 		.4byte	0x12f
 1294 0420 02       		.byte	0x2
 1295 0421 23       		.byte	0x23
 1296 0422 08       		.uleb128 0x8
 1297 0423 00       		.byte	0x0
 1298 0424 07       		.uleb128 0x7
 1299 0425 B1050000 		.4byte	.LASF60
 1300 0429 08       		.byte	0x8
 1301 042a 30       		.byte	0x30
 1302 042b FB030000 		.4byte	0x3fb
 1303 042f 08       		.uleb128 0x8
 1304 0430 C0020000 		.4byte	.LASF63
 1305 0434 10       		.byte	0x10
 1306 0435 09       		.byte	0x9
 1307 0436 2C       		.byte	0x2c
 1308 0437 66040000 		.4byte	0x466
 1309 043b 09       		.uleb128 0x9
 1310 043c 00010000 		.4byte	.LASF64
 1311 0440 09       		.byte	0x9
 1312 0441 2D       		.byte	0x2d
 1313 0442 95020000 		.4byte	0x295
 1314 0446 02       		.byte	0x2
 1315 0447 23       		.byte	0x23
 1316 0448 00       		.uleb128 0x0
 1317 0449 09       		.uleb128 0x9
 1318 044a 69060000 		.4byte	.LASF65
 1319 044e 09       		.byte	0x9
 1320 044f 2F       		.byte	0x2f
 1321 0450 8F020000 		.4byte	0x28f
 1322 0454 02       		.byte	0x2
 1323 0455 23       		.byte	0x23
 1324 0456 08       		.uleb128 0x8
 1325 0457 09       		.uleb128 0x9
 1326 0458 63050000 		.4byte	.LASF66
 1327 045c 09       		.byte	0x9
 1328 045d 31       		.byte	0x31
 1329 045e 66040000 		.4byte	0x466
 1330 0462 02       		.byte	0x2
 1331 0463 23       		.byte	0x23
 1332 0464 0C       		.uleb128 0xc
 1333 0465 00       		.byte	0x0
 1334 0466 05       		.uleb128 0x5
 1335 0467 04       		.byte	0x4
 1336 0468 2F040000 		.4byte	0x42f
 1337 046c 07       		.uleb128 0x7
 1338 046d C0020000 		.4byte	.LASF63
 1339 0471 09       		.byte	0x9
 1340 0472 33       		.byte	0x33
 1341 0473 2F040000 		.4byte	0x42f
 1342 0477 07       		.uleb128 0x7
 1343 0478 2B060000 		.4byte	.LASF67
 1344 047c 0A       		.byte	0xa
ARM GAS  C:\Users\DNIEL~1\AppData\Local\Temp\cc72pSZU.s 			page 25


 1345 047d 2C       		.byte	0x2c
 1346 047e 82040000 		.4byte	0x482
 1347 0482 08       		.uleb128 0x8
 1348 0483 2B060000 		.4byte	.LASF67
 1349 0487 10       		.byte	0x10
 1350 0488 0A       		.byte	0xa
 1351 0489 31       		.byte	0x31
 1352 048a C7040000 		.4byte	0x4c7
 1353 048e 09       		.uleb128 0x9
 1354 048f 88020000 		.4byte	.LASF68
 1355 0493 0A       		.byte	0xa
 1356 0494 32       		.byte	0x32
 1357 0495 C7040000 		.4byte	0x4c7
 1358 0499 02       		.byte	0x2
 1359 049a 23       		.byte	0x23
 1360 049b 00       		.uleb128 0x0
 1361 049c 09       		.uleb128 0x9
 1362 049d 73040000 		.4byte	.LASF69
 1363 04a1 0A       		.byte	0xa
 1364 04a2 35       		.byte	0x35
 1365 04a3 8F020000 		.4byte	0x28f
 1366 04a7 02       		.byte	0x2
 1367 04a8 23       		.byte	0x23
 1368 04a9 04       		.uleb128 0x4
 1369 04aa 09       		.uleb128 0x9
 1370 04ab 96030000 		.4byte	.LASF70
 1371 04af 0A       		.byte	0xa
 1372 04b0 37       		.byte	0x37
 1373 04b1 0E010000 		.4byte	0x10e
 1374 04b5 02       		.byte	0x2
 1375 04b6 23       		.byte	0x23
 1376 04b7 08       		.uleb128 0x8
 1377 04b8 09       		.uleb128 0x9
 1378 04b9 8C040000 		.4byte	.LASF71
 1379 04bd 0A       		.byte	0xa
 1380 04be 3A       		.byte	0x3a
 1381 04bf 19010000 		.4byte	0x119
 1382 04c3 02       		.byte	0x2
 1383 04c4 23       		.byte	0x23
 1384 04c5 0C       		.uleb128 0xc
 1385 04c6 00       		.byte	0x0
 1386 04c7 05       		.uleb128 0x5
 1387 04c8 04       		.byte	0x4
 1388 04c9 77040000 		.4byte	0x477
 1389 04cd 08       		.uleb128 0x8
 1390 04ce DF010000 		.4byte	.LASF72
 1391 04d2 04       		.byte	0x4
 1392 04d3 0A       		.byte	0xa
 1393 04d4 41       		.byte	0x41
 1394 04d5 E8040000 		.4byte	0x4e8
 1395 04d9 09       		.uleb128 0x9
 1396 04da CD050000 		.4byte	.LASF73
 1397 04de 0A       		.byte	0xa
 1398 04df 42       		.byte	0x42
 1399 04e0 C7040000 		.4byte	0x4c7
 1400 04e4 02       		.byte	0x2
 1401 04e5 23       		.byte	0x23
ARM GAS  C:\Users\DNIEL~1\AppData\Local\Temp\cc72pSZU.s 			page 26


 1402 04e6 00       		.uleb128 0x0
 1403 04e7 00       		.byte	0x0
 1404 04e8 07       		.uleb128 0x7
 1405 04e9 DF010000 		.4byte	.LASF72
 1406 04ed 0A       		.byte	0xa
 1407 04ee 45       		.byte	0x45
 1408 04ef CD040000 		.4byte	0x4cd
 1409 04f3 0F       		.uleb128 0xf
 1410 04f4 04       		.byte	0x4
 1411 04f5 05       		.byte	0x5
 1412 04f6 96       		.byte	0x96
 1413 04f7 28050000 		.4byte	0x528
 1414 04fb 10       		.uleb128 0x10
 1415 04fc 1F000000 		.4byte	.LASF74
 1416 0500 05       		.byte	0x5
 1417 0501 9D       		.byte	0x9d
 1418 0502 03010000 		.4byte	0x103
 1419 0506 10       		.uleb128 0x10
 1420 0507 A5000000 		.4byte	.LASF75
 1421 050b 05       		.byte	0x5
 1422 050c A4       		.byte	0xa4
 1423 050d 03010000 		.4byte	0x103
 1424 0511 10       		.uleb128 0x10
 1425 0512 0E010000 		.4byte	.LASF76
 1426 0516 05       		.byte	0x5
 1427 0517 AB       		.byte	0xab
 1428 0518 68000000 		.4byte	0x68
 1429 051c 10       		.uleb128 0x10
 1430 051d D0040000 		.4byte	.LASF77
 1431 0521 05       		.byte	0x5
 1432 0522 B2       		.byte	0xb2
 1433 0523 0E010000 		.4byte	0x10e
 1434 0527 00       		.byte	0x0
 1435 0528 05       		.uleb128 0x5
 1436 0529 04       		.byte	0x4
 1437 052a 6C040000 		.4byte	0x46c
 1438 052e 11       		.uleb128 0x11
 1439 052f A4000000 		.4byte	0xa4
 1440 0533 3E050000 		.4byte	0x53e
 1441 0537 12       		.uleb128 0x12
 1442 0538 29000000 		.4byte	0x29
 1443 053c 07       		.byte	0x7
 1444 053d 00       		.byte	0x0
 1445 053e 11       		.uleb128 0x11
 1446 053f A4000000 		.4byte	0xa4
 1447 0543 4E050000 		.4byte	0x54e
 1448 0547 12       		.uleb128 0x12
 1449 0548 29000000 		.4byte	0x29
 1450 054c 01       		.byte	0x1
 1451 054d 00       		.byte	0x0
 1452 054e 0E       		.uleb128 0xe
 1453 054f 99000000 		.4byte	0x99
 1454 0553 13       		.uleb128 0x13
 1455 0554 10       		.byte	0x10
 1456 0555 0B       		.byte	0xb
 1457 0556 AC02     		.2byte	0x2ac
 1458 0558 99050000 		.4byte	0x599
ARM GAS  C:\Users\DNIEL~1\AppData\Local\Temp\cc72pSZU.s 			page 27


 1459 055c 0D       		.uleb128 0xd
 1460 055d 54495200 		.ascii	"TIR\000"
 1461 0561 0B       		.byte	0xb
 1462 0562 AE02     		.2byte	0x2ae
 1463 0564 89030000 		.4byte	0x389
 1464 0568 02       		.byte	0x2
 1465 0569 23       		.byte	0x23
 1466 056a 00       		.uleb128 0x0
 1467 056b 14       		.uleb128 0x14
 1468 056c DA010000 		.4byte	.LASF78
 1469 0570 0B       		.byte	0xb
 1470 0571 AF02     		.2byte	0x2af
 1471 0573 89030000 		.4byte	0x389
 1472 0577 02       		.byte	0x2
 1473 0578 23       		.byte	0x23
 1474 0579 04       		.uleb128 0x4
 1475 057a 14       		.uleb128 0x14
 1476 057b 2C010000 		.4byte	.LASF79
 1477 057f 0B       		.byte	0xb
 1478 0580 B002     		.2byte	0x2b0
 1479 0582 89030000 		.4byte	0x389
 1480 0586 02       		.byte	0x2
 1481 0587 23       		.byte	0x23
 1482 0588 08       		.uleb128 0x8
 1483 0589 14       		.uleb128 0x14
 1484 058a 7F030000 		.4byte	.LASF80
 1485 058e 0B       		.byte	0xb
 1486 058f B102     		.2byte	0x2b1
 1487 0591 89030000 		.4byte	0x389
 1488 0595 02       		.byte	0x2
 1489 0596 23       		.byte	0x23
 1490 0597 0C       		.uleb128 0xc
 1491 0598 00       		.byte	0x0
 1492 0599 15       		.uleb128 0x15
 1493 059a 43010000 		.4byte	.LASF81
 1494 059e 0B       		.byte	0xb
 1495 059f B202     		.2byte	0x2b2
 1496 05a1 53050000 		.4byte	0x553
 1497 05a5 13       		.uleb128 0x13
 1498 05a6 10       		.byte	0x10
 1499 05a7 0B       		.byte	0xb
 1500 05a8 B802     		.2byte	0x2b8
 1501 05aa EB050000 		.4byte	0x5eb
 1502 05ae 0D       		.uleb128 0xd
 1503 05af 52495200 		.ascii	"RIR\000"
 1504 05b3 0B       		.byte	0xb
 1505 05b4 BA02     		.2byte	0x2ba
 1506 05b6 89030000 		.4byte	0x389
 1507 05ba 02       		.byte	0x2
 1508 05bb 23       		.byte	0x23
 1509 05bc 00       		.uleb128 0x0
 1510 05bd 14       		.uleb128 0x14
 1511 05be 27020000 		.4byte	.LASF82
 1512 05c2 0B       		.byte	0xb
 1513 05c3 BB02     		.2byte	0x2bb
 1514 05c5 89030000 		.4byte	0x389
 1515 05c9 02       		.byte	0x2
ARM GAS  C:\Users\DNIEL~1\AppData\Local\Temp\cc72pSZU.s 			page 28


 1516 05ca 23       		.byte	0x23
 1517 05cb 04       		.uleb128 0x4
 1518 05cc 14       		.uleb128 0x14
 1519 05cd 5B060000 		.4byte	.LASF83
 1520 05d1 0B       		.byte	0xb
 1521 05d2 BC02     		.2byte	0x2bc
 1522 05d4 89030000 		.4byte	0x389
 1523 05d8 02       		.byte	0x2
 1524 05d9 23       		.byte	0x23
 1525 05da 08       		.uleb128 0x8
 1526 05db 14       		.uleb128 0x14
 1527 05dc 55050000 		.4byte	.LASF84
 1528 05e0 0B       		.byte	0xb
 1529 05e1 BD02     		.2byte	0x2bd
 1530 05e3 89030000 		.4byte	0x389
 1531 05e7 02       		.byte	0x2
 1532 05e8 23       		.byte	0x23
 1533 05e9 0C       		.uleb128 0xc
 1534 05ea 00       		.byte	0x0
 1535 05eb 15       		.uleb128 0x15
 1536 05ec DF050000 		.4byte	.LASF85
 1537 05f0 0B       		.byte	0xb
 1538 05f1 BE02     		.2byte	0x2be
 1539 05f3 A5050000 		.4byte	0x5a5
 1540 05f7 13       		.uleb128 0x13
 1541 05f8 08       		.byte	0x8
 1542 05f9 0B       		.byte	0xb
 1543 05fa C402     		.2byte	0x2c4
 1544 05fc 1F060000 		.4byte	0x61f
 1545 0600 0D       		.uleb128 0xd
 1546 0601 46523100 		.ascii	"FR1\000"
 1547 0605 0B       		.byte	0xb
 1548 0606 C602     		.2byte	0x2c6
 1549 0608 89030000 		.4byte	0x389
 1550 060c 02       		.byte	0x2
 1551 060d 23       		.byte	0x23
 1552 060e 00       		.uleb128 0x0
 1553 060f 0D       		.uleb128 0xd
 1554 0610 46523200 		.ascii	"FR2\000"
 1555 0614 0B       		.byte	0xb
 1556 0615 C702     		.2byte	0x2c7
 1557 0617 89030000 		.4byte	0x389
 1558 061b 02       		.byte	0x2
 1559 061c 23       		.byte	0x23
 1560 061d 04       		.uleb128 0x4
 1561 061e 00       		.byte	0x0
 1562 061f 15       		.uleb128 0x15
 1563 0620 67020000 		.4byte	.LASF86
 1564 0624 0B       		.byte	0xb
 1565 0625 C802     		.2byte	0x2c8
 1566 0627 F7050000 		.4byte	0x5f7
 1567 062b 16       		.uleb128 0x16
 1568 062c B002     		.2byte	0x2b0
 1569 062e 0B       		.byte	0xb
 1570 062f CE02     		.2byte	0x2ce
 1571 0631 8D070000 		.4byte	0x78d
 1572 0635 0D       		.uleb128 0xd
ARM GAS  C:\Users\DNIEL~1\AppData\Local\Temp\cc72pSZU.s 			page 29


 1573 0636 4D435200 		.ascii	"MCR\000"
 1574 063a 0B       		.byte	0xb
 1575 063b D002     		.2byte	0x2d0
 1576 063d 89030000 		.4byte	0x389
 1577 0641 02       		.byte	0x2
 1578 0642 23       		.byte	0x23
 1579 0643 00       		.uleb128 0x0
 1580 0644 0D       		.uleb128 0xd
 1581 0645 4D535200 		.ascii	"MSR\000"
 1582 0649 0B       		.byte	0xb
 1583 064a D102     		.2byte	0x2d1
 1584 064c 89030000 		.4byte	0x389
 1585 0650 02       		.byte	0x2
 1586 0651 23       		.byte	0x23
 1587 0652 04       		.uleb128 0x4
 1588 0653 0D       		.uleb128 0xd
 1589 0654 54535200 		.ascii	"TSR\000"
 1590 0658 0B       		.byte	0xb
 1591 0659 D202     		.2byte	0x2d2
 1592 065b 89030000 		.4byte	0x389
 1593 065f 02       		.byte	0x2
 1594 0660 23       		.byte	0x23
 1595 0661 08       		.uleb128 0x8
 1596 0662 14       		.uleb128 0x14
 1597 0663 B1010000 		.4byte	.LASF87
 1598 0667 0B       		.byte	0xb
 1599 0668 D302     		.2byte	0x2d3
 1600 066a 89030000 		.4byte	0x389
 1601 066e 02       		.byte	0x2
 1602 066f 23       		.byte	0x23
 1603 0670 0C       		.uleb128 0xc
 1604 0671 14       		.uleb128 0x14
 1605 0672 5A020000 		.4byte	.LASF88
 1606 0676 0B       		.byte	0xb
 1607 0677 D402     		.2byte	0x2d4
 1608 0679 89030000 		.4byte	0x389
 1609 067d 02       		.byte	0x2
 1610 067e 23       		.byte	0x23
 1611 067f 10       		.uleb128 0x10
 1612 0680 0D       		.uleb128 0xd
 1613 0681 49455200 		.ascii	"IER\000"
 1614 0685 0B       		.byte	0xb
 1615 0686 D502     		.2byte	0x2d5
 1616 0688 89030000 		.4byte	0x389
 1617 068c 02       		.byte	0x2
 1618 068d 23       		.byte	0x23
 1619 068e 14       		.uleb128 0x14
 1620 068f 0D       		.uleb128 0xd
 1621 0690 45535200 		.ascii	"ESR\000"
 1622 0694 0B       		.byte	0xb
 1623 0695 D602     		.2byte	0x2d6
 1624 0697 89030000 		.4byte	0x389
 1625 069b 02       		.byte	0x2
 1626 069c 23       		.byte	0x23
 1627 069d 18       		.uleb128 0x18
 1628 069e 0D       		.uleb128 0xd
 1629 069f 42545200 		.ascii	"BTR\000"
ARM GAS  C:\Users\DNIEL~1\AppData\Local\Temp\cc72pSZU.s 			page 30


 1630 06a3 0B       		.byte	0xb
 1631 06a4 D702     		.2byte	0x2d7
 1632 06a6 89030000 		.4byte	0x389
 1633 06aa 02       		.byte	0x2
 1634 06ab 23       		.byte	0x23
 1635 06ac 1C       		.uleb128 0x1c
 1636 06ad 14       		.uleb128 0x14
 1637 06ae F1030000 		.4byte	.LASF89
 1638 06b2 0B       		.byte	0xb
 1639 06b3 D802     		.2byte	0x2d8
 1640 06b5 8D070000 		.4byte	0x78d
 1641 06b9 02       		.byte	0x2
 1642 06ba 23       		.byte	0x23
 1643 06bb 20       		.uleb128 0x20
 1644 06bc 14       		.uleb128 0x14
 1645 06bd 04020000 		.4byte	.LASF90
 1646 06c1 0B       		.byte	0xb
 1647 06c2 D902     		.2byte	0x2d9
 1648 06c4 9D070000 		.4byte	0x79d
 1649 06c8 03       		.byte	0x3
 1650 06c9 23       		.byte	0x23
 1651 06ca 8003     		.uleb128 0x180
 1652 06cc 14       		.uleb128 0x14
 1653 06cd 7F050000 		.4byte	.LASF91
 1654 06d1 0B       		.byte	0xb
 1655 06d2 DA02     		.2byte	0x2da
 1656 06d4 AD070000 		.4byte	0x7ad
 1657 06d8 03       		.byte	0x3
 1658 06d9 23       		.byte	0x23
 1659 06da B003     		.uleb128 0x1b0
 1660 06dc 14       		.uleb128 0x14
 1661 06dd FB030000 		.4byte	.LASF92
 1662 06e1 0B       		.byte	0xb
 1663 06e2 DB02     		.2byte	0x2db
 1664 06e4 BD070000 		.4byte	0x7bd
 1665 06e8 03       		.byte	0x3
 1666 06e9 23       		.byte	0x23
 1667 06ea D003     		.uleb128 0x1d0
 1668 06ec 0D       		.uleb128 0xd
 1669 06ed 464D5200 		.ascii	"FMR\000"
 1670 06f1 0B       		.byte	0xb
 1671 06f2 DC02     		.2byte	0x2dc
 1672 06f4 89030000 		.4byte	0x389
 1673 06f8 03       		.byte	0x3
 1674 06f9 23       		.byte	0x23
 1675 06fa 8004     		.uleb128 0x200
 1676 06fc 14       		.uleb128 0x14
 1677 06fd E6040000 		.4byte	.LASF93
 1678 0701 0B       		.byte	0xb
 1679 0702 DD02     		.2byte	0x2dd
 1680 0704 89030000 		.4byte	0x389
 1681 0708 03       		.byte	0x3
 1682 0709 23       		.byte	0x23
 1683 070a 8404     		.uleb128 0x204
 1684 070c 14       		.uleb128 0x14
 1685 070d 05040000 		.4byte	.LASF94
 1686 0711 0B       		.byte	0xb
ARM GAS  C:\Users\DNIEL~1\AppData\Local\Temp\cc72pSZU.s 			page 31


 1687 0712 DE02     		.2byte	0x2de
 1688 0714 A4000000 		.4byte	0xa4
 1689 0718 03       		.byte	0x3
 1690 0719 23       		.byte	0x23
 1691 071a 8804     		.uleb128 0x208
 1692 071c 14       		.uleb128 0x14
 1693 071d C8050000 		.4byte	.LASF95
 1694 0721 0B       		.byte	0xb
 1695 0722 DF02     		.2byte	0x2df
 1696 0724 89030000 		.4byte	0x389
 1697 0728 03       		.byte	0x3
 1698 0729 23       		.byte	0x23
 1699 072a 8C04     		.uleb128 0x20c
 1700 072c 14       		.uleb128 0x14
 1701 072d 0F040000 		.4byte	.LASF96
 1702 0731 0B       		.byte	0xb
 1703 0732 E002     		.2byte	0x2e0
 1704 0734 A4000000 		.4byte	0xa4
 1705 0738 03       		.byte	0x3
 1706 0739 23       		.byte	0x23
 1707 073a 9004     		.uleb128 0x210
 1708 073c 14       		.uleb128 0x14
 1709 073d BE030000 		.4byte	.LASF97
 1710 0741 0B       		.byte	0xb
 1711 0742 E102     		.2byte	0x2e1
 1712 0744 89030000 		.4byte	0x389
 1713 0748 03       		.byte	0x3
 1714 0749 23       		.byte	0x23
 1715 074a 9404     		.uleb128 0x214
 1716 074c 14       		.uleb128 0x14
 1717 074d 19040000 		.4byte	.LASF98
 1718 0751 0B       		.byte	0xb
 1719 0752 E202     		.2byte	0x2e2
 1720 0754 A4000000 		.4byte	0xa4
 1721 0758 03       		.byte	0x3
 1722 0759 23       		.byte	0x23
 1723 075a 9804     		.uleb128 0x218
 1724 075c 14       		.uleb128 0x14
 1725 075d 3C020000 		.4byte	.LASF99
 1726 0761 0B       		.byte	0xb
 1727 0762 E302     		.2byte	0x2e3
 1728 0764 89030000 		.4byte	0x389
 1729 0768 03       		.byte	0x3
 1730 0769 23       		.byte	0x23
 1731 076a 9C04     		.uleb128 0x21c
 1732 076c 14       		.uleb128 0x14
 1733 076d 0E050000 		.4byte	.LASF100
 1734 0771 0B       		.byte	0xb
 1735 0772 E402     		.2byte	0x2e4
 1736 0774 2E050000 		.4byte	0x52e
 1737 0778 03       		.byte	0x3
 1738 0779 23       		.byte	0x23
 1739 077a A004     		.uleb128 0x220
 1740 077c 14       		.uleb128 0x14
 1741 077d A4020000 		.4byte	.LASF101
 1742 0781 0B       		.byte	0xb
 1743 0782 E602     		.2byte	0x2e6
ARM GAS  C:\Users\DNIEL~1\AppData\Local\Temp\cc72pSZU.s 			page 32


 1744 0784 CD070000 		.4byte	0x7cd
 1745 0788 03       		.byte	0x3
 1746 0789 23       		.byte	0x23
 1747 078a C004     		.uleb128 0x240
 1748 078c 00       		.byte	0x0
 1749 078d 11       		.uleb128 0x11
 1750 078e A4000000 		.4byte	0xa4
 1751 0792 9D070000 		.4byte	0x79d
 1752 0796 12       		.uleb128 0x12
 1753 0797 29000000 		.4byte	0x29
 1754 079b 57       		.byte	0x57
 1755 079c 00       		.byte	0x0
 1756 079d 11       		.uleb128 0x11
 1757 079e 99050000 		.4byte	0x599
 1758 07a2 AD070000 		.4byte	0x7ad
 1759 07a6 12       		.uleb128 0x12
 1760 07a7 29000000 		.4byte	0x29
 1761 07ab 02       		.byte	0x2
 1762 07ac 00       		.byte	0x0
 1763 07ad 11       		.uleb128 0x11
 1764 07ae EB050000 		.4byte	0x5eb
 1765 07b2 BD070000 		.4byte	0x7bd
 1766 07b6 12       		.uleb128 0x12
 1767 07b7 29000000 		.4byte	0x29
 1768 07bb 01       		.byte	0x1
 1769 07bc 00       		.byte	0x0
 1770 07bd 11       		.uleb128 0x11
 1771 07be A4000000 		.4byte	0xa4
 1772 07c2 CD070000 		.4byte	0x7cd
 1773 07c6 12       		.uleb128 0x12
 1774 07c7 29000000 		.4byte	0x29
 1775 07cb 0B       		.byte	0xb
 1776 07cc 00       		.byte	0x0
 1777 07cd 11       		.uleb128 0x11
 1778 07ce 1F060000 		.4byte	0x61f
 1779 07d2 DD070000 		.4byte	0x7dd
 1780 07d6 12       		.uleb128 0x12
 1781 07d7 29000000 		.4byte	0x29
 1782 07db 0D       		.byte	0xd
 1783 07dc 00       		.byte	0x0
 1784 07dd 15       		.uleb128 0x15
 1785 07de 39000000 		.4byte	.LASF102
 1786 07e2 0B       		.byte	0xb
 1787 07e3 EA02     		.2byte	0x2ea
 1788 07e5 2B060000 		.4byte	0x62b
 1789 07e9 13       		.uleb128 0x13
 1790 07ea 1C       		.byte	0x1c
 1791 07eb 0B       		.byte	0xb
 1792 07ec F803     		.2byte	0x3f8
 1793 07ee 5C080000 		.4byte	0x85c
 1794 07f2 0D       		.uleb128 0xd
 1795 07f3 43524C00 		.ascii	"CRL\000"
 1796 07f7 0B       		.byte	0xb
 1797 07f8 FA03     		.2byte	0x3fa
 1798 07fa 89030000 		.4byte	0x389
 1799 07fe 02       		.byte	0x2
 1800 07ff 23       		.byte	0x23
ARM GAS  C:\Users\DNIEL~1\AppData\Local\Temp\cc72pSZU.s 			page 33


 1801 0800 00       		.uleb128 0x0
 1802 0801 0D       		.uleb128 0xd
 1803 0802 43524800 		.ascii	"CRH\000"
 1804 0806 0B       		.byte	0xb
 1805 0807 FB03     		.2byte	0x3fb
 1806 0809 89030000 		.4byte	0x389
 1807 080d 02       		.byte	0x2
 1808 080e 23       		.byte	0x23
 1809 080f 04       		.uleb128 0x4
 1810 0810 0D       		.uleb128 0xd
 1811 0811 49445200 		.ascii	"IDR\000"
 1812 0815 0B       		.byte	0xb
 1813 0816 FC03     		.2byte	0x3fc
 1814 0818 89030000 		.4byte	0x389
 1815 081c 02       		.byte	0x2
 1816 081d 23       		.byte	0x23
 1817 081e 08       		.uleb128 0x8
 1818 081f 0D       		.uleb128 0xd
 1819 0820 4F445200 		.ascii	"ODR\000"
 1820 0824 0B       		.byte	0xb
 1821 0825 FD03     		.2byte	0x3fd
 1822 0827 89030000 		.4byte	0x389
 1823 082b 02       		.byte	0x2
 1824 082c 23       		.byte	0x23
 1825 082d 0C       		.uleb128 0xc
 1826 082e 14       		.uleb128 0x14
 1827 082f EC000000 		.4byte	.LASF103
 1828 0833 0B       		.byte	0xb
 1829 0834 FE03     		.2byte	0x3fe
 1830 0836 89030000 		.4byte	0x389
 1831 083a 02       		.byte	0x2
 1832 083b 23       		.byte	0x23
 1833 083c 10       		.uleb128 0x10
 1834 083d 0D       		.uleb128 0xd
 1835 083e 42525200 		.ascii	"BRR\000"
 1836 0842 0B       		.byte	0xb
 1837 0843 FF03     		.2byte	0x3ff
 1838 0845 89030000 		.4byte	0x389
 1839 0849 02       		.byte	0x2
 1840 084a 23       		.byte	0x23
 1841 084b 14       		.uleb128 0x14
 1842 084c 14       		.uleb128 0x14
 1843 084d 37020000 		.4byte	.LASF104
 1844 0851 0B       		.byte	0xb
 1845 0852 0004     		.2byte	0x400
 1846 0854 89030000 		.4byte	0x389
 1847 0858 02       		.byte	0x2
 1848 0859 23       		.byte	0x23
 1849 085a 18       		.uleb128 0x18
 1850 085b 00       		.byte	0x0
 1851 085c 15       		.uleb128 0x15
 1852 085d 1A020000 		.4byte	.LASF105
 1853 0861 0B       		.byte	0xb
 1854 0862 0104     		.2byte	0x401
 1855 0864 E9070000 		.4byte	0x7e9
 1856 0868 17       		.uleb128 0x17
 1857 0869 01       		.byte	0x1
ARM GAS  C:\Users\DNIEL~1\AppData\Local\Temp\cc72pSZU.s 			page 34


 1858 086a 0C       		.byte	0xc
 1859 086b 6E       		.byte	0x6e
 1860 086c 8F080000 		.4byte	0x88f
 1861 0870 18       		.uleb128 0x18
 1862 0871 32040000 		.4byte	.LASF106
 1863 0875 00       		.sleb128 0
 1864 0876 18       		.uleb128 0x18
 1865 0877 B5030000 		.4byte	.LASF107
 1866 087b 01       		.sleb128 1
 1867 087c 18       		.uleb128 0x18
 1868 087d DF000000 		.4byte	.LASF108
 1869 0881 02       		.sleb128 2
 1870 0882 18       		.uleb128 0x18
 1871 0883 A7010000 		.4byte	.LASF109
 1872 0887 03       		.sleb128 3
 1873 0888 18       		.uleb128 0x18
 1874 0889 2F030000 		.4byte	.LASF110
 1875 088d 04       		.sleb128 4
 1876 088e 00       		.byte	0x0
 1877 088f 07       		.uleb128 0x7
 1878 0890 AA030000 		.4byte	.LASF111
 1879 0894 0C       		.byte	0xc
 1880 0895 74       		.byte	0x74
 1881 0896 68080000 		.4byte	0x868
 1882 089a 0B       		.uleb128 0xb
 1883 089b 01       		.byte	0x1
 1884 089c 0D       		.byte	0xd
 1885 089d 9A       		.byte	0x9a
 1886 089e D6080000 		.4byte	0x8d6
 1887 08a2 19       		.uleb128 0x19
 1888 08a3 444C4300 		.ascii	"DLC\000"
 1889 08a7 0D       		.byte	0xd
 1890 08a8 9B       		.byte	0x9b
 1891 08a9 83000000 		.4byte	0x83
 1892 08ad 01       		.byte	0x1
 1893 08ae 04       		.byte	0x4
 1894 08af 04       		.byte	0x4
 1895 08b0 02       		.byte	0x2
 1896 08b1 23       		.byte	0x23
 1897 08b2 00       		.uleb128 0x0
 1898 08b3 19       		.uleb128 0x19
 1899 08b4 52545200 		.ascii	"RTR\000"
 1900 08b8 0D       		.byte	0xd
 1901 08b9 9C       		.byte	0x9c
 1902 08ba 83000000 		.4byte	0x83
 1903 08be 01       		.byte	0x1
 1904 08bf 01       		.byte	0x1
 1905 08c0 03       		.byte	0x3
 1906 08c1 02       		.byte	0x2
 1907 08c2 23       		.byte	0x23
 1908 08c3 00       		.uleb128 0x0
 1909 08c4 19       		.uleb128 0x19
 1910 08c5 49444500 		.ascii	"IDE\000"
 1911 08c9 0D       		.byte	0xd
 1912 08ca 9D       		.byte	0x9d
 1913 08cb 83000000 		.4byte	0x83
 1914 08cf 01       		.byte	0x1
ARM GAS  C:\Users\DNIEL~1\AppData\Local\Temp\cc72pSZU.s 			page 35


 1915 08d0 01       		.byte	0x1
 1916 08d1 02       		.byte	0x2
 1917 08d2 02       		.byte	0x2
 1918 08d3 23       		.byte	0x23
 1919 08d4 00       		.uleb128 0x0
 1920 08d5 00       		.byte	0x0
 1921 08d6 0B       		.uleb128 0xb
 1922 08d7 04       		.byte	0x4
 1923 08d8 0D       		.byte	0xd
 1924 08d9 A0       		.byte	0xa0
 1925 08da F0080000 		.4byte	0x8f0
 1926 08de 19       		.uleb128 0x19
 1927 08df 53494400 		.ascii	"SID\000"
 1928 08e3 0D       		.byte	0xd
 1929 08e4 A1       		.byte	0xa1
 1930 08e5 A4000000 		.4byte	0xa4
 1931 08e9 04       		.byte	0x4
 1932 08ea 0B       		.byte	0xb
 1933 08eb 15       		.byte	0x15
 1934 08ec 02       		.byte	0x2
 1935 08ed 23       		.byte	0x23
 1936 08ee 00       		.uleb128 0x0
 1937 08ef 00       		.byte	0x0
 1938 08f0 0B       		.uleb128 0xb
 1939 08f1 04       		.byte	0x4
 1940 08f2 0D       		.byte	0xd
 1941 08f3 A3       		.byte	0xa3
 1942 08f4 0A090000 		.4byte	0x90a
 1943 08f8 19       		.uleb128 0x19
 1944 08f9 45494400 		.ascii	"EID\000"
 1945 08fd 0D       		.byte	0xd
 1946 08fe A4       		.byte	0xa4
 1947 08ff A4000000 		.4byte	0xa4
 1948 0903 04       		.byte	0x4
 1949 0904 1D       		.byte	0x1d
 1950 0905 03       		.byte	0x3
 1951 0906 02       		.byte	0x2
 1952 0907 23       		.byte	0x23
 1953 0908 00       		.uleb128 0x0
 1954 0909 00       		.byte	0x0
 1955 090a 0F       		.uleb128 0xf
 1956 090b 04       		.byte	0x4
 1957 090c 0D       		.byte	0xd
 1958 090d 9F       		.byte	0x9f
 1959 090e 1D090000 		.4byte	0x91d
 1960 0912 1A       		.uleb128 0x1a
 1961 0913 D6080000 		.4byte	0x8d6
 1962 0917 1A       		.uleb128 0x1a
 1963 0918 F0080000 		.4byte	0x8f0
 1964 091c 00       		.byte	0x0
 1965 091d 0F       		.uleb128 0xf
 1966 091e 08       		.byte	0x8
 1967 091f 0D       		.byte	0xd
 1968 0920 A7       		.byte	0xa7
 1969 0921 47090000 		.4byte	0x947
 1970 0925 10       		.uleb128 0x10
 1971 0926 40030000 		.4byte	.LASF112
ARM GAS  C:\Users\DNIEL~1\AppData\Local\Temp\cc72pSZU.s 			page 36


 1972 092a 0D       		.byte	0xd
 1973 092b A8       		.byte	0xa8
 1974 092c 47090000 		.4byte	0x947
 1975 0930 10       		.uleb128 0x10
 1976 0931 C1050000 		.4byte	.LASF113
 1977 0935 0D       		.byte	0xd
 1978 0936 A9       		.byte	0xa9
 1979 0937 57090000 		.4byte	0x957
 1980 093b 10       		.uleb128 0x10
 1981 093c AE000000 		.4byte	.LASF114
 1982 0940 0D       		.byte	0xd
 1983 0941 AA       		.byte	0xaa
 1984 0942 3E050000 		.4byte	0x53e
 1985 0946 00       		.byte	0x0
 1986 0947 11       		.uleb128 0x11
 1987 0948 83000000 		.4byte	0x83
 1988 094c 57090000 		.4byte	0x957
 1989 0950 12       		.uleb128 0x12
 1990 0951 29000000 		.4byte	0x29
 1991 0955 07       		.byte	0x7
 1992 0956 00       		.byte	0x0
 1993 0957 11       		.uleb128 0x11
 1994 0958 8E000000 		.4byte	0x8e
 1995 095c 67090000 		.4byte	0x967
 1996 0960 12       		.uleb128 0x12
 1997 0961 29000000 		.4byte	0x29
 1998 0965 03       		.byte	0x3
 1999 0966 00       		.byte	0x0
 2000 0967 0B       		.uleb128 0xb
 2001 0968 10       		.byte	0x10
 2002 0969 0D       		.byte	0xd
 2003 096a 99       		.byte	0x99
 2004 096b 88090000 		.4byte	0x988
 2005 096f 1B       		.uleb128 0x1b
 2006 0970 9A080000 		.4byte	0x89a
 2007 0974 02       		.byte	0x2
 2008 0975 23       		.byte	0x23
 2009 0976 00       		.uleb128 0x0
 2010 0977 1B       		.uleb128 0x1b
 2011 0978 0A090000 		.4byte	0x90a
 2012 097c 02       		.byte	0x2
 2013 097d 23       		.byte	0x23
 2014 097e 04       		.uleb128 0x4
 2015 097f 1B       		.uleb128 0x1b
 2016 0980 1D090000 		.4byte	0x91d
 2017 0984 02       		.byte	0x2
 2018 0985 23       		.byte	0x23
 2019 0986 08       		.uleb128 0x8
 2020 0987 00       		.byte	0x0
 2021 0988 07       		.uleb128 0x7
 2022 0989 2C020000 		.4byte	.LASF115
 2023 098d 0D       		.byte	0xd
 2024 098e AC       		.byte	0xac
 2025 098f 67090000 		.4byte	0x967
 2026 0993 0B       		.uleb128 0xb
 2027 0994 04       		.byte	0x4
 2028 0995 0D       		.byte	0xd
ARM GAS  C:\Users\DNIEL~1\AppData\Local\Temp\cc72pSZU.s 			page 37


 2029 0996 B4       		.byte	0xb4
 2030 0997 B8090000 		.4byte	0x9b8
 2031 099b 0A       		.uleb128 0xa
 2032 099c 464D4900 		.ascii	"FMI\000"
 2033 09a0 0D       		.byte	0xd
 2034 09a1 B5       		.byte	0xb5
 2035 09a2 83000000 		.4byte	0x83
 2036 09a6 02       		.byte	0x2
 2037 09a7 23       		.byte	0x23
 2038 09a8 00       		.uleb128 0x0
 2039 09a9 09       		.uleb128 0x9
 2040 09aa 7C010000 		.4byte	.LASF116
 2041 09ae 0D       		.byte	0xd
 2042 09af B6       		.byte	0xb6
 2043 09b0 8E000000 		.4byte	0x8e
 2044 09b4 02       		.byte	0x2
 2045 09b5 23       		.byte	0x23
 2046 09b6 02       		.uleb128 0x2
 2047 09b7 00       		.byte	0x0
 2048 09b8 0B       		.uleb128 0xb
 2049 09b9 01       		.byte	0x1
 2050 09ba 0D       		.byte	0xd
 2051 09bb B8       		.byte	0xb8
 2052 09bc F4090000 		.4byte	0x9f4
 2053 09c0 19       		.uleb128 0x19
 2054 09c1 444C4300 		.ascii	"DLC\000"
 2055 09c5 0D       		.byte	0xd
 2056 09c6 B9       		.byte	0xb9
 2057 09c7 83000000 		.4byte	0x83
 2058 09cb 01       		.byte	0x1
 2059 09cc 04       		.byte	0x4
 2060 09cd 04       		.byte	0x4
 2061 09ce 02       		.byte	0x2
 2062 09cf 23       		.byte	0x23
 2063 09d0 00       		.uleb128 0x0
 2064 09d1 19       		.uleb128 0x19
 2065 09d2 52545200 		.ascii	"RTR\000"
 2066 09d6 0D       		.byte	0xd
 2067 09d7 BA       		.byte	0xba
 2068 09d8 83000000 		.4byte	0x83
 2069 09dc 01       		.byte	0x1
 2070 09dd 01       		.byte	0x1
 2071 09de 03       		.byte	0x3
 2072 09df 02       		.byte	0x2
 2073 09e0 23       		.byte	0x23
 2074 09e1 00       		.uleb128 0x0
 2075 09e2 19       		.uleb128 0x19
 2076 09e3 49444500 		.ascii	"IDE\000"
 2077 09e7 0D       		.byte	0xd
 2078 09e8 BB       		.byte	0xbb
 2079 09e9 83000000 		.4byte	0x83
 2080 09ed 01       		.byte	0x1
 2081 09ee 01       		.byte	0x1
 2082 09ef 02       		.byte	0x2
 2083 09f0 02       		.byte	0x2
 2084 09f1 23       		.byte	0x23
 2085 09f2 00       		.uleb128 0x0
ARM GAS  C:\Users\DNIEL~1\AppData\Local\Temp\cc72pSZU.s 			page 38


 2086 09f3 00       		.byte	0x0
 2087 09f4 0B       		.uleb128 0xb
 2088 09f5 04       		.byte	0x4
 2089 09f6 0D       		.byte	0xd
 2090 09f7 BE       		.byte	0xbe
 2091 09f8 0E0A0000 		.4byte	0xa0e
 2092 09fc 19       		.uleb128 0x19
 2093 09fd 53494400 		.ascii	"SID\000"
 2094 0a01 0D       		.byte	0xd
 2095 0a02 BF       		.byte	0xbf
 2096 0a03 A4000000 		.4byte	0xa4
 2097 0a07 04       		.byte	0x4
 2098 0a08 0B       		.byte	0xb
 2099 0a09 15       		.byte	0x15
 2100 0a0a 02       		.byte	0x2
 2101 0a0b 23       		.byte	0x23
 2102 0a0c 00       		.uleb128 0x0
 2103 0a0d 00       		.byte	0x0
 2104 0a0e 0B       		.uleb128 0xb
 2105 0a0f 04       		.byte	0x4
 2106 0a10 0D       		.byte	0xd
 2107 0a11 C1       		.byte	0xc1
 2108 0a12 280A0000 		.4byte	0xa28
 2109 0a16 19       		.uleb128 0x19
 2110 0a17 45494400 		.ascii	"EID\000"
 2111 0a1b 0D       		.byte	0xd
 2112 0a1c C2       		.byte	0xc2
 2113 0a1d A4000000 		.4byte	0xa4
 2114 0a21 04       		.byte	0x4
 2115 0a22 1D       		.byte	0x1d
 2116 0a23 03       		.byte	0x3
 2117 0a24 02       		.byte	0x2
 2118 0a25 23       		.byte	0x23
 2119 0a26 00       		.uleb128 0x0
 2120 0a27 00       		.byte	0x0
 2121 0a28 0F       		.uleb128 0xf
 2122 0a29 04       		.byte	0x4
 2123 0a2a 0D       		.byte	0xd
 2124 0a2b BD       		.byte	0xbd
 2125 0a2c 3B0A0000 		.4byte	0xa3b
 2126 0a30 1A       		.uleb128 0x1a
 2127 0a31 F4090000 		.4byte	0x9f4
 2128 0a35 1A       		.uleb128 0x1a
 2129 0a36 0E0A0000 		.4byte	0xa0e
 2130 0a3a 00       		.byte	0x0
 2131 0a3b 0F       		.uleb128 0xf
 2132 0a3c 08       		.byte	0x8
 2133 0a3d 0D       		.byte	0xd
 2134 0a3e C5       		.byte	0xc5
 2135 0a3f 650A0000 		.4byte	0xa65
 2136 0a43 10       		.uleb128 0x10
 2137 0a44 40030000 		.4byte	.LASF112
 2138 0a48 0D       		.byte	0xd
 2139 0a49 C6       		.byte	0xc6
 2140 0a4a 47090000 		.4byte	0x947
 2141 0a4e 10       		.uleb128 0x10
 2142 0a4f C1050000 		.4byte	.LASF113
ARM GAS  C:\Users\DNIEL~1\AppData\Local\Temp\cc72pSZU.s 			page 39


 2143 0a53 0D       		.byte	0xd
 2144 0a54 C7       		.byte	0xc7
 2145 0a55 57090000 		.4byte	0x957
 2146 0a59 10       		.uleb128 0x10
 2147 0a5a AE000000 		.4byte	.LASF114
 2148 0a5e 0D       		.byte	0xd
 2149 0a5f C8       		.byte	0xc8
 2150 0a60 3E050000 		.4byte	0x53e
 2151 0a64 00       		.byte	0x0
 2152 0a65 0B       		.uleb128 0xb
 2153 0a66 14       		.byte	0x14
 2154 0a67 0D       		.byte	0xd
 2155 0a68 B3       		.byte	0xb3
 2156 0a69 8E0A0000 		.4byte	0xa8e
 2157 0a6d 1B       		.uleb128 0x1b
 2158 0a6e 93090000 		.4byte	0x993
 2159 0a72 02       		.byte	0x2
 2160 0a73 23       		.byte	0x23
 2161 0a74 00       		.uleb128 0x0
 2162 0a75 1B       		.uleb128 0x1b
 2163 0a76 B8090000 		.4byte	0x9b8
 2164 0a7a 02       		.byte	0x2
 2165 0a7b 23       		.byte	0x23
 2166 0a7c 04       		.uleb128 0x4
 2167 0a7d 1B       		.uleb128 0x1b
 2168 0a7e 280A0000 		.4byte	0xa28
 2169 0a82 02       		.byte	0x2
 2170 0a83 23       		.byte	0x23
 2171 0a84 08       		.uleb128 0x8
 2172 0a85 1B       		.uleb128 0x1b
 2173 0a86 3B0A0000 		.4byte	0xa3b
 2174 0a8a 02       		.byte	0x2
 2175 0a8b 23       		.byte	0x23
 2176 0a8c 0C       		.uleb128 0xc
 2177 0a8d 00       		.byte	0x0
 2178 0a8e 07       		.uleb128 0x7
 2179 0a8f 67030000 		.4byte	.LASF117
 2180 0a93 0D       		.byte	0xd
 2181 0a94 CA       		.byte	0xca
 2182 0a95 650A0000 		.4byte	0xa65
 2183 0a99 0B       		.uleb128 0xb
 2184 0a9a 08       		.byte	0x8
 2185 0a9b 0D       		.byte	0xd
 2186 0a9c F4       		.byte	0xf4
 2187 0a9d BF0A0000 		.4byte	0xabf
 2188 0aa1 0A       		.uleb128 0xa
 2189 0aa2 6D637200 		.ascii	"mcr\000"
 2190 0aa6 0D       		.byte	0xd
 2191 0aa7 FA       		.byte	0xfa
 2192 0aa8 A4000000 		.4byte	0xa4
 2193 0aac 02       		.byte	0x2
 2194 0aad 23       		.byte	0x23
 2195 0aae 00       		.uleb128 0x0
 2196 0aaf 0D       		.uleb128 0xd
 2197 0ab0 62747200 		.ascii	"btr\000"
 2198 0ab4 0D       		.byte	0xd
 2199 0ab5 0001     		.2byte	0x100
ARM GAS  C:\Users\DNIEL~1\AppData\Local\Temp\cc72pSZU.s 			page 40


 2200 0ab7 A4000000 		.4byte	0xa4
 2201 0abb 02       		.byte	0x2
 2202 0abc 23       		.byte	0x23
 2203 0abd 04       		.uleb128 0x4
 2204 0abe 00       		.byte	0x0
 2205 0abf 15       		.uleb128 0x15
 2206 0ac0 2F000000 		.4byte	.LASF118
 2207 0ac4 0D       		.byte	0xd
 2208 0ac5 0101     		.2byte	0x101
 2209 0ac7 990A0000 		.4byte	0xa99
 2210 0acb 13       		.uleb128 0x13
 2211 0acc 38       		.byte	0x38
 2212 0acd 0D       		.byte	0xd
 2213 0ace 0601     		.2byte	0x106
 2214 0ad0 6B0B0000 		.4byte	0xb6b
 2215 0ad4 14       		.uleb128 0x14
 2216 0ad5 26010000 		.4byte	.LASF119
 2217 0ad9 0D       		.byte	0xd
 2218 0ada 0A01     		.2byte	0x10a
 2219 0adc 8F080000 		.4byte	0x88f
 2220 0ae0 02       		.byte	0x2
 2221 0ae1 23       		.byte	0x23
 2222 0ae2 00       		.uleb128 0x0
 2223 0ae3 14       		.uleb128 0x14
 2224 0ae4 4E050000 		.4byte	.LASF120
 2225 0ae8 0D       		.byte	0xd
 2226 0ae9 0E01     		.2byte	0x10e
 2227 0aeb 6B0B0000 		.4byte	0xb6b
 2228 0aef 02       		.byte	0x2
 2229 0af0 23       		.byte	0x23
 2230 0af1 04       		.uleb128 0x4
 2231 0af2 14       		.uleb128 0x14
 2232 0af3 08010000 		.4byte	.LASF121
 2233 0af7 0D       		.byte	0xd
 2234 0af8 1201     		.2byte	0x112
 2235 0afa 24040000 		.4byte	0x424
 2236 0afe 02       		.byte	0x2
 2237 0aff 23       		.byte	0x23
 2238 0b00 08       		.uleb128 0x8
 2239 0b01 14       		.uleb128 0x14
 2240 0b02 12060000 		.4byte	.LASF122
 2241 0b06 0D       		.byte	0xd
 2242 0b07 1601     		.2byte	0x116
 2243 0b09 24040000 		.4byte	0x424
 2244 0b0d 02       		.byte	0x2
 2245 0b0e 23       		.byte	0x23
 2246 0b0f 14       		.uleb128 0x14
 2247 0b10 14       		.uleb128 0x14
 2248 0b11 B6010000 		.4byte	.LASF123
 2249 0b15 0D       		.byte	0xd
 2250 0b16 2301     		.2byte	0x123
 2251 0b18 E8040000 		.4byte	0x4e8
 2252 0b1c 02       		.byte	0x2
 2253 0b1d 23       		.byte	0x23
 2254 0b1e 20       		.uleb128 0x20
 2255 0b1f 14       		.uleb128 0x14
 2256 0b20 29050000 		.4byte	.LASF124
ARM GAS  C:\Users\DNIEL~1\AppData\Local\Temp\cc72pSZU.s 			page 41


 2257 0b24 0D       		.byte	0xd
 2258 0b25 2A01     		.2byte	0x12a
 2259 0b27 E8040000 		.4byte	0x4e8
 2260 0b2b 02       		.byte	0x2
 2261 0b2c 23       		.byte	0x23
 2262 0b2d 24       		.uleb128 0x24
 2263 0b2e 14       		.uleb128 0x14
 2264 0b2f D0030000 		.4byte	.LASF125
 2265 0b33 0D       		.byte	0xd
 2266 0b34 3001     		.2byte	0x130
 2267 0b36 E8040000 		.4byte	0x4e8
 2268 0b3a 02       		.byte	0x2
 2269 0b3b 23       		.byte	0x23
 2270 0b3c 28       		.uleb128 0x28
 2271 0b3d 14       		.uleb128 0x14
 2272 0b3e 9E030000 		.4byte	.LASF126
 2273 0b42 0D       		.byte	0xd
 2274 0b43 3501     		.2byte	0x135
 2275 0b45 E8040000 		.4byte	0x4e8
 2276 0b49 02       		.byte	0x2
 2277 0b4a 23       		.byte	0x23
 2278 0b4b 2C       		.uleb128 0x2c
 2279 0b4c 14       		.uleb128 0x14
 2280 0b4d 66040000 		.4byte	.LASF127
 2281 0b51 0D       		.byte	0xd
 2282 0b52 3901     		.2byte	0x139
 2283 0b54 E8040000 		.4byte	0x4e8
 2284 0b58 02       		.byte	0x2
 2285 0b59 23       		.byte	0x23
 2286 0b5a 30       		.uleb128 0x30
 2287 0b5b 0D       		.uleb128 0xd
 2288 0b5c 63616E00 		.ascii	"can\000"
 2289 0b60 0D       		.byte	0xd
 2290 0b61 3F01     		.2byte	0x13f
 2291 0b63 760B0000 		.4byte	0xb76
 2292 0b67 02       		.byte	0x2
 2293 0b68 23       		.byte	0x23
 2294 0b69 34       		.uleb128 0x34
 2295 0b6a 00       		.byte	0x0
 2296 0b6b 05       		.uleb128 0x5
 2297 0b6c 04       		.byte	0x4
 2298 0b6d 710B0000 		.4byte	0xb71
 2299 0b71 06       		.uleb128 0x6
 2300 0b72 BF0A0000 		.4byte	0xabf
 2301 0b76 05       		.uleb128 0x5
 2302 0b77 04       		.byte	0x4
 2303 0b78 DD070000 		.4byte	0x7dd
 2304 0b7c 15       		.uleb128 0x15
 2305 0b7d 46030000 		.4byte	.LASF128
 2306 0b81 0D       		.byte	0xd
 2307 0b82 4001     		.2byte	0x140
 2308 0b84 CB0A0000 		.4byte	0xacb
 2309 0b88 1C       		.uleb128 0x1c
 2310 0b89 59040000 		.4byte	.LASF134
 2311 0b8d 01       		.byte	0x1
 2312 0b8e 0E       		.byte	0xe
 2313 0b8f 0C       		.byte	0xc
ARM GAS  C:\Users\DNIEL~1\AppData\Local\Temp\cc72pSZU.s 			page 42


 2314 0b90 B30B0000 		.4byte	0xbb3
 2315 0b94 18       		.uleb128 0x18
 2316 0b95 60060000 		.4byte	.LASF129
 2317 0b99 00       		.sleb128 0
 2318 0b9a 18       		.uleb128 0x18
 2319 0b9b 9C010000 		.4byte	.LASF130
 2320 0b9f 01       		.sleb128 1
 2321 0ba0 18       		.uleb128 0x18
 2322 0ba1 CD020000 		.4byte	.LASF131
 2323 0ba5 02       		.sleb128 2
 2324 0ba6 18       		.uleb128 0x18
 2325 0ba7 BB040000 		.4byte	.LASF132
 2326 0bab 03       		.sleb128 3
 2327 0bac 18       		.uleb128 0x18
 2328 0bad C4030000 		.4byte	.LASF133
 2329 0bb1 04       		.sleb128 4
 2330 0bb2 00       		.byte	0x0
 2331 0bb3 1C       		.uleb128 0x1c
 2332 0bb4 39060000 		.4byte	.LASF135
 2333 0bb8 01       		.byte	0x1
 2334 0bb9 01       		.byte	0x1
 2335 0bba 32       		.byte	0x32
 2336 0bbb EA0B0000 		.4byte	0xbea
 2337 0bbf 18       		.uleb128 0x18
 2338 0bc0 5F020000 		.4byte	.LASF136
 2339 0bc4 00       		.sleb128 0
 2340 0bc5 18       		.uleb128 0x18
 2341 0bc6 28030000 		.4byte	.LASF137
 2342 0bca 01       		.sleb128 1
 2343 0bcb 18       		.uleb128 0x18
 2344 0bcc 9B050000 		.4byte	.LASF138
 2345 0bd0 02       		.sleb128 2
 2346 0bd1 18       		.uleb128 0x18
 2347 0bd2 23060000 		.4byte	.LASF139
 2348 0bd6 03       		.sleb128 3
 2349 0bd7 18       		.uleb128 0x18
 2350 0bd8 1F010000 		.4byte	.LASF140
 2351 0bdc 04       		.sleb128 4
 2352 0bdd 18       		.uleb128 0x18
 2353 0bde 50030000 		.4byte	.LASF141
 2354 0be2 05       		.sleb128 5
 2355 0be3 18       		.uleb128 0x18
 2356 0be4 91010000 		.4byte	.LASF142
 2357 0be8 06       		.sleb128 6
 2358 0be9 00       		.byte	0x0
 2359 0bea 1C       		.uleb128 0x1c
 2360 0beb 06000000 		.4byte	.LASF143
 2361 0bef 01       		.byte	0x1
 2362 0bf0 01       		.byte	0x1
 2363 0bf1 3D       		.byte	0x3d
 2364 0bf2 0F0C0000 		.4byte	0xc0f
 2365 0bf6 18       		.uleb128 0x18
 2366 0bf7 FB020000 		.4byte	.LASF144
 2367 0bfb 00       		.sleb128 0
 2368 0bfc 18       		.uleb128 0x18
 2369 0bfd 0A030000 		.4byte	.LASF145
 2370 0c01 01       		.sleb128 1
ARM GAS  C:\Users\DNIEL~1\AppData\Local\Temp\cc72pSZU.s 			page 43


 2371 0c02 18       		.uleb128 0x18
 2372 0c03 19030000 		.4byte	.LASF146
 2373 0c07 02       		.sleb128 2
 2374 0c08 18       		.uleb128 0x18
 2375 0c09 05060000 		.4byte	.LASF147
 2376 0c0d 03       		.sleb128 3
 2377 0c0e 00       		.byte	0x0
 2378 0c0f 1D       		.uleb128 0x1d
 2379 0c10 F2040000 		.4byte	.LASF148
 2380 0c14 01       		.byte	0x1
 2381 0c15 D7       		.byte	0xd7
 2382 0c16 01       		.byte	0x1
 2383 0c17 03010000 		.4byte	0x103
 2384 0c1b 00000000 		.4byte	.LFB57
 2385 0c1f E0000000 		.4byte	.LFE57
 2386 0c23 00000000 		.4byte	.LLST0
 2387 0c27 480C0000 		.4byte	0xc48
 2388 0c2b 1E       		.uleb128 0x1e
 2389 0c2c 7000     		.ascii	"p\000"
 2390 0c2e 01       		.byte	0x1
 2391 0c2f D7       		.byte	0xd7
 2392 0c30 68000000 		.4byte	0x68
 2393 0c34 20000000 		.4byte	.LLST1
 2394 0c38 1F       		.uleb128 0x1f
 2395 0c39 59010000 		.4byte	.LASF150
 2396 0c3d 01       		.byte	0x1
 2397 0c3e DC       		.byte	0xdc
 2398 0c3f 4C000000 		.4byte	0x4c
 2399 0c43 33000000 		.4byte	.LLST2
 2400 0c47 00       		.byte	0x0
 2401 0c48 1D       		.uleb128 0x1d
 2402 0c49 C6020000 		.4byte	.LASF149
 2403 0c4d 01       		.byte	0x1
 2404 0c4e 75       		.byte	0x75
 2405 0c4f 01       		.byte	0x1
 2406 0c50 03010000 		.4byte	0x103
 2407 0c54 00000000 		.4byte	.LFB56
 2408 0c58 4C010000 		.4byte	.LFE56
 2409 0c5c 52000000 		.4byte	.LLST3
 2410 0c60 8B0C0000 		.4byte	0xc8b
 2411 0c64 1E       		.uleb128 0x1e
 2412 0c65 7000     		.ascii	"p\000"
 2413 0c67 01       		.byte	0x1
 2414 0c68 75       		.byte	0x75
 2415 0c69 68000000 		.4byte	0x68
 2416 0c6d 7E000000 		.4byte	.LLST4
 2417 0c71 20       		.uleb128 0x20
 2418 0c72 656C00   		.ascii	"el\000"
 2419 0c75 01       		.byte	0x1
 2420 0c76 76       		.byte	0x76
 2421 0c77 77040000 		.4byte	0x477
 2422 0c7b 02       		.byte	0x2
 2423 0c7c 91       		.byte	0x91
 2424 0c7d 50       		.sleb128 -48
 2425 0c7e 21       		.uleb128 0x21
 2426 0c7f 18060000 		.4byte	.LASF151
 2427 0c83 01       		.byte	0x1
ARM GAS  C:\Users\DNIEL~1\AppData\Local\Temp\cc72pSZU.s 			page 44


 2428 0c84 77       		.byte	0x77
 2429 0c85 03010000 		.4byte	0x103
 2430 0c89 00       		.byte	0x0
 2431 0c8a 00       		.byte	0x0
 2432 0c8b 22       		.uleb128 0x22
 2433 0c8c 01       		.byte	0x1
 2434 0c8d DC030000 		.4byte	.LASF168
 2435 0c91 01       		.byte	0x1
 2436 0c92 1601     		.2byte	0x116
 2437 0c94 01       		.byte	0x1
 2438 0c95 00000000 		.4byte	.LFB58
 2439 0c99 08010000 		.4byte	.LFE58
 2440 0c9d 91000000 		.4byte	.LLST5
 2441 0ca1 23       		.uleb128 0x23
 2442 0ca2 F7050000 		.4byte	.LASF152
 2443 0ca6 07       		.byte	0x7
 2444 0ca7 6F       		.byte	0x6f
 2445 0ca8 F0030000 		.4byte	0x3f0
 2446 0cac 01       		.byte	0x1
 2447 0cad 01       		.byte	0x1
 2448 0cae 24       		.uleb128 0x24
 2449 0caf 7F040000 		.4byte	.LASF153
 2450 0cb3 0F       		.byte	0xf
 2451 0cb4 0706     		.2byte	0x607
 2452 0cb6 4E050000 		.4byte	0x54e
 2453 0cba 01       		.byte	0x1
 2454 0cbb 01       		.byte	0x1
 2455 0cbc 24       		.uleb128 0x24
 2456 0cbd FE010000 		.4byte	.LASF154
 2457 0cc1 0D       		.byte	0xd
 2458 0cc2 4B01     		.2byte	0x14b
 2459 0cc4 7C0B0000 		.4byte	0xb7c
 2460 0cc8 01       		.byte	0x1
 2461 0cc9 01       		.byte	0x1
 2462 0cca 23       		.uleb128 0x23
 2463 0ccb 5A050000 		.4byte	.LASF155
 2464 0ccf 01       		.byte	0x1
 2465 0cd0 3B       		.byte	0x3b
 2466 0cd1 B30B0000 		.4byte	0xbb3
 2467 0cd5 01       		.byte	0x1
 2468 0cd6 01       		.byte	0x1
 2469 0cd7 11       		.uleb128 0x11
 2470 0cd8 83000000 		.4byte	0x83
 2471 0cdc E70C0000 		.4byte	0xce7
 2472 0ce0 12       		.uleb128 0x12
 2473 0ce1 29000000 		.4byte	0x29
 2474 0ce5 05       		.byte	0x5
 2475 0ce6 00       		.byte	0x0
 2476 0ce7 25       		.uleb128 0x25
 2477 0ce8 BC000000 		.4byte	.LASF169
 2478 0cec 01       		.byte	0x1
 2479 0ced 45       		.byte	0x45
 2480 0cee F20C0000 		.4byte	0xcf2
 2481 0cf2 06       		.uleb128 0x6
 2482 0cf3 D70C0000 		.4byte	0xcd7
 2483 0cf7 26       		.uleb128 0x26
 2484 0cf8 00000000 		.4byte	.LASF156
ARM GAS  C:\Users\DNIEL~1\AppData\Local\Temp\cc72pSZU.s 			page 45


 2485 0cfc 01       		.byte	0x1
 2486 0cfd 4C       		.byte	0x4c
 2487 0cfe 8E0A0000 		.4byte	0xa8e
 2488 0d02 05       		.byte	0x5
 2489 0d03 03       		.byte	0x3
 2490 0d04 00000000 		.4byte	rxmsg
 2491 0d08 26       		.uleb128 0x26
 2492 0d09 BB050000 		.4byte	.LASF157
 2493 0d0d 01       		.byte	0x1
 2494 0d0e 4D       		.byte	0x4d
 2495 0d0f 88090000 		.4byte	0x988
 2496 0d13 05       		.byte	0x5
 2497 0d14 03       		.byte	0x3
 2498 0d15 00000000 		.4byte	txmsg
 2499 0d19 26       		.uleb128 0x26
 2500 0d1a 39030000 		.4byte	.LASF158
 2501 0d1e 01       		.byte	0x1
 2502 0d1f 66       		.byte	0x66
 2503 0d20 710B0000 		.4byte	0xb71
 2504 0d24 05       		.byte	0x5
 2505 0d25 03       		.byte	0x3
 2506 0d26 00000000 		.4byte	cancfg
 2507 0d2a 26       		.uleb128 0x26
 2508 0d2b D4010000 		.4byte	.LASF159
 2509 0d2f 01       		.byte	0x1
 2510 0d30 6C       		.byte	0x6c
 2511 0d31 8E000000 		.4byte	0x8e
 2512 0d35 05       		.byte	0x5
 2513 0d36 03       		.byte	0x3
 2514 0d37 00000000 		.4byte	tx_id
 2515 0d3b 26       		.uleb128 0x26
 2516 0d3c 19000000 		.4byte	.LASF160
 2517 0d40 01       		.byte	0x1
 2518 0d41 6D       		.byte	0x6d
 2519 0d42 8E000000 		.4byte	0x8e
 2520 0d46 05       		.byte	0x5
 2521 0d47 03       		.byte	0x3
 2522 0d48 00000000 		.4byte	rx_id
 2523 0d4c 26       		.uleb128 0x26
 2524 0d4d 6A010000 		.4byte	.LASF161
 2525 0d51 01       		.byte	0x1
 2526 0d52 6E       		.byte	0x6e
 2527 0d53 8E000000 		.4byte	0x8e
 2528 0d57 05       		.byte	0x5
 2529 0d58 03       		.byte	0x3
 2530 0d59 00000000 		.4byte	messages
 2531 0d5d 26       		.uleb128 0x26
 2532 0d5e 9B000000 		.4byte	.LASF162
 2533 0d62 01       		.byte	0x1
 2534 0d63 6F       		.byte	0x6f
 2535 0d64 BA000000 		.4byte	0xba
 2536 0d68 05       		.byte	0x5
 2537 0d69 03       		.byte	0x3
 2538 0d6a 00000000 		.4byte	switch_on
 2539 0d6e 11       		.uleb128 0x11
 2540 0d6f CD020000 		.4byte	0x2cd
 2541 0d73 7E0D0000 		.4byte	0xd7e
ARM GAS  C:\Users\DNIEL~1\AppData\Local\Temp\cc72pSZU.s 			page 46


 2542 0d77 12       		.uleb128 0x12
 2543 0d78 29000000 		.4byte	0x29
 2544 0d7c 39       		.byte	0x39
 2545 0d7d 00       		.byte	0x0
 2546 0d7e 26       		.uleb128 0x26
 2547 0d7f DA020000 		.4byte	.LASF163
 2548 0d83 01       		.byte	0x1
 2549 0d84 74       		.byte	0x74
 2550 0d85 6E0D0000 		.4byte	0xd6e
 2551 0d89 05       		.byte	0x5
 2552 0d8a 03       		.byte	0x3
 2553 0d8b 00000000 		.4byte	can_rx_wa
 2554 0d8f 26       		.uleb128 0x26
 2555 0d90 F9040000 		.4byte	.LASF164
 2556 0d94 01       		.byte	0x1
 2557 0d95 D6       		.byte	0xd6
 2558 0d96 6E0D0000 		.4byte	0xd6e
 2559 0d9a 05       		.byte	0x5
 2560 0d9b 03       		.byte	0x3
 2561 0d9c 00000000 		.4byte	can_tx_wa
 2562 0da0 23       		.uleb128 0x23
 2563 0da1 F7050000 		.4byte	.LASF152
 2564 0da5 07       		.byte	0x7
 2565 0da6 6F       		.byte	0x6f
 2566 0da7 F0030000 		.4byte	0x3f0
 2567 0dab 01       		.byte	0x1
 2568 0dac 01       		.byte	0x1
 2569 0dad 24       		.uleb128 0x24
 2570 0dae 7F040000 		.4byte	.LASF153
 2571 0db2 0F       		.byte	0xf
 2572 0db3 0706     		.2byte	0x607
 2573 0db5 4E050000 		.4byte	0x54e
 2574 0db9 01       		.byte	0x1
 2575 0dba 01       		.byte	0x1
 2576 0dbb 24       		.uleb128 0x24
 2577 0dbc FE010000 		.4byte	.LASF154
 2578 0dc0 0D       		.byte	0xd
 2579 0dc1 4B01     		.2byte	0x14b
 2580 0dc3 7C0B0000 		.4byte	0xb7c
 2581 0dc7 01       		.byte	0x1
 2582 0dc8 01       		.byte	0x1
 2583 0dc9 27       		.uleb128 0x27
 2584 0dca 5A050000 		.4byte	.LASF155
 2585 0dce 01       		.byte	0x1
 2586 0dcf 3B       		.byte	0x3b
 2587 0dd0 B30B0000 		.4byte	0xbb3
 2588 0dd4 01       		.byte	0x1
 2589 0dd5 05       		.byte	0x5
 2590 0dd6 03       		.byte	0x3
 2591 0dd7 00000000 		.4byte	canstate
 2592 0ddb 27       		.uleb128 0x27
 2593 0ddc 06000000 		.4byte	.LASF143
 2594 0de0 01       		.byte	0x1
 2595 0de1 43       		.byte	0x43
 2596 0de2 EA0B0000 		.4byte	0xbea
 2597 0de6 01       		.byte	0x1
 2598 0de7 05       		.byte	0x5
ARM GAS  C:\Users\DNIEL~1\AppData\Local\Temp\cc72pSZU.s 			page 47


 2599 0de8 03       		.byte	0x3
 2600 0de9 00000000 		.4byte	canMessages
 2601 0ded 00       		.byte	0x0
 2602              		.section	.debug_abbrev
 2603 0000 01       		.uleb128 0x1
 2604 0001 11       		.uleb128 0x11
 2605 0002 01       		.byte	0x1
 2606 0003 25       		.uleb128 0x25
 2607 0004 0E       		.uleb128 0xe
 2608 0005 13       		.uleb128 0x13
 2609 0006 0B       		.uleb128 0xb
 2610 0007 03       		.uleb128 0x3
 2611 0008 0E       		.uleb128 0xe
 2612 0009 1B       		.uleb128 0x1b
 2613 000a 0E       		.uleb128 0xe
 2614 000b 11       		.uleb128 0x11
 2615 000c 01       		.uleb128 0x1
 2616 000d 52       		.uleb128 0x52
 2617 000e 01       		.uleb128 0x1
 2618 000f 55       		.uleb128 0x55
 2619 0010 06       		.uleb128 0x6
 2620 0011 10       		.uleb128 0x10
 2621 0012 06       		.uleb128 0x6
 2622 0013 00       		.byte	0x0
 2623 0014 00       		.byte	0x0
 2624 0015 02       		.uleb128 0x2
 2625 0016 24       		.uleb128 0x24
 2626 0017 00       		.byte	0x0
 2627 0018 0B       		.uleb128 0xb
 2628 0019 0B       		.uleb128 0xb
 2629 001a 3E       		.uleb128 0x3e
 2630 001b 0B       		.uleb128 0xb
 2631 001c 03       		.uleb128 0x3
 2632 001d 0E       		.uleb128 0xe
 2633 001e 00       		.byte	0x0
 2634 001f 00       		.byte	0x0
 2635 0020 03       		.uleb128 0x3
 2636 0021 24       		.uleb128 0x24
 2637 0022 00       		.byte	0x0
 2638 0023 0B       		.uleb128 0xb
 2639 0024 0B       		.uleb128 0xb
 2640 0025 3E       		.uleb128 0x3e
 2641 0026 0B       		.uleb128 0xb
 2642 0027 03       		.uleb128 0x3
 2643 0028 08       		.uleb128 0x8
 2644 0029 00       		.byte	0x0
 2645 002a 00       		.byte	0x0
 2646 002b 04       		.uleb128 0x4
 2647 002c 0F       		.uleb128 0xf
 2648 002d 00       		.byte	0x0
 2649 002e 0B       		.uleb128 0xb
 2650 002f 0B       		.uleb128 0xb
 2651 0030 00       		.byte	0x0
 2652 0031 00       		.byte	0x0
 2653 0032 05       		.uleb128 0x5
 2654 0033 0F       		.uleb128 0xf
 2655 0034 00       		.byte	0x0
ARM GAS  C:\Users\DNIEL~1\AppData\Local\Temp\cc72pSZU.s 			page 48


 2656 0035 0B       		.uleb128 0xb
 2657 0036 0B       		.uleb128 0xb
 2658 0037 49       		.uleb128 0x49
 2659 0038 13       		.uleb128 0x13
 2660 0039 00       		.byte	0x0
 2661 003a 00       		.byte	0x0
 2662 003b 06       		.uleb128 0x6
 2663 003c 26       		.uleb128 0x26
 2664 003d 00       		.byte	0x0
 2665 003e 49       		.uleb128 0x49
 2666 003f 13       		.uleb128 0x13
 2667 0040 00       		.byte	0x0
 2668 0041 00       		.byte	0x0
 2669 0042 07       		.uleb128 0x7
 2670 0043 16       		.uleb128 0x16
 2671 0044 00       		.byte	0x0
 2672 0045 03       		.uleb128 0x3
 2673 0046 0E       		.uleb128 0xe
 2674 0047 3A       		.uleb128 0x3a
 2675 0048 0B       		.uleb128 0xb
 2676 0049 3B       		.uleb128 0x3b
 2677 004a 0B       		.uleb128 0xb
 2678 004b 49       		.uleb128 0x49
 2679 004c 13       		.uleb128 0x13
 2680 004d 00       		.byte	0x0
 2681 004e 00       		.byte	0x0
 2682 004f 08       		.uleb128 0x8
 2683 0050 13       		.uleb128 0x13
 2684 0051 01       		.byte	0x1
 2685 0052 03       		.uleb128 0x3
 2686 0053 0E       		.uleb128 0xe
 2687 0054 0B       		.uleb128 0xb
 2688 0055 0B       		.uleb128 0xb
 2689 0056 3A       		.uleb128 0x3a
 2690 0057 0B       		.uleb128 0xb
 2691 0058 3B       		.uleb128 0x3b
 2692 0059 0B       		.uleb128 0xb
 2693 005a 01       		.uleb128 0x1
 2694 005b 13       		.uleb128 0x13
 2695 005c 00       		.byte	0x0
 2696 005d 00       		.byte	0x0
 2697 005e 09       		.uleb128 0x9
 2698 005f 0D       		.uleb128 0xd
 2699 0060 00       		.byte	0x0
 2700 0061 03       		.uleb128 0x3
 2701 0062 0E       		.uleb128 0xe
 2702 0063 3A       		.uleb128 0x3a
 2703 0064 0B       		.uleb128 0xb
 2704 0065 3B       		.uleb128 0x3b
 2705 0066 0B       		.uleb128 0xb
 2706 0067 49       		.uleb128 0x49
 2707 0068 13       		.uleb128 0x13
 2708 0069 38       		.uleb128 0x38
 2709 006a 0A       		.uleb128 0xa
 2710 006b 00       		.byte	0x0
 2711 006c 00       		.byte	0x0
 2712 006d 0A       		.uleb128 0xa
ARM GAS  C:\Users\DNIEL~1\AppData\Local\Temp\cc72pSZU.s 			page 49


 2713 006e 0D       		.uleb128 0xd
 2714 006f 00       		.byte	0x0
 2715 0070 03       		.uleb128 0x3
 2716 0071 08       		.uleb128 0x8
 2717 0072 3A       		.uleb128 0x3a
 2718 0073 0B       		.uleb128 0xb
 2719 0074 3B       		.uleb128 0x3b
 2720 0075 0B       		.uleb128 0xb
 2721 0076 49       		.uleb128 0x49
 2722 0077 13       		.uleb128 0x13
 2723 0078 38       		.uleb128 0x38
 2724 0079 0A       		.uleb128 0xa
 2725 007a 00       		.byte	0x0
 2726 007b 00       		.byte	0x0
 2727 007c 0B       		.uleb128 0xb
 2728 007d 13       		.uleb128 0x13
 2729 007e 01       		.byte	0x1
 2730 007f 0B       		.uleb128 0xb
 2731 0080 0B       		.uleb128 0xb
 2732 0081 3A       		.uleb128 0x3a
 2733 0082 0B       		.uleb128 0xb
 2734 0083 3B       		.uleb128 0x3b
 2735 0084 0B       		.uleb128 0xb
 2736 0085 01       		.uleb128 0x1
 2737 0086 13       		.uleb128 0x13
 2738 0087 00       		.byte	0x0
 2739 0088 00       		.byte	0x0
 2740 0089 0C       		.uleb128 0xc
 2741 008a 13       		.uleb128 0x13
 2742 008b 01       		.byte	0x1
 2743 008c 03       		.uleb128 0x3
 2744 008d 0E       		.uleb128 0xe
 2745 008e 0B       		.uleb128 0xb
 2746 008f 0B       		.uleb128 0xb
 2747 0090 3A       		.uleb128 0x3a
 2748 0091 0B       		.uleb128 0xb
 2749 0092 3B       		.uleb128 0x3b
 2750 0093 05       		.uleb128 0x5
 2751 0094 01       		.uleb128 0x1
 2752 0095 13       		.uleb128 0x13
 2753 0096 00       		.byte	0x0
 2754 0097 00       		.byte	0x0
 2755 0098 0D       		.uleb128 0xd
 2756 0099 0D       		.uleb128 0xd
 2757 009a 00       		.byte	0x0
 2758 009b 03       		.uleb128 0x3
 2759 009c 08       		.uleb128 0x8
 2760 009d 3A       		.uleb128 0x3a
 2761 009e 0B       		.uleb128 0xb
 2762 009f 3B       		.uleb128 0x3b
 2763 00a0 05       		.uleb128 0x5
 2764 00a1 49       		.uleb128 0x49
 2765 00a2 13       		.uleb128 0x13
 2766 00a3 38       		.uleb128 0x38
 2767 00a4 0A       		.uleb128 0xa
 2768 00a5 00       		.byte	0x0
 2769 00a6 00       		.byte	0x0
ARM GAS  C:\Users\DNIEL~1\AppData\Local\Temp\cc72pSZU.s 			page 50


 2770 00a7 0E       		.uleb128 0xe
 2771 00a8 35       		.uleb128 0x35
 2772 00a9 00       		.byte	0x0
 2773 00aa 49       		.uleb128 0x49
 2774 00ab 13       		.uleb128 0x13
 2775 00ac 00       		.byte	0x0
 2776 00ad 00       		.byte	0x0
 2777 00ae 0F       		.uleb128 0xf
 2778 00af 17       		.uleb128 0x17
 2779 00b0 01       		.byte	0x1
 2780 00b1 0B       		.uleb128 0xb
 2781 00b2 0B       		.uleb128 0xb
 2782 00b3 3A       		.uleb128 0x3a
 2783 00b4 0B       		.uleb128 0xb
 2784 00b5 3B       		.uleb128 0x3b
 2785 00b6 0B       		.uleb128 0xb
 2786 00b7 01       		.uleb128 0x1
 2787 00b8 13       		.uleb128 0x13
 2788 00b9 00       		.byte	0x0
 2789 00ba 00       		.byte	0x0
 2790 00bb 10       		.uleb128 0x10
 2791 00bc 0D       		.uleb128 0xd
 2792 00bd 00       		.byte	0x0
 2793 00be 03       		.uleb128 0x3
 2794 00bf 0E       		.uleb128 0xe
 2795 00c0 3A       		.uleb128 0x3a
 2796 00c1 0B       		.uleb128 0xb
 2797 00c2 3B       		.uleb128 0x3b
 2798 00c3 0B       		.uleb128 0xb
 2799 00c4 49       		.uleb128 0x49
 2800 00c5 13       		.uleb128 0x13
 2801 00c6 00       		.byte	0x0
 2802 00c7 00       		.byte	0x0
 2803 00c8 11       		.uleb128 0x11
 2804 00c9 01       		.uleb128 0x1
 2805 00ca 01       		.byte	0x1
 2806 00cb 49       		.uleb128 0x49
 2807 00cc 13       		.uleb128 0x13
 2808 00cd 01       		.uleb128 0x1
 2809 00ce 13       		.uleb128 0x13
 2810 00cf 00       		.byte	0x0
 2811 00d0 00       		.byte	0x0
 2812 00d1 12       		.uleb128 0x12
 2813 00d2 21       		.uleb128 0x21
 2814 00d3 00       		.byte	0x0
 2815 00d4 49       		.uleb128 0x49
 2816 00d5 13       		.uleb128 0x13
 2817 00d6 2F       		.uleb128 0x2f
 2818 00d7 0B       		.uleb128 0xb
 2819 00d8 00       		.byte	0x0
 2820 00d9 00       		.byte	0x0
 2821 00da 13       		.uleb128 0x13
 2822 00db 13       		.uleb128 0x13
 2823 00dc 01       		.byte	0x1
 2824 00dd 0B       		.uleb128 0xb
 2825 00de 0B       		.uleb128 0xb
 2826 00df 3A       		.uleb128 0x3a
ARM GAS  C:\Users\DNIEL~1\AppData\Local\Temp\cc72pSZU.s 			page 51


 2827 00e0 0B       		.uleb128 0xb
 2828 00e1 3B       		.uleb128 0x3b
 2829 00e2 05       		.uleb128 0x5
 2830 00e3 01       		.uleb128 0x1
 2831 00e4 13       		.uleb128 0x13
 2832 00e5 00       		.byte	0x0
 2833 00e6 00       		.byte	0x0
 2834 00e7 14       		.uleb128 0x14
 2835 00e8 0D       		.uleb128 0xd
 2836 00e9 00       		.byte	0x0
 2837 00ea 03       		.uleb128 0x3
 2838 00eb 0E       		.uleb128 0xe
 2839 00ec 3A       		.uleb128 0x3a
 2840 00ed 0B       		.uleb128 0xb
 2841 00ee 3B       		.uleb128 0x3b
 2842 00ef 05       		.uleb128 0x5
 2843 00f0 49       		.uleb128 0x49
 2844 00f1 13       		.uleb128 0x13
 2845 00f2 38       		.uleb128 0x38
 2846 00f3 0A       		.uleb128 0xa
 2847 00f4 00       		.byte	0x0
 2848 00f5 00       		.byte	0x0
 2849 00f6 15       		.uleb128 0x15
 2850 00f7 16       		.uleb128 0x16
 2851 00f8 00       		.byte	0x0
 2852 00f9 03       		.uleb128 0x3
 2853 00fa 0E       		.uleb128 0xe
 2854 00fb 3A       		.uleb128 0x3a
 2855 00fc 0B       		.uleb128 0xb
 2856 00fd 3B       		.uleb128 0x3b
 2857 00fe 05       		.uleb128 0x5
 2858 00ff 49       		.uleb128 0x49
 2859 0100 13       		.uleb128 0x13
 2860 0101 00       		.byte	0x0
 2861 0102 00       		.byte	0x0
 2862 0103 16       		.uleb128 0x16
 2863 0104 13       		.uleb128 0x13
 2864 0105 01       		.byte	0x1
 2865 0106 0B       		.uleb128 0xb
 2866 0107 05       		.uleb128 0x5
 2867 0108 3A       		.uleb128 0x3a
 2868 0109 0B       		.uleb128 0xb
 2869 010a 3B       		.uleb128 0x3b
 2870 010b 05       		.uleb128 0x5
 2871 010c 01       		.uleb128 0x1
 2872 010d 13       		.uleb128 0x13
 2873 010e 00       		.byte	0x0
 2874 010f 00       		.byte	0x0
 2875 0110 17       		.uleb128 0x17
 2876 0111 04       		.uleb128 0x4
 2877 0112 01       		.byte	0x1
 2878 0113 0B       		.uleb128 0xb
 2879 0114 0B       		.uleb128 0xb
 2880 0115 3A       		.uleb128 0x3a
 2881 0116 0B       		.uleb128 0xb
 2882 0117 3B       		.uleb128 0x3b
 2883 0118 0B       		.uleb128 0xb
ARM GAS  C:\Users\DNIEL~1\AppData\Local\Temp\cc72pSZU.s 			page 52


 2884 0119 01       		.uleb128 0x1
 2885 011a 13       		.uleb128 0x13
 2886 011b 00       		.byte	0x0
 2887 011c 00       		.byte	0x0
 2888 011d 18       		.uleb128 0x18
 2889 011e 28       		.uleb128 0x28
 2890 011f 00       		.byte	0x0
 2891 0120 03       		.uleb128 0x3
 2892 0121 0E       		.uleb128 0xe
 2893 0122 1C       		.uleb128 0x1c
 2894 0123 0D       		.uleb128 0xd
 2895 0124 00       		.byte	0x0
 2896 0125 00       		.byte	0x0
 2897 0126 19       		.uleb128 0x19
 2898 0127 0D       		.uleb128 0xd
 2899 0128 00       		.byte	0x0
 2900 0129 03       		.uleb128 0x3
 2901 012a 08       		.uleb128 0x8
 2902 012b 3A       		.uleb128 0x3a
 2903 012c 0B       		.uleb128 0xb
 2904 012d 3B       		.uleb128 0x3b
 2905 012e 0B       		.uleb128 0xb
 2906 012f 49       		.uleb128 0x49
 2907 0130 13       		.uleb128 0x13
 2908 0131 0B       		.uleb128 0xb
 2909 0132 0B       		.uleb128 0xb
 2910 0133 0D       		.uleb128 0xd
 2911 0134 0B       		.uleb128 0xb
 2912 0135 0C       		.uleb128 0xc
 2913 0136 0B       		.uleb128 0xb
 2914 0137 38       		.uleb128 0x38
 2915 0138 0A       		.uleb128 0xa
 2916 0139 00       		.byte	0x0
 2917 013a 00       		.byte	0x0
 2918 013b 1A       		.uleb128 0x1a
 2919 013c 0D       		.uleb128 0xd
 2920 013d 00       		.byte	0x0
 2921 013e 49       		.uleb128 0x49
 2922 013f 13       		.uleb128 0x13
 2923 0140 00       		.byte	0x0
 2924 0141 00       		.byte	0x0
 2925 0142 1B       		.uleb128 0x1b
 2926 0143 0D       		.uleb128 0xd
 2927 0144 00       		.byte	0x0
 2928 0145 49       		.uleb128 0x49
 2929 0146 13       		.uleb128 0x13
 2930 0147 38       		.uleb128 0x38
 2931 0148 0A       		.uleb128 0xa
 2932 0149 00       		.byte	0x0
 2933 014a 00       		.byte	0x0
 2934 014b 1C       		.uleb128 0x1c
 2935 014c 04       		.uleb128 0x4
 2936 014d 01       		.byte	0x1
 2937 014e 03       		.uleb128 0x3
 2938 014f 0E       		.uleb128 0xe
 2939 0150 0B       		.uleb128 0xb
 2940 0151 0B       		.uleb128 0xb
ARM GAS  C:\Users\DNIEL~1\AppData\Local\Temp\cc72pSZU.s 			page 53


 2941 0152 3A       		.uleb128 0x3a
 2942 0153 0B       		.uleb128 0xb
 2943 0154 3B       		.uleb128 0x3b
 2944 0155 0B       		.uleb128 0xb
 2945 0156 01       		.uleb128 0x1
 2946 0157 13       		.uleb128 0x13
 2947 0158 00       		.byte	0x0
 2948 0159 00       		.byte	0x0
 2949 015a 1D       		.uleb128 0x1d
 2950 015b 2E       		.uleb128 0x2e
 2951 015c 01       		.byte	0x1
 2952 015d 03       		.uleb128 0x3
 2953 015e 0E       		.uleb128 0xe
 2954 015f 3A       		.uleb128 0x3a
 2955 0160 0B       		.uleb128 0xb
 2956 0161 3B       		.uleb128 0x3b
 2957 0162 0B       		.uleb128 0xb
 2958 0163 27       		.uleb128 0x27
 2959 0164 0C       		.uleb128 0xc
 2960 0165 49       		.uleb128 0x49
 2961 0166 13       		.uleb128 0x13
 2962 0167 11       		.uleb128 0x11
 2963 0168 01       		.uleb128 0x1
 2964 0169 12       		.uleb128 0x12
 2965 016a 01       		.uleb128 0x1
 2966 016b 40       		.uleb128 0x40
 2967 016c 06       		.uleb128 0x6
 2968 016d 01       		.uleb128 0x1
 2969 016e 13       		.uleb128 0x13
 2970 016f 00       		.byte	0x0
 2971 0170 00       		.byte	0x0
 2972 0171 1E       		.uleb128 0x1e
 2973 0172 05       		.uleb128 0x5
 2974 0173 00       		.byte	0x0
 2975 0174 03       		.uleb128 0x3
 2976 0175 08       		.uleb128 0x8
 2977 0176 3A       		.uleb128 0x3a
 2978 0177 0B       		.uleb128 0xb
 2979 0178 3B       		.uleb128 0x3b
 2980 0179 0B       		.uleb128 0xb
 2981 017a 49       		.uleb128 0x49
 2982 017b 13       		.uleb128 0x13
 2983 017c 02       		.uleb128 0x2
 2984 017d 06       		.uleb128 0x6
 2985 017e 00       		.byte	0x0
 2986 017f 00       		.byte	0x0
 2987 0180 1F       		.uleb128 0x1f
 2988 0181 34       		.uleb128 0x34
 2989 0182 00       		.byte	0x0
 2990 0183 03       		.uleb128 0x3
 2991 0184 0E       		.uleb128 0xe
 2992 0185 3A       		.uleb128 0x3a
 2993 0186 0B       		.uleb128 0xb
 2994 0187 3B       		.uleb128 0x3b
 2995 0188 0B       		.uleb128 0xb
 2996 0189 49       		.uleb128 0x49
 2997 018a 13       		.uleb128 0x13
ARM GAS  C:\Users\DNIEL~1\AppData\Local\Temp\cc72pSZU.s 			page 54


 2998 018b 02       		.uleb128 0x2
 2999 018c 06       		.uleb128 0x6
 3000 018d 00       		.byte	0x0
 3001 018e 00       		.byte	0x0
 3002 018f 20       		.uleb128 0x20
 3003 0190 34       		.uleb128 0x34
 3004 0191 00       		.byte	0x0
 3005 0192 03       		.uleb128 0x3
 3006 0193 08       		.uleb128 0x8
 3007 0194 3A       		.uleb128 0x3a
 3008 0195 0B       		.uleb128 0xb
 3009 0196 3B       		.uleb128 0x3b
 3010 0197 0B       		.uleb128 0xb
 3011 0198 49       		.uleb128 0x49
 3012 0199 13       		.uleb128 0x13
 3013 019a 02       		.uleb128 0x2
 3014 019b 0A       		.uleb128 0xa
 3015 019c 00       		.byte	0x0
 3016 019d 00       		.byte	0x0
 3017 019e 21       		.uleb128 0x21
 3018 019f 34       		.uleb128 0x34
 3019 01a0 00       		.byte	0x0
 3020 01a1 03       		.uleb128 0x3
 3021 01a2 0E       		.uleb128 0xe
 3022 01a3 3A       		.uleb128 0x3a
 3023 01a4 0B       		.uleb128 0xb
 3024 01a5 3B       		.uleb128 0x3b
 3025 01a6 0B       		.uleb128 0xb
 3026 01a7 49       		.uleb128 0x49
 3027 01a8 13       		.uleb128 0x13
 3028 01a9 1C       		.uleb128 0x1c
 3029 01aa 0B       		.uleb128 0xb
 3030 01ab 00       		.byte	0x0
 3031 01ac 00       		.byte	0x0
 3032 01ad 22       		.uleb128 0x22
 3033 01ae 2E       		.uleb128 0x2e
 3034 01af 00       		.byte	0x0
 3035 01b0 3F       		.uleb128 0x3f
 3036 01b1 0C       		.uleb128 0xc
 3037 01b2 03       		.uleb128 0x3
 3038 01b3 0E       		.uleb128 0xe
 3039 01b4 3A       		.uleb128 0x3a
 3040 01b5 0B       		.uleb128 0xb
 3041 01b6 3B       		.uleb128 0x3b
 3042 01b7 05       		.uleb128 0x5
 3043 01b8 27       		.uleb128 0x27
 3044 01b9 0C       		.uleb128 0xc
 3045 01ba 11       		.uleb128 0x11
 3046 01bb 01       		.uleb128 0x1
 3047 01bc 12       		.uleb128 0x12
 3048 01bd 01       		.uleb128 0x1
 3049 01be 40       		.uleb128 0x40
 3050 01bf 06       		.uleb128 0x6
 3051 01c0 00       		.byte	0x0
 3052 01c1 00       		.byte	0x0
 3053 01c2 23       		.uleb128 0x23
 3054 01c3 34       		.uleb128 0x34
ARM GAS  C:\Users\DNIEL~1\AppData\Local\Temp\cc72pSZU.s 			page 55


 3055 01c4 00       		.byte	0x0
 3056 01c5 03       		.uleb128 0x3
 3057 01c6 0E       		.uleb128 0xe
 3058 01c7 3A       		.uleb128 0x3a
 3059 01c8 0B       		.uleb128 0xb
 3060 01c9 3B       		.uleb128 0x3b
 3061 01ca 0B       		.uleb128 0xb
 3062 01cb 49       		.uleb128 0x49
 3063 01cc 13       		.uleb128 0x13
 3064 01cd 3F       		.uleb128 0x3f
 3065 01ce 0C       		.uleb128 0xc
 3066 01cf 3C       		.uleb128 0x3c
 3067 01d0 0C       		.uleb128 0xc
 3068 01d1 00       		.byte	0x0
 3069 01d2 00       		.byte	0x0
 3070 01d3 24       		.uleb128 0x24
 3071 01d4 34       		.uleb128 0x34
 3072 01d5 00       		.byte	0x0
 3073 01d6 03       		.uleb128 0x3
 3074 01d7 0E       		.uleb128 0xe
 3075 01d8 3A       		.uleb128 0x3a
 3076 01d9 0B       		.uleb128 0xb
 3077 01da 3B       		.uleb128 0x3b
 3078 01db 05       		.uleb128 0x5
 3079 01dc 49       		.uleb128 0x49
 3080 01dd 13       		.uleb128 0x13
 3081 01de 3F       		.uleb128 0x3f
 3082 01df 0C       		.uleb128 0xc
 3083 01e0 3C       		.uleb128 0x3c
 3084 01e1 0C       		.uleb128 0xc
 3085 01e2 00       		.byte	0x0
 3086 01e3 00       		.byte	0x0
 3087 01e4 25       		.uleb128 0x25
 3088 01e5 34       		.uleb128 0x34
 3089 01e6 00       		.byte	0x0
 3090 01e7 03       		.uleb128 0x3
 3091 01e8 0E       		.uleb128 0xe
 3092 01e9 3A       		.uleb128 0x3a
 3093 01ea 0B       		.uleb128 0xb
 3094 01eb 3B       		.uleb128 0x3b
 3095 01ec 0B       		.uleb128 0xb
 3096 01ed 49       		.uleb128 0x49
 3097 01ee 13       		.uleb128 0x13
 3098 01ef 00       		.byte	0x0
 3099 01f0 00       		.byte	0x0
 3100 01f1 26       		.uleb128 0x26
 3101 01f2 34       		.uleb128 0x34
 3102 01f3 00       		.byte	0x0
 3103 01f4 03       		.uleb128 0x3
 3104 01f5 0E       		.uleb128 0xe
 3105 01f6 3A       		.uleb128 0x3a
 3106 01f7 0B       		.uleb128 0xb
 3107 01f8 3B       		.uleb128 0x3b
 3108 01f9 0B       		.uleb128 0xb
 3109 01fa 49       		.uleb128 0x49
 3110 01fb 13       		.uleb128 0x13
 3111 01fc 02       		.uleb128 0x2
ARM GAS  C:\Users\DNIEL~1\AppData\Local\Temp\cc72pSZU.s 			page 56


 3112 01fd 0A       		.uleb128 0xa
 3113 01fe 00       		.byte	0x0
 3114 01ff 00       		.byte	0x0
 3115 0200 27       		.uleb128 0x27
 3116 0201 34       		.uleb128 0x34
 3117 0202 00       		.byte	0x0
 3118 0203 03       		.uleb128 0x3
 3119 0204 0E       		.uleb128 0xe
 3120 0205 3A       		.uleb128 0x3a
 3121 0206 0B       		.uleb128 0xb
 3122 0207 3B       		.uleb128 0x3b
 3123 0208 0B       		.uleb128 0xb
 3124 0209 49       		.uleb128 0x49
 3125 020a 13       		.uleb128 0x13
 3126 020b 3F       		.uleb128 0x3f
 3127 020c 0C       		.uleb128 0xc
 3128 020d 02       		.uleb128 0x2
 3129 020e 0A       		.uleb128 0xa
 3130 020f 00       		.byte	0x0
 3131 0210 00       		.byte	0x0
 3132 0211 00       		.byte	0x0
 3133              		.section	.debug_pubnames,"",%progbits
 3134 0000 3C000000 		.4byte	0x3c
 3135 0004 0200     		.2byte	0x2
 3136 0006 00000000 		.4byte	.Ldebug_info0
 3137 000a EE0D0000 		.4byte	0xdee
 3138 000e 8B0C0000 		.4byte	0xc8b
 3139 0012 63616E5F 		.ascii	"can_commInit\000"
 3139      636F6D6D 
 3139      496E6974 
 3139      00
 3140 001f C90D0000 		.4byte	0xdc9
 3141 0023 63616E73 		.ascii	"canstate\000"
 3141      74617465 
 3141      00
 3142 002c DB0D0000 		.4byte	0xddb
 3143 0030 63616E4D 		.ascii	"canMessages\000"
 3143      65737361 
 3143      67657300 
 3144 003c 00000000 		.4byte	0x0
 3145              		.section	.debug_pubtypes,"",%progbits
 3146 0000 B2020000 		.4byte	0x2b2
 3147 0004 0200     		.2byte	0x2
 3148 0006 00000000 		.4byte	.Ldebug_info0
 3149 000a EE0D0000 		.4byte	0xdee
 3150 000e 83000000 		.4byte	0x83
 3151 0012 75696E74 		.ascii	"uint8_t\000"
 3151      385F7400 
 3152 001a 8E000000 		.4byte	0x8e
 3153 001e 75696E74 		.ascii	"uint16_t\000"
 3153      31365F74 
 3153      00
 3154 0027 99000000 		.4byte	0x99
 3155 002b 696E7433 		.ascii	"int32_t\000"
 3155      325F7400 
 3156 0033 A4000000 		.4byte	0xa4
 3157 0037 75696E74 		.ascii	"uint32_t\000"
ARM GAS  C:\Users\DNIEL~1\AppData\Local\Temp\cc72pSZU.s 			page 57


 3157      33325F74 
 3157      00
 3158 0040 AF000000 		.4byte	0xaf
 3159 0044 75696E74 		.ascii	"uint64_t\000"
 3159      36345F74 
 3159      00
 3160 004d BA000000 		.4byte	0xba
 3161 0051 626F6F6C 		.ascii	"bool_t\000"
 3161      5F7400
 3162 0058 CC000000 		.4byte	0xcc
 3163 005c 746D6F64 		.ascii	"tmode_t\000"
 3163      655F7400 
 3164 0064 D7000000 		.4byte	0xd7
 3165 0068 74737461 		.ascii	"tstate_t\000"
 3165      74655F74 
 3165      00
 3166 0071 E2000000 		.4byte	0xe2
 3167 0075 74726566 		.ascii	"trefs_t\000"
 3167      735F7400 
 3168 007d ED000000 		.4byte	0xed
 3169 0081 74736C69 		.ascii	"tslices_t\000"
 3169      6365735F 
 3169      7400
 3170 008b F8000000 		.4byte	0xf8
 3171 008f 74707269 		.ascii	"tprio_t\000"
 3171      6F5F7400 
 3172 0097 03010000 		.4byte	0x103
 3173 009b 6D73675F 		.ascii	"msg_t\000"
 3173      7400
 3174 00a1 0E010000 		.4byte	0x10e
 3175 00a5 6576656E 		.ascii	"eventmask_t\000"
 3175      746D6173 
 3175      6B5F7400 
 3176 00b1 19010000 		.4byte	0x119
 3177 00b5 666C6167 		.ascii	"flagsmask_t\000"
 3177      736D6173 
 3177      6B5F7400 
 3178 00c1 24010000 		.4byte	0x124
 3179 00c5 73797374 		.ascii	"systime_t\000"
 3179      696D655F 
 3179      7400
 3180 00cf 2F010000 		.4byte	0x12f
 3181 00d3 636E745F 		.ascii	"cnt_t\000"
 3181      7400
 3182 00d9 3A010000 		.4byte	0x13a
 3183 00dd 54687265 		.ascii	"Thread\000"
 3183      616400
 3184 00e4 95020000 		.4byte	0x295
 3185 00e8 54687265 		.ascii	"ThreadsQueue\000"
 3185      61647351 
 3185      75657565 
 3185      00
 3186 00f5 B7020000 		.4byte	0x2b7
 3187 00f9 54687265 		.ascii	"ThreadsList\000"
 3187      6164734C 
 3187      69737400 
 3188 0105 C2020000 		.4byte	0x2c2
ARM GAS  C:\Users\DNIEL~1\AppData\Local\Temp\cc72pSZU.s 			page 58


 3189 0109 72656761 		.ascii	"regarm_t\000"
 3189      726D5F74 
 3189      00
 3190 0112 CD020000 		.4byte	0x2cd
 3191 0116 73746B61 		.ascii	"stkalign_t\000"
 3191      6C69676E 
 3191      5F7400
 3192 0121 D8020000 		.4byte	0x2d8
 3193 0125 696E7463 		.ascii	"intctx\000"
 3193      747800
 3194 012c 66030000 		.4byte	0x366
 3195 0130 636F6E74 		.ascii	"context\000"
 3195      65787400 
 3196 0138 F0030000 		.4byte	0x3f0
 3197 013c 52656164 		.ascii	"ReadyList\000"
 3197      794C6973 
 3197      7400
 3198 0146 FB030000 		.4byte	0x3fb
 3199 014a 53656D61 		.ascii	"Semaphore\000"
 3199      70686F72 
 3199      6500
 3200 0154 24040000 		.4byte	0x424
 3201 0158 53656D61 		.ascii	"Semaphore\000"
 3201      70686F72 
 3201      6500
 3202 0162 2F040000 		.4byte	0x42f
 3203 0166 4D757465 		.ascii	"Mutex\000"
 3203      7800
 3204 016c 6C040000 		.4byte	0x46c
 3205 0170 4D757465 		.ascii	"Mutex\000"
 3205      7800
 3206 0176 77040000 		.4byte	0x477
 3207 017a 4576656E 		.ascii	"EventListener\000"
 3207      744C6973 
 3207      74656E65 
 3207      7200
 3208 0188 82040000 		.4byte	0x482
 3209 018c 4576656E 		.ascii	"EventListener\000"
 3209      744C6973 
 3209      74656E65 
 3209      7200
 3210 019a CD040000 		.4byte	0x4cd
 3211 019e 4576656E 		.ascii	"EventSource\000"
 3211      74536F75 
 3211      72636500 
 3212 01aa E8040000 		.4byte	0x4e8
 3213 01ae 4576656E 		.ascii	"EventSource\000"
 3213      74536F75 
 3213      72636500 
 3214 01ba 45010000 		.4byte	0x145
 3215 01be 54687265 		.ascii	"Thread\000"
 3215      616400
 3216 01c5 99050000 		.4byte	0x599
 3217 01c9 43414E5F 		.ascii	"CAN_TxMailBox_TypeDef\000"
 3217      54784D61 
 3217      696C426F 
 3217      785F5479 
ARM GAS  C:\Users\DNIEL~1\AppData\Local\Temp\cc72pSZU.s 			page 59


 3217      70654465 
 3218 01df EB050000 		.4byte	0x5eb
 3219 01e3 43414E5F 		.ascii	"CAN_FIFOMailBox_TypeDef\000"
 3219      4649464F 
 3219      4D61696C 
 3219      426F785F 
 3219      54797065 
 3220 01fb 1F060000 		.4byte	0x61f
 3221 01ff 43414E5F 		.ascii	"CAN_FilterRegister_TypeDef\000"
 3221      46696C74 
 3221      65725265 
 3221      67697374 
 3221      65725F54 
 3222 021a DD070000 		.4byte	0x7dd
 3223 021e 43414E5F 		.ascii	"CAN_TypeDef\000"
 3223      54797065 
 3223      44656600 
 3224 022a 5C080000 		.4byte	0x85c
 3225 022e 4750494F 		.ascii	"GPIO_TypeDef\000"
 3225      5F547970 
 3225      65446566 
 3225      00
 3226 023b 8F080000 		.4byte	0x88f
 3227 023f 63616E73 		.ascii	"canstate_t\000"
 3227      74617465 
 3227      5F7400
 3228 024a 88090000 		.4byte	0x988
 3229 024e 43414E54 		.ascii	"CANTxFrame\000"
 3229      78467261 
 3229      6D6500
 3230 0259 8E0A0000 		.4byte	0xa8e
 3231 025d 43414E52 		.ascii	"CANRxFrame\000"
 3231      78467261 
 3231      6D6500
 3232 0268 BF0A0000 		.4byte	0xabf
 3233 026c 43414E43 		.ascii	"CANConfig\000"
 3233      6F6E6669 
 3233      6700
 3234 0276 7C0B0000 		.4byte	0xb7c
 3235 027a 43414E44 		.ascii	"CANDriver\000"
 3235      72697665 
 3235      7200
 3236 0284 880B0000 		.4byte	0xb88
 3237 0288 6D656173 		.ascii	"measChannels\000"
 3237      4368616E 
 3237      6E656C73 
 3237      00
 3238 0295 B30B0000 		.4byte	0xbb3
 3239 0299 63616E53 		.ascii	"canState\000"
 3239      74617465 
 3239      00
 3240 02a2 EA0B0000 		.4byte	0xbea
 3241 02a6 63616E4D 		.ascii	"canMessages\000"
 3241      65737361 
 3241      67657300 
 3242 02b2 00000000 		.4byte	0x0
 3243              		.section	.debug_aranges,"",%progbits
ARM GAS  C:\Users\DNIEL~1\AppData\Local\Temp\cc72pSZU.s 			page 60


 3244 0000 2C000000 		.4byte	0x2c
 3245 0004 0200     		.2byte	0x2
 3246 0006 00000000 		.4byte	.Ldebug_info0
 3247 000a 04       		.byte	0x4
 3248 000b 00       		.byte	0x0
 3249 000c 0000     		.2byte	0x0
 3250 000e 0000     		.2byte	0x0
 3251 0010 00000000 		.4byte	.LFB57
 3252 0014 E0000000 		.4byte	.LFE57-.LFB57
 3253 0018 00000000 		.4byte	.LFB56
 3254 001c 4C010000 		.4byte	.LFE56-.LFB56
 3255 0020 00000000 		.4byte	.LFB58
 3256 0024 08010000 		.4byte	.LFE58-.LFB58
 3257 0028 00000000 		.4byte	0x0
 3258 002c 00000000 		.4byte	0x0
 3259              		.section	.debug_ranges,"",%progbits
 3260              	.Ldebug_ranges0:
 3261 0000 00000000 		.4byte	.LFB57
 3262 0004 E0000000 		.4byte	.LFE57
 3263 0008 00000000 		.4byte	.LFB56
 3264 000c 4C010000 		.4byte	.LFE56
 3265 0010 00000000 		.4byte	.LFB58
 3266 0014 08010000 		.4byte	.LFE58
 3267 0018 00000000 		.4byte	0x0
 3268 001c 00000000 		.4byte	0x0
 3269              		.section	.debug_str,"MS",%progbits,1
 3270              	.LASF156:
 3271 0000 72786D73 		.ascii	"rxmsg\000"
 3271      6700
 3272              	.LASF143:
 3273 0006 63616E4D 		.ascii	"canMessages\000"
 3273      65737361 
 3273      67657300 
 3274              	.LASF39:
 3275 0012 705F7469 		.ascii	"p_time\000"
 3275      6D6500
 3276              	.LASF160:
 3277 0019 72785F69 		.ascii	"rx_id\000"
 3277      6400
 3278              	.LASF74:
 3279 001f 7264796D 		.ascii	"rdymsg\000"
 3279      736700
 3280              	.LASF14:
 3281 0026 75696E74 		.ascii	"uint64_t\000"
 3281      36345F74 
 3281      00
 3282              	.LASF118:
 3283 002f 43414E43 		.ascii	"CANConfig\000"
 3283      6F6E6669 
 3283      6700
 3284              	.LASF102:
 3285 0039 43414E5F 		.ascii	"CAN_TypeDef\000"
 3285      54797065 
 3285      44656600 
 3286              	.LASF167:
 3287 0045 433A5C44 		.ascii	"C:\\Dani\\MegaLux\\Repo\\LuxControl\\LuxControl\\lu"
 3287      616E695C 
ARM GAS  C:\Users\DNIEL~1\AppData\Local\Temp\cc72pSZU.s 			page 61


 3287      4D656761 
 3287      4C75785C 
 3287      5265706F 
 3288 0072 78636F6E 		.ascii	"xcontrol\\firmware\000"
 3288      74726F6C 
 3288      5C666972 
 3288      6D776172 
 3288      6500
 3289              	.LASF6:
 3290 0084 6C6F6E67 		.ascii	"long long unsigned int\000"
 3290      206C6F6E 
 3290      6720756E 
 3290      7369676E 
 3290      65642069 
 3291              	.LASF162:
 3292 009b 73776974 		.ascii	"switch_on\000"
 3292      63685F6F 
 3292      6E00
 3293              	.LASF75:
 3294 00a5 65786974 		.ascii	"exitcode\000"
 3294      636F6465 
 3294      00
 3295              	.LASF114:
 3296 00ae 64617461 		.ascii	"data32\000"
 3296      333200
 3297              	.LASF30:
 3298 00b5 705F7072 		.ascii	"p_prio\000"
 3298      696F00
 3299              	.LASF169:
 3300 00bc 6469705F 		.ascii	"dip_name\000"
 3300      6E616D65 
 3300      00
 3301              	.LASF5:
 3302 00c5 6C6F6E67 		.ascii	"long long int\000"
 3302      206C6F6E 
 3302      6720696E 
 3302      7400
 3303              	.LASF1:
 3304 00d3 7369676E 		.ascii	"signed char\000"
 3304      65642063 
 3304      68617200 
 3305              	.LASF108:
 3306 00df 43414E5F 		.ascii	"CAN_STARTING\000"
 3306      53544152 
 3306      54494E47 
 3306      00
 3307              	.LASF103:
 3308 00ec 42535252 		.ascii	"BSRR\000"
 3308      00
 3309              	.LASF46:
 3310 00f1 705F6D70 		.ascii	"p_mpool\000"
 3310      6F6F6C00 
 3311              	.LASF15:
 3312 00f9 626F6F6C 		.ascii	"bool_t\000"
 3312      5F7400
 3313              	.LASF64:
 3314 0100 6D5F7175 		.ascii	"m_queue\000"
ARM GAS  C:\Users\DNIEL~1\AppData\Local\Temp\cc72pSZU.s 			page 62


 3314      65756500 
 3315              	.LASF121:
 3316 0108 74787365 		.ascii	"txsem\000"
 3316      6D00
 3317              	.LASF76:
 3318 010e 77746F62 		.ascii	"wtobjp\000"
 3318      6A7000
 3319              	.LASF20:
 3320 0115 74736C69 		.ascii	"tslices_t\000"
 3320      6365735F 
 3320      7400
 3321              	.LASF140:
 3322 011f 43414E5F 		.ascii	"CAN_LC\000"
 3322      4C4300
 3323              	.LASF119:
 3324 0126 73746174 		.ascii	"state\000"
 3324      6500
 3325              	.LASF79:
 3326 012c 54444C52 		.ascii	"TDLR\000"
 3326      00
 3327              	.LASF7:
 3328 0131 6C6F6E67 		.ascii	"long int\000"
 3328      20696E74 
 3328      00
 3329              	.LASF18:
 3330 013a 74737461 		.ascii	"tstate_t\000"
 3330      74655F74 
 3330      00
 3331              	.LASF81:
 3332 0143 43414E5F 		.ascii	"CAN_TxMailBox_TypeDef\000"
 3332      54784D61 
 3332      696C426F 
 3332      785F5479 
 3332      70654465 
 3333              	.LASF150:
 3334 0159 74785F73 		.ascii	"tx_status\000"
 3334      74617475 
 3334      7300
 3335              	.LASF37:
 3336 0163 705F7265 		.ascii	"p_refs\000"
 3336      667300
 3337              	.LASF161:
 3338 016a 6D657373 		.ascii	"messages\000"
 3338      61676573 
 3338      00
 3339              	.LASF11:
 3340 0173 75696E74 		.ascii	"uint16_t\000"
 3340      31365F74 
 3340      00
 3341              	.LASF116:
 3342 017c 54494D45 		.ascii	"TIME\000"
 3342      00
 3343              	.LASF32:
 3344 0181 705F6E65 		.ascii	"p_newer\000"
 3344      77657200 
 3345              	.LASF61:
 3346 0189 735F7175 		.ascii	"s_queue\000"
ARM GAS  C:\Users\DNIEL~1\AppData\Local\Temp\cc72pSZU.s 			page 63


 3346      65756500 
 3347              	.LASF142:
 3348 0191 43414E5F 		.ascii	"CAN_NUM_CH\000"
 3348      4E554D5F 
 3348      434800
 3349              	.LASF130:
 3350 019c 4D454153 		.ascii	"MEAS_V_OUT\000"
 3350      5F565F4F 
 3350      555400
 3351              	.LASF109:
 3352 01a7 43414E5F 		.ascii	"CAN_READY\000"
 3352      52454144 
 3352      5900
 3353              	.LASF87:
 3354 01b1 52463052 		.ascii	"RF0R\000"
 3354      00
 3355              	.LASF123:
 3356 01b6 72786675 		.ascii	"rxfull_event\000"
 3356      6C6C5F65 
 3356      76656E74 
 3356      00
 3357              	.LASF56:
 3358 01c3 725F6E65 		.ascii	"r_newer\000"
 3358      77657200 
 3359              	.LASF49:
 3360 01cb 72656761 		.ascii	"regarm_t\000"
 3360      726D5F74 
 3360      00
 3361              	.LASF159:
 3362 01d4 74785F69 		.ascii	"tx_id\000"
 3362      6400
 3363              	.LASF78:
 3364 01da 54445452 		.ascii	"TDTR\000"
 3364      00
 3365              	.LASF72:
 3366 01df 4576656E 		.ascii	"EventSource\000"
 3366      74536F75 
 3366      72636500 
 3367              	.LASF26:
 3368 01eb 636E745F 		.ascii	"cnt_t\000"
 3368      7400
 3369              	.LASF0:
 3370 01f1 756E7369 		.ascii	"unsigned int\000"
 3370      676E6564 
 3370      20696E74 
 3370      00
 3371              	.LASF154:
 3372 01fe 43414E44 		.ascii	"CAND1\000"
 3372      3100
 3373              	.LASF90:
 3374 0204 7354784D 		.ascii	"sTxMailBox\000"
 3374      61696C42 
 3374      6F7800
 3375              	.LASF41:
 3376 020f 705F6D73 		.ascii	"p_msgqueue\000"
 3376      67717565 
 3376      756500
ARM GAS  C:\Users\DNIEL~1\AppData\Local\Temp\cc72pSZU.s 			page 64


 3377              	.LASF105:
 3378 021a 4750494F 		.ascii	"GPIO_TypeDef\000"
 3378      5F547970 
 3378      65446566 
 3378      00
 3379              	.LASF82:
 3380 0227 52445452 		.ascii	"RDTR\000"
 3380      00
 3381              	.LASF115:
 3382 022c 43414E54 		.ascii	"CANTxFrame\000"
 3382      78467261 
 3382      6D6500
 3383              	.LASF104:
 3384 0237 4C434B52 		.ascii	"LCKR\000"
 3384      00
 3385              	.LASF99:
 3386 023c 46413152 		.ascii	"FA1R\000"
 3386      00
 3387              	.LASF62:
 3388 0241 735F636E 		.ascii	"s_cnt\000"
 3388      7400
 3389              	.LASF4:
 3390 0247 73686F72 		.ascii	"short unsigned int\000"
 3390      7420756E 
 3390      7369676E 
 3390      65642069 
 3390      6E7400
 3391              	.LASF88:
 3392 025a 52463152 		.ascii	"RF1R\000"
 3392      00
 3393              	.LASF136:
 3394 025f 43414E5F 		.ascii	"CAN_BMS\000"
 3394      424D5300 
 3395              	.LASF86:
 3396 0267 43414E5F 		.ascii	"CAN_FilterRegister_TypeDef\000"
 3396      46696C74 
 3396      65725265 
 3396      67697374 
 3396      65725F54 
 3397              	.LASF22:
 3398 0282 6D73675F 		.ascii	"msg_t\000"
 3398      7400
 3399              	.LASF68:
 3400 0288 656C5F6E 		.ascii	"el_next\000"
 3400      65787400 
 3401              	.LASF17:
 3402 0290 746D6F64 		.ascii	"tmode_t\000"
 3402      655F7400 
 3403              	.LASF48:
 3404 0298 54687265 		.ascii	"ThreadsList\000"
 3404      6164734C 
 3404      69737400 
 3405              	.LASF101:
 3406 02a4 7346696C 		.ascii	"sFilterRegister\000"
 3406      74657252 
 3406      65676973 
 3406      74657200 
ARM GAS  C:\Users\DNIEL~1\AppData\Local\Temp\cc72pSZU.s 			page 65


 3407              	.LASF23:
 3408 02b4 6576656E 		.ascii	"eventmask_t\000"
 3408      746D6173 
 3408      6B5F7400 
 3409              	.LASF63:
 3410 02c0 4D757465 		.ascii	"Mutex\000"
 3410      7800
 3411              	.LASF149:
 3412 02c6 63616E5F 		.ascii	"can_rx\000"
 3412      727800
 3413              	.LASF131:
 3414 02cd 4D454153 		.ascii	"MEAS_IN_CURR\000"
 3414      5F494E5F 
 3414      43555252 
 3414      00
 3415              	.LASF163:
 3416 02da 63616E5F 		.ascii	"can_rx_wa\000"
 3416      72785F77 
 3416      6100
 3417              	.LASF50:
 3418 02e4 73746B61 		.ascii	"stkalign_t\000"
 3418      6C69676E 
 3418      5F7400
 3419              	.LASF24:
 3420 02ef 666C6167 		.ascii	"flagsmask_t\000"
 3420      736D6173 
 3420      6B5F7400 
 3421              	.LASF144:
 3422 02fb 43414E5F 		.ascii	"CAN_MESSAGES_1\000"
 3422      4D455353 
 3422      41474553 
 3422      5F3100
 3423              	.LASF145:
 3424 030a 43414E5F 		.ascii	"CAN_MESSAGES_2\000"
 3424      4D455353 
 3424      41474553 
 3424      5F3200
 3425              	.LASF146:
 3426 0319 43414E5F 		.ascii	"CAN_MESSAGES_3\000"
 3426      4D455353 
 3426      41474553 
 3426      5F3300
 3427              	.LASF137:
 3428 0328 43414E5F 		.ascii	"CAN_SM\000"
 3428      534D00
 3429              	.LASF110:
 3430 032f 43414E5F 		.ascii	"CAN_SLEEP\000"
 3430      534C4545 
 3430      5000
 3431              	.LASF158:
 3432 0339 63616E63 		.ascii	"cancfg\000"
 3432      666700
 3433              	.LASF112:
 3434 0340 64617461 		.ascii	"data8\000"
 3434      3800
 3435              	.LASF128:
 3436 0346 43414E44 		.ascii	"CANDriver\000"
ARM GAS  C:\Users\DNIEL~1\AppData\Local\Temp\cc72pSZU.s 			page 66


 3436      72697665 
 3436      7200
 3437              	.LASF141:
 3438 0350 43414E5F 		.ascii	"CAN_WAIT\000"
 3438      57414954 
 3438      00
 3439              	.LASF33:
 3440 0359 705F6F6C 		.ascii	"p_older\000"
 3440      64657200 
 3441              	.LASF55:
 3442 0361 725F6374 		.ascii	"r_ctx\000"
 3442      7800
 3443              	.LASF117:
 3444 0367 43414E52 		.ascii	"CANRxFrame\000"
 3444      78467261 
 3444      6D6500
 3445              	.LASF47:
 3446 0372 54687265 		.ascii	"ThreadsQueue\000"
 3446      61647351 
 3446      75657565 
 3446      00
 3447              	.LASF80:
 3448 037f 54444852 		.ascii	"TDHR\000"
 3448      00
 3449              	.LASF58:
 3450 0384 725F6375 		.ascii	"r_current\000"
 3450      7272656E 
 3450      7400
 3451              	.LASF57:
 3452 038e 725F6F6C 		.ascii	"r_older\000"
 3452      64657200 
 3453              	.LASF70:
 3454 0396 656C5F6D 		.ascii	"el_mask\000"
 3454      61736B00 
 3455              	.LASF126:
 3456 039e 736C6565 		.ascii	"sleep_event\000"
 3456      705F6576 
 3456      656E7400 
 3457              	.LASF111:
 3458 03aa 63616E73 		.ascii	"canstate_t\000"
 3458      74617465 
 3458      5F7400
 3459              	.LASF107:
 3460 03b5 43414E5F 		.ascii	"CAN_STOP\000"
 3460      53544F50 
 3460      00
 3461              	.LASF97:
 3462 03be 46464131 		.ascii	"FFA1R\000"
 3462      5200
 3463              	.LASF133:
 3464 03c4 4D454153 		.ascii	"MEAS_NUM_CH\000"
 3464      5F4E554D 
 3464      5F434800 
 3465              	.LASF125:
 3466 03d0 6572726F 		.ascii	"error_event\000"
 3466      725F6576 
 3466      656E7400 
ARM GAS  C:\Users\DNIEL~1\AppData\Local\Temp\cc72pSZU.s 			page 67


 3467              	.LASF168:
 3468 03dc 63616E5F 		.ascii	"can_commInit\000"
 3468      636F6D6D 
 3468      496E6974 
 3468      00
 3469              	.LASF19:
 3470 03e9 74726566 		.ascii	"trefs_t\000"
 3470      735F7400 
 3471              	.LASF89:
 3472 03f1 52455345 		.ascii	"RESERVED0\000"
 3472      52564544 
 3472      3000
 3473              	.LASF92:
 3474 03fb 52455345 		.ascii	"RESERVED1\000"
 3474      52564544 
 3474      3100
 3475              	.LASF94:
 3476 0405 52455345 		.ascii	"RESERVED2\000"
 3476      52564544 
 3476      3200
 3477              	.LASF96:
 3478 040f 52455345 		.ascii	"RESERVED3\000"
 3478      52564544 
 3478      3300
 3479              	.LASF98:
 3480 0419 52455345 		.ascii	"RESERVED4\000"
 3480      52564544 
 3480      3400
 3481              	.LASF29:
 3482 0423 705F7072 		.ascii	"p_prev\000"
 3482      657600
 3483              	.LASF21:
 3484 042a 74707269 		.ascii	"tprio_t\000"
 3484      6F5F7400 
 3485              	.LASF106:
 3486 0432 43414E5F 		.ascii	"CAN_UNINIT\000"
 3486      554E494E 
 3486      495400
 3487              	.LASF16:
 3488 043d 5F426F6F 		.ascii	"_Bool\000"
 3488      6C00
 3489              	.LASF12:
 3490 0443 696E7433 		.ascii	"int32_t\000"
 3490      325F7400 
 3491              	.LASF2:
 3492 044b 756E7369 		.ascii	"unsigned char\000"
 3492      676E6564 
 3492      20636861 
 3492      7200
 3493              	.LASF134:
 3494 0459 6D656173 		.ascii	"measChannels\000"
 3494      4368616E 
 3494      6E656C73 
 3494      00
 3495              	.LASF127:
 3496 0466 77616B65 		.ascii	"wakeup_event\000"
 3496      75705F65 
ARM GAS  C:\Users\DNIEL~1\AppData\Local\Temp\cc72pSZU.s 			page 68


 3496      76656E74 
 3496      00
 3497              	.LASF69:
 3498 0473 656C5F6C 		.ascii	"el_listener\000"
 3498      69737465 
 3498      6E657200 
 3499              	.LASF153:
 3500 047f 49544D5F 		.ascii	"ITM_RxBuffer\000"
 3500      52784275 
 3500      66666572 
 3500      00
 3501              	.LASF71:
 3502 048c 656C5F66 		.ascii	"el_flags\000"
 3502      6C616773 
 3502      00
 3503              	.LASF44:
 3504 0495 705F6D74 		.ascii	"p_mtxlist\000"
 3504      786C6973 
 3504      7400
 3505              	.LASF3:
 3506 049f 73686F72 		.ascii	"short int\000"
 3506      7420696E 
 3506      7400
 3507              	.LASF35:
 3508 04a9 705F7374 		.ascii	"p_state\000"
 3508      61746500 
 3509              	.LASF38:
 3510 04b1 705F7072 		.ascii	"p_preempt\000"
 3510      65656D70 
 3510      7400
 3511              	.LASF132:
 3512 04bb 4D454153 		.ascii	"MEAS_OUT_CURR\000"
 3512      5F4F5554 
 3512      5F435552 
 3512      5200
 3513              	.LASF54:
 3514 04c9 725F7072 		.ascii	"r_prio\000"
 3514      696F00
 3515              	.LASF77:
 3516 04d0 65776D61 		.ascii	"ewmask\000"
 3516      736B00
 3517              	.LASF28:
 3518 04d7 705F6E65 		.ascii	"p_next\000"
 3518      787400
 3519              	.LASF36:
 3520 04de 705F666C 		.ascii	"p_flags\000"
 3520      61677300 
 3521              	.LASF93:
 3522 04e6 464D3152 		.ascii	"FM1R\000"
 3522      00
 3523              	.LASF27:
 3524 04eb 54687265 		.ascii	"Thread\000"
 3524      616400
 3525              	.LASF148:
 3526 04f2 63616E5F 		.ascii	"can_tx\000"
 3526      747800
 3527              	.LASF164:
ARM GAS  C:\Users\DNIEL~1\AppData\Local\Temp\cc72pSZU.s 			page 69


 3528 04f9 63616E5F 		.ascii	"can_tx_wa\000"
 3528      74785F77 
 3528      6100
 3529              	.LASF43:
 3530 0503 705F6570 		.ascii	"p_epending\000"
 3530      656E6469 
 3530      6E6700
 3531              	.LASF100:
 3532 050e 52455345 		.ascii	"RESERVED5\000"
 3532      52564544 
 3532      3500
 3533              	.LASF13:
 3534 0518 75696E74 		.ascii	"uint32_t\000"
 3534      33325F74 
 3534      00
 3535              	.LASF53:
 3536 0521 725F7175 		.ascii	"r_queue\000"
 3536      65756500 
 3537              	.LASF124:
 3538 0529 7478656D 		.ascii	"txempty_event\000"
 3538      7074795F 
 3538      6576656E 
 3538      7400
 3539              	.LASF8:
 3540 0537 6C6F6E67 		.ascii	"long unsigned int\000"
 3540      20756E73 
 3540      69676E65 
 3540      6420696E 
 3540      7400
 3541              	.LASF9:
 3542 0549 63686172 		.ascii	"char\000"
 3542      00
 3543              	.LASF120:
 3544 054e 636F6E66 		.ascii	"config\000"
 3544      696700
 3545              	.LASF84:
 3546 0555 52444852 		.ascii	"RDHR\000"
 3546      00
 3547              	.LASF155:
 3548 055a 63616E73 		.ascii	"canstate\000"
 3548      74617465 
 3548      00
 3549              	.LASF66:
 3550 0563 6D5F6E65 		.ascii	"m_next\000"
 3550      787400
 3551              	.LASF25:
 3552 056a 73797374 		.ascii	"systime_t\000"
 3552      696D655F 
 3552      7400
 3553              	.LASF45:
 3554 0574 705F7265 		.ascii	"p_realprio\000"
 3554      616C7072 
 3554      696F00
 3555              	.LASF91:
 3556 057f 73464946 		.ascii	"sFIFOMailBox\000"
 3556      4F4D6169 
 3556      6C426F78 
ARM GAS  C:\Users\DNIEL~1\AppData\Local\Temp\cc72pSZU.s 			page 70


 3556      00
 3557              	.LASF52:
 3558 058c 636F6E74 		.ascii	"context\000"
 3558      65787400 
 3559              	.LASF51:
 3560 0594 696E7463 		.ascii	"intctx\000"
 3560      747800
 3561              	.LASF138:
 3562 059b 43414E5F 		.ascii	"CAN_ML\000"
 3562      4D4C00
 3563              	.LASF166:
 3564 05a2 7372632F 		.ascii	"src/can_comm.c\000"
 3564      63616E5F 
 3564      636F6D6D 
 3564      2E6300
 3565              	.LASF60:
 3566 05b1 53656D61 		.ascii	"Semaphore\000"
 3566      70686F72 
 3566      6500
 3567              	.LASF157:
 3568 05bb 74786D73 		.ascii	"txmsg\000"
 3568      6700
 3569              	.LASF113:
 3570 05c1 64617461 		.ascii	"data16\000"
 3570      313600
 3571              	.LASF95:
 3572 05c8 46533152 		.ascii	"FS1R\000"
 3572      00
 3573              	.LASF73:
 3574 05cd 65735F6E 		.ascii	"es_next\000"
 3574      65787400 
 3575              	.LASF59:
 3576 05d5 52656164 		.ascii	"ReadyList\000"
 3576      794C6973 
 3576      7400
 3577              	.LASF85:
 3578 05df 43414E5F 		.ascii	"CAN_FIFOMailBox_TypeDef\000"
 3578      4649464F 
 3578      4D61696C 
 3578      426F785F 
 3578      54797065 
 3579              	.LASF152:
 3580 05f7 726C6973 		.ascii	"rlist\000"
 3580      7400
 3581              	.LASF10:
 3582 05fd 75696E74 		.ascii	"uint8_t\000"
 3582      385F7400 
 3583              	.LASF147:
 3584 0605 43414E5F 		.ascii	"CAN_NUM_MESS\000"
 3584      4E554D5F 
 3584      4D455353 
 3584      00
 3585              	.LASF122:
 3586 0612 72787365 		.ascii	"rxsem\000"
 3586      6D00
 3587              	.LASF151:
 3588 0618 63616E5F 		.ascii	"can_tx_msg\000"
ARM GAS  C:\Users\DNIEL~1\AppData\Local\Temp\cc72pSZU.s 			page 71


 3588      74785F6D 
 3588      736700
 3589              	.LASF139:
 3590 0623 43414E5F 		.ascii	"CAN_RPY\000"
 3590      52505900 
 3591              	.LASF67:
 3592 062b 4576656E 		.ascii	"EventListener\000"
 3592      744C6973 
 3592      74656E65 
 3592      7200
 3593              	.LASF135:
 3594 0639 63616E53 		.ascii	"canState\000"
 3594      74617465 
 3594      00
 3595              	.LASF165:
 3596 0642 474E5520 		.ascii	"GNU C 4.5.2\000"
 3596      4320342E 
 3596      352E3200 
 3597              	.LASF34:
 3598 064e 705F6E61 		.ascii	"p_name\000"
 3598      6D6500
 3599              	.LASF42:
 3600 0655 705F6D73 		.ascii	"p_msg\000"
 3600      6700
 3601              	.LASF83:
 3602 065b 52444C52 		.ascii	"RDLR\000"
 3602      00
 3603              	.LASF129:
 3604 0660 4D454153 		.ascii	"MEAS_NTC\000"
 3604      5F4E5443 
 3604      00
 3605              	.LASF65:
 3606 0669 6D5F6F77 		.ascii	"m_owner\000"
 3606      6E657200 
 3607              	.LASF31:
 3608 0671 705F6374 		.ascii	"p_ctx\000"
 3608      7800
 3609              	.LASF40:
 3610 0677 705F7761 		.ascii	"p_waiting\000"
 3610      6974696E 
 3610      6700
 3611              		.ident	"GCC: (Sourcery G++ Lite 2011.03-42) 4.5.2"
ARM GAS  C:\Users\DNIEL~1\AppData\Local\Temp\cc72pSZU.s 			page 72


DEFINED SYMBOLS
                            *ABS*:00000000 can_comm.c
C:\Users\DNIEL~1\AppData\Local\Temp\cc72pSZU.s:24     .text.can_tx:00000000 $t
C:\Users\DNIEL~1\AppData\Local\Temp\cc72pSZU.s:29     .text.can_tx:00000000 can_tx
C:\Users\DNIEL~1\AppData\Local\Temp\cc72pSZU.s:178    .text.can_tx:000000cc $d
C:\Users\DNIEL~1\AppData\Local\Temp\cc72pSZU.s:187    .text.can_rx:00000000 $t
C:\Users\DNIEL~1\AppData\Local\Temp\cc72pSZU.s:192    .text.can_rx:00000000 can_rx
C:\Users\DNIEL~1\AppData\Local\Temp\cc72pSZU.s:385    .text.can_rx:00000128 $d
C:\Users\DNIEL~1\AppData\Local\Temp\cc72pSZU.s:398    .text.can_commInit:00000000 $t
C:\Users\DNIEL~1\AppData\Local\Temp\cc72pSZU.s:404    .text.can_commInit:00000000 can_commInit
C:\Users\DNIEL~1\AppData\Local\Temp\cc72pSZU.s:546    .text.can_commInit:000000dc $d
C:\Users\DNIEL~1\AppData\Local\Temp\cc72pSZU.s:611    .bss.canstate:00000000 canstate
C:\Users\DNIEL~1\AppData\Local\Temp\cc72pSZU.s:599    .bss.canMessages:00000000 canMessages
C:\Users\DNIEL~1\AppData\Local\Temp\cc72pSZU.s:563    .bss.can_tx_wa:00000000 $d
C:\Users\DNIEL~1\AppData\Local\Temp\cc72pSZU.s:567    .bss.can_tx_wa:00000000 can_tx_wa
C:\Users\DNIEL~1\AppData\Local\Temp\cc72pSZU.s:570    .bss.rx_id:00000000 $d
C:\Users\DNIEL~1\AppData\Local\Temp\cc72pSZU.s:574    .bss.rx_id:00000000 rx_id
C:\Users\DNIEL~1\AppData\Local\Temp\cc72pSZU.s:577    .bss.txmsg:00000000 $d
C:\Users\DNIEL~1\AppData\Local\Temp\cc72pSZU.s:581    .bss.txmsg:00000000 txmsg
C:\Users\DNIEL~1\AppData\Local\Temp\cc72pSZU.s:584    .bss.can_rx_wa:00000000 $d
C:\Users\DNIEL~1\AppData\Local\Temp\cc72pSZU.s:588    .bss.can_rx_wa:00000000 can_rx_wa
C:\Users\DNIEL~1\AppData\Local\Temp\cc72pSZU.s:594    .bss.switch_on:00000000 switch_on
C:\Users\DNIEL~1\AppData\Local\Temp\cc72pSZU.s:595    .bss.switch_on:00000000 $d
C:\Users\DNIEL~1\AppData\Local\Temp\cc72pSZU.s:600    .bss.canMessages:00000000 $d
C:\Users\DNIEL~1\AppData\Local\Temp\cc72pSZU.s:602    .rodata.str1.4:00000000 $d
C:\Users\DNIEL~1\AppData\Local\Temp\cc72pSZU.s:612    .bss.canstate:00000000 $d
C:\Users\DNIEL~1\AppData\Local\Temp\cc72pSZU.s:614    .bss.messages:00000000 $d
C:\Users\DNIEL~1\AppData\Local\Temp\cc72pSZU.s:618    .bss.messages:00000000 messages
C:\Users\DNIEL~1\AppData\Local\Temp\cc72pSZU.s:621    .bss.rxmsg:00000000 $d
C:\Users\DNIEL~1\AppData\Local\Temp\cc72pSZU.s:625    .bss.rxmsg:00000000 rxmsg
C:\Users\DNIEL~1\AppData\Local\Temp\cc72pSZU.s:628    .bss.tx_id:00000000 $d
C:\Users\DNIEL~1\AppData\Local\Temp\cc72pSZU.s:632    .bss.tx_id:00000000 tx_id
C:\Users\DNIEL~1\AppData\Local\Temp\cc72pSZU.s:635    .rodata.cancfg:00000000 $d
C:\Users\DNIEL~1\AppData\Local\Temp\cc72pSZU.s:639    .rodata.cancfg:00000000 cancfg
                     .debug_frame:00000010 $d
C:\Users\DNIEL~1\AppData\Local\Temp\cc72pSZU.s:397    .text.can_rx:0000014c $t
C:\Users\DNIEL~1\AppData\Local\Temp\cc72pSZU.s:562    .text.can_commInit:00000108 $t

UNDEFINED SYMBOLS
_port_lock
measGetValue
SPV1020VIN
_port_unlock
canTransmit
chThdSleep
SPV1020STATUS
SPV1020PWM
SPV1020CURR_IN
rlist
CAND1
chEvtRegisterMask
chEvtWaitAnyTimeout
canReceive
SPV1020SHUT_DOWN
chEvtUnregister
canStart
chThdCreateStatic
ARM GAS  C:\Users\DNIEL~1\AppData\Local\Temp\cc72pSZU.s 			page 73


