ARM GAS  C:\Users\DNIEL~1\AppData\Local\Temp\ccITf261.s 			page 1


   1              		.syntax unified
   2              		.cpu cortex-m3
   3              		.fpu softvfp
   4              		.eabi_attribute 20, 1
   5              		.eabi_attribute 21, 1
   6              		.eabi_attribute 23, 3
   7              		.eabi_attribute 24, 1
   8              		.eabi_attribute 25, 1
   9              		.eabi_attribute 26, 1
  10              		.eabi_attribute 30, 2
  11              		.eabi_attribute 18, 4
  12              		.thumb
  13              		.file	"can_comm.c"
  14              		.section	.debug_abbrev,"",%progbits
  15              	.Ldebug_abbrev0:
  16              		.section	.debug_info,"",%progbits
  17              	.Ldebug_info0:
  18              		.section	.debug_line,"",%progbits
  19              	.Ldebug_line0:
  20 0000 25030000 		.text
  20      02008802 
  20      00000201 
  20      FB0E0D00 
  20      01010101 
  21              	.Ltext0:
  22              		.cfi_sections	.debug_frame
  23              		.section	.text.can_rx,"ax",%progbits
  24              		.align	2
  25              		.p2align 4,,15
  26              		.thumb
  27              		.thumb_func
  28              		.type	can_rx, %function
  29              	can_rx:
  30              	.LFB56:
  31              		.file 1 "src/can_comm.c"
  32              		.loc 1 70 0
  33              		.cfi_startproc
  34              		@ args = 0, pretend = 0, frame = 16
  35              		@ frame_needed = 0, uses_anonymous_args = 0
  36              	.LVL0:
  37 0000 2DE9F043 		push	{r4, r5, r6, r7, r8, r9, lr}
  38              	.LCFI0:
  39              		.cfi_def_cfa_offset 28
  40              		.loc 1 75 0
  41 0004 DFF8C880 		ldr	r8, .L15+28
  42              		.cfi_offset 14, -4
  43              		.cfi_offset 9, -8
  44              		.cfi_offset 8, -12
  45              		.cfi_offset 7, -16
  46              		.cfi_offset 6, -20
  47              		.cfi_offset 5, -24
  48              		.cfi_offset 4, -28
  49 0008 2A4A     		ldr	r2, .L15
  50 000a D8F81830 		ldr	r3, [r8, #24]
  51              		.loc 1 70 0
  52 000e 85B0     		sub	sp, sp, #20
  53              	.LCFI1:
ARM GAS  C:\Users\DNIEL~1\AppData\Local\Temp\ccITf261.s 			page 2


  54              		.cfi_def_cfa_offset 48
  55              		.loc 1 75 0
  56 0010 9A61     		str	r2, [r3, #24]
  57              		.loc 1 76 0
  58 0012 2948     		ldr	r0, .L15+4
  59              	.LVL1:
  60 0014 6946     		mov	r1, sp
  61 0016 0122     		movs	r2, #1
  62 0018 FFF7FEFF 		bl	chEvtRegisterMask
  63              		.loc 1 80 0
  64 001c 274D     		ldr	r5, .L15+8
  65              		.loc 1 82 0
  66 001e 284E     		ldr	r6, .L15+12
  67              		.loc 1 123 0
  68 0020 284F     		ldr	r7, .L15+16
  69 0022 DFF8B090 		ldr	r9, .L15+32
  70              	.LVL2:
  71              	.L11:
  72              		.loc 1 77 0 discriminator 1
  73 0026 D8F81810 		ldr	r1, [r8, #24]
  74 002a 91F81DC0 		ldrb	ip, [r1, #29]	@ zero_extendqisi2
  75 002e 1CF0040F 		tst	ip, #4
  76 0032 37D1     		bne	.L14
  77              		.loc 1 78 0
  78 0034 4FF0FF30 		mov	r0, #-1
  79 0038 6421     		movs	r1, #100
  80 003a FFF7FEFF 		bl	chEvtWaitAnyTimeout
  81 003e 0028     		cmp	r0, #0
  82 0040 F1D0     		beq	.L11
  83              	.L12:
  84              		.loc 1 80 0 discriminator 1
  85 0042 0021     		movs	r1, #0
  86 0044 0B46     		mov	r3, r1
  87 0046 1D4A     		ldr	r2, .L15+8
  88 0048 1F48     		ldr	r0, .L15+20
  89 004a FFF7FEFF 		bl	canReceive
  90 004e 0446     		mov	r4, r0
  91 0050 0028     		cmp	r0, #0
  92 0052 E8D1     		bne	.L11
  93              		.loc 1 82 0
  94 0054 A968     		ldr	r1, [r5, #8]
  95 0056 C1F31C00 		ubfx	r0, r1, #0, #29
  96 005a B042     		cmp	r0, r6
  97 005c F1D1     		bne	.L12
  98              		.loc 1 123 0
  99 005e B9F80000 		ldrh	r0, [r9, #0]
 100 0062 7968     		ldr	r1, [r7, #4]
 101 0064 0202     		lsls	r2, r0, #8
 102 0066 531C     		adds	r3, r2, #1
 103 0068 63F31C01 		bfi	r1, r3, #0, #29
 104 006c 7960     		str	r1, [r7, #4]
 105              		.loc 1 125 0
 106 006e 0220     		movs	r0, #2
 107 0070 FFF7FEFF 		bl	measGetValue
 108 0074 B860     		str	r0, [r7, #8]
 109              		.loc 1 126 0
 110 0076 0320     		movs	r0, #3
ARM GAS  C:\Users\DNIEL~1\AppData\Local\Temp\ccITf261.s 			page 3


 111 0078 FFF7FEFF 		bl	measGetValue
 112              		.loc 1 129 0
 113 007c 2146     		mov	r1, r4
 114              		.loc 1 126 0
 115 007e F860     		str	r0, [r7, #12]
 116              		.loc 1 129 0
 117 0080 6423     		movs	r3, #100
 118 0082 104A     		ldr	r2, .L15+16
 119 0084 1048     		ldr	r0, .L15+20
 120 0086 FFF7FEFF 		bl	canTransmit
 121              		.loc 1 131 0
 122 008a 104B     		ldr	r3, .L15+24
 123              		.loc 1 130 0
 124 008c AA68     		ldr	r2, [r5, #8]
 125              		.loc 1 131 0
 126 008e D868     		ldr	r0, [r3, #12]
 127              		.loc 1 130 0
 128 0090 64F31C02 		bfi	r2, r4, #0, #29
 129              		.loc 1 131 0
 130 0094 80F00204 		eor	r4, r0, #2
 131              		.loc 1 130 0
 132 0098 AA60     		str	r2, [r5, #8]
 133              		.loc 1 133 0
 134 009a C820     		movs	r0, #200
 135              		.loc 1 131 0
 136 009c DC60     		str	r4, [r3, #12]
 137              		.loc 1 133 0
 138 009e FFF7FEFF 		bl	chThdSleep
 139 00a2 CEE7     		b	.L12
 140              	.L14:
 141              		.loc 1 140 0
 142 00a4 0448     		ldr	r0, .L15+4
 143 00a6 6946     		mov	r1, sp
 144 00a8 FFF7FEFF 		bl	chEvtUnregister
 145              		.loc 1 142 0
 146 00ac 0020     		movs	r0, #0
 147 00ae 05B0     		add	sp, sp, #20
 148 00b0 BDE8F083 		pop	{r4, r5, r6, r7, r8, r9, pc}
 149              	.L16:
 150              		.align	2
 151              	.L15:
 152 00b4 00000000 		.word	.LC0
 153 00b8 20000000 		.word	CAND1+32
 154 00bc 00000000 		.word	.LANCHOR0
 155 00c0 67452301 		.word	19088743
 156 00c4 00000000 		.word	.LANCHOR1
 157 00c8 00000000 		.word	CAND1
 158 00cc 00080140 		.word	1073809408
 159 00d0 00000000 		.word	rlist
 160 00d4 00000000 		.word	.LANCHOR2
 161              		.cfi_endproc
 162              	.LFE56:
 163              		.size	can_rx, .-can_rx
 164 00d8 AFF30080 		.section	.text.can_commInit,"ax",%progbits
 164      AFF30080 
 165              		.align	2
 166              		.p2align 4,,15
ARM GAS  C:\Users\DNIEL~1\AppData\Local\Temp\ccITf261.s 			page 4


 167              		.global	can_commInit
 168              		.thumb
 169              		.thumb_func
 170              		.type	can_commInit, %function
 171              	can_commInit:
 172              	.LFB58:
 173              		.loc 1 166 0
 174              		.cfi_startproc
 175              		@ args = 0, pretend = 0, frame = 0
 176              		@ frame_needed = 0, uses_anonymous_args = 0
 177 0000 30B5     		push	{r4, r5, lr}
 178              	.LCFI2:
 179              		.cfi_def_cfa_offset 12
 180              		.loc 1 171 0
 181 0002 2C4D     		ldr	r5, .L28
 182              		.cfi_offset 14, -4
 183              		.cfi_offset 5, -8
 184              		.cfi_offset 4, -12
 185              		.loc 1 176 0
 186 0004 2C48     		ldr	r0, .L28+4
 187              		.loc 1 171 0
 188 0006 A968     		ldr	r1, [r5, #8]
 189              		.loc 1 172 0
 190 0008 AA68     		ldr	r2, [r5, #8]
 191              		.loc 1 171 0
 192 000a 11F0800F 		tst	r1, #128
 193              		.loc 1 173 0
 194 000e AB68     		ldr	r3, [r5, #8]
 195              		.loc 1 171 0
 196 0010 14BF     		ite	ne
 197 0012 4024     		movne	r4, #64
 198 0014 4124     		moveq	r4, #65
 199              		.loc 1 174 0
 200 0016 A968     		ldr	r1, [r5, #8]
 201              		.loc 1 172 0
 202 0018 12F0400F 		tst	r2, #64
 203 001c 14BF     		ite	ne
 204 001e 4FF0000C 		movne	ip, #0
 205 0022 4FF0020C 		moveq	ip, #2
 206              		.loc 1 173 0
 207 0026 13F0200F 		tst	r3, #32
 208              		.loc 1 175 0
 209 002a AD68     		ldr	r5, [r5, #8]
 210              		.loc 1 172 0
 211 002c 04EB0C0E 		add	lr, r4, ip
 212              		.loc 1 173 0
 213 0030 14BF     		ite	ne
 214 0032 0022     		movne	r2, #0
 215 0034 0422     		moveq	r2, #4
 216              		.loc 1 176 0
 217 0036 8468     		ldr	r4, [r0, #8]
 218              		.loc 1 174 0
 219 0038 11F0100F 		tst	r1, #16
 220              		.loc 1 168 0
 221 003c 1F4B     		ldr	r3, .L28+8
 222              		.loc 1 173 0
 223 003e 0EEB0200 		add	r0, lr, r2
ARM GAS  C:\Users\DNIEL~1\AppData\Local\Temp\ccITf261.s 			page 5


 224              		.loc 1 174 0
 225 0042 14BF     		ite	ne
 226 0044 4FF0000C 		movne	ip, #0
 227 0048 4FF0080C 		moveq	ip, #8
 228 004c 00EB0C01 		add	r1, r0, ip
 229              		.loc 1 176 0
 230 0050 14F4807F 		tst	r4, #256
 231              		.loc 1 175 0
 232 0054 C5F3C004 		ubfx	r4, r5, #3, #1
 233              		.loc 1 181 0
 234 0058 93F800E0 		ldrb	lr, [r3, #0]	@ zero_extendqisi2
 235              		.loc 1 175 0
 236 005c 01EB0415 		add	r5, r1, r4, lsl #4
 237              		.loc 1 168 0
 238 0060 5C68     		ldr	r4, [r3, #4]
 239              		.loc 1 176 0
 240 0062 14BF     		ite	ne
 241 0064 0022     		movne	r2, #0
 242 0066 2022     		moveq	r2, #32
 243              		.loc 1 168 0
 244 0068 4020     		movs	r0, #64
 245              		.loc 1 182 0
 246 006a 4EF0200C 		orr	ip, lr, #32
 247              		.loc 1 168 0
 248 006e 60F31C04 		bfi	r4, r0, #0, #29
 249              		.loc 1 178 0
 250 0072 AD18     		adds	r5, r5, r2
 251              		.loc 1 168 0
 252 0074 5C60     		str	r4, [r3, #4]
 253              		.loc 1 183 0
 254 0076 0CF0EF02 		and	r2, ip, #239
 255 007a 0821     		movs	r1, #8
 256              		.loc 1 179 0
 257 007c 402D     		cmp	r5, #64
 258 007e 38BF     		it	cc
 259 0080 4025     		movcc	r5, #64
 260 0082 0F4C     		ldr	r4, .L28+12
 261              		.loc 1 183 0
 262 0084 61F30302 		bfi	r2, r1, #0, #4
 263              		.loc 1 179 0
 264 0088 5F2D     		cmp	r5, #95
 265 008a 28BF     		it	cs
 266 008c 5F25     		movcs	r5, #95
 267 008e 2580     		strh	r5, [r4, #0]	@ movhi
 268              		.loc 1 166 0
 269 0090 83B0     		sub	sp, sp, #12
 270              	.LCFI3:
 271              		.cfi_def_cfa_offset 24
 272              		.loc 1 183 0
 273 0092 1A70     		strb	r2, [r3, #0]
 274              		.loc 1 185 0
 275 0094 0B48     		ldr	r0, .L28+16
 276 0096 0C49     		ldr	r1, .L28+20
 277 0098 FFF7FEFF 		bl	canStart
 278              		.loc 1 187 0
 279 009c 0024     		movs	r4, #0
 280 009e 4FF4E871 		mov	r1, #464
ARM GAS  C:\Users\DNIEL~1\AppData\Local\Temp\ccITf261.s 			page 6


 281 00a2 4722     		movs	r2, #71
 282 00a4 094B     		ldr	r3, .L28+24
 283 00a6 0A48     		ldr	r0, .L28+28
 284 00a8 0094     		str	r4, [sp, #0]
 285 00aa FFF7FEFF 		bl	chThdCreateStatic
 286              		.loc 1 189 0
 287 00ae 03B0     		add	sp, sp, #12
 288 00b0 30BD     		pop	{r4, r5, pc}
 289              	.L29:
 290 00b2 00BF     		.align	2
 291              	.L28:
 292 00b4 000C0140 		.word	1073810432
 293 00b8 00080140 		.word	1073809408
 294 00bc 00000000 		.word	.LANCHOR1
 295 00c0 00000000 		.word	.LANCHOR2
 296 00c4 00000000 		.word	CAND1
 297 00c8 00000000 		.word	.LANCHOR3
 298 00cc 00000000 		.word	can_rx
 299 00d0 00000000 		.word	.LANCHOR4
 300              		.cfi_endproc
 301              	.LFE58:
 302              		.size	can_commInit, .-can_commInit
 303 00d4 AFF30080 		.section	.text.can_commCalc,"ax",%progbits
 303      AFF30080 
 303      AFF30080 
 304              		.align	2
 305              		.p2align 4,,15
 306              		.global	can_commCalc
 307              		.thumb
 308              		.thumb_func
 309              		.type	can_commCalc, %function
 310              	can_commCalc:
 311              	.LFB59:
 312              		.loc 1 191 0
 313              		.cfi_startproc
 314              		@ args = 0, pretend = 0, frame = 0
 315              		@ frame_needed = 0, uses_anonymous_args = 0
 316              		@ link register save eliminated.
 317              		.loc 1 192 0
 318 0000 7047     		bx	lr
 319              		.cfi_endproc
 320              	.LFE59:
 321              		.size	can_commCalc, .-can_commCalc
 322              		.global	canComands
 323              		.global	canRxEID
 324 0002 00BFAFF3 		.section	.bss.id,"aw",%nobits
 324      0080AFF3 
 324      0080AFF3 
 324      0080
 325              		.align	1
 326              		.set	.LANCHOR2,. + 0
 327              		.type	id, %object
 328              		.size	id, 2
 329              	id:
 330 0000 0000     		.space	2
 331              		.section	.bss.txmsg,"aw",%nobits
 332              		.align	2
ARM GAS  C:\Users\DNIEL~1\AppData\Local\Temp\ccITf261.s 			page 7


 333              		.set	.LANCHOR1,. + 0
 334              		.type	txmsg, %object
 335              		.size	txmsg, 16
 336              	txmsg:
 337 0000 00000000 		.space	16
 337      00000000 
 337      00000000 
 337      00000000 
 338              		.section	.bss.can_rx_wa,"aw",%nobits
 339              		.align	3
 340              		.set	.LANCHOR4,. + 0
 341              		.type	can_rx_wa, %object
 342              		.size	can_rx_wa, 464
 343              	can_rx_wa:
 344 0000 00000000 		.space	464
 344      00000000 
 344      00000000 
 344      00000000 
 344      00000000 
 345              		.section	.bss.canComands,"aw",%nobits
 346              		.align	2
 347              		.type	canComands, %object
 348              		.size	canComands, 4
 349              	canComands:
 350 0000 00000000 		.space	4
 351              		.section	.rodata.str1.4,"aMS",%progbits,1
 352              		.align	2
 353              	.LC0:
 354 0000 72656365 		.ascii	"receiver\000"
 354      69766572 
 354      00
 355 0009 000000   		.section	.bss.rxmsg,"aw",%nobits
 356              		.align	2
 357              		.set	.LANCHOR0,. + 0
 358              		.type	rxmsg, %object
 359              		.size	rxmsg, 20
 360              	rxmsg:
 361 0000 00000000 		.space	20
 361      00000000 
 361      00000000 
 361      00000000 
 361      00000000 
 362              		.section	.rodata.cancfg,"a",%progbits
 363              		.align	2
 364              		.set	.LANCHOR3,. + 0
 365              		.type	cancfg, %object
 366              		.size	cancfg, 8
 367              	cancfg:
 368 0000 40000000 		.word	64
 369 0004 05001800 		.word	1572869
 370              		.section	.bss.canRxEID,"aw",%nobits
 371              		.align	2
 372              		.type	canRxEID, %object
 373              		.size	canRxEID, 4
 374              	canRxEID:
 375 0000 00000000 		.space	4
 376              		.text
ARM GAS  C:\Users\DNIEL~1\AppData\Local\Temp\ccITf261.s 			page 8


 377              	.Letext0:
 378              		.section	.debug_loc,"",%progbits
 379              	.Ldebug_loc0:
 380              	.LLST0:
 381 0000 00000000 		.4byte	.LFB56
 382 0004 04000000 		.4byte	.LCFI0
 383 0008 0200     		.2byte	0x2
 384 000a 7D       		.byte	0x7d
 385 000b 00       		.sleb128 0
 386 000c 04000000 		.4byte	.LCFI0
 387 0010 10000000 		.4byte	.LCFI1
 388 0014 0200     		.2byte	0x2
 389 0016 7D       		.byte	0x7d
 390 0017 1C       		.sleb128 28
 391 0018 10000000 		.4byte	.LCFI1
 392 001c D8000000 		.4byte	.LFE56
 393 0020 0200     		.2byte	0x2
 394 0022 7D       		.byte	0x7d
 395 0023 30       		.sleb128 48
 396 0024 00000000 		.4byte	0x0
 397 0028 00000000 		.4byte	0x0
 398              	.LLST1:
 399 002c 00000000 		.4byte	.LVL0
 400 0030 14000000 		.4byte	.LVL1
 401 0034 0100     		.2byte	0x1
 402 0036 50       		.byte	0x50
 403 0037 00000000 		.4byte	0x0
 404 003b 00000000 		.4byte	0x0
 405              	.LLST2:
 406 003f 00000000 		.4byte	.LVL0
 407 0043 26000000 		.4byte	.LVL2
 408 0047 0200     		.2byte	0x2
 409 0049 30       		.byte	0x30
 410 004a 9F       		.byte	0x9f
 411 004b 00000000 		.4byte	0x0
 412 004f 00000000 		.4byte	0x0
 413              	.LLST3:
 414 0053 00000000 		.4byte	.LFB58
 415 0057 02000000 		.4byte	.LCFI2
 416 005b 0200     		.2byte	0x2
 417 005d 7D       		.byte	0x7d
 418 005e 00       		.sleb128 0
 419 005f 02000000 		.4byte	.LCFI2
 420 0063 92000000 		.4byte	.LCFI3
 421 0067 0200     		.2byte	0x2
 422 0069 7D       		.byte	0x7d
 423 006a 0C       		.sleb128 12
 424 006b 92000000 		.4byte	.LCFI3
 425 006f D4000000 		.4byte	.LFE58
 426 0073 0200     		.2byte	0x2
 427 0075 7D       		.byte	0x7d
 428 0076 18       		.sleb128 24
 429 0077 00000000 		.4byte	0x0
 430 007b 00000000 		.4byte	0x0
 431              		.file 2 "c:\\program files (x86)\\codesourcery\\sourcery g++ lite\\bin\\../lib/gcc/arm-none-eabi/4
 432              		.file 3 "../../../ChibiOS/os/ports/GCC/ARMCMx/chtypes.h"
 433              		.file 4 "../../../ChibiOS/os/kernel/include/chlists.h"
ARM GAS  C:\Users\DNIEL~1\AppData\Local\Temp\ccITf261.s 			page 9


 434              		.file 5 "../../../ChibiOS/os/kernel/include/chthreads.h"
 435              		.file 6 "../../../ChibiOS/os/ports/GCC/ARMCMx/chcore_v7m.h"
 436              		.file 7 "../../../ChibiOS/os/kernel/include/chschd.h"
 437              		.file 8 "../../../ChibiOS/os/kernel/include/chsem.h"
 438              		.file 9 "../../../ChibiOS/os/kernel/include/chmtx.h"
 439              		.file 10 "../../../ChibiOS/os/kernel/include/chevents.h"
 440              		.file 11 "../../../ChibiOS/os/hal/platforms/STM32F1xx/stm32f10x.h"
 441              		.file 12 "../../../ChibiOS/os/hal/platforms/STM32/GPIOv1/pal_lld.h"
 442              		.file 13 "../../../ChibiOS/os/hal/include/can.h"
 443              		.file 14 "../../../ChibiOS/os/hal/platforms/STM32/can_lld.h"
 444              		.file 15 "include/meas.h"
 445              		.file 16 "../../../ChibiOS/os/ports/common/ARMCMx/CMSIS/include/core_cm3.h"
 446              		.section	.debug_info
 447 0000 430D0000 		.4byte	0xd43
 448 0004 0200     		.2byte	0x2
 449 0006 00000000 		.4byte	.Ldebug_abbrev0
 450 000a 04       		.byte	0x4
 451 000b 01       		.uleb128 0x1
 452 000c B1050000 		.4byte	.LASF151
 453 0010 01       		.byte	0x1
 454 0011 28050000 		.4byte	.LASF152
 455 0015 3E000000 		.4byte	.LASF153
 456 0019 00000000 		.4byte	0x0
 457 001d 00000000 		.4byte	0x0
 458 0021 00000000 		.4byte	.Ldebug_ranges0+0x0
 459 0025 00000000 		.4byte	.Ldebug_line0
 460 0029 02       		.uleb128 0x2
 461 002a 04       		.byte	0x4
 462 002b 07       		.byte	0x7
 463 002c B4010000 		.4byte	.LASF0
 464 0030 02       		.uleb128 0x2
 465 0031 01       		.byte	0x1
 466 0032 06       		.byte	0x6
 467 0033 C2000000 		.4byte	.LASF1
 468 0037 02       		.uleb128 0x2
 469 0038 01       		.byte	0x1
 470 0039 08       		.byte	0x8
 471 003a CB030000 		.4byte	.LASF2
 472 003e 02       		.uleb128 0x2
 473 003f 02       		.byte	0x2
 474 0040 05       		.byte	0x5
 475 0041 1F040000 		.4byte	.LASF3
 476 0045 02       		.uleb128 0x2
 477 0046 02       		.byte	0x2
 478 0047 07       		.byte	0x7
 479 0048 05020000 		.4byte	.LASF4
 480 004c 03       		.uleb128 0x3
 481 004d 04       		.byte	0x4
 482 004e 05       		.byte	0x5
 483 004f 696E7400 		.ascii	"int\000"
 484 0053 02       		.uleb128 0x2
 485 0054 08       		.byte	0x8
 486 0055 05       		.byte	0x5
 487 0056 B4000000 		.4byte	.LASF5
 488 005a 02       		.uleb128 0x2
 489 005b 08       		.byte	0x8
 490 005c 07       		.byte	0x7
ARM GAS  C:\Users\DNIEL~1\AppData\Local\Temp\ccITf261.s 			page 10


 491 005d 7D000000 		.4byte	.LASF6
 492 0061 02       		.uleb128 0x2
 493 0062 04       		.byte	0x4
 494 0063 05       		.byte	0x5
 495 0064 18010000 		.4byte	.LASF7
 496 0068 04       		.uleb128 0x4
 497 0069 04       		.byte	0x4
 498 006a 02       		.uleb128 0x2
 499 006b 04       		.byte	0x4
 500 006c 07       		.byte	0x7
 501 006d C4040000 		.4byte	.LASF8
 502 0071 02       		.uleb128 0x2
 503 0072 01       		.byte	0x1
 504 0073 08       		.byte	0x8
 505 0074 D6040000 		.4byte	.LASF9
 506 0078 05       		.uleb128 0x5
 507 0079 04       		.byte	0x4
 508 007a 7E000000 		.4byte	0x7e
 509 007e 06       		.uleb128 0x6
 510 007f 71000000 		.4byte	0x71
 511 0083 07       		.uleb128 0x7
 512 0084 83050000 		.4byte	.LASF10
 513 0088 02       		.byte	0x2
 514 0089 2A       		.byte	0x2a
 515 008a 37000000 		.4byte	0x37
 516 008e 07       		.uleb128 0x7
 517 008f 47010000 		.4byte	.LASF11
 518 0093 02       		.byte	0x2
 519 0094 36       		.byte	0x36
 520 0095 45000000 		.4byte	0x45
 521 0099 07       		.uleb128 0x7
 522 009a C3030000 		.4byte	.LASF12
 523 009e 02       		.byte	0x2
 524 009f 4F       		.byte	0x4f
 525 00a0 61000000 		.4byte	0x61
 526 00a4 07       		.uleb128 0x7
 527 00a5 A5040000 		.4byte	.LASF13
 528 00a9 02       		.byte	0x2
 529 00aa 50       		.byte	0x50
 530 00ab 6A000000 		.4byte	0x6a
 531 00af 07       		.uleb128 0x7
 532 00b0 1F000000 		.4byte	.LASF14
 533 00b4 02       		.byte	0x2
 534 00b5 78       		.byte	0x78
 535 00b6 5A000000 		.4byte	0x5a
 536 00ba 02       		.uleb128 0x2
 537 00bb 01       		.byte	0x1
 538 00bc 02       		.byte	0x2
 539 00bd BD030000 		.4byte	.LASF15
 540 00c1 07       		.uleb128 0x7
 541 00c2 46020000 		.4byte	.LASF16
 542 00c6 03       		.byte	0x3
 543 00c7 2C       		.byte	0x2c
 544 00c8 83000000 		.4byte	0x83
 545 00cc 07       		.uleb128 0x7
 546 00cd 21010000 		.4byte	.LASF17
 547 00d1 03       		.byte	0x3
ARM GAS  C:\Users\DNIEL~1\AppData\Local\Temp\ccITf261.s 			page 11


 548 00d2 2D       		.byte	0x2d
 549 00d3 83000000 		.4byte	0x83
 550 00d7 07       		.uleb128 0x7
 551 00d8 69030000 		.4byte	.LASF18
 552 00dc 03       		.byte	0x3
 553 00dd 2E       		.byte	0x2e
 554 00de 83000000 		.4byte	0x83
 555 00e2 07       		.uleb128 0x7
 556 00e3 03010000 		.4byte	.LASF19
 557 00e7 03       		.byte	0x3
 558 00e8 2F       		.byte	0x2f
 559 00e9 83000000 		.4byte	0x83
 560 00ed 07       		.uleb128 0x7
 561 00ee AA030000 		.4byte	.LASF20
 562 00f2 03       		.byte	0x3
 563 00f3 30       		.byte	0x30
 564 00f4 A4000000 		.4byte	0xa4
 565 00f8 07       		.uleb128 0x7
 566 00f9 38020000 		.4byte	.LASF21
 567 00fd 03       		.byte	0x3
 568 00fe 31       		.byte	0x31
 569 00ff 99000000 		.4byte	0x99
 570 0103 07       		.uleb128 0x7
 571 0104 6A020000 		.4byte	.LASF22
 572 0108 03       		.byte	0x3
 573 0109 33       		.byte	0x33
 574 010a A4000000 		.4byte	0xa4
 575 010e 07       		.uleb128 0x7
 576 010f A5020000 		.4byte	.LASF23
 577 0113 03       		.byte	0x3
 578 0114 34       		.byte	0x34
 579 0115 A4000000 		.4byte	0xa4
 580 0119 07       		.uleb128 0x7
 581 011a F7040000 		.4byte	.LASF24
 582 011e 03       		.byte	0x3
 583 011f 35       		.byte	0x35
 584 0120 A4000000 		.4byte	0xa4
 585 0124 07       		.uleb128 0x7
 586 0125 AE010000 		.4byte	.LASF25
 587 0129 03       		.byte	0x3
 588 012a 36       		.byte	0x36
 589 012b 99000000 		.4byte	0x99
 590 012f 07       		.uleb128 0x7
 591 0130 6B040000 		.4byte	.LASF26
 592 0134 04       		.byte	0x4
 593 0135 2A       		.byte	0x2a
 594 0136 3A010000 		.4byte	0x13a
 595 013a 08       		.uleb128 0x8
 596 013b 6B040000 		.4byte	.LASF26
 597 013f 48       		.byte	0x48
 598 0140 05       		.byte	0x5
 599 0141 5E       		.byte	0x5e
 600 0142 5F020000 		.4byte	0x25f
 601 0146 09       		.uleb128 0x9
 602 0147 57040000 		.4byte	.LASF27
 603 014b 05       		.byte	0x5
 604 014c 5F       		.byte	0x5f
ARM GAS  C:\Users\DNIEL~1\AppData\Local\Temp\ccITf261.s 			page 12


 605 014d 84020000 		.4byte	0x284
 606 0151 02       		.byte	0x2
 607 0152 23       		.byte	0x23
 608 0153 00       		.uleb128 0x0
 609 0154 09       		.uleb128 0x9
 610 0155 A3030000 		.4byte	.LASF28
 611 0159 05       		.byte	0x5
 612 015a 61       		.byte	0x61
 613 015b 84020000 		.4byte	0x284
 614 015f 02       		.byte	0x2
 615 0160 23       		.byte	0x23
 616 0161 04       		.uleb128 0x4
 617 0162 09       		.uleb128 0x9
 618 0163 A4000000 		.4byte	.LASF29
 619 0167 05       		.byte	0x5
 620 0168 63       		.byte	0x63
 621 0169 ED000000 		.4byte	0xed
 622 016d 02       		.byte	0x2
 623 016e 23       		.byte	0x23
 624 016f 08       		.uleb128 0x8
 625 0170 09       		.uleb128 0x9
 626 0171 ED050000 		.4byte	.LASF30
 627 0175 05       		.byte	0x5
 628 0176 64       		.byte	0x64
 629 0177 5B030000 		.4byte	0x35b
 630 017b 02       		.byte	0x2
 631 017c 23       		.byte	0x23
 632 017d 0C       		.uleb128 0xc
 633 017e 09       		.uleb128 0x9
 634 017f 55010000 		.4byte	.LASF31
 635 0183 05       		.byte	0x5
 636 0184 66       		.byte	0x66
 637 0185 84020000 		.4byte	0x284
 638 0189 02       		.byte	0x2
 639 018a 23       		.byte	0x23
 640 018b 10       		.uleb128 0x10
 641 018c 09       		.uleb128 0x9
 642 018d E4020000 		.4byte	.LASF32
 643 0191 05       		.byte	0x5
 644 0192 67       		.byte	0x67
 645 0193 84020000 		.4byte	0x284
 646 0197 02       		.byte	0x2
 647 0198 23       		.byte	0x23
 648 0199 14       		.uleb128 0x14
 649 019a 09       		.uleb128 0x9
 650 019b BD050000 		.4byte	.LASF33
 651 019f 05       		.byte	0x5
 652 01a0 6E       		.byte	0x6e
 653 01a1 78000000 		.4byte	0x78
 654 01a5 02       		.byte	0x2
 655 01a6 23       		.byte	0x23
 656 01a7 18       		.uleb128 0x18
 657 01a8 09       		.uleb128 0x9
 658 01a9 29040000 		.4byte	.LASF34
 659 01ad 05       		.byte	0x5
 660 01ae 79       		.byte	0x79
 661 01af CC000000 		.4byte	0xcc
ARM GAS  C:\Users\DNIEL~1\AppData\Local\Temp\ccITf261.s 			page 13


 662 01b3 02       		.byte	0x2
 663 01b4 23       		.byte	0x23
 664 01b5 1C       		.uleb128 0x1c
 665 01b6 09       		.uleb128 0x9
 666 01b7 5E040000 		.4byte	.LASF35
 667 01bb 05       		.byte	0x5
 668 01bc 7D       		.byte	0x7d
 669 01bd C1000000 		.4byte	0xc1
 670 01c1 02       		.byte	0x2
 671 01c2 23       		.byte	0x23
 672 01c3 1D       		.uleb128 0x1d
 673 01c4 09       		.uleb128 0x9
 674 01c5 40010000 		.4byte	.LASF36
 675 01c9 05       		.byte	0x5
 676 01ca 82       		.byte	0x82
 677 01cb D7000000 		.4byte	0xd7
 678 01cf 02       		.byte	0x2
 679 01d0 23       		.byte	0x23
 680 01d1 1E       		.uleb128 0x1e
 681 01d2 09       		.uleb128 0x9
 682 01d3 31040000 		.4byte	.LASF37
 683 01d7 05       		.byte	0x5
 684 01d8 88       		.byte	0x88
 685 01d9 E2000000 		.4byte	0xe2
 686 01dd 02       		.byte	0x2
 687 01de 23       		.byte	0x23
 688 01df 1F       		.uleb128 0x1f
 689 01e0 09       		.uleb128 0x9
 690 01e1 06000000 		.4byte	.LASF38
 691 01e5 05       		.byte	0x5
 692 01e6 8F       		.byte	0x8f
 693 01e7 83030000 		.4byte	0x383
 694 01eb 02       		.byte	0x2
 695 01ec 23       		.byte	0x23
 696 01ed 20       		.uleb128 0x20
 697 01ee 0A       		.uleb128 0xa
 698 01ef 705F7500 		.ascii	"p_u\000"
 699 01f3 05       		.byte	0x5
 700 01f4 B4       		.byte	0xb4
 701 01f5 E8040000 		.4byte	0x4e8
 702 01f9 02       		.byte	0x2
 703 01fa 23       		.byte	0x23
 704 01fb 24       		.uleb128 0x24
 705 01fc 09       		.uleb128 0x9
 706 01fd F3050000 		.4byte	.LASF39
 707 0201 05       		.byte	0x5
 708 0202 B9       		.byte	0xb9
 709 0203 AC020000 		.4byte	0x2ac
 710 0207 02       		.byte	0x2
 711 0208 23       		.byte	0x23
 712 0209 28       		.uleb128 0x28
 713 020a 09       		.uleb128 0x9
 714 020b D2010000 		.4byte	.LASF40
 715 020f 05       		.byte	0x5
 716 0210 BF       		.byte	0xbf
 717 0211 8A020000 		.4byte	0x28a
 718 0215 02       		.byte	0x2
ARM GAS  C:\Users\DNIEL~1\AppData\Local\Temp\ccITf261.s 			page 14


 719 0216 23       		.byte	0x23
 720 0217 2C       		.uleb128 0x2c
 721 0218 09       		.uleb128 0x9
 722 0219 C4050000 		.4byte	.LASF41
 723 021d 05       		.byte	0x5
 724 021e C3       		.byte	0xc3
 725 021f F8000000 		.4byte	0xf8
 726 0223 02       		.byte	0x2
 727 0224 23       		.byte	0x23
 728 0225 34       		.uleb128 0x34
 729 0226 09       		.uleb128 0x9
 730 0227 90040000 		.4byte	.LASF42
 731 022b 05       		.byte	0x5
 732 022c C9       		.byte	0xc9
 733 022d 03010000 		.4byte	0x103
 734 0231 02       		.byte	0x2
 735 0232 23       		.byte	0x23
 736 0233 38       		.uleb128 0x38
 737 0234 09       		.uleb128 0x9
 738 0235 15040000 		.4byte	.LASF43
 739 0239 05       		.byte	0x5
 740 023a D0       		.byte	0xd0
 741 023b 1D050000 		.4byte	0x51d
 742 023f 02       		.byte	0x2
 743 0240 23       		.byte	0x23
 744 0241 3C       		.uleb128 0x3c
 745 0242 09       		.uleb128 0x9
 746 0243 01050000 		.4byte	.LASF44
 747 0247 05       		.byte	0x5
 748 0248 D4       		.byte	0xd4
 749 0249 ED000000 		.4byte	0xed
 750 024d 02       		.byte	0x2
 751 024e 23       		.byte	0x23
 752 024f 40       		.uleb128 0x40
 753 0250 09       		.uleb128 0x9
 754 0251 E0000000 		.4byte	.LASF45
 755 0255 05       		.byte	0x5
 756 0256 DA       		.byte	0xda
 757 0257 68000000 		.4byte	0x68
 758 025b 02       		.byte	0x2
 759 025c 23       		.byte	0x23
 760 025d 44       		.uleb128 0x44
 761 025e 00       		.byte	0x0
 762 025f 0B       		.uleb128 0xb
 763 0260 08       		.byte	0x8
 764 0261 04       		.byte	0x4
 765 0262 61       		.byte	0x61
 766 0263 84020000 		.4byte	0x284
 767 0267 09       		.uleb128 0x9
 768 0268 57040000 		.4byte	.LASF27
 769 026c 04       		.byte	0x4
 770 026d 62       		.byte	0x62
 771 026e 84020000 		.4byte	0x284
 772 0272 02       		.byte	0x2
 773 0273 23       		.byte	0x23
 774 0274 00       		.uleb128 0x0
 775 0275 09       		.uleb128 0x9
ARM GAS  C:\Users\DNIEL~1\AppData\Local\Temp\ccITf261.s 			page 15


 776 0276 A3030000 		.4byte	.LASF28
 777 027a 04       		.byte	0x4
 778 027b 64       		.byte	0x64
 779 027c 84020000 		.4byte	0x284
 780 0280 02       		.byte	0x2
 781 0281 23       		.byte	0x23
 782 0282 04       		.uleb128 0x4
 783 0283 00       		.byte	0x0
 784 0284 05       		.uleb128 0x5
 785 0285 04       		.byte	0x4
 786 0286 2F010000 		.4byte	0x12f
 787 028a 07       		.uleb128 0x7
 788 028b F2020000 		.4byte	.LASF46
 789 028f 04       		.byte	0x4
 790 0290 66       		.byte	0x66
 791 0291 5F020000 		.4byte	0x25f
 792 0295 0B       		.uleb128 0xb
 793 0296 04       		.byte	0x4
 794 0297 04       		.byte	0x4
 795 0298 6B       		.byte	0x6b
 796 0299 AC020000 		.4byte	0x2ac
 797 029d 09       		.uleb128 0x9
 798 029e 57040000 		.4byte	.LASF27
 799 02a2 04       		.byte	0x4
 800 02a3 6D       		.byte	0x6d
 801 02a4 84020000 		.4byte	0x284
 802 02a8 02       		.byte	0x2
 803 02a9 23       		.byte	0x23
 804 02aa 00       		.uleb128 0x0
 805 02ab 00       		.byte	0x0
 806 02ac 07       		.uleb128 0x7
 807 02ad 4E020000 		.4byte	.LASF47
 808 02b1 04       		.byte	0x4
 809 02b2 70       		.byte	0x70
 810 02b3 95020000 		.4byte	0x295
 811 02b7 07       		.uleb128 0x7
 812 02b8 94010000 		.4byte	.LASF48
 813 02bc 06       		.byte	0x6
 814 02bd E5       		.byte	0xe5
 815 02be 68000000 		.4byte	0x68
 816 02c2 07       		.uleb128 0x7
 817 02c3 9A020000 		.4byte	.LASF49
 818 02c7 06       		.byte	0x6
 819 02c8 EB       		.byte	0xeb
 820 02c9 AF000000 		.4byte	0xaf
 821 02cd 0C       		.uleb128 0xc
 822 02ce 21050000 		.4byte	.LASF50
 823 02d2 24       		.byte	0x24
 824 02d3 06       		.byte	0x6
 825 02d4 0C01     		.2byte	0x10c
 826 02d6 5B030000 		.4byte	0x35b
 827 02da 0D       		.uleb128 0xd
 828 02db 723400   		.ascii	"r4\000"
 829 02de 06       		.byte	0x6
 830 02df 1F01     		.2byte	0x11f
 831 02e1 B7020000 		.4byte	0x2b7
 832 02e5 02       		.byte	0x2
ARM GAS  C:\Users\DNIEL~1\AppData\Local\Temp\ccITf261.s 			page 16


 833 02e6 23       		.byte	0x23
 834 02e7 00       		.uleb128 0x0
 835 02e8 0D       		.uleb128 0xd
 836 02e9 723500   		.ascii	"r5\000"
 837 02ec 06       		.byte	0x6
 838 02ed 2001     		.2byte	0x120
 839 02ef B7020000 		.4byte	0x2b7
 840 02f3 02       		.byte	0x2
 841 02f4 23       		.byte	0x23
 842 02f5 04       		.uleb128 0x4
 843 02f6 0D       		.uleb128 0xd
 844 02f7 723600   		.ascii	"r6\000"
 845 02fa 06       		.byte	0x6
 846 02fb 2101     		.2byte	0x121
 847 02fd B7020000 		.4byte	0x2b7
 848 0301 02       		.byte	0x2
 849 0302 23       		.byte	0x23
 850 0303 08       		.uleb128 0x8
 851 0304 0D       		.uleb128 0xd
 852 0305 723700   		.ascii	"r7\000"
 853 0308 06       		.byte	0x6
 854 0309 2201     		.2byte	0x122
 855 030b B7020000 		.4byte	0x2b7
 856 030f 02       		.byte	0x2
 857 0310 23       		.byte	0x23
 858 0311 0C       		.uleb128 0xc
 859 0312 0D       		.uleb128 0xd
 860 0313 723800   		.ascii	"r8\000"
 861 0316 06       		.byte	0x6
 862 0317 2301     		.2byte	0x123
 863 0319 B7020000 		.4byte	0x2b7
 864 031d 02       		.byte	0x2
 865 031e 23       		.byte	0x23
 866 031f 10       		.uleb128 0x10
 867 0320 0D       		.uleb128 0xd
 868 0321 723900   		.ascii	"r9\000"
 869 0324 06       		.byte	0x6
 870 0325 2401     		.2byte	0x124
 871 0327 B7020000 		.4byte	0x2b7
 872 032b 02       		.byte	0x2
 873 032c 23       		.byte	0x23
 874 032d 14       		.uleb128 0x14
 875 032e 0D       		.uleb128 0xd
 876 032f 72313000 		.ascii	"r10\000"
 877 0333 06       		.byte	0x6
 878 0334 2501     		.2byte	0x125
 879 0336 B7020000 		.4byte	0x2b7
 880 033a 02       		.byte	0x2
 881 033b 23       		.byte	0x23
 882 033c 18       		.uleb128 0x18
 883 033d 0D       		.uleb128 0xd
 884 033e 72313100 		.ascii	"r11\000"
 885 0342 06       		.byte	0x6
 886 0343 2601     		.2byte	0x126
 887 0345 B7020000 		.4byte	0x2b7
 888 0349 02       		.byte	0x2
 889 034a 23       		.byte	0x23
ARM GAS  C:\Users\DNIEL~1\AppData\Local\Temp\ccITf261.s 			page 17


 890 034b 1C       		.uleb128 0x1c
 891 034c 0D       		.uleb128 0xd
 892 034d 6C7200   		.ascii	"lr\000"
 893 0350 06       		.byte	0x6
 894 0351 2701     		.2byte	0x127
 895 0353 B7020000 		.4byte	0x2b7
 896 0357 02       		.byte	0x2
 897 0358 23       		.byte	0x23
 898 0359 20       		.uleb128 0x20
 899 035a 00       		.byte	0x0
 900 035b 0C       		.uleb128 0xc
 901 035c 19050000 		.4byte	.LASF51
 902 0360 04       		.byte	0x4
 903 0361 06       		.byte	0x6
 904 0362 3101     		.2byte	0x131
 905 0364 78030000 		.4byte	0x378
 906 0368 0D       		.uleb128 0xd
 907 0369 72313300 		.ascii	"r13\000"
 908 036d 06       		.byte	0x6
 909 036e 3201     		.2byte	0x132
 910 0370 78030000 		.4byte	0x378
 911 0374 02       		.byte	0x2
 912 0375 23       		.byte	0x23
 913 0376 00       		.uleb128 0x0
 914 0377 00       		.byte	0x0
 915 0378 05       		.uleb128 0x5
 916 0379 04       		.byte	0x4
 917 037a CD020000 		.4byte	0x2cd
 918 037e 0E       		.uleb128 0xe
 919 037f A4000000 		.4byte	0xa4
 920 0383 0E       		.uleb128 0xe
 921 0384 19010000 		.4byte	0x119
 922 0388 0B       		.uleb128 0xb
 923 0389 1C       		.byte	0x1c
 924 038a 07       		.byte	0x7
 925 038b 5E       		.byte	0x5e
 926 038c E5030000 		.4byte	0x3e5
 927 0390 09       		.uleb128 0x9
 928 0391 AE040000 		.4byte	.LASF52
 929 0395 07       		.byte	0x7
 930 0396 5F       		.byte	0x5f
 931 0397 8A020000 		.4byte	0x28a
 932 039b 02       		.byte	0x2
 933 039c 23       		.byte	0x23
 934 039d 00       		.uleb128 0x0
 935 039e 09       		.uleb128 0x9
 936 039f 49040000 		.4byte	.LASF53
 937 03a3 07       		.byte	0x7
 938 03a4 60       		.byte	0x60
 939 03a5 ED000000 		.4byte	0xed
 940 03a9 02       		.byte	0x2
 941 03aa 23       		.byte	0x23
 942 03ab 08       		.uleb128 0x8
 943 03ac 09       		.uleb128 0x9
 944 03ad EC020000 		.4byte	.LASF54
 945 03b1 07       		.byte	0x7
 946 03b2 62       		.byte	0x62
ARM GAS  C:\Users\DNIEL~1\AppData\Local\Temp\ccITf261.s 			page 18


 947 03b3 5B030000 		.4byte	0x35b
 948 03b7 02       		.byte	0x2
 949 03b8 23       		.byte	0x23
 950 03b9 0C       		.uleb128 0xc
 951 03ba 09       		.uleb128 0x9
 952 03bb 8C010000 		.4byte	.LASF55
 953 03bf 07       		.byte	0x7
 954 03c0 65       		.byte	0x65
 955 03c1 84020000 		.4byte	0x284
 956 03c5 02       		.byte	0x2
 957 03c6 23       		.byte	0x23
 958 03c7 10       		.uleb128 0x10
 959 03c8 09       		.uleb128 0x9
 960 03c9 0E030000 		.4byte	.LASF56
 961 03cd 07       		.byte	0x7
 962 03ce 66       		.byte	0x66
 963 03cf 84020000 		.4byte	0x284
 964 03d3 02       		.byte	0x2
 965 03d4 23       		.byte	0x23
 966 03d5 14       		.uleb128 0x14
 967 03d6 09       		.uleb128 0x9
 968 03d7 04030000 		.4byte	.LASF57
 969 03db 07       		.byte	0x7
 970 03dc 69       		.byte	0x69
 971 03dd 84020000 		.4byte	0x284
 972 03e1 02       		.byte	0x2
 973 03e2 23       		.byte	0x23
 974 03e3 18       		.uleb128 0x18
 975 03e4 00       		.byte	0x0
 976 03e5 07       		.uleb128 0x7
 977 03e6 5B050000 		.4byte	.LASF58
 978 03ea 07       		.byte	0x7
 979 03eb 6B       		.byte	0x6b
 980 03ec 88030000 		.4byte	0x388
 981 03f0 08       		.uleb128 0x8
 982 03f1 37050000 		.4byte	.LASF59
 983 03f5 0C       		.byte	0xc
 984 03f6 08       		.byte	0x8
 985 03f7 2C       		.byte	0x2c
 986 03f8 19040000 		.4byte	0x419
 987 03fc 09       		.uleb128 0x9
 988 03fd 5D010000 		.4byte	.LASF60
 989 0401 08       		.byte	0x8
 990 0402 2D       		.byte	0x2d
 991 0403 8A020000 		.4byte	0x28a
 992 0407 02       		.byte	0x2
 993 0408 23       		.byte	0x23
 994 0409 00       		.uleb128 0x0
 995 040a 09       		.uleb128 0x9
 996 040b FF010000 		.4byte	.LASF61
 997 040f 08       		.byte	0x8
 998 0410 2F       		.byte	0x2f
 999 0411 24010000 		.4byte	0x124
 1000 0415 02       		.byte	0x2
 1001 0416 23       		.byte	0x23
 1002 0417 08       		.uleb128 0x8
 1003 0418 00       		.byte	0x0
ARM GAS  C:\Users\DNIEL~1\AppData\Local\Temp\ccITf261.s 			page 19


 1004 0419 07       		.uleb128 0x7
 1005 041a 37050000 		.4byte	.LASF59
 1006 041e 08       		.byte	0x8
 1007 041f 30       		.byte	0x30
 1008 0420 F0030000 		.4byte	0x3f0
 1009 0424 08       		.uleb128 0x8
 1010 0425 76020000 		.4byte	.LASF62
 1011 0429 10       		.byte	0x10
 1012 042a 09       		.byte	0x9
 1013 042b 2C       		.byte	0x2c
 1014 042c 5B040000 		.4byte	0x45b
 1015 0430 09       		.uleb128 0x9
 1016 0431 E8000000 		.4byte	.LASF63
 1017 0435 09       		.byte	0x9
 1018 0436 2D       		.byte	0x2d
 1019 0437 8A020000 		.4byte	0x28a
 1020 043b 02       		.byte	0x2
 1021 043c 23       		.byte	0x23
 1022 043d 00       		.uleb128 0x0
 1023 043e 09       		.uleb128 0x9
 1024 043f D8050000 		.4byte	.LASF64
 1025 0443 09       		.byte	0x9
 1026 0444 2F       		.byte	0x2f
 1027 0445 84020000 		.4byte	0x284
 1028 0449 02       		.byte	0x2
 1029 044a 23       		.byte	0x23
 1030 044b 08       		.uleb128 0x8
 1031 044c 09       		.uleb128 0x9
 1032 044d F0040000 		.4byte	.LASF65
 1033 0451 09       		.byte	0x9
 1034 0452 31       		.byte	0x31
 1035 0453 5B040000 		.4byte	0x45b
 1036 0457 02       		.byte	0x2
 1037 0458 23       		.byte	0x23
 1038 0459 0C       		.uleb128 0xc
 1039 045a 00       		.byte	0x0
 1040 045b 05       		.uleb128 0x5
 1041 045c 04       		.byte	0x4
 1042 045d 24040000 		.4byte	0x424
 1043 0461 07       		.uleb128 0x7
 1044 0462 76020000 		.4byte	.LASF62
 1045 0466 09       		.byte	0x9
 1046 0467 33       		.byte	0x33
 1047 0468 24040000 		.4byte	0x424
 1048 046c 07       		.uleb128 0x7
 1049 046d 9C050000 		.4byte	.LASF66
 1050 0471 0A       		.byte	0xa
 1051 0472 2C       		.byte	0x2c
 1052 0473 77040000 		.4byte	0x477
 1053 0477 08       		.uleb128 0x8
 1054 0478 9C050000 		.4byte	.LASF66
 1055 047c 10       		.byte	0x10
 1056 047d 0A       		.byte	0xa
 1057 047e 31       		.byte	0x31
 1058 047f BC040000 		.4byte	0x4bc
 1059 0483 09       		.uleb128 0x9
 1060 0484 3E020000 		.4byte	.LASF67
ARM GAS  C:\Users\DNIEL~1\AppData\Local\Temp\ccITf261.s 			page 20


 1061 0488 0A       		.byte	0xa
 1062 0489 32       		.byte	0x32
 1063 048a BC040000 		.4byte	0x4bc
 1064 048e 02       		.byte	0x2
 1065 048f 23       		.byte	0x23
 1066 0490 00       		.uleb128 0x0
 1067 0491 09       		.uleb128 0x9
 1068 0492 F3030000 		.4byte	.LASF68
 1069 0496 0A       		.byte	0xa
 1070 0497 35       		.byte	0x35
 1071 0498 84020000 		.4byte	0x284
 1072 049c 02       		.byte	0x2
 1073 049d 23       		.byte	0x23
 1074 049e 04       		.uleb128 0x4
 1075 049f 09       		.uleb128 0x9
 1076 04a0 16030000 		.4byte	.LASF69
 1077 04a4 0A       		.byte	0xa
 1078 04a5 37       		.byte	0x37
 1079 04a6 03010000 		.4byte	0x103
 1080 04aa 02       		.byte	0x2
 1081 04ab 23       		.byte	0x23
 1082 04ac 08       		.uleb128 0x8
 1083 04ad 09       		.uleb128 0x9
 1084 04ae 0C040000 		.4byte	.LASF70
 1085 04b2 0A       		.byte	0xa
 1086 04b3 3A       		.byte	0x3a
 1087 04b4 0E010000 		.4byte	0x10e
 1088 04b8 02       		.byte	0x2
 1089 04b9 23       		.byte	0x23
 1090 04ba 0C       		.uleb128 0xc
 1091 04bb 00       		.byte	0x0
 1092 04bc 05       		.uleb128 0x5
 1093 04bd 04       		.byte	0x4
 1094 04be 6C040000 		.4byte	0x46c
 1095 04c2 08       		.uleb128 0x8
 1096 04c3 A2010000 		.4byte	.LASF71
 1097 04c7 04       		.byte	0x4
 1098 04c8 0A       		.byte	0xa
 1099 04c9 41       		.byte	0x41
 1100 04ca DD040000 		.4byte	0x4dd
 1101 04ce 09       		.uleb128 0x9
 1102 04cf 53050000 		.4byte	.LASF72
 1103 04d3 0A       		.byte	0xa
 1104 04d4 42       		.byte	0x42
 1105 04d5 BC040000 		.4byte	0x4bc
 1106 04d9 02       		.byte	0x2
 1107 04da 23       		.byte	0x23
 1108 04db 00       		.uleb128 0x0
 1109 04dc 00       		.byte	0x0
 1110 04dd 07       		.uleb128 0x7
 1111 04de A2010000 		.4byte	.LASF71
 1112 04e2 0A       		.byte	0xa
 1113 04e3 45       		.byte	0x45
 1114 04e4 C2040000 		.4byte	0x4c2
 1115 04e8 0F       		.uleb128 0xf
 1116 04e9 04       		.byte	0x4
 1117 04ea 05       		.byte	0x5
ARM GAS  C:\Users\DNIEL~1\AppData\Local\Temp\ccITf261.s 			page 21


 1118 04eb 96       		.byte	0x96
 1119 04ec 1D050000 		.4byte	0x51d
 1120 04f0 10       		.uleb128 0x10
 1121 04f1 18000000 		.4byte	.LASF73
 1122 04f5 05       		.byte	0x5
 1123 04f6 9D       		.byte	0x9d
 1124 04f7 F8000000 		.4byte	0xf8
 1125 04fb 10       		.uleb128 0x10
 1126 04fc 94000000 		.4byte	.LASF74
 1127 0500 05       		.byte	0x5
 1128 0501 A4       		.byte	0xa4
 1129 0502 F8000000 		.4byte	0xf8
 1130 0506 10       		.uleb128 0x10
 1131 0507 AA050000 		.4byte	.LASF75
 1132 050b 05       		.byte	0x5
 1133 050c AB       		.byte	0xab
 1134 050d 68000000 		.4byte	0x68
 1135 0511 10       		.uleb128 0x10
 1136 0512 50040000 		.4byte	.LASF76
 1137 0516 05       		.byte	0x5
 1138 0517 B2       		.byte	0xb2
 1139 0518 03010000 		.4byte	0x103
 1140 051c 00       		.byte	0x0
 1141 051d 05       		.uleb128 0x5
 1142 051e 04       		.byte	0x4
 1143 051f 61040000 		.4byte	0x461
 1144 0523 11       		.uleb128 0x11
 1145 0524 A4000000 		.4byte	0xa4
 1146 0528 33050000 		.4byte	0x533
 1147 052c 12       		.uleb128 0x12
 1148 052d 29000000 		.4byte	0x29
 1149 0531 07       		.byte	0x7
 1150 0532 00       		.byte	0x0
 1151 0533 11       		.uleb128 0x11
 1152 0534 A4000000 		.4byte	0xa4
 1153 0538 43050000 		.4byte	0x543
 1154 053c 12       		.uleb128 0x12
 1155 053d 29000000 		.4byte	0x29
 1156 0541 01       		.byte	0x1
 1157 0542 00       		.byte	0x0
 1158 0543 0E       		.uleb128 0xe
 1159 0544 99000000 		.4byte	0x99
 1160 0548 13       		.uleb128 0x13
 1161 0549 10       		.byte	0x10
 1162 054a 0B       		.byte	0xb
 1163 054b AC02     		.2byte	0x2ac
 1164 054d 8E050000 		.4byte	0x58e
 1165 0551 0D       		.uleb128 0xd
 1166 0552 54495200 		.ascii	"TIR\000"
 1167 0556 0B       		.byte	0xb
 1168 0557 AE02     		.2byte	0x2ae
 1169 0559 7E030000 		.4byte	0x37e
 1170 055d 02       		.byte	0x2
 1171 055e 23       		.byte	0x23
 1172 055f 00       		.uleb128 0x0
 1173 0560 14       		.uleb128 0x14
 1174 0561 9D010000 		.4byte	.LASF77
ARM GAS  C:\Users\DNIEL~1\AppData\Local\Temp\ccITf261.s 			page 22


 1175 0565 0B       		.byte	0xb
 1176 0566 AF02     		.2byte	0x2af
 1177 0568 7E030000 		.4byte	0x37e
 1178 056c 02       		.byte	0x2
 1179 056d 23       		.byte	0x23
 1180 056e 04       		.uleb128 0x4
 1181 056f 14       		.uleb128 0x14
 1182 0570 13010000 		.4byte	.LASF78
 1183 0574 0B       		.byte	0xb
 1184 0575 B002     		.2byte	0x2b0
 1185 0577 7E030000 		.4byte	0x37e
 1186 057b 02       		.byte	0x2
 1187 057c 23       		.byte	0x23
 1188 057d 08       		.uleb128 0x8
 1189 057e 14       		.uleb128 0x14
 1190 057f FF020000 		.4byte	.LASF79
 1191 0583 0B       		.byte	0xb
 1192 0584 B102     		.2byte	0x2b1
 1193 0586 7E030000 		.4byte	0x37e
 1194 058a 02       		.byte	0x2
 1195 058b 23       		.byte	0x23
 1196 058c 0C       		.uleb128 0xc
 1197 058d 00       		.byte	0x0
 1198 058e 15       		.uleb128 0x15
 1199 058f 2A010000 		.4byte	.LASF80
 1200 0593 0B       		.byte	0xb
 1201 0594 B202     		.2byte	0x2b2
 1202 0596 48050000 		.4byte	0x548
 1203 059a 13       		.uleb128 0x13
 1204 059b 10       		.byte	0x10
 1205 059c 0B       		.byte	0xb
 1206 059d B802     		.2byte	0x2b8
 1207 059f E0050000 		.4byte	0x5e0
 1208 05a3 0D       		.uleb128 0xd
 1209 05a4 52495200 		.ascii	"RIR\000"
 1210 05a8 0B       		.byte	0xb
 1211 05a9 BA02     		.2byte	0x2ba
 1212 05ab 7E030000 		.4byte	0x37e
 1213 05af 02       		.byte	0x2
 1214 05b0 23       		.byte	0x23
 1215 05b1 00       		.uleb128 0x0
 1216 05b2 14       		.uleb128 0x14
 1217 05b3 EA010000 		.4byte	.LASF81
 1218 05b7 0B       		.byte	0xb
 1219 05b8 BB02     		.2byte	0x2bb
 1220 05ba 7E030000 		.4byte	0x37e
 1221 05be 02       		.byte	0x2
 1222 05bf 23       		.byte	0x23
 1223 05c0 04       		.uleb128 0x4
 1224 05c1 14       		.uleb128 0x14
 1225 05c2 CA050000 		.4byte	.LASF82
 1226 05c6 0B       		.byte	0xb
 1227 05c7 BC02     		.2byte	0x2bc
 1228 05c9 7E030000 		.4byte	0x37e
 1229 05cd 02       		.byte	0x2
 1230 05ce 23       		.byte	0x23
 1231 05cf 08       		.uleb128 0x8
ARM GAS  C:\Users\DNIEL~1\AppData\Local\Temp\ccITf261.s 			page 23


 1232 05d0 14       		.uleb128 0x14
 1233 05d1 EB040000 		.4byte	.LASF83
 1234 05d5 0B       		.byte	0xb
 1235 05d6 BD02     		.2byte	0x2bd
 1236 05d8 7E030000 		.4byte	0x37e
 1237 05dc 02       		.byte	0x2
 1238 05dd 23       		.byte	0x23
 1239 05de 0C       		.uleb128 0xc
 1240 05df 00       		.byte	0x0
 1241 05e0 15       		.uleb128 0x15
 1242 05e1 65050000 		.4byte	.LASF84
 1243 05e5 0B       		.byte	0xb
 1244 05e6 BE02     		.2byte	0x2be
 1245 05e8 9A050000 		.4byte	0x59a
 1246 05ec 13       		.uleb128 0x13
 1247 05ed 08       		.byte	0x8
 1248 05ee 0B       		.byte	0xb
 1249 05ef C402     		.2byte	0x2c4
 1250 05f1 14060000 		.4byte	0x614
 1251 05f5 0D       		.uleb128 0xd
 1252 05f6 46523100 		.ascii	"FR1\000"
 1253 05fa 0B       		.byte	0xb
 1254 05fb C602     		.2byte	0x2c6
 1255 05fd 7E030000 		.4byte	0x37e
 1256 0601 02       		.byte	0x2
 1257 0602 23       		.byte	0x23
 1258 0603 00       		.uleb128 0x0
 1259 0604 0D       		.uleb128 0xd
 1260 0605 46523200 		.ascii	"FR2\000"
 1261 0609 0B       		.byte	0xb
 1262 060a C702     		.2byte	0x2c7
 1263 060c 7E030000 		.4byte	0x37e
 1264 0610 02       		.byte	0x2
 1265 0611 23       		.byte	0x23
 1266 0612 04       		.uleb128 0x4
 1267 0613 00       		.byte	0x0
 1268 0614 15       		.uleb128 0x15
 1269 0615 1D020000 		.4byte	.LASF85
 1270 0619 0B       		.byte	0xb
 1271 061a C802     		.2byte	0x2c8
 1272 061c EC050000 		.4byte	0x5ec
 1273 0620 16       		.uleb128 0x16
 1274 0621 B002     		.2byte	0x2b0
 1275 0623 0B       		.byte	0xb
 1276 0624 CE02     		.2byte	0x2ce
 1277 0626 82070000 		.4byte	0x782
 1278 062a 0D       		.uleb128 0xd
 1279 062b 4D435200 		.ascii	"MCR\000"
 1280 062f 0B       		.byte	0xb
 1281 0630 D002     		.2byte	0x2d0
 1282 0632 7E030000 		.4byte	0x37e
 1283 0636 02       		.byte	0x2
 1284 0637 23       		.byte	0x23
 1285 0638 00       		.uleb128 0x0
 1286 0639 0D       		.uleb128 0xd
 1287 063a 4D535200 		.ascii	"MSR\000"
 1288 063e 0B       		.byte	0xb
ARM GAS  C:\Users\DNIEL~1\AppData\Local\Temp\ccITf261.s 			page 24


 1289 063f D102     		.2byte	0x2d1
 1290 0641 7E030000 		.4byte	0x37e
 1291 0645 02       		.byte	0x2
 1292 0646 23       		.byte	0x23
 1293 0647 04       		.uleb128 0x4
 1294 0648 0D       		.uleb128 0xd
 1295 0649 54535200 		.ascii	"TSR\000"
 1296 064d 0B       		.byte	0xb
 1297 064e D202     		.2byte	0x2d2
 1298 0650 7E030000 		.4byte	0x37e
 1299 0654 02       		.byte	0x2
 1300 0655 23       		.byte	0x23
 1301 0656 08       		.uleb128 0x8
 1302 0657 14       		.uleb128 0x14
 1303 0658 7A010000 		.4byte	.LASF86
 1304 065c 0B       		.byte	0xb
 1305 065d D302     		.2byte	0x2d3
 1306 065f 7E030000 		.4byte	0x37e
 1307 0663 02       		.byte	0x2
 1308 0664 23       		.byte	0x23
 1309 0665 0C       		.uleb128 0xc
 1310 0666 14       		.uleb128 0x14
 1311 0667 18020000 		.4byte	.LASF87
 1312 066b 0B       		.byte	0xb
 1313 066c D402     		.2byte	0x2d4
 1314 066e 7E030000 		.4byte	0x37e
 1315 0672 02       		.byte	0x2
 1316 0673 23       		.byte	0x23
 1317 0674 10       		.uleb128 0x10
 1318 0675 0D       		.uleb128 0xd
 1319 0676 49455200 		.ascii	"IER\000"
 1320 067a 0B       		.byte	0xb
 1321 067b D502     		.2byte	0x2d5
 1322 067d 7E030000 		.4byte	0x37e
 1323 0681 02       		.byte	0x2
 1324 0682 23       		.byte	0x23
 1325 0683 14       		.uleb128 0x14
 1326 0684 0D       		.uleb128 0xd
 1327 0685 45535200 		.ascii	"ESR\000"
 1328 0689 0B       		.byte	0xb
 1329 068a D602     		.2byte	0x2d6
 1330 068c 7E030000 		.4byte	0x37e
 1331 0690 02       		.byte	0x2
 1332 0691 23       		.byte	0x23
 1333 0692 18       		.uleb128 0x18
 1334 0693 0D       		.uleb128 0xd
 1335 0694 42545200 		.ascii	"BTR\000"
 1336 0698 0B       		.byte	0xb
 1337 0699 D702     		.2byte	0x2d7
 1338 069b 7E030000 		.4byte	0x37e
 1339 069f 02       		.byte	0x2
 1340 06a0 23       		.byte	0x23
 1341 06a1 1C       		.uleb128 0x1c
 1342 06a2 14       		.uleb128 0x14
 1343 06a3 71030000 		.4byte	.LASF88
 1344 06a7 0B       		.byte	0xb
 1345 06a8 D802     		.2byte	0x2d8
ARM GAS  C:\Users\DNIEL~1\AppData\Local\Temp\ccITf261.s 			page 25


 1346 06aa 82070000 		.4byte	0x782
 1347 06ae 02       		.byte	0x2
 1348 06af 23       		.byte	0x23
 1349 06b0 20       		.uleb128 0x20
 1350 06b1 14       		.uleb128 0x14
 1351 06b2 C7010000 		.4byte	.LASF89
 1352 06b6 0B       		.byte	0xb
 1353 06b7 D902     		.2byte	0x2d9
 1354 06b9 92070000 		.4byte	0x792
 1355 06bd 03       		.byte	0x3
 1356 06be 23       		.byte	0x23
 1357 06bf 8003     		.uleb128 0x180
 1358 06c1 14       		.uleb128 0x14
 1359 06c2 0C050000 		.4byte	.LASF90
 1360 06c6 0B       		.byte	0xb
 1361 06c7 DA02     		.2byte	0x2da
 1362 06c9 A2070000 		.4byte	0x7a2
 1363 06cd 03       		.byte	0x3
 1364 06ce 23       		.byte	0x23
 1365 06cf B003     		.uleb128 0x1b0
 1366 06d1 14       		.uleb128 0x14
 1367 06d2 7B030000 		.4byte	.LASF91
 1368 06d6 0B       		.byte	0xb
 1369 06d7 DB02     		.2byte	0x2db
 1370 06d9 B2070000 		.4byte	0x7b2
 1371 06dd 03       		.byte	0x3
 1372 06de 23       		.byte	0x23
 1373 06df D003     		.uleb128 0x1d0
 1374 06e1 0D       		.uleb128 0xd
 1375 06e2 464D5200 		.ascii	"FMR\000"
 1376 06e6 0B       		.byte	0xb
 1377 06e7 DC02     		.2byte	0x2dc
 1378 06e9 7E030000 		.4byte	0x37e
 1379 06ed 03       		.byte	0x3
 1380 06ee 23       		.byte	0x23
 1381 06ef 8004     		.uleb128 0x200
 1382 06f1 14       		.uleb128 0x14
 1383 06f2 66040000 		.4byte	.LASF92
 1384 06f6 0B       		.byte	0xb
 1385 06f7 DD02     		.2byte	0x2dd
 1386 06f9 7E030000 		.4byte	0x37e
 1387 06fd 03       		.byte	0x3
 1388 06fe 23       		.byte	0x23
 1389 06ff 8404     		.uleb128 0x204
 1390 0701 14       		.uleb128 0x14
 1391 0702 85030000 		.4byte	.LASF93
 1392 0706 0B       		.byte	0xb
 1393 0707 DE02     		.2byte	0x2de
 1394 0709 A4000000 		.4byte	0xa4
 1395 070d 03       		.byte	0x3
 1396 070e 23       		.byte	0x23
 1397 070f 8804     		.uleb128 0x208
 1398 0711 14       		.uleb128 0x14
 1399 0712 4E050000 		.4byte	.LASF94
 1400 0716 0B       		.byte	0xb
 1401 0717 DF02     		.2byte	0x2df
 1402 0719 7E030000 		.4byte	0x37e
ARM GAS  C:\Users\DNIEL~1\AppData\Local\Temp\ccITf261.s 			page 26


 1403 071d 03       		.byte	0x3
 1404 071e 23       		.byte	0x23
 1405 071f 8C04     		.uleb128 0x20c
 1406 0721 14       		.uleb128 0x14
 1407 0722 8F030000 		.4byte	.LASF95
 1408 0726 0B       		.byte	0xb
 1409 0727 E002     		.2byte	0x2e0
 1410 0729 A4000000 		.4byte	0xa4
 1411 072d 03       		.byte	0x3
 1412 072e 23       		.byte	0x23
 1413 072f 9004     		.uleb128 0x210
 1414 0731 14       		.uleb128 0x14
 1415 0732 3E030000 		.4byte	.LASF96
 1416 0736 0B       		.byte	0xb
 1417 0737 E102     		.2byte	0x2e1
 1418 0739 7E030000 		.4byte	0x37e
 1419 073d 03       		.byte	0x3
 1420 073e 23       		.byte	0x23
 1421 073f 9404     		.uleb128 0x214
 1422 0741 14       		.uleb128 0x14
 1423 0742 99030000 		.4byte	.LASF97
 1424 0746 0B       		.byte	0xb
 1425 0747 E202     		.2byte	0x2e2
 1426 0749 A4000000 		.4byte	0xa4
 1427 074d 03       		.byte	0x3
 1428 074e 23       		.byte	0x23
 1429 074f 9804     		.uleb128 0x218
 1430 0751 14       		.uleb128 0x14
 1431 0752 B1020000 		.4byte	.LASF98
 1432 0756 0B       		.byte	0xb
 1433 0757 E302     		.2byte	0x2e3
 1434 0759 7E030000 		.4byte	0x37e
 1435 075d 03       		.byte	0x3
 1436 075e 23       		.byte	0x23
 1437 075f 9C04     		.uleb128 0x21c
 1438 0761 14       		.uleb128 0x14
 1439 0762 9B040000 		.4byte	.LASF99
 1440 0766 0B       		.byte	0xb
 1441 0767 E402     		.2byte	0x2e4
 1442 0769 23050000 		.4byte	0x523
 1443 076d 03       		.byte	0x3
 1444 076e 23       		.byte	0x23
 1445 076f A004     		.uleb128 0x220
 1446 0771 14       		.uleb128 0x14
 1447 0772 5A020000 		.4byte	.LASF100
 1448 0776 0B       		.byte	0xb
 1449 0777 E602     		.2byte	0x2e6
 1450 0779 C2070000 		.4byte	0x7c2
 1451 077d 03       		.byte	0x3
 1452 077e 23       		.byte	0x23
 1453 077f C004     		.uleb128 0x240
 1454 0781 00       		.byte	0x0
 1455 0782 11       		.uleb128 0x11
 1456 0783 A4000000 		.4byte	0xa4
 1457 0787 92070000 		.4byte	0x792
 1458 078b 12       		.uleb128 0x12
 1459 078c 29000000 		.4byte	0x29
ARM GAS  C:\Users\DNIEL~1\AppData\Local\Temp\ccITf261.s 			page 27


 1460 0790 57       		.byte	0x57
 1461 0791 00       		.byte	0x0
 1462 0792 11       		.uleb128 0x11
 1463 0793 8E050000 		.4byte	0x58e
 1464 0797 A2070000 		.4byte	0x7a2
 1465 079b 12       		.uleb128 0x12
 1466 079c 29000000 		.4byte	0x29
 1467 07a0 02       		.byte	0x2
 1468 07a1 00       		.byte	0x0
 1469 07a2 11       		.uleb128 0x11
 1470 07a3 E0050000 		.4byte	0x5e0
 1471 07a7 B2070000 		.4byte	0x7b2
 1472 07ab 12       		.uleb128 0x12
 1473 07ac 29000000 		.4byte	0x29
 1474 07b0 01       		.byte	0x1
 1475 07b1 00       		.byte	0x0
 1476 07b2 11       		.uleb128 0x11
 1477 07b3 A4000000 		.4byte	0xa4
 1478 07b7 C2070000 		.4byte	0x7c2
 1479 07bb 12       		.uleb128 0x12
 1480 07bc 29000000 		.4byte	0x29
 1481 07c0 0B       		.byte	0xb
 1482 07c1 00       		.byte	0x0
 1483 07c2 11       		.uleb128 0x11
 1484 07c3 14060000 		.4byte	0x614
 1485 07c7 D2070000 		.4byte	0x7d2
 1486 07cb 12       		.uleb128 0x12
 1487 07cc 29000000 		.4byte	0x29
 1488 07d0 0D       		.byte	0xd
 1489 07d1 00       		.byte	0x0
 1490 07d2 15       		.uleb128 0x15
 1491 07d3 32000000 		.4byte	.LASF101
 1492 07d7 0B       		.byte	0xb
 1493 07d8 EA02     		.2byte	0x2ea
 1494 07da 20060000 		.4byte	0x620
 1495 07de 13       		.uleb128 0x13
 1496 07df 1C       		.byte	0x1c
 1497 07e0 0B       		.byte	0xb
 1498 07e1 F803     		.2byte	0x3f8
 1499 07e3 51080000 		.4byte	0x851
 1500 07e7 0D       		.uleb128 0xd
 1501 07e8 43524C00 		.ascii	"CRL\000"
 1502 07ec 0B       		.byte	0xb
 1503 07ed FA03     		.2byte	0x3fa
 1504 07ef 7E030000 		.4byte	0x37e
 1505 07f3 02       		.byte	0x2
 1506 07f4 23       		.byte	0x23
 1507 07f5 00       		.uleb128 0x0
 1508 07f6 0D       		.uleb128 0xd
 1509 07f7 43524800 		.ascii	"CRH\000"
 1510 07fb 0B       		.byte	0xb
 1511 07fc FB03     		.2byte	0x3fb
 1512 07fe 7E030000 		.4byte	0x37e
 1513 0802 02       		.byte	0x2
 1514 0803 23       		.byte	0x23
 1515 0804 04       		.uleb128 0x4
 1516 0805 0D       		.uleb128 0xd
ARM GAS  C:\Users\DNIEL~1\AppData\Local\Temp\ccITf261.s 			page 28


 1517 0806 49445200 		.ascii	"IDR\000"
 1518 080a 0B       		.byte	0xb
 1519 080b FC03     		.2byte	0x3fc
 1520 080d 7E030000 		.4byte	0x37e
 1521 0811 02       		.byte	0x2
 1522 0812 23       		.byte	0x23
 1523 0813 08       		.uleb128 0x8
 1524 0814 0D       		.uleb128 0xd
 1525 0815 4F445200 		.ascii	"ODR\000"
 1526 0819 0B       		.byte	0xb
 1527 081a FD03     		.2byte	0x3fd
 1528 081c 7E030000 		.4byte	0x37e
 1529 0820 02       		.byte	0x2
 1530 0821 23       		.byte	0x23
 1531 0822 0C       		.uleb128 0xc
 1532 0823 14       		.uleb128 0x14
 1533 0824 DB000000 		.4byte	.LASF102
 1534 0828 0B       		.byte	0xb
 1535 0829 FE03     		.2byte	0x3fe
 1536 082b 7E030000 		.4byte	0x37e
 1537 082f 02       		.byte	0x2
 1538 0830 23       		.byte	0x23
 1539 0831 10       		.uleb128 0x10
 1540 0832 0D       		.uleb128 0xd
 1541 0833 42525200 		.ascii	"BRR\000"
 1542 0837 0B       		.byte	0xb
 1543 0838 FF03     		.2byte	0x3ff
 1544 083a 7E030000 		.4byte	0x37e
 1545 083e 02       		.byte	0x2
 1546 083f 23       		.byte	0x23
 1547 0840 14       		.uleb128 0x14
 1548 0841 14       		.uleb128 0x14
 1549 0842 FA010000 		.4byte	.LASF103
 1550 0846 0B       		.byte	0xb
 1551 0847 0004     		.2byte	0x400
 1552 0849 7E030000 		.4byte	0x37e
 1553 084d 02       		.byte	0x2
 1554 084e 23       		.byte	0x23
 1555 084f 18       		.uleb128 0x18
 1556 0850 00       		.byte	0x0
 1557 0851 15       		.uleb128 0x15
 1558 0852 DD010000 		.4byte	.LASF104
 1559 0856 0B       		.byte	0xb
 1560 0857 0104     		.2byte	0x401
 1561 0859 DE070000 		.4byte	0x7de
 1562 085d 07       		.uleb128 0x7
 1563 085e D7020000 		.4byte	.LASF105
 1564 0862 0C       		.byte	0xc
 1565 0863 6D       		.byte	0x6d
 1566 0864 A4000000 		.4byte	0xa4
 1567 0868 17       		.uleb128 0x17
 1568 0869 01       		.byte	0x1
 1569 086a 0D       		.byte	0xd
 1570 086b 6E       		.byte	0x6e
 1571 086c 8F080000 		.4byte	0x88f
 1572 0870 18       		.uleb128 0x18
 1573 0871 B2030000 		.4byte	.LASF106
ARM GAS  C:\Users\DNIEL~1\AppData\Local\Temp\ccITf261.s 			page 29


 1574 0875 00       		.sleb128 0
 1575 0876 18       		.uleb128 0x18
 1576 0877 35030000 		.4byte	.LASF107
 1577 087b 01       		.sleb128 1
 1578 087c 18       		.uleb128 0x18
 1579 087d CE000000 		.4byte	.LASF108
 1580 0881 02       		.sleb128 2
 1581 0882 18       		.uleb128 0x18
 1582 0883 70010000 		.4byte	.LASF109
 1583 0887 03       		.sleb128 3
 1584 0888 18       		.uleb128 0x18
 1585 0889 B6020000 		.4byte	.LASF110
 1586 088d 04       		.sleb128 4
 1587 088e 00       		.byte	0x0
 1588 088f 07       		.uleb128 0x7
 1589 0890 2A030000 		.4byte	.LASF111
 1590 0894 0D       		.byte	0xd
 1591 0895 74       		.byte	0x74
 1592 0896 68080000 		.4byte	0x868
 1593 089a 0B       		.uleb128 0xb
 1594 089b 01       		.byte	0x1
 1595 089c 0E       		.byte	0xe
 1596 089d 9A       		.byte	0x9a
 1597 089e D6080000 		.4byte	0x8d6
 1598 08a2 19       		.uleb128 0x19
 1599 08a3 444C4300 		.ascii	"DLC\000"
 1600 08a7 0E       		.byte	0xe
 1601 08a8 9B       		.byte	0x9b
 1602 08a9 83000000 		.4byte	0x83
 1603 08ad 01       		.byte	0x1
 1604 08ae 04       		.byte	0x4
 1605 08af 04       		.byte	0x4
 1606 08b0 02       		.byte	0x2
 1607 08b1 23       		.byte	0x23
 1608 08b2 00       		.uleb128 0x0
 1609 08b3 19       		.uleb128 0x19
 1610 08b4 52545200 		.ascii	"RTR\000"
 1611 08b8 0E       		.byte	0xe
 1612 08b9 9C       		.byte	0x9c
 1613 08ba 83000000 		.4byte	0x83
 1614 08be 01       		.byte	0x1
 1615 08bf 01       		.byte	0x1
 1616 08c0 03       		.byte	0x3
 1617 08c1 02       		.byte	0x2
 1618 08c2 23       		.byte	0x23
 1619 08c3 00       		.uleb128 0x0
 1620 08c4 19       		.uleb128 0x19
 1621 08c5 49444500 		.ascii	"IDE\000"
 1622 08c9 0E       		.byte	0xe
 1623 08ca 9D       		.byte	0x9d
 1624 08cb 83000000 		.4byte	0x83
 1625 08cf 01       		.byte	0x1
 1626 08d0 01       		.byte	0x1
 1627 08d1 02       		.byte	0x2
 1628 08d2 02       		.byte	0x2
 1629 08d3 23       		.byte	0x23
 1630 08d4 00       		.uleb128 0x0
ARM GAS  C:\Users\DNIEL~1\AppData\Local\Temp\ccITf261.s 			page 30


 1631 08d5 00       		.byte	0x0
 1632 08d6 0B       		.uleb128 0xb
 1633 08d7 04       		.byte	0x4
 1634 08d8 0E       		.byte	0xe
 1635 08d9 A0       		.byte	0xa0
 1636 08da F0080000 		.4byte	0x8f0
 1637 08de 19       		.uleb128 0x19
 1638 08df 53494400 		.ascii	"SID\000"
 1639 08e3 0E       		.byte	0xe
 1640 08e4 A1       		.byte	0xa1
 1641 08e5 A4000000 		.4byte	0xa4
 1642 08e9 04       		.byte	0x4
 1643 08ea 0B       		.byte	0xb
 1644 08eb 15       		.byte	0x15
 1645 08ec 02       		.byte	0x2
 1646 08ed 23       		.byte	0x23
 1647 08ee 00       		.uleb128 0x0
 1648 08ef 00       		.byte	0x0
 1649 08f0 0B       		.uleb128 0xb
 1650 08f1 04       		.byte	0x4
 1651 08f2 0E       		.byte	0xe
 1652 08f3 A3       		.byte	0xa3
 1653 08f4 0A090000 		.4byte	0x90a
 1654 08f8 19       		.uleb128 0x19
 1655 08f9 45494400 		.ascii	"EID\000"
 1656 08fd 0E       		.byte	0xe
 1657 08fe A4       		.byte	0xa4
 1658 08ff A4000000 		.4byte	0xa4
 1659 0903 04       		.byte	0x4
 1660 0904 1D       		.byte	0x1d
 1661 0905 03       		.byte	0x3
 1662 0906 02       		.byte	0x2
 1663 0907 23       		.byte	0x23
 1664 0908 00       		.uleb128 0x0
 1665 0909 00       		.byte	0x0
 1666 090a 0F       		.uleb128 0xf
 1667 090b 04       		.byte	0x4
 1668 090c 0E       		.byte	0xe
 1669 090d 9F       		.byte	0x9f
 1670 090e 1D090000 		.4byte	0x91d
 1671 0912 1A       		.uleb128 0x1a
 1672 0913 D6080000 		.4byte	0x8d6
 1673 0917 1A       		.uleb128 0x1a
 1674 0918 F0080000 		.4byte	0x8f0
 1675 091c 00       		.byte	0x0
 1676 091d 0F       		.uleb128 0xf
 1677 091e 08       		.byte	0x8
 1678 091f 0E       		.byte	0xe
 1679 0920 A7       		.byte	0xa7
 1680 0921 47090000 		.4byte	0x947
 1681 0925 10       		.uleb128 0x10
 1682 0926 C7020000 		.4byte	.LASF112
 1683 092a 0E       		.byte	0xe
 1684 092b A8       		.byte	0xa8
 1685 092c 47090000 		.4byte	0x947
 1686 0930 10       		.uleb128 0x10
 1687 0931 47050000 		.4byte	.LASF113
ARM GAS  C:\Users\DNIEL~1\AppData\Local\Temp\ccITf261.s 			page 31


 1688 0935 0E       		.byte	0xe
 1689 0936 A9       		.byte	0xa9
 1690 0937 57090000 		.4byte	0x957
 1691 093b 10       		.uleb128 0x10
 1692 093c 9D000000 		.4byte	.LASF114
 1693 0940 0E       		.byte	0xe
 1694 0941 AA       		.byte	0xaa
 1695 0942 33050000 		.4byte	0x533
 1696 0946 00       		.byte	0x0
 1697 0947 11       		.uleb128 0x11
 1698 0948 83000000 		.4byte	0x83
 1699 094c 57090000 		.4byte	0x957
 1700 0950 12       		.uleb128 0x12
 1701 0951 29000000 		.4byte	0x29
 1702 0955 07       		.byte	0x7
 1703 0956 00       		.byte	0x0
 1704 0957 11       		.uleb128 0x11
 1705 0958 8E000000 		.4byte	0x8e
 1706 095c 67090000 		.4byte	0x967
 1707 0960 12       		.uleb128 0x12
 1708 0961 29000000 		.4byte	0x29
 1709 0965 03       		.byte	0x3
 1710 0966 00       		.byte	0x0
 1711 0967 0B       		.uleb128 0xb
 1712 0968 10       		.byte	0x10
 1713 0969 0E       		.byte	0xe
 1714 096a 99       		.byte	0x99
 1715 096b 88090000 		.4byte	0x988
 1716 096f 1B       		.uleb128 0x1b
 1717 0970 9A080000 		.4byte	0x89a
 1718 0974 02       		.byte	0x2
 1719 0975 23       		.byte	0x23
 1720 0976 00       		.uleb128 0x0
 1721 0977 1B       		.uleb128 0x1b
 1722 0978 0A090000 		.4byte	0x90a
 1723 097c 02       		.byte	0x2
 1724 097d 23       		.byte	0x23
 1725 097e 04       		.uleb128 0x4
 1726 097f 1B       		.uleb128 0x1b
 1727 0980 1D090000 		.4byte	0x91d
 1728 0984 02       		.byte	0x2
 1729 0985 23       		.byte	0x23
 1730 0986 08       		.uleb128 0x8
 1731 0987 00       		.byte	0x0
 1732 0988 07       		.uleb128 0x7
 1733 0989 EF010000 		.4byte	.LASF115
 1734 098d 0E       		.byte	0xe
 1735 098e AC       		.byte	0xac
 1736 098f 67090000 		.4byte	0x967
 1737 0993 0B       		.uleb128 0xb
 1738 0994 04       		.byte	0x4
 1739 0995 0E       		.byte	0xe
 1740 0996 B4       		.byte	0xb4
 1741 0997 B8090000 		.4byte	0x9b8
 1742 099b 0A       		.uleb128 0xa
 1743 099c 464D4900 		.ascii	"FMI\000"
 1744 09a0 0E       		.byte	0xe
ARM GAS  C:\Users\DNIEL~1\AppData\Local\Temp\ccITf261.s 			page 32


 1745 09a1 B5       		.byte	0xb5
 1746 09a2 83000000 		.4byte	0x83
 1747 09a6 02       		.byte	0x2
 1748 09a7 23       		.byte	0x23
 1749 09a8 00       		.uleb128 0x0
 1750 09a9 09       		.uleb128 0x9
 1751 09aa 50010000 		.4byte	.LASF116
 1752 09ae 0E       		.byte	0xe
 1753 09af B6       		.byte	0xb6
 1754 09b0 8E000000 		.4byte	0x8e
 1755 09b4 02       		.byte	0x2
 1756 09b5 23       		.byte	0x23
 1757 09b6 02       		.uleb128 0x2
 1758 09b7 00       		.byte	0x0
 1759 09b8 0B       		.uleb128 0xb
 1760 09b9 01       		.byte	0x1
 1761 09ba 0E       		.byte	0xe
 1762 09bb B8       		.byte	0xb8
 1763 09bc F4090000 		.4byte	0x9f4
 1764 09c0 19       		.uleb128 0x19
 1765 09c1 444C4300 		.ascii	"DLC\000"
 1766 09c5 0E       		.byte	0xe
 1767 09c6 B9       		.byte	0xb9
 1768 09c7 83000000 		.4byte	0x83
 1769 09cb 01       		.byte	0x1
 1770 09cc 04       		.byte	0x4
 1771 09cd 04       		.byte	0x4
 1772 09ce 02       		.byte	0x2
 1773 09cf 23       		.byte	0x23
 1774 09d0 00       		.uleb128 0x0
 1775 09d1 19       		.uleb128 0x19
 1776 09d2 52545200 		.ascii	"RTR\000"
 1777 09d6 0E       		.byte	0xe
 1778 09d7 BA       		.byte	0xba
 1779 09d8 83000000 		.4byte	0x83
 1780 09dc 01       		.byte	0x1
 1781 09dd 01       		.byte	0x1
 1782 09de 03       		.byte	0x3
 1783 09df 02       		.byte	0x2
 1784 09e0 23       		.byte	0x23
 1785 09e1 00       		.uleb128 0x0
 1786 09e2 19       		.uleb128 0x19
 1787 09e3 49444500 		.ascii	"IDE\000"
 1788 09e7 0E       		.byte	0xe
 1789 09e8 BB       		.byte	0xbb
 1790 09e9 83000000 		.4byte	0x83
 1791 09ed 01       		.byte	0x1
 1792 09ee 01       		.byte	0x1
 1793 09ef 02       		.byte	0x2
 1794 09f0 02       		.byte	0x2
 1795 09f1 23       		.byte	0x23
 1796 09f2 00       		.uleb128 0x0
 1797 09f3 00       		.byte	0x0
 1798 09f4 0B       		.uleb128 0xb
 1799 09f5 04       		.byte	0x4
 1800 09f6 0E       		.byte	0xe
 1801 09f7 BE       		.byte	0xbe
ARM GAS  C:\Users\DNIEL~1\AppData\Local\Temp\ccITf261.s 			page 33


 1802 09f8 0E0A0000 		.4byte	0xa0e
 1803 09fc 19       		.uleb128 0x19
 1804 09fd 53494400 		.ascii	"SID\000"
 1805 0a01 0E       		.byte	0xe
 1806 0a02 BF       		.byte	0xbf
 1807 0a03 A4000000 		.4byte	0xa4
 1808 0a07 04       		.byte	0x4
 1809 0a08 0B       		.byte	0xb
 1810 0a09 15       		.byte	0x15
 1811 0a0a 02       		.byte	0x2
 1812 0a0b 23       		.byte	0x23
 1813 0a0c 00       		.uleb128 0x0
 1814 0a0d 00       		.byte	0x0
 1815 0a0e 0B       		.uleb128 0xb
 1816 0a0f 04       		.byte	0x4
 1817 0a10 0E       		.byte	0xe
 1818 0a11 C1       		.byte	0xc1
 1819 0a12 280A0000 		.4byte	0xa28
 1820 0a16 19       		.uleb128 0x19
 1821 0a17 45494400 		.ascii	"EID\000"
 1822 0a1b 0E       		.byte	0xe
 1823 0a1c C2       		.byte	0xc2
 1824 0a1d A4000000 		.4byte	0xa4
 1825 0a21 04       		.byte	0x4
 1826 0a22 1D       		.byte	0x1d
 1827 0a23 03       		.byte	0x3
 1828 0a24 02       		.byte	0x2
 1829 0a25 23       		.byte	0x23
 1830 0a26 00       		.uleb128 0x0
 1831 0a27 00       		.byte	0x0
 1832 0a28 0F       		.uleb128 0xf
 1833 0a29 04       		.byte	0x4
 1834 0a2a 0E       		.byte	0xe
 1835 0a2b BD       		.byte	0xbd
 1836 0a2c 3B0A0000 		.4byte	0xa3b
 1837 0a30 1A       		.uleb128 0x1a
 1838 0a31 F4090000 		.4byte	0x9f4
 1839 0a35 1A       		.uleb128 0x1a
 1840 0a36 0E0A0000 		.4byte	0xa0e
 1841 0a3a 00       		.byte	0x0
 1842 0a3b 0F       		.uleb128 0xf
 1843 0a3c 08       		.byte	0x8
 1844 0a3d 0E       		.byte	0xe
 1845 0a3e C5       		.byte	0xc5
 1846 0a3f 650A0000 		.4byte	0xa65
 1847 0a43 10       		.uleb128 0x10
 1848 0a44 C7020000 		.4byte	.LASF112
 1849 0a48 0E       		.byte	0xe
 1850 0a49 C6       		.byte	0xc6
 1851 0a4a 47090000 		.4byte	0x947
 1852 0a4e 10       		.uleb128 0x10
 1853 0a4f 47050000 		.4byte	.LASF113
 1854 0a53 0E       		.byte	0xe
 1855 0a54 C7       		.byte	0xc7
 1856 0a55 57090000 		.4byte	0x957
 1857 0a59 10       		.uleb128 0x10
 1858 0a5a 9D000000 		.4byte	.LASF114
ARM GAS  C:\Users\DNIEL~1\AppData\Local\Temp\ccITf261.s 			page 34


 1859 0a5e 0E       		.byte	0xe
 1860 0a5f C8       		.byte	0xc8
 1861 0a60 33050000 		.4byte	0x533
 1862 0a64 00       		.byte	0x0
 1863 0a65 0B       		.uleb128 0xb
 1864 0a66 14       		.byte	0x14
 1865 0a67 0E       		.byte	0xe
 1866 0a68 B3       		.byte	0xb3
 1867 0a69 8E0A0000 		.4byte	0xa8e
 1868 0a6d 1B       		.uleb128 0x1b
 1869 0a6e 93090000 		.4byte	0x993
 1870 0a72 02       		.byte	0x2
 1871 0a73 23       		.byte	0x23
 1872 0a74 00       		.uleb128 0x0
 1873 0a75 1B       		.uleb128 0x1b
 1874 0a76 B8090000 		.4byte	0x9b8
 1875 0a7a 02       		.byte	0x2
 1876 0a7b 23       		.byte	0x23
 1877 0a7c 04       		.uleb128 0x4
 1878 0a7d 1B       		.uleb128 0x1b
 1879 0a7e 280A0000 		.4byte	0xa28
 1880 0a82 02       		.byte	0x2
 1881 0a83 23       		.byte	0x23
 1882 0a84 08       		.uleb128 0x8
 1883 0a85 1B       		.uleb128 0x1b
 1884 0a86 3B0A0000 		.4byte	0xa3b
 1885 0a8a 02       		.byte	0x2
 1886 0a8b 23       		.byte	0x23
 1887 0a8c 0C       		.uleb128 0xc
 1888 0a8d 00       		.byte	0x0
 1889 0a8e 07       		.uleb128 0x7
 1890 0a8f 0D000000 		.4byte	.LASF117
 1891 0a93 0E       		.byte	0xe
 1892 0a94 CA       		.byte	0xca
 1893 0a95 650A0000 		.4byte	0xa65
 1894 0a99 0B       		.uleb128 0xb
 1895 0a9a 08       		.byte	0x8
 1896 0a9b 0E       		.byte	0xe
 1897 0a9c F4       		.byte	0xf4
 1898 0a9d BF0A0000 		.4byte	0xabf
 1899 0aa1 0A       		.uleb128 0xa
 1900 0aa2 6D637200 		.ascii	"mcr\000"
 1901 0aa6 0E       		.byte	0xe
 1902 0aa7 FA       		.byte	0xfa
 1903 0aa8 A4000000 		.4byte	0xa4
 1904 0aac 02       		.byte	0x2
 1905 0aad 23       		.byte	0x23
 1906 0aae 00       		.uleb128 0x0
 1907 0aaf 0D       		.uleb128 0xd
 1908 0ab0 62747200 		.ascii	"btr\000"
 1909 0ab4 0E       		.byte	0xe
 1910 0ab5 0001     		.2byte	0x100
 1911 0ab7 A4000000 		.4byte	0xa4
 1912 0abb 02       		.byte	0x2
 1913 0abc 23       		.byte	0x23
 1914 0abd 04       		.uleb128 0x4
 1915 0abe 00       		.byte	0x0
ARM GAS  C:\Users\DNIEL~1\AppData\Local\Temp\ccITf261.s 			page 35


 1916 0abf 15       		.uleb128 0x15
 1917 0ac0 28000000 		.4byte	.LASF118
 1918 0ac4 0E       		.byte	0xe
 1919 0ac5 0101     		.2byte	0x101
 1920 0ac7 990A0000 		.4byte	0xa99
 1921 0acb 13       		.uleb128 0x13
 1922 0acc 38       		.byte	0x38
 1923 0acd 0E       		.byte	0xe
 1924 0ace 0601     		.2byte	0x106
 1925 0ad0 6B0B0000 		.4byte	0xb6b
 1926 0ad4 14       		.uleb128 0x14
 1927 0ad5 0D010000 		.4byte	.LASF119
 1928 0ad9 0E       		.byte	0xe
 1929 0ada 0A01     		.2byte	0x10a
 1930 0adc 8F080000 		.4byte	0x88f
 1931 0ae0 02       		.byte	0x2
 1932 0ae1 23       		.byte	0x23
 1933 0ae2 00       		.uleb128 0x0
 1934 0ae3 14       		.uleb128 0x14
 1935 0ae4 E4040000 		.4byte	.LASF120
 1936 0ae8 0E       		.byte	0xe
 1937 0ae9 0E01     		.2byte	0x10e
 1938 0aeb 6B0B0000 		.4byte	0xb6b
 1939 0aef 02       		.byte	0x2
 1940 0af0 23       		.byte	0x23
 1941 0af1 04       		.uleb128 0x4
 1942 0af2 14       		.uleb128 0x14
 1943 0af3 F0000000 		.4byte	.LASF121
 1944 0af7 0E       		.byte	0xe
 1945 0af8 1201     		.2byte	0x112
 1946 0afa 19040000 		.4byte	0x419
 1947 0afe 02       		.byte	0x2
 1948 0aff 23       		.byte	0x23
 1949 0b00 08       		.uleb128 0x8
 1950 0b01 14       		.uleb128 0x14
 1951 0b02 8B050000 		.4byte	.LASF122
 1952 0b06 0E       		.byte	0xe
 1953 0b07 1601     		.2byte	0x116
 1954 0b09 19040000 		.4byte	0x419
 1955 0b0d 02       		.byte	0x2
 1956 0b0e 23       		.byte	0x23
 1957 0b0f 14       		.uleb128 0x14
 1958 0b10 14       		.uleb128 0x14
 1959 0b11 7F010000 		.4byte	.LASF123
 1960 0b15 0E       		.byte	0xe
 1961 0b16 2301     		.2byte	0x123
 1962 0b18 DD040000 		.4byte	0x4dd
 1963 0b1c 02       		.byte	0x2
 1964 0b1d 23       		.byte	0x23
 1965 0b1e 20       		.uleb128 0x20
 1966 0b1f 14       		.uleb128 0x14
 1967 0b20 B6040000 		.4byte	.LASF124
 1968 0b24 0E       		.byte	0xe
 1969 0b25 2A01     		.2byte	0x12a
 1970 0b27 DD040000 		.4byte	0x4dd
 1971 0b2b 02       		.byte	0x2
 1972 0b2c 23       		.byte	0x23
ARM GAS  C:\Users\DNIEL~1\AppData\Local\Temp\ccITf261.s 			page 36


 1973 0b2d 24       		.uleb128 0x24
 1974 0b2e 14       		.uleb128 0x14
 1975 0b2f 50030000 		.4byte	.LASF125
 1976 0b33 0E       		.byte	0xe
 1977 0b34 3001     		.2byte	0x130
 1978 0b36 DD040000 		.4byte	0x4dd
 1979 0b3a 02       		.byte	0x2
 1980 0b3b 23       		.byte	0x23
 1981 0b3c 28       		.uleb128 0x28
 1982 0b3d 14       		.uleb128 0x14
 1983 0b3e 1E030000 		.4byte	.LASF126
 1984 0b42 0E       		.byte	0xe
 1985 0b43 3501     		.2byte	0x135
 1986 0b45 DD040000 		.4byte	0x4dd
 1987 0b49 02       		.byte	0x2
 1988 0b4a 23       		.byte	0x23
 1989 0b4b 2C       		.uleb128 0x2c
 1990 0b4c 14       		.uleb128 0x14
 1991 0b4d E6030000 		.4byte	.LASF127
 1992 0b51 0E       		.byte	0xe
 1993 0b52 3901     		.2byte	0x139
 1994 0b54 DD040000 		.4byte	0x4dd
 1995 0b58 02       		.byte	0x2
 1996 0b59 23       		.byte	0x23
 1997 0b5a 30       		.uleb128 0x30
 1998 0b5b 0D       		.uleb128 0xd
 1999 0b5c 63616E00 		.ascii	"can\000"
 2000 0b60 0E       		.byte	0xe
 2001 0b61 3F01     		.2byte	0x13f
 2002 0b63 760B0000 		.4byte	0xb76
 2003 0b67 02       		.byte	0x2
 2004 0b68 23       		.byte	0x23
 2005 0b69 34       		.uleb128 0x34
 2006 0b6a 00       		.byte	0x0
 2007 0b6b 05       		.uleb128 0x5
 2008 0b6c 04       		.byte	0x4
 2009 0b6d 710B0000 		.4byte	0xb71
 2010 0b71 06       		.uleb128 0x6
 2011 0b72 BF0A0000 		.4byte	0xabf
 2012 0b76 05       		.uleb128 0x5
 2013 0b77 04       		.byte	0x4
 2014 0b78 D2070000 		.4byte	0x7d2
 2015 0b7c 15       		.uleb128 0x15
 2016 0b7d CD020000 		.4byte	.LASF128
 2017 0b81 0E       		.byte	0xe
 2018 0b82 4001     		.2byte	0x140
 2019 0b84 CB0A0000 		.4byte	0xacb
 2020 0b88 1C       		.uleb128 0x1c
 2021 0b89 D9030000 		.4byte	.LASF134
 2022 0b8d 01       		.byte	0x1
 2023 0b8e 0F       		.byte	0xf
 2024 0b8f 0C       		.byte	0xc
 2025 0b90 B30B0000 		.4byte	0xbb3
 2026 0b94 18       		.uleb128 0x18
 2027 0b95 CF050000 		.4byte	.LASF129
 2028 0b99 00       		.sleb128 0
 2029 0b9a 18       		.uleb128 0x18
ARM GAS  C:\Users\DNIEL~1\AppData\Local\Temp\ccITf261.s 			page 37


 2030 0b9b 65010000 		.4byte	.LASF130
 2031 0b9f 01       		.sleb128 1
 2032 0ba0 18       		.uleb128 0x18
 2033 0ba1 83020000 		.4byte	.LASF131
 2034 0ba5 02       		.sleb128 2
 2035 0ba6 18       		.uleb128 0x18
 2036 0ba7 3B040000 		.4byte	.LASF132
 2037 0bab 03       		.sleb128 3
 2038 0bac 18       		.uleb128 0x18
 2039 0bad 44030000 		.4byte	.LASF133
 2040 0bb1 04       		.sleb128 4
 2041 0bb2 00       		.byte	0x0
 2042 0bb3 1C       		.uleb128 0x1c
 2043 0bb4 72040000 		.4byte	.LASF135
 2044 0bb8 04       		.byte	0x4
 2045 0bb9 01       		.byte	0x1
 2046 0bba 12       		.byte	0x12
 2047 0bbb D20B0000 		.4byte	0xbd2
 2048 0bbf 18       		.uleb128 0x18
 2049 0bc0 7D040000 		.4byte	.LASF136
 2050 0bc4 E78A8D09 		.sleb128 19088743
 2051 0bc8 18       		.uleb128 0x18
 2052 0bc9 F6000000 		.4byte	.LASF137
 2053 0bcd E88A8D09 		.sleb128 19088744
 2054 0bd1 00       		.byte	0x0
 2055 0bd2 1D       		.uleb128 0x1d
 2056 0bd3 7C020000 		.4byte	.LASF154
 2057 0bd7 01       		.byte	0x1
 2058 0bd8 46       		.byte	0x46
 2059 0bd9 01       		.byte	0x1
 2060 0bda F8000000 		.4byte	0xf8
 2061 0bde 00000000 		.4byte	.LFB56
 2062 0be2 D8000000 		.4byte	.LFE56
 2063 0be6 00000000 		.4byte	.LLST0
 2064 0bea 180C0000 		.4byte	0xc18
 2065 0bee 1E       		.uleb128 0x1e
 2066 0bef 7000     		.ascii	"p\000"
 2067 0bf1 01       		.byte	0x1
 2068 0bf2 46       		.byte	0x46
 2069 0bf3 68000000 		.4byte	0x68
 2070 0bf7 2C000000 		.4byte	.LLST1
 2071 0bfb 1F       		.uleb128 0x1f
 2072 0bfc 656C00   		.ascii	"el\000"
 2073 0bff 01       		.byte	0x1
 2074 0c00 47       		.byte	0x47
 2075 0c01 6C040000 		.4byte	0x46c
 2076 0c05 02       		.byte	0x2
 2077 0c06 91       		.byte	0x91
 2078 0c07 50       		.sleb128 -48
 2079 0c08 20       		.uleb128 0x20
 2080 0c09 91050000 		.4byte	.LASF138
 2081 0c0d 01       		.byte	0x1
 2082 0c0e 48       		.byte	0x48
 2083 0c0f F8000000 		.4byte	0xf8
 2084 0c13 3F000000 		.4byte	.LLST2
 2085 0c17 00       		.byte	0x0
 2086 0c18 21       		.uleb128 0x21
ARM GAS  C:\Users\DNIEL~1\AppData\Local\Temp\ccITf261.s 			page 38


 2087 0c19 01       		.byte	0x1
 2088 0c1a 5C030000 		.4byte	.LASF139
 2089 0c1e 01       		.byte	0x1
 2090 0c1f A6       		.byte	0xa6
 2091 0c20 01       		.byte	0x1
 2092 0c21 00000000 		.4byte	.LFB58
 2093 0c25 D4000000 		.4byte	.LFE58
 2094 0c29 53000000 		.4byte	.LLST3
 2095 0c2d 22       		.uleb128 0x22
 2096 0c2e 01       		.byte	0x1
 2097 0c2f E0050000 		.4byte	.LASF140
 2098 0c33 01       		.byte	0x1
 2099 0c34 BF       		.byte	0xbf
 2100 0c35 01       		.byte	0x1
 2101 0c36 00000000 		.4byte	.LFB59
 2102 0c3a 02000000 		.4byte	.LFE59
 2103 0c3e 02       		.byte	0x2
 2104 0c3f 7D       		.byte	0x7d
 2105 0c40 00       		.sleb128 0
 2106 0c41 23       		.uleb128 0x23
 2107 0c42 7D050000 		.4byte	.LASF141
 2108 0c46 07       		.byte	0x7
 2109 0c47 6F       		.byte	0x6f
 2110 0c48 E5030000 		.4byte	0x3e5
 2111 0c4c 01       		.byte	0x1
 2112 0c4d 01       		.byte	0x1
 2113 0c4e 24       		.uleb128 0x24
 2114 0c4f FF030000 		.4byte	.LASF142
 2115 0c53 10       		.byte	0x10
 2116 0c54 0706     		.2byte	0x607
 2117 0c56 43050000 		.4byte	0x543
 2118 0c5a 01       		.byte	0x1
 2119 0c5b 01       		.byte	0x1
 2120 0c5c 24       		.uleb128 0x24
 2121 0c5d C1010000 		.4byte	.LASF143
 2122 0c61 0E       		.byte	0xe
 2123 0c62 4B01     		.2byte	0x14b
 2124 0c64 7C0B0000 		.4byte	0xb7c
 2125 0c68 01       		.byte	0x1
 2126 0c69 01       		.byte	0x1
 2127 0c6a 11       		.uleb128 0x11
 2128 0c6b 83000000 		.4byte	0x83
 2129 0c6f 7A0C0000 		.4byte	0xc7a
 2130 0c73 12       		.uleb128 0x12
 2131 0c74 29000000 		.4byte	0x29
 2132 0c78 05       		.byte	0x5
 2133 0c79 00       		.byte	0x0
 2134 0c7a 25       		.uleb128 0x25
 2135 0c7b AB000000 		.4byte	.LASF148
 2136 0c7f 01       		.byte	0x1
 2137 0c80 18       		.byte	0x18
 2138 0c81 850C0000 		.4byte	0xc85
 2139 0c85 06       		.uleb128 0x6
 2140 0c86 6A0C0000 		.4byte	0xc6a
 2141 0c8a 26       		.uleb128 0x26
 2142 0c8b 00000000 		.4byte	.LASF144
 2143 0c8f 01       		.byte	0x1
ARM GAS  C:\Users\DNIEL~1\AppData\Local\Temp\ccITf261.s 			page 39


 2144 0c90 1F       		.byte	0x1f
 2145 0c91 8E0A0000 		.4byte	0xa8e
 2146 0c95 05       		.byte	0x5
 2147 0c96 03       		.byte	0x3
 2148 0c97 00000000 		.4byte	rxmsg
 2149 0c9b 26       		.uleb128 0x26
 2150 0c9c 41050000 		.4byte	.LASF145
 2151 0ca0 01       		.byte	0x1
 2152 0ca1 20       		.byte	0x20
 2153 0ca2 88090000 		.4byte	0x988
 2154 0ca6 05       		.byte	0x5
 2155 0ca7 03       		.byte	0x3
 2156 0ca8 00000000 		.4byte	txmsg
 2157 0cac 1F       		.uleb128 0x1f
 2158 0cad 696400   		.ascii	"id\000"
 2159 0cb0 01       		.byte	0x1
 2160 0cb1 21       		.byte	0x21
 2161 0cb2 8E000000 		.4byte	0x8e
 2162 0cb6 05       		.byte	0x5
 2163 0cb7 03       		.byte	0x3
 2164 0cb8 00000000 		.4byte	id
 2165 0cbc 26       		.uleb128 0x26
 2166 0cbd C0020000 		.4byte	.LASF146
 2167 0cc1 01       		.byte	0x1
 2168 0cc2 3C       		.byte	0x3c
 2169 0cc3 710B0000 		.4byte	0xb71
 2170 0cc7 05       		.byte	0x5
 2171 0cc8 03       		.byte	0x3
 2172 0cc9 00000000 		.4byte	cancfg
 2173 0ccd 11       		.uleb128 0x11
 2174 0cce C2020000 		.4byte	0x2c2
 2175 0cd2 DD0C0000 		.4byte	0xcdd
 2176 0cd6 12       		.uleb128 0x12
 2177 0cd7 29000000 		.4byte	0x29
 2178 0cdb 39       		.byte	0x39
 2179 0cdc 00       		.byte	0x0
 2180 0cdd 26       		.uleb128 0x26
 2181 0cde 90020000 		.4byte	.LASF147
 2182 0ce2 01       		.byte	0x1
 2183 0ce3 45       		.byte	0x45
 2184 0ce4 CD0C0000 		.4byte	0xccd
 2185 0ce8 05       		.byte	0x5
 2186 0ce9 03       		.byte	0x3
 2187 0cea 00000000 		.4byte	can_rx_wa
 2188 0cee 25       		.uleb128 0x25
 2189 0cef 86040000 		.4byte	.LASF149
 2190 0cf3 01       		.byte	0x1
 2191 0cf4 93       		.byte	0x93
 2192 0cf5 CD0C0000 		.4byte	0xccd
 2193 0cf9 23       		.uleb128 0x23
 2194 0cfa 7D050000 		.4byte	.LASF141
 2195 0cfe 07       		.byte	0x7
 2196 0cff 6F       		.byte	0x6f
 2197 0d00 E5030000 		.4byte	0x3e5
 2198 0d04 01       		.byte	0x1
 2199 0d05 01       		.byte	0x1
 2200 0d06 24       		.uleb128 0x24
ARM GAS  C:\Users\DNIEL~1\AppData\Local\Temp\ccITf261.s 			page 40


 2201 0d07 FF030000 		.4byte	.LASF142
 2202 0d0b 10       		.byte	0x10
 2203 0d0c 0706     		.2byte	0x607
 2204 0d0e 43050000 		.4byte	0x543
 2205 0d12 01       		.byte	0x1
 2206 0d13 01       		.byte	0x1
 2207 0d14 24       		.uleb128 0x24
 2208 0d15 C1010000 		.4byte	.LASF143
 2209 0d19 0E       		.byte	0xe
 2210 0d1a 4B01     		.2byte	0x14b
 2211 0d1c 7C0B0000 		.4byte	0xb7c
 2212 0d20 01       		.byte	0x1
 2213 0d21 01       		.byte	0x1
 2214 0d22 27       		.uleb128 0x27
 2215 0d23 72040000 		.4byte	.LASF135
 2216 0d27 01       		.byte	0x1
 2217 0d28 16       		.byte	0x16
 2218 0d29 B30B0000 		.4byte	0xbb3
 2219 0d2d 01       		.byte	0x1
 2220 0d2e 05       		.byte	0x5
 2221 0d2f 03       		.byte	0x3
 2222 0d30 00000000 		.4byte	canComands
 2223 0d34 27       		.uleb128 0x27
 2224 0d35 DB040000 		.4byte	.LASF150
 2225 0d39 01       		.byte	0x1
 2226 0d3a 23       		.byte	0x23
 2227 0d3b A4000000 		.4byte	0xa4
 2228 0d3f 01       		.byte	0x1
 2229 0d40 05       		.byte	0x5
 2230 0d41 03       		.byte	0x3
 2231 0d42 00000000 		.4byte	canRxEID
 2232 0d46 00       		.byte	0x0
 2233              		.section	.debug_abbrev
 2234 0000 01       		.uleb128 0x1
 2235 0001 11       		.uleb128 0x11
 2236 0002 01       		.byte	0x1
 2237 0003 25       		.uleb128 0x25
 2238 0004 0E       		.uleb128 0xe
 2239 0005 13       		.uleb128 0x13
 2240 0006 0B       		.uleb128 0xb
 2241 0007 03       		.uleb128 0x3
 2242 0008 0E       		.uleb128 0xe
 2243 0009 1B       		.uleb128 0x1b
 2244 000a 0E       		.uleb128 0xe
 2245 000b 11       		.uleb128 0x11
 2246 000c 01       		.uleb128 0x1
 2247 000d 52       		.uleb128 0x52
 2248 000e 01       		.uleb128 0x1
 2249 000f 55       		.uleb128 0x55
 2250 0010 06       		.uleb128 0x6
 2251 0011 10       		.uleb128 0x10
 2252 0012 06       		.uleb128 0x6
 2253 0013 00       		.byte	0x0
 2254 0014 00       		.byte	0x0
 2255 0015 02       		.uleb128 0x2
 2256 0016 24       		.uleb128 0x24
 2257 0017 00       		.byte	0x0
ARM GAS  C:\Users\DNIEL~1\AppData\Local\Temp\ccITf261.s 			page 41


 2258 0018 0B       		.uleb128 0xb
 2259 0019 0B       		.uleb128 0xb
 2260 001a 3E       		.uleb128 0x3e
 2261 001b 0B       		.uleb128 0xb
 2262 001c 03       		.uleb128 0x3
 2263 001d 0E       		.uleb128 0xe
 2264 001e 00       		.byte	0x0
 2265 001f 00       		.byte	0x0
 2266 0020 03       		.uleb128 0x3
 2267 0021 24       		.uleb128 0x24
 2268 0022 00       		.byte	0x0
 2269 0023 0B       		.uleb128 0xb
 2270 0024 0B       		.uleb128 0xb
 2271 0025 3E       		.uleb128 0x3e
 2272 0026 0B       		.uleb128 0xb
 2273 0027 03       		.uleb128 0x3
 2274 0028 08       		.uleb128 0x8
 2275 0029 00       		.byte	0x0
 2276 002a 00       		.byte	0x0
 2277 002b 04       		.uleb128 0x4
 2278 002c 0F       		.uleb128 0xf
 2279 002d 00       		.byte	0x0
 2280 002e 0B       		.uleb128 0xb
 2281 002f 0B       		.uleb128 0xb
 2282 0030 00       		.byte	0x0
 2283 0031 00       		.byte	0x0
 2284 0032 05       		.uleb128 0x5
 2285 0033 0F       		.uleb128 0xf
 2286 0034 00       		.byte	0x0
 2287 0035 0B       		.uleb128 0xb
 2288 0036 0B       		.uleb128 0xb
 2289 0037 49       		.uleb128 0x49
 2290 0038 13       		.uleb128 0x13
 2291 0039 00       		.byte	0x0
 2292 003a 00       		.byte	0x0
 2293 003b 06       		.uleb128 0x6
 2294 003c 26       		.uleb128 0x26
 2295 003d 00       		.byte	0x0
 2296 003e 49       		.uleb128 0x49
 2297 003f 13       		.uleb128 0x13
 2298 0040 00       		.byte	0x0
 2299 0041 00       		.byte	0x0
 2300 0042 07       		.uleb128 0x7
 2301 0043 16       		.uleb128 0x16
 2302 0044 00       		.byte	0x0
 2303 0045 03       		.uleb128 0x3
 2304 0046 0E       		.uleb128 0xe
 2305 0047 3A       		.uleb128 0x3a
 2306 0048 0B       		.uleb128 0xb
 2307 0049 3B       		.uleb128 0x3b
 2308 004a 0B       		.uleb128 0xb
 2309 004b 49       		.uleb128 0x49
 2310 004c 13       		.uleb128 0x13
 2311 004d 00       		.byte	0x0
 2312 004e 00       		.byte	0x0
 2313 004f 08       		.uleb128 0x8
 2314 0050 13       		.uleb128 0x13
ARM GAS  C:\Users\DNIEL~1\AppData\Local\Temp\ccITf261.s 			page 42


 2315 0051 01       		.byte	0x1
 2316 0052 03       		.uleb128 0x3
 2317 0053 0E       		.uleb128 0xe
 2318 0054 0B       		.uleb128 0xb
 2319 0055 0B       		.uleb128 0xb
 2320 0056 3A       		.uleb128 0x3a
 2321 0057 0B       		.uleb128 0xb
 2322 0058 3B       		.uleb128 0x3b
 2323 0059 0B       		.uleb128 0xb
 2324 005a 01       		.uleb128 0x1
 2325 005b 13       		.uleb128 0x13
 2326 005c 00       		.byte	0x0
 2327 005d 00       		.byte	0x0
 2328 005e 09       		.uleb128 0x9
 2329 005f 0D       		.uleb128 0xd
 2330 0060 00       		.byte	0x0
 2331 0061 03       		.uleb128 0x3
 2332 0062 0E       		.uleb128 0xe
 2333 0063 3A       		.uleb128 0x3a
 2334 0064 0B       		.uleb128 0xb
 2335 0065 3B       		.uleb128 0x3b
 2336 0066 0B       		.uleb128 0xb
 2337 0067 49       		.uleb128 0x49
 2338 0068 13       		.uleb128 0x13
 2339 0069 38       		.uleb128 0x38
 2340 006a 0A       		.uleb128 0xa
 2341 006b 00       		.byte	0x0
 2342 006c 00       		.byte	0x0
 2343 006d 0A       		.uleb128 0xa
 2344 006e 0D       		.uleb128 0xd
 2345 006f 00       		.byte	0x0
 2346 0070 03       		.uleb128 0x3
 2347 0071 08       		.uleb128 0x8
 2348 0072 3A       		.uleb128 0x3a
 2349 0073 0B       		.uleb128 0xb
 2350 0074 3B       		.uleb128 0x3b
 2351 0075 0B       		.uleb128 0xb
 2352 0076 49       		.uleb128 0x49
 2353 0077 13       		.uleb128 0x13
 2354 0078 38       		.uleb128 0x38
 2355 0079 0A       		.uleb128 0xa
 2356 007a 00       		.byte	0x0
 2357 007b 00       		.byte	0x0
 2358 007c 0B       		.uleb128 0xb
 2359 007d 13       		.uleb128 0x13
 2360 007e 01       		.byte	0x1
 2361 007f 0B       		.uleb128 0xb
 2362 0080 0B       		.uleb128 0xb
 2363 0081 3A       		.uleb128 0x3a
 2364 0082 0B       		.uleb128 0xb
 2365 0083 3B       		.uleb128 0x3b
 2366 0084 0B       		.uleb128 0xb
 2367 0085 01       		.uleb128 0x1
 2368 0086 13       		.uleb128 0x13
 2369 0087 00       		.byte	0x0
 2370 0088 00       		.byte	0x0
 2371 0089 0C       		.uleb128 0xc
ARM GAS  C:\Users\DNIEL~1\AppData\Local\Temp\ccITf261.s 			page 43


 2372 008a 13       		.uleb128 0x13
 2373 008b 01       		.byte	0x1
 2374 008c 03       		.uleb128 0x3
 2375 008d 0E       		.uleb128 0xe
 2376 008e 0B       		.uleb128 0xb
 2377 008f 0B       		.uleb128 0xb
 2378 0090 3A       		.uleb128 0x3a
 2379 0091 0B       		.uleb128 0xb
 2380 0092 3B       		.uleb128 0x3b
 2381 0093 05       		.uleb128 0x5
 2382 0094 01       		.uleb128 0x1
 2383 0095 13       		.uleb128 0x13
 2384 0096 00       		.byte	0x0
 2385 0097 00       		.byte	0x0
 2386 0098 0D       		.uleb128 0xd
 2387 0099 0D       		.uleb128 0xd
 2388 009a 00       		.byte	0x0
 2389 009b 03       		.uleb128 0x3
 2390 009c 08       		.uleb128 0x8
 2391 009d 3A       		.uleb128 0x3a
 2392 009e 0B       		.uleb128 0xb
 2393 009f 3B       		.uleb128 0x3b
 2394 00a0 05       		.uleb128 0x5
 2395 00a1 49       		.uleb128 0x49
 2396 00a2 13       		.uleb128 0x13
 2397 00a3 38       		.uleb128 0x38
 2398 00a4 0A       		.uleb128 0xa
 2399 00a5 00       		.byte	0x0
 2400 00a6 00       		.byte	0x0
 2401 00a7 0E       		.uleb128 0xe
 2402 00a8 35       		.uleb128 0x35
 2403 00a9 00       		.byte	0x0
 2404 00aa 49       		.uleb128 0x49
 2405 00ab 13       		.uleb128 0x13
 2406 00ac 00       		.byte	0x0
 2407 00ad 00       		.byte	0x0
 2408 00ae 0F       		.uleb128 0xf
 2409 00af 17       		.uleb128 0x17
 2410 00b0 01       		.byte	0x1
 2411 00b1 0B       		.uleb128 0xb
 2412 00b2 0B       		.uleb128 0xb
 2413 00b3 3A       		.uleb128 0x3a
 2414 00b4 0B       		.uleb128 0xb
 2415 00b5 3B       		.uleb128 0x3b
 2416 00b6 0B       		.uleb128 0xb
 2417 00b7 01       		.uleb128 0x1
 2418 00b8 13       		.uleb128 0x13
 2419 00b9 00       		.byte	0x0
 2420 00ba 00       		.byte	0x0
 2421 00bb 10       		.uleb128 0x10
 2422 00bc 0D       		.uleb128 0xd
 2423 00bd 00       		.byte	0x0
 2424 00be 03       		.uleb128 0x3
 2425 00bf 0E       		.uleb128 0xe
 2426 00c0 3A       		.uleb128 0x3a
 2427 00c1 0B       		.uleb128 0xb
 2428 00c2 3B       		.uleb128 0x3b
ARM GAS  C:\Users\DNIEL~1\AppData\Local\Temp\ccITf261.s 			page 44


 2429 00c3 0B       		.uleb128 0xb
 2430 00c4 49       		.uleb128 0x49
 2431 00c5 13       		.uleb128 0x13
 2432 00c6 00       		.byte	0x0
 2433 00c7 00       		.byte	0x0
 2434 00c8 11       		.uleb128 0x11
 2435 00c9 01       		.uleb128 0x1
 2436 00ca 01       		.byte	0x1
 2437 00cb 49       		.uleb128 0x49
 2438 00cc 13       		.uleb128 0x13
 2439 00cd 01       		.uleb128 0x1
 2440 00ce 13       		.uleb128 0x13
 2441 00cf 00       		.byte	0x0
 2442 00d0 00       		.byte	0x0
 2443 00d1 12       		.uleb128 0x12
 2444 00d2 21       		.uleb128 0x21
 2445 00d3 00       		.byte	0x0
 2446 00d4 49       		.uleb128 0x49
 2447 00d5 13       		.uleb128 0x13
 2448 00d6 2F       		.uleb128 0x2f
 2449 00d7 0B       		.uleb128 0xb
 2450 00d8 00       		.byte	0x0
 2451 00d9 00       		.byte	0x0
 2452 00da 13       		.uleb128 0x13
 2453 00db 13       		.uleb128 0x13
 2454 00dc 01       		.byte	0x1
 2455 00dd 0B       		.uleb128 0xb
 2456 00de 0B       		.uleb128 0xb
 2457 00df 3A       		.uleb128 0x3a
 2458 00e0 0B       		.uleb128 0xb
 2459 00e1 3B       		.uleb128 0x3b
 2460 00e2 05       		.uleb128 0x5
 2461 00e3 01       		.uleb128 0x1
 2462 00e4 13       		.uleb128 0x13
 2463 00e5 00       		.byte	0x0
 2464 00e6 00       		.byte	0x0
 2465 00e7 14       		.uleb128 0x14
 2466 00e8 0D       		.uleb128 0xd
 2467 00e9 00       		.byte	0x0
 2468 00ea 03       		.uleb128 0x3
 2469 00eb 0E       		.uleb128 0xe
 2470 00ec 3A       		.uleb128 0x3a
 2471 00ed 0B       		.uleb128 0xb
 2472 00ee 3B       		.uleb128 0x3b
 2473 00ef 05       		.uleb128 0x5
 2474 00f0 49       		.uleb128 0x49
 2475 00f1 13       		.uleb128 0x13
 2476 00f2 38       		.uleb128 0x38
 2477 00f3 0A       		.uleb128 0xa
 2478 00f4 00       		.byte	0x0
 2479 00f5 00       		.byte	0x0
 2480 00f6 15       		.uleb128 0x15
 2481 00f7 16       		.uleb128 0x16
 2482 00f8 00       		.byte	0x0
 2483 00f9 03       		.uleb128 0x3
 2484 00fa 0E       		.uleb128 0xe
 2485 00fb 3A       		.uleb128 0x3a
ARM GAS  C:\Users\DNIEL~1\AppData\Local\Temp\ccITf261.s 			page 45


 2486 00fc 0B       		.uleb128 0xb
 2487 00fd 3B       		.uleb128 0x3b
 2488 00fe 05       		.uleb128 0x5
 2489 00ff 49       		.uleb128 0x49
 2490 0100 13       		.uleb128 0x13
 2491 0101 00       		.byte	0x0
 2492 0102 00       		.byte	0x0
 2493 0103 16       		.uleb128 0x16
 2494 0104 13       		.uleb128 0x13
 2495 0105 01       		.byte	0x1
 2496 0106 0B       		.uleb128 0xb
 2497 0107 05       		.uleb128 0x5
 2498 0108 3A       		.uleb128 0x3a
 2499 0109 0B       		.uleb128 0xb
 2500 010a 3B       		.uleb128 0x3b
 2501 010b 05       		.uleb128 0x5
 2502 010c 01       		.uleb128 0x1
 2503 010d 13       		.uleb128 0x13
 2504 010e 00       		.byte	0x0
 2505 010f 00       		.byte	0x0
 2506 0110 17       		.uleb128 0x17
 2507 0111 04       		.uleb128 0x4
 2508 0112 01       		.byte	0x1
 2509 0113 0B       		.uleb128 0xb
 2510 0114 0B       		.uleb128 0xb
 2511 0115 3A       		.uleb128 0x3a
 2512 0116 0B       		.uleb128 0xb
 2513 0117 3B       		.uleb128 0x3b
 2514 0118 0B       		.uleb128 0xb
 2515 0119 01       		.uleb128 0x1
 2516 011a 13       		.uleb128 0x13
 2517 011b 00       		.byte	0x0
 2518 011c 00       		.byte	0x0
 2519 011d 18       		.uleb128 0x18
 2520 011e 28       		.uleb128 0x28
 2521 011f 00       		.byte	0x0
 2522 0120 03       		.uleb128 0x3
 2523 0121 0E       		.uleb128 0xe
 2524 0122 1C       		.uleb128 0x1c
 2525 0123 0D       		.uleb128 0xd
 2526 0124 00       		.byte	0x0
 2527 0125 00       		.byte	0x0
 2528 0126 19       		.uleb128 0x19
 2529 0127 0D       		.uleb128 0xd
 2530 0128 00       		.byte	0x0
 2531 0129 03       		.uleb128 0x3
 2532 012a 08       		.uleb128 0x8
 2533 012b 3A       		.uleb128 0x3a
 2534 012c 0B       		.uleb128 0xb
 2535 012d 3B       		.uleb128 0x3b
 2536 012e 0B       		.uleb128 0xb
 2537 012f 49       		.uleb128 0x49
 2538 0130 13       		.uleb128 0x13
 2539 0131 0B       		.uleb128 0xb
 2540 0132 0B       		.uleb128 0xb
 2541 0133 0D       		.uleb128 0xd
 2542 0134 0B       		.uleb128 0xb
ARM GAS  C:\Users\DNIEL~1\AppData\Local\Temp\ccITf261.s 			page 46


 2543 0135 0C       		.uleb128 0xc
 2544 0136 0B       		.uleb128 0xb
 2545 0137 38       		.uleb128 0x38
 2546 0138 0A       		.uleb128 0xa
 2547 0139 00       		.byte	0x0
 2548 013a 00       		.byte	0x0
 2549 013b 1A       		.uleb128 0x1a
 2550 013c 0D       		.uleb128 0xd
 2551 013d 00       		.byte	0x0
 2552 013e 49       		.uleb128 0x49
 2553 013f 13       		.uleb128 0x13
 2554 0140 00       		.byte	0x0
 2555 0141 00       		.byte	0x0
 2556 0142 1B       		.uleb128 0x1b
 2557 0143 0D       		.uleb128 0xd
 2558 0144 00       		.byte	0x0
 2559 0145 49       		.uleb128 0x49
 2560 0146 13       		.uleb128 0x13
 2561 0147 38       		.uleb128 0x38
 2562 0148 0A       		.uleb128 0xa
 2563 0149 00       		.byte	0x0
 2564 014a 00       		.byte	0x0
 2565 014b 1C       		.uleb128 0x1c
 2566 014c 04       		.uleb128 0x4
 2567 014d 01       		.byte	0x1
 2568 014e 03       		.uleb128 0x3
 2569 014f 0E       		.uleb128 0xe
 2570 0150 0B       		.uleb128 0xb
 2571 0151 0B       		.uleb128 0xb
 2572 0152 3A       		.uleb128 0x3a
 2573 0153 0B       		.uleb128 0xb
 2574 0154 3B       		.uleb128 0x3b
 2575 0155 0B       		.uleb128 0xb
 2576 0156 01       		.uleb128 0x1
 2577 0157 13       		.uleb128 0x13
 2578 0158 00       		.byte	0x0
 2579 0159 00       		.byte	0x0
 2580 015a 1D       		.uleb128 0x1d
 2581 015b 2E       		.uleb128 0x2e
 2582 015c 01       		.byte	0x1
 2583 015d 03       		.uleb128 0x3
 2584 015e 0E       		.uleb128 0xe
 2585 015f 3A       		.uleb128 0x3a
 2586 0160 0B       		.uleb128 0xb
 2587 0161 3B       		.uleb128 0x3b
 2588 0162 0B       		.uleb128 0xb
 2589 0163 27       		.uleb128 0x27
 2590 0164 0C       		.uleb128 0xc
 2591 0165 49       		.uleb128 0x49
 2592 0166 13       		.uleb128 0x13
 2593 0167 11       		.uleb128 0x11
 2594 0168 01       		.uleb128 0x1
 2595 0169 12       		.uleb128 0x12
 2596 016a 01       		.uleb128 0x1
 2597 016b 40       		.uleb128 0x40
 2598 016c 06       		.uleb128 0x6
 2599 016d 01       		.uleb128 0x1
ARM GAS  C:\Users\DNIEL~1\AppData\Local\Temp\ccITf261.s 			page 47


 2600 016e 13       		.uleb128 0x13
 2601 016f 00       		.byte	0x0
 2602 0170 00       		.byte	0x0
 2603 0171 1E       		.uleb128 0x1e
 2604 0172 05       		.uleb128 0x5
 2605 0173 00       		.byte	0x0
 2606 0174 03       		.uleb128 0x3
 2607 0175 08       		.uleb128 0x8
 2608 0176 3A       		.uleb128 0x3a
 2609 0177 0B       		.uleb128 0xb
 2610 0178 3B       		.uleb128 0x3b
 2611 0179 0B       		.uleb128 0xb
 2612 017a 49       		.uleb128 0x49
 2613 017b 13       		.uleb128 0x13
 2614 017c 02       		.uleb128 0x2
 2615 017d 06       		.uleb128 0x6
 2616 017e 00       		.byte	0x0
 2617 017f 00       		.byte	0x0
 2618 0180 1F       		.uleb128 0x1f
 2619 0181 34       		.uleb128 0x34
 2620 0182 00       		.byte	0x0
 2621 0183 03       		.uleb128 0x3
 2622 0184 08       		.uleb128 0x8
 2623 0185 3A       		.uleb128 0x3a
 2624 0186 0B       		.uleb128 0xb
 2625 0187 3B       		.uleb128 0x3b
 2626 0188 0B       		.uleb128 0xb
 2627 0189 49       		.uleb128 0x49
 2628 018a 13       		.uleb128 0x13
 2629 018b 02       		.uleb128 0x2
 2630 018c 0A       		.uleb128 0xa
 2631 018d 00       		.byte	0x0
 2632 018e 00       		.byte	0x0
 2633 018f 20       		.uleb128 0x20
 2634 0190 34       		.uleb128 0x34
 2635 0191 00       		.byte	0x0
 2636 0192 03       		.uleb128 0x3
 2637 0193 0E       		.uleb128 0xe
 2638 0194 3A       		.uleb128 0x3a
 2639 0195 0B       		.uleb128 0xb
 2640 0196 3B       		.uleb128 0x3b
 2641 0197 0B       		.uleb128 0xb
 2642 0198 49       		.uleb128 0x49
 2643 0199 13       		.uleb128 0x13
 2644 019a 02       		.uleb128 0x2
 2645 019b 06       		.uleb128 0x6
 2646 019c 00       		.byte	0x0
 2647 019d 00       		.byte	0x0
 2648 019e 21       		.uleb128 0x21
 2649 019f 2E       		.uleb128 0x2e
 2650 01a0 00       		.byte	0x0
 2651 01a1 3F       		.uleb128 0x3f
 2652 01a2 0C       		.uleb128 0xc
 2653 01a3 03       		.uleb128 0x3
 2654 01a4 0E       		.uleb128 0xe
 2655 01a5 3A       		.uleb128 0x3a
 2656 01a6 0B       		.uleb128 0xb
ARM GAS  C:\Users\DNIEL~1\AppData\Local\Temp\ccITf261.s 			page 48


 2657 01a7 3B       		.uleb128 0x3b
 2658 01a8 0B       		.uleb128 0xb
 2659 01a9 27       		.uleb128 0x27
 2660 01aa 0C       		.uleb128 0xc
 2661 01ab 11       		.uleb128 0x11
 2662 01ac 01       		.uleb128 0x1
 2663 01ad 12       		.uleb128 0x12
 2664 01ae 01       		.uleb128 0x1
 2665 01af 40       		.uleb128 0x40
 2666 01b0 06       		.uleb128 0x6
 2667 01b1 00       		.byte	0x0
 2668 01b2 00       		.byte	0x0
 2669 01b3 22       		.uleb128 0x22
 2670 01b4 2E       		.uleb128 0x2e
 2671 01b5 00       		.byte	0x0
 2672 01b6 3F       		.uleb128 0x3f
 2673 01b7 0C       		.uleb128 0xc
 2674 01b8 03       		.uleb128 0x3
 2675 01b9 0E       		.uleb128 0xe
 2676 01ba 3A       		.uleb128 0x3a
 2677 01bb 0B       		.uleb128 0xb
 2678 01bc 3B       		.uleb128 0x3b
 2679 01bd 0B       		.uleb128 0xb
 2680 01be 27       		.uleb128 0x27
 2681 01bf 0C       		.uleb128 0xc
 2682 01c0 11       		.uleb128 0x11
 2683 01c1 01       		.uleb128 0x1
 2684 01c2 12       		.uleb128 0x12
 2685 01c3 01       		.uleb128 0x1
 2686 01c4 40       		.uleb128 0x40
 2687 01c5 0A       		.uleb128 0xa
 2688 01c6 00       		.byte	0x0
 2689 01c7 00       		.byte	0x0
 2690 01c8 23       		.uleb128 0x23
 2691 01c9 34       		.uleb128 0x34
 2692 01ca 00       		.byte	0x0
 2693 01cb 03       		.uleb128 0x3
 2694 01cc 0E       		.uleb128 0xe
 2695 01cd 3A       		.uleb128 0x3a
 2696 01ce 0B       		.uleb128 0xb
 2697 01cf 3B       		.uleb128 0x3b
 2698 01d0 0B       		.uleb128 0xb
 2699 01d1 49       		.uleb128 0x49
 2700 01d2 13       		.uleb128 0x13
 2701 01d3 3F       		.uleb128 0x3f
 2702 01d4 0C       		.uleb128 0xc
 2703 01d5 3C       		.uleb128 0x3c
 2704 01d6 0C       		.uleb128 0xc
 2705 01d7 00       		.byte	0x0
 2706 01d8 00       		.byte	0x0
 2707 01d9 24       		.uleb128 0x24
 2708 01da 34       		.uleb128 0x34
 2709 01db 00       		.byte	0x0
 2710 01dc 03       		.uleb128 0x3
 2711 01dd 0E       		.uleb128 0xe
 2712 01de 3A       		.uleb128 0x3a
 2713 01df 0B       		.uleb128 0xb
ARM GAS  C:\Users\DNIEL~1\AppData\Local\Temp\ccITf261.s 			page 49


 2714 01e0 3B       		.uleb128 0x3b
 2715 01e1 05       		.uleb128 0x5
 2716 01e2 49       		.uleb128 0x49
 2717 01e3 13       		.uleb128 0x13
 2718 01e4 3F       		.uleb128 0x3f
 2719 01e5 0C       		.uleb128 0xc
 2720 01e6 3C       		.uleb128 0x3c
 2721 01e7 0C       		.uleb128 0xc
 2722 01e8 00       		.byte	0x0
 2723 01e9 00       		.byte	0x0
 2724 01ea 25       		.uleb128 0x25
 2725 01eb 34       		.uleb128 0x34
 2726 01ec 00       		.byte	0x0
 2727 01ed 03       		.uleb128 0x3
 2728 01ee 0E       		.uleb128 0xe
 2729 01ef 3A       		.uleb128 0x3a
 2730 01f0 0B       		.uleb128 0xb
 2731 01f1 3B       		.uleb128 0x3b
 2732 01f2 0B       		.uleb128 0xb
 2733 01f3 49       		.uleb128 0x49
 2734 01f4 13       		.uleb128 0x13
 2735 01f5 00       		.byte	0x0
 2736 01f6 00       		.byte	0x0
 2737 01f7 26       		.uleb128 0x26
 2738 01f8 34       		.uleb128 0x34
 2739 01f9 00       		.byte	0x0
 2740 01fa 03       		.uleb128 0x3
 2741 01fb 0E       		.uleb128 0xe
 2742 01fc 3A       		.uleb128 0x3a
 2743 01fd 0B       		.uleb128 0xb
 2744 01fe 3B       		.uleb128 0x3b
 2745 01ff 0B       		.uleb128 0xb
 2746 0200 49       		.uleb128 0x49
 2747 0201 13       		.uleb128 0x13
 2748 0202 02       		.uleb128 0x2
 2749 0203 0A       		.uleb128 0xa
 2750 0204 00       		.byte	0x0
 2751 0205 00       		.byte	0x0
 2752 0206 27       		.uleb128 0x27
 2753 0207 34       		.uleb128 0x34
 2754 0208 00       		.byte	0x0
 2755 0209 03       		.uleb128 0x3
 2756 020a 0E       		.uleb128 0xe
 2757 020b 3A       		.uleb128 0x3a
 2758 020c 0B       		.uleb128 0xb
 2759 020d 3B       		.uleb128 0x3b
 2760 020e 0B       		.uleb128 0xb
 2761 020f 49       		.uleb128 0x49
 2762 0210 13       		.uleb128 0x13
 2763 0211 3F       		.uleb128 0x3f
 2764 0212 0C       		.uleb128 0xc
 2765 0213 02       		.uleb128 0x2
 2766 0214 0A       		.uleb128 0xa
 2767 0215 00       		.byte	0x0
 2768 0216 00       		.byte	0x0
 2769 0217 00       		.byte	0x0
 2770              		.section	.debug_pubnames,"",%progbits
ARM GAS  C:\Users\DNIEL~1\AppData\Local\Temp\ccITf261.s 			page 50


 2771 0000 4C000000 		.4byte	0x4c
 2772 0004 0200     		.2byte	0x2
 2773 0006 00000000 		.4byte	.Ldebug_info0
 2774 000a 470D0000 		.4byte	0xd47
 2775 000e 180C0000 		.4byte	0xc18
 2776 0012 63616E5F 		.ascii	"can_commInit\000"
 2776      636F6D6D 
 2776      496E6974 
 2776      00
 2777 001f 2D0C0000 		.4byte	0xc2d
 2778 0023 63616E5F 		.ascii	"can_commCalc\000"
 2778      636F6D6D 
 2778      43616C63 
 2778      00
 2779 0030 220D0000 		.4byte	0xd22
 2780 0034 63616E43 		.ascii	"canComands\000"
 2780      6F6D616E 
 2780      647300
 2781 003f 340D0000 		.4byte	0xd34
 2782 0043 63616E52 		.ascii	"canRxEID\000"
 2782      78454944 
 2782      00
 2783 004c 00000000 		.4byte	0x0
 2784              		.section	.debug_pubtypes,"",%progbits
 2785 0000 AA020000 		.4byte	0x2aa
 2786 0004 0200     		.2byte	0x2
 2787 0006 00000000 		.4byte	.Ldebug_info0
 2788 000a 470D0000 		.4byte	0xd47
 2789 000e 83000000 		.4byte	0x83
 2790 0012 75696E74 		.ascii	"uint8_t\000"
 2790      385F7400 
 2791 001a 8E000000 		.4byte	0x8e
 2792 001e 75696E74 		.ascii	"uint16_t\000"
 2792      31365F74 
 2792      00
 2793 0027 99000000 		.4byte	0x99
 2794 002b 696E7433 		.ascii	"int32_t\000"
 2794      325F7400 
 2795 0033 A4000000 		.4byte	0xa4
 2796 0037 75696E74 		.ascii	"uint32_t\000"
 2796      33325F74 
 2796      00
 2797 0040 AF000000 		.4byte	0xaf
 2798 0044 75696E74 		.ascii	"uint64_t\000"
 2798      36345F74 
 2798      00
 2799 004d C1000000 		.4byte	0xc1
 2800 0051 746D6F64 		.ascii	"tmode_t\000"
 2800      655F7400 
 2801 0059 CC000000 		.4byte	0xcc
 2802 005d 74737461 		.ascii	"tstate_t\000"
 2802      74655F74 
 2802      00
 2803 0066 D7000000 		.4byte	0xd7
 2804 006a 74726566 		.ascii	"trefs_t\000"
 2804      735F7400 
 2805 0072 E2000000 		.4byte	0xe2
ARM GAS  C:\Users\DNIEL~1\AppData\Local\Temp\ccITf261.s 			page 51


 2806 0076 74736C69 		.ascii	"tslices_t\000"
 2806      6365735F 
 2806      7400
 2807 0080 ED000000 		.4byte	0xed
 2808 0084 74707269 		.ascii	"tprio_t\000"
 2808      6F5F7400 
 2809 008c F8000000 		.4byte	0xf8
 2810 0090 6D73675F 		.ascii	"msg_t\000"
 2810      7400
 2811 0096 03010000 		.4byte	0x103
 2812 009a 6576656E 		.ascii	"eventmask_t\000"
 2812      746D6173 
 2812      6B5F7400 
 2813 00a6 0E010000 		.4byte	0x10e
 2814 00aa 666C6167 		.ascii	"flagsmask_t\000"
 2814      736D6173 
 2814      6B5F7400 
 2815 00b6 19010000 		.4byte	0x119
 2816 00ba 73797374 		.ascii	"systime_t\000"
 2816      696D655F 
 2816      7400
 2817 00c4 24010000 		.4byte	0x124
 2818 00c8 636E745F 		.ascii	"cnt_t\000"
 2818      7400
 2819 00ce 2F010000 		.4byte	0x12f
 2820 00d2 54687265 		.ascii	"Thread\000"
 2820      616400
 2821 00d9 8A020000 		.4byte	0x28a
 2822 00dd 54687265 		.ascii	"ThreadsQueue\000"
 2822      61647351 
 2822      75657565 
 2822      00
 2823 00ea AC020000 		.4byte	0x2ac
 2824 00ee 54687265 		.ascii	"ThreadsList\000"
 2824      6164734C 
 2824      69737400 
 2825 00fa B7020000 		.4byte	0x2b7
 2826 00fe 72656761 		.ascii	"regarm_t\000"
 2826      726D5F74 
 2826      00
 2827 0107 C2020000 		.4byte	0x2c2
 2828 010b 73746B61 		.ascii	"stkalign_t\000"
 2828      6C69676E 
 2828      5F7400
 2829 0116 CD020000 		.4byte	0x2cd
 2830 011a 696E7463 		.ascii	"intctx\000"
 2830      747800
 2831 0121 5B030000 		.4byte	0x35b
 2832 0125 636F6E74 		.ascii	"context\000"
 2832      65787400 
 2833 012d E5030000 		.4byte	0x3e5
 2834 0131 52656164 		.ascii	"ReadyList\000"
 2834      794C6973 
 2834      7400
 2835 013b F0030000 		.4byte	0x3f0
 2836 013f 53656D61 		.ascii	"Semaphore\000"
 2836      70686F72 
ARM GAS  C:\Users\DNIEL~1\AppData\Local\Temp\ccITf261.s 			page 52


 2836      6500
 2837 0149 19040000 		.4byte	0x419
 2838 014d 53656D61 		.ascii	"Semaphore\000"
 2838      70686F72 
 2838      6500
 2839 0157 24040000 		.4byte	0x424
 2840 015b 4D757465 		.ascii	"Mutex\000"
 2840      7800
 2841 0161 61040000 		.4byte	0x461
 2842 0165 4D757465 		.ascii	"Mutex\000"
 2842      7800
 2843 016b 6C040000 		.4byte	0x46c
 2844 016f 4576656E 		.ascii	"EventListener\000"
 2844      744C6973 
 2844      74656E65 
 2844      7200
 2845 017d 77040000 		.4byte	0x477
 2846 0181 4576656E 		.ascii	"EventListener\000"
 2846      744C6973 
 2846      74656E65 
 2846      7200
 2847 018f C2040000 		.4byte	0x4c2
 2848 0193 4576656E 		.ascii	"EventSource\000"
 2848      74536F75 
 2848      72636500 
 2849 019f DD040000 		.4byte	0x4dd
 2850 01a3 4576656E 		.ascii	"EventSource\000"
 2850      74536F75 
 2850      72636500 
 2851 01af 3A010000 		.4byte	0x13a
 2852 01b3 54687265 		.ascii	"Thread\000"
 2852      616400
 2853 01ba 8E050000 		.4byte	0x58e
 2854 01be 43414E5F 		.ascii	"CAN_TxMailBox_TypeDef\000"
 2854      54784D61 
 2854      696C426F 
 2854      785F5479 
 2854      70654465 
 2855 01d4 E0050000 		.4byte	0x5e0
 2856 01d8 43414E5F 		.ascii	"CAN_FIFOMailBox_TypeDef\000"
 2856      4649464F 
 2856      4D61696C 
 2856      426F785F 
 2856      54797065 
 2857 01f0 14060000 		.4byte	0x614
 2858 01f4 43414E5F 		.ascii	"CAN_FilterRegister_TypeDef\000"
 2858      46696C74 
 2858      65725265 
 2858      67697374 
 2858      65725F54 
 2859 020f D2070000 		.4byte	0x7d2
 2860 0213 43414E5F 		.ascii	"CAN_TypeDef\000"
 2860      54797065 
 2860      44656600 
 2861 021f 51080000 		.4byte	0x851
 2862 0223 4750494F 		.ascii	"GPIO_TypeDef\000"
 2862      5F547970 
ARM GAS  C:\Users\DNIEL~1\AppData\Local\Temp\ccITf261.s 			page 53


 2862      65446566 
 2862      00
 2863 0230 5D080000 		.4byte	0x85d
 2864 0234 696F706F 		.ascii	"ioportmask_t\000"
 2864      72746D61 
 2864      736B5F74 
 2864      00
 2865 0241 8F080000 		.4byte	0x88f
 2866 0245 63616E73 		.ascii	"canstate_t\000"
 2866      74617465 
 2866      5F7400
 2867 0250 88090000 		.4byte	0x988
 2868 0254 43414E54 		.ascii	"CANTxFrame\000"
 2868      78467261 
 2868      6D6500
 2869 025f 8E0A0000 		.4byte	0xa8e
 2870 0263 43414E52 		.ascii	"CANRxFrame\000"
 2870      78467261 
 2870      6D6500
 2871 026e BF0A0000 		.4byte	0xabf
 2872 0272 43414E43 		.ascii	"CANConfig\000"
 2872      6F6E6669 
 2872      6700
 2873 027c 7C0B0000 		.4byte	0xb7c
 2874 0280 43414E44 		.ascii	"CANDriver\000"
 2874      72697665 
 2874      7200
 2875 028a 880B0000 		.4byte	0xb88
 2876 028e 6D656173 		.ascii	"measChannels\000"
 2876      4368616E 
 2876      6E656C73 
 2876      00
 2877 029b B30B0000 		.4byte	0xbb3
 2878 029f 63616E43 		.ascii	"canComands\000"
 2878      6F6D616E 
 2878      647300
 2879 02aa 00000000 		.4byte	0x0
 2880              		.section	.debug_aranges,"",%progbits
 2881 0000 2C000000 		.4byte	0x2c
 2882 0004 0200     		.2byte	0x2
 2883 0006 00000000 		.4byte	.Ldebug_info0
 2884 000a 04       		.byte	0x4
 2885 000b 00       		.byte	0x0
 2886 000c 0000     		.2byte	0x0
 2887 000e 0000     		.2byte	0x0
 2888 0010 00000000 		.4byte	.LFB56
 2889 0014 D8000000 		.4byte	.LFE56-.LFB56
 2890 0018 00000000 		.4byte	.LFB58
 2891 001c D4000000 		.4byte	.LFE58-.LFB58
 2892 0020 00000000 		.4byte	.LFB59
 2893 0024 02000000 		.4byte	.LFE59-.LFB59
 2894 0028 00000000 		.4byte	0x0
 2895 002c 00000000 		.4byte	0x0
 2896              		.section	.debug_ranges,"",%progbits
 2897              	.Ldebug_ranges0:
 2898 0000 00000000 		.4byte	.LFB56
 2899 0004 D8000000 		.4byte	.LFE56
ARM GAS  C:\Users\DNIEL~1\AppData\Local\Temp\ccITf261.s 			page 54


 2900 0008 00000000 		.4byte	.LFB58
 2901 000c D4000000 		.4byte	.LFE58
 2902 0010 00000000 		.4byte	.LFB59
 2903 0014 02000000 		.4byte	.LFE59
 2904 0018 00000000 		.4byte	0x0
 2905 001c 00000000 		.4byte	0x0
 2906              		.section	.debug_str,"MS",%progbits,1
 2907              	.LASF144:
 2908 0000 72786D73 		.ascii	"rxmsg\000"
 2908      6700
 2909              	.LASF38:
 2910 0006 705F7469 		.ascii	"p_time\000"
 2910      6D6500
 2911              	.LASF117:
 2912 000d 43414E52 		.ascii	"CANRxFrame\000"
 2912      78467261 
 2912      6D6500
 2913              	.LASF73:
 2914 0018 7264796D 		.ascii	"rdymsg\000"
 2914      736700
 2915              	.LASF14:
 2916 001f 75696E74 		.ascii	"uint64_t\000"
 2916      36345F74 
 2916      00
 2917              	.LASF118:
 2918 0028 43414E43 		.ascii	"CANConfig\000"
 2918      6F6E6669 
 2918      6700
 2919              	.LASF101:
 2920 0032 43414E5F 		.ascii	"CAN_TypeDef\000"
 2920      54797065 
 2920      44656600 
 2921              	.LASF153:
 2922 003e 433A5C44 		.ascii	"C:\\Dani\\MegaLux\\Repo\\LuxControl\\LuxControl\\lu"
 2922      616E695C 
 2922      4D656761 
 2922      4C75785C 
 2922      5265706F 
 2923 006b 78636F6E 		.ascii	"xcontrol\\firmware\000"
 2923      74726F6C 
 2923      5C666972 
 2923      6D776172 
 2923      6500
 2924              	.LASF6:
 2925 007d 6C6F6E67 		.ascii	"long long unsigned int\000"
 2925      206C6F6E 
 2925      6720756E 
 2925      7369676E 
 2925      65642069 
 2926              	.LASF74:
 2927 0094 65786974 		.ascii	"exitcode\000"
 2927      636F6465 
 2927      00
 2928              	.LASF114:
 2929 009d 64617461 		.ascii	"data32\000"
 2929      333200
 2930              	.LASF29:
ARM GAS  C:\Users\DNIEL~1\AppData\Local\Temp\ccITf261.s 			page 55


 2931 00a4 705F7072 		.ascii	"p_prio\000"
 2931      696F00
 2932              	.LASF148:
 2933 00ab 6469705F 		.ascii	"dip_name\000"
 2933      6E616D65 
 2933      00
 2934              	.LASF5:
 2935 00b4 6C6F6E67 		.ascii	"long long int\000"
 2935      206C6F6E 
 2935      6720696E 
 2935      7400
 2936              	.LASF1:
 2937 00c2 7369676E 		.ascii	"signed char\000"
 2937      65642063 
 2937      68617200 
 2938              	.LASF108:
 2939 00ce 43414E5F 		.ascii	"CAN_STARTING\000"
 2939      53544152 
 2939      54494E47 
 2939      00
 2940              	.LASF102:
 2941 00db 42535252 		.ascii	"BSRR\000"
 2941      00
 2942              	.LASF45:
 2943 00e0 705F6D70 		.ascii	"p_mpool\000"
 2943      6F6F6C00 
 2944              	.LASF63:
 2945 00e8 6D5F7175 		.ascii	"m_queue\000"
 2945      65756500 
 2946              	.LASF121:
 2947 00f0 74787365 		.ascii	"txsem\000"
 2947      6D00
 2948              	.LASF137:
 2949 00f6 43414E5F 		.ascii	"CAN_NUM_COMM\000"
 2949      4E554D5F 
 2949      434F4D4D 
 2949      00
 2950              	.LASF19:
 2951 0103 74736C69 		.ascii	"tslices_t\000"
 2951      6365735F 
 2951      7400
 2952              	.LASF119:
 2953 010d 73746174 		.ascii	"state\000"
 2953      6500
 2954              	.LASF78:
 2955 0113 54444C52 		.ascii	"TDLR\000"
 2955      00
 2956              	.LASF7:
 2957 0118 6C6F6E67 		.ascii	"long int\000"
 2957      20696E74 
 2957      00
 2958              	.LASF17:
 2959 0121 74737461 		.ascii	"tstate_t\000"
 2959      74655F74 
 2959      00
 2960              	.LASF80:
 2961 012a 43414E5F 		.ascii	"CAN_TxMailBox_TypeDef\000"
ARM GAS  C:\Users\DNIEL~1\AppData\Local\Temp\ccITf261.s 			page 56


 2961      54784D61 
 2961      696C426F 
 2961      785F5479 
 2961      70654465 
 2962              	.LASF36:
 2963 0140 705F7265 		.ascii	"p_refs\000"
 2963      667300
 2964              	.LASF11:
 2965 0147 75696E74 		.ascii	"uint16_t\000"
 2965      31365F74 
 2965      00
 2966              	.LASF116:
 2967 0150 54494D45 		.ascii	"TIME\000"
 2967      00
 2968              	.LASF31:
 2969 0155 705F6E65 		.ascii	"p_newer\000"
 2969      77657200 
 2970              	.LASF60:
 2971 015d 735F7175 		.ascii	"s_queue\000"
 2971      65756500 
 2972              	.LASF130:
 2973 0165 4D454153 		.ascii	"MEAS_V_OUT\000"
 2973      5F565F4F 
 2973      555400
 2974              	.LASF109:
 2975 0170 43414E5F 		.ascii	"CAN_READY\000"
 2975      52454144 
 2975      5900
 2976              	.LASF86:
 2977 017a 52463052 		.ascii	"RF0R\000"
 2977      00
 2978              	.LASF123:
 2979 017f 72786675 		.ascii	"rxfull_event\000"
 2979      6C6C5F65 
 2979      76656E74 
 2979      00
 2980              	.LASF55:
 2981 018c 725F6E65 		.ascii	"r_newer\000"
 2981      77657200 
 2982              	.LASF48:
 2983 0194 72656761 		.ascii	"regarm_t\000"
 2983      726D5F74 
 2983      00
 2984              	.LASF77:
 2985 019d 54445452 		.ascii	"TDTR\000"
 2985      00
 2986              	.LASF71:
 2987 01a2 4576656E 		.ascii	"EventSource\000"
 2987      74536F75 
 2987      72636500 
 2988              	.LASF25:
 2989 01ae 636E745F 		.ascii	"cnt_t\000"
 2989      7400
 2990              	.LASF0:
 2991 01b4 756E7369 		.ascii	"unsigned int\000"
 2991      676E6564 
 2991      20696E74 
ARM GAS  C:\Users\DNIEL~1\AppData\Local\Temp\ccITf261.s 			page 57


 2991      00
 2992              	.LASF143:
 2993 01c1 43414E44 		.ascii	"CAND1\000"
 2993      3100
 2994              	.LASF89:
 2995 01c7 7354784D 		.ascii	"sTxMailBox\000"
 2995      61696C42 
 2995      6F7800
 2996              	.LASF40:
 2997 01d2 705F6D73 		.ascii	"p_msgqueue\000"
 2997      67717565 
 2997      756500
 2998              	.LASF104:
 2999 01dd 4750494F 		.ascii	"GPIO_TypeDef\000"
 2999      5F547970 
 2999      65446566 
 2999      00
 3000              	.LASF81:
 3001 01ea 52445452 		.ascii	"RDTR\000"
 3001      00
 3002              	.LASF115:
 3003 01ef 43414E54 		.ascii	"CANTxFrame\000"
 3003      78467261 
 3003      6D6500
 3004              	.LASF103:
 3005 01fa 4C434B52 		.ascii	"LCKR\000"
 3005      00
 3006              	.LASF61:
 3007 01ff 735F636E 		.ascii	"s_cnt\000"
 3007      7400
 3008              	.LASF4:
 3009 0205 73686F72 		.ascii	"short unsigned int\000"
 3009      7420756E 
 3009      7369676E 
 3009      65642069 
 3009      6E7400
 3010              	.LASF87:
 3011 0218 52463152 		.ascii	"RF1R\000"
 3011      00
 3012              	.LASF85:
 3013 021d 43414E5F 		.ascii	"CAN_FilterRegister_TypeDef\000"
 3013      46696C74 
 3013      65725265 
 3013      67697374 
 3013      65725F54 
 3014              	.LASF21:
 3015 0238 6D73675F 		.ascii	"msg_t\000"
 3015      7400
 3016              	.LASF67:
 3017 023e 656C5F6E 		.ascii	"el_next\000"
 3017      65787400 
 3018              	.LASF16:
 3019 0246 746D6F64 		.ascii	"tmode_t\000"
 3019      655F7400 
 3020              	.LASF47:
 3021 024e 54687265 		.ascii	"ThreadsList\000"
 3021      6164734C 
ARM GAS  C:\Users\DNIEL~1\AppData\Local\Temp\ccITf261.s 			page 58


 3021      69737400 
 3022              	.LASF100:
 3023 025a 7346696C 		.ascii	"sFilterRegister\000"
 3023      74657252 
 3023      65676973 
 3023      74657200 
 3024              	.LASF22:
 3025 026a 6576656E 		.ascii	"eventmask_t\000"
 3025      746D6173 
 3025      6B5F7400 
 3026              	.LASF62:
 3027 0276 4D757465 		.ascii	"Mutex\000"
 3027      7800
 3028              	.LASF154:
 3029 027c 63616E5F 		.ascii	"can_rx\000"
 3029      727800
 3030              	.LASF131:
 3031 0283 4D454153 		.ascii	"MEAS_IN_CURR\000"
 3031      5F494E5F 
 3031      43555252 
 3031      00
 3032              	.LASF147:
 3033 0290 63616E5F 		.ascii	"can_rx_wa\000"
 3033      72785F77 
 3033      6100
 3034              	.LASF49:
 3035 029a 73746B61 		.ascii	"stkalign_t\000"
 3035      6C69676E 
 3035      5F7400
 3036              	.LASF23:
 3037 02a5 666C6167 		.ascii	"flagsmask_t\000"
 3037      736D6173 
 3037      6B5F7400 
 3038              	.LASF98:
 3039 02b1 46413152 		.ascii	"FA1R\000"
 3039      00
 3040              	.LASF110:
 3041 02b6 43414E5F 		.ascii	"CAN_SLEEP\000"
 3041      534C4545 
 3041      5000
 3042              	.LASF146:
 3043 02c0 63616E63 		.ascii	"cancfg\000"
 3043      666700
 3044              	.LASF112:
 3045 02c7 64617461 		.ascii	"data8\000"
 3045      3800
 3046              	.LASF128:
 3047 02cd 43414E44 		.ascii	"CANDriver\000"
 3047      72697665 
 3047      7200
 3048              	.LASF105:
 3049 02d7 696F706F 		.ascii	"ioportmask_t\000"
 3049      72746D61 
 3049      736B5F74 
 3049      00
 3050              	.LASF32:
 3051 02e4 705F6F6C 		.ascii	"p_older\000"
ARM GAS  C:\Users\DNIEL~1\AppData\Local\Temp\ccITf261.s 			page 59


 3051      64657200 
 3052              	.LASF54:
 3053 02ec 725F6374 		.ascii	"r_ctx\000"
 3053      7800
 3054              	.LASF46:
 3055 02f2 54687265 		.ascii	"ThreadsQueue\000"
 3055      61647351 
 3055      75657565 
 3055      00
 3056              	.LASF79:
 3057 02ff 54444852 		.ascii	"TDHR\000"
 3057      00
 3058              	.LASF57:
 3059 0304 725F6375 		.ascii	"r_current\000"
 3059      7272656E 
 3059      7400
 3060              	.LASF56:
 3061 030e 725F6F6C 		.ascii	"r_older\000"
 3061      64657200 
 3062              	.LASF69:
 3063 0316 656C5F6D 		.ascii	"el_mask\000"
 3063      61736B00 
 3064              	.LASF126:
 3065 031e 736C6565 		.ascii	"sleep_event\000"
 3065      705F6576 
 3065      656E7400 
 3066              	.LASF111:
 3067 032a 63616E73 		.ascii	"canstate_t\000"
 3067      74617465 
 3067      5F7400
 3068              	.LASF107:
 3069 0335 43414E5F 		.ascii	"CAN_STOP\000"
 3069      53544F50 
 3069      00
 3070              	.LASF96:
 3071 033e 46464131 		.ascii	"FFA1R\000"
 3071      5200
 3072              	.LASF133:
 3073 0344 4D454153 		.ascii	"MEAS_NUM_CH\000"
 3073      5F4E554D 
 3073      5F434800 
 3074              	.LASF125:
 3075 0350 6572726F 		.ascii	"error_event\000"
 3075      725F6576 
 3075      656E7400 
 3076              	.LASF139:
 3077 035c 63616E5F 		.ascii	"can_commInit\000"
 3077      636F6D6D 
 3077      496E6974 
 3077      00
 3078              	.LASF18:
 3079 0369 74726566 		.ascii	"trefs_t\000"
 3079      735F7400 
 3080              	.LASF88:
 3081 0371 52455345 		.ascii	"RESERVED0\000"
 3081      52564544 
 3081      3000
ARM GAS  C:\Users\DNIEL~1\AppData\Local\Temp\ccITf261.s 			page 60


 3082              	.LASF91:
 3083 037b 52455345 		.ascii	"RESERVED1\000"
 3083      52564544 
 3083      3100
 3084              	.LASF93:
 3085 0385 52455345 		.ascii	"RESERVED2\000"
 3085      52564544 
 3085      3200
 3086              	.LASF95:
 3087 038f 52455345 		.ascii	"RESERVED3\000"
 3087      52564544 
 3087      3300
 3088              	.LASF97:
 3089 0399 52455345 		.ascii	"RESERVED4\000"
 3089      52564544 
 3089      3400
 3090              	.LASF28:
 3091 03a3 705F7072 		.ascii	"p_prev\000"
 3091      657600
 3092              	.LASF20:
 3093 03aa 74707269 		.ascii	"tprio_t\000"
 3093      6F5F7400 
 3094              	.LASF106:
 3095 03b2 43414E5F 		.ascii	"CAN_UNINIT\000"
 3095      554E494E 
 3095      495400
 3096              	.LASF15:
 3097 03bd 5F426F6F 		.ascii	"_Bool\000"
 3097      6C00
 3098              	.LASF12:
 3099 03c3 696E7433 		.ascii	"int32_t\000"
 3099      325F7400 
 3100              	.LASF2:
 3101 03cb 756E7369 		.ascii	"unsigned char\000"
 3101      676E6564 
 3101      20636861 
 3101      7200
 3102              	.LASF134:
 3103 03d9 6D656173 		.ascii	"measChannels\000"
 3103      4368616E 
 3103      6E656C73 
 3103      00
 3104              	.LASF127:
 3105 03e6 77616B65 		.ascii	"wakeup_event\000"
 3105      75705F65 
 3105      76656E74 
 3105      00
 3106              	.LASF68:
 3107 03f3 656C5F6C 		.ascii	"el_listener\000"
 3107      69737465 
 3107      6E657200 
 3108              	.LASF142:
 3109 03ff 49544D5F 		.ascii	"ITM_RxBuffer\000"
 3109      52784275 
 3109      66666572 
 3109      00
 3110              	.LASF70:
ARM GAS  C:\Users\DNIEL~1\AppData\Local\Temp\ccITf261.s 			page 61


 3111 040c 656C5F66 		.ascii	"el_flags\000"
 3111      6C616773 
 3111      00
 3112              	.LASF43:
 3113 0415 705F6D74 		.ascii	"p_mtxlist\000"
 3113      786C6973 
 3113      7400
 3114              	.LASF3:
 3115 041f 73686F72 		.ascii	"short int\000"
 3115      7420696E 
 3115      7400
 3116              	.LASF34:
 3117 0429 705F7374 		.ascii	"p_state\000"
 3117      61746500 
 3118              	.LASF37:
 3119 0431 705F7072 		.ascii	"p_preempt\000"
 3119      65656D70 
 3119      7400
 3120              	.LASF132:
 3121 043b 4D454153 		.ascii	"MEAS_OUT_CURR\000"
 3121      5F4F5554 
 3121      5F435552 
 3121      5200
 3122              	.LASF53:
 3123 0449 725F7072 		.ascii	"r_prio\000"
 3123      696F00
 3124              	.LASF76:
 3125 0450 65776D61 		.ascii	"ewmask\000"
 3125      736B00
 3126              	.LASF27:
 3127 0457 705F6E65 		.ascii	"p_next\000"
 3127      787400
 3128              	.LASF35:
 3129 045e 705F666C 		.ascii	"p_flags\000"
 3129      61677300 
 3130              	.LASF92:
 3131 0466 464D3152 		.ascii	"FM1R\000"
 3131      00
 3132              	.LASF26:
 3133 046b 54687265 		.ascii	"Thread\000"
 3133      616400
 3134              	.LASF135:
 3135 0472 63616E43 		.ascii	"canComands\000"
 3135      6F6D616E 
 3135      647300
 3136              	.LASF136:
 3137 047d 43414E5F 		.ascii	"CAN_TEST\000"
 3137      54455354 
 3137      00
 3138              	.LASF149:
 3139 0486 63616E5F 		.ascii	"can_tx_wa\000"
 3139      74785F77 
 3139      6100
 3140              	.LASF42:
 3141 0490 705F6570 		.ascii	"p_epending\000"
 3141      656E6469 
 3141      6E6700
ARM GAS  C:\Users\DNIEL~1\AppData\Local\Temp\ccITf261.s 			page 62


 3142              	.LASF99:
 3143 049b 52455345 		.ascii	"RESERVED5\000"
 3143      52564544 
 3143      3500
 3144              	.LASF13:
 3145 04a5 75696E74 		.ascii	"uint32_t\000"
 3145      33325F74 
 3145      00
 3146              	.LASF52:
 3147 04ae 725F7175 		.ascii	"r_queue\000"
 3147      65756500 
 3148              	.LASF124:
 3149 04b6 7478656D 		.ascii	"txempty_event\000"
 3149      7074795F 
 3149      6576656E 
 3149      7400
 3150              	.LASF8:
 3151 04c4 6C6F6E67 		.ascii	"long unsigned int\000"
 3151      20756E73 
 3151      69676E65 
 3151      6420696E 
 3151      7400
 3152              	.LASF9:
 3153 04d6 63686172 		.ascii	"char\000"
 3153      00
 3154              	.LASF150:
 3155 04db 63616E52 		.ascii	"canRxEID\000"
 3155      78454944 
 3155      00
 3156              	.LASF120:
 3157 04e4 636F6E66 		.ascii	"config\000"
 3157      696700
 3158              	.LASF83:
 3159 04eb 52444852 		.ascii	"RDHR\000"
 3159      00
 3160              	.LASF65:
 3161 04f0 6D5F6E65 		.ascii	"m_next\000"
 3161      787400
 3162              	.LASF24:
 3163 04f7 73797374 		.ascii	"systime_t\000"
 3163      696D655F 
 3163      7400
 3164              	.LASF44:
 3165 0501 705F7265 		.ascii	"p_realprio\000"
 3165      616C7072 
 3165      696F00
 3166              	.LASF90:
 3167 050c 73464946 		.ascii	"sFIFOMailBox\000"
 3167      4F4D6169 
 3167      6C426F78 
 3167      00
 3168              	.LASF51:
 3169 0519 636F6E74 		.ascii	"context\000"
 3169      65787400 
 3170              	.LASF50:
 3171 0521 696E7463 		.ascii	"intctx\000"
 3171      747800
ARM GAS  C:\Users\DNIEL~1\AppData\Local\Temp\ccITf261.s 			page 63


 3172              	.LASF152:
 3173 0528 7372632F 		.ascii	"src/can_comm.c\000"
 3173      63616E5F 
 3173      636F6D6D 
 3173      2E6300
 3174              	.LASF59:
 3175 0537 53656D61 		.ascii	"Semaphore\000"
 3175      70686F72 
 3175      6500
 3176              	.LASF145:
 3177 0541 74786D73 		.ascii	"txmsg\000"
 3177      6700
 3178              	.LASF113:
 3179 0547 64617461 		.ascii	"data16\000"
 3179      313600
 3180              	.LASF94:
 3181 054e 46533152 		.ascii	"FS1R\000"
 3181      00
 3182              	.LASF72:
 3183 0553 65735F6E 		.ascii	"es_next\000"
 3183      65787400 
 3184              	.LASF58:
 3185 055b 52656164 		.ascii	"ReadyList\000"
 3185      794C6973 
 3185      7400
 3186              	.LASF84:
 3187 0565 43414E5F 		.ascii	"CAN_FIFOMailBox_TypeDef\000"
 3187      4649464F 
 3187      4D61696C 
 3187      426F785F 
 3187      54797065 
 3188              	.LASF141:
 3189 057d 726C6973 		.ascii	"rlist\000"
 3189      7400
 3190              	.LASF10:
 3191 0583 75696E74 		.ascii	"uint8_t\000"
 3191      385F7400 
 3192              	.LASF122:
 3193 058b 72787365 		.ascii	"rxsem\000"
 3193      6D00
 3194              	.LASF138:
 3195 0591 63616E5F 		.ascii	"can_tx_msg\000"
 3195      74785F6D 
 3195      736700
 3196              	.LASF66:
 3197 059c 4576656E 		.ascii	"EventListener\000"
 3197      744C6973 
 3197      74656E65 
 3197      7200
 3198              	.LASF75:
 3199 05aa 77746F62 		.ascii	"wtobjp\000"
 3199      6A7000
 3200              	.LASF151:
 3201 05b1 474E5520 		.ascii	"GNU C 4.5.2\000"
 3201      4320342E 
 3201      352E3200 
 3202              	.LASF33:
ARM GAS  C:\Users\DNIEL~1\AppData\Local\Temp\ccITf261.s 			page 64


 3203 05bd 705F6E61 		.ascii	"p_name\000"
 3203      6D6500
 3204              	.LASF41:
 3205 05c4 705F6D73 		.ascii	"p_msg\000"
 3205      6700
 3206              	.LASF82:
 3207 05ca 52444C52 		.ascii	"RDLR\000"
 3207      00
 3208              	.LASF129:
 3209 05cf 4D454153 		.ascii	"MEAS_NTC\000"
 3209      5F4E5443 
 3209      00
 3210              	.LASF64:
 3211 05d8 6D5F6F77 		.ascii	"m_owner\000"
 3211      6E657200 
 3212              	.LASF140:
 3213 05e0 63616E5F 		.ascii	"can_commCalc\000"
 3213      636F6D6D 
 3213      43616C63 
 3213      00
 3214              	.LASF30:
 3215 05ed 705F6374 		.ascii	"p_ctx\000"
 3215      7800
 3216              	.LASF39:
 3217 05f3 705F7761 		.ascii	"p_waiting\000"
 3217      6974696E 
 3217      6700
 3218              		.ident	"GCC: (Sourcery G++ Lite 2011.03-42) 4.5.2"
ARM GAS  C:\Users\DNIEL~1\AppData\Local\Temp\ccITf261.s 			page 65


DEFINED SYMBOLS
                            *ABS*:00000000 can_comm.c
C:\Users\DNIEL~1\AppData\Local\Temp\ccITf261.s:24     .text.can_rx:00000000 $t
C:\Users\DNIEL~1\AppData\Local\Temp\ccITf261.s:29     .text.can_rx:00000000 can_rx
C:\Users\DNIEL~1\AppData\Local\Temp\ccITf261.s:152    .text.can_rx:000000b4 $d
C:\Users\DNIEL~1\AppData\Local\Temp\ccITf261.s:165    .text.can_commInit:00000000 $t
C:\Users\DNIEL~1\AppData\Local\Temp\ccITf261.s:171    .text.can_commInit:00000000 can_commInit
C:\Users\DNIEL~1\AppData\Local\Temp\ccITf261.s:292    .text.can_commInit:000000b4 $d
C:\Users\DNIEL~1\AppData\Local\Temp\ccITf261.s:304    .text.can_commCalc:00000000 $t
C:\Users\DNIEL~1\AppData\Local\Temp\ccITf261.s:310    .text.can_commCalc:00000000 can_commCalc
C:\Users\DNIEL~1\AppData\Local\Temp\ccITf261.s:349    .bss.canComands:00000000 canComands
C:\Users\DNIEL~1\AppData\Local\Temp\ccITf261.s:374    .bss.canRxEID:00000000 canRxEID
C:\Users\DNIEL~1\AppData\Local\Temp\ccITf261.s:325    .bss.id:00000000 $d
C:\Users\DNIEL~1\AppData\Local\Temp\ccITf261.s:329    .bss.id:00000000 id
C:\Users\DNIEL~1\AppData\Local\Temp\ccITf261.s:332    .bss.txmsg:00000000 $d
C:\Users\DNIEL~1\AppData\Local\Temp\ccITf261.s:336    .bss.txmsg:00000000 txmsg
C:\Users\DNIEL~1\AppData\Local\Temp\ccITf261.s:339    .bss.can_rx_wa:00000000 $d
C:\Users\DNIEL~1\AppData\Local\Temp\ccITf261.s:343    .bss.can_rx_wa:00000000 can_rx_wa
C:\Users\DNIEL~1\AppData\Local\Temp\ccITf261.s:346    .bss.canComands:00000000 $d
C:\Users\DNIEL~1\AppData\Local\Temp\ccITf261.s:352    .rodata.str1.4:00000000 $d
C:\Users\DNIEL~1\AppData\Local\Temp\ccITf261.s:356    .bss.rxmsg:00000000 $d
C:\Users\DNIEL~1\AppData\Local\Temp\ccITf261.s:360    .bss.rxmsg:00000000 rxmsg
C:\Users\DNIEL~1\AppData\Local\Temp\ccITf261.s:363    .rodata.cancfg:00000000 $d
C:\Users\DNIEL~1\AppData\Local\Temp\ccITf261.s:367    .rodata.cancfg:00000000 cancfg
C:\Users\DNIEL~1\AppData\Local\Temp\ccITf261.s:371    .bss.canRxEID:00000000 $d
                     .debug_frame:00000010 $d
C:\Users\DNIEL~1\AppData\Local\Temp\ccITf261.s:164    .text.can_rx:000000d8 $t
C:\Users\DNIEL~1\AppData\Local\Temp\ccITf261.s:303    .text.can_commInit:000000d4 $t

UNDEFINED SYMBOLS
chEvtRegisterMask
chEvtWaitAnyTimeout
canReceive
measGetValue
canTransmit
chThdSleep
chEvtUnregister
CAND1
rlist
canStart
chThdCreateStatic
