ARM GAS  C:\Users\DNIEL~1\AppData\Local\Temp\ccF8aCFh.s 			page 1


   1              		.syntax unified
   2              		.cpu cortex-m3
   3              		.fpu softvfp
   4              		.eabi_attribute 20, 1
   5              		.eabi_attribute 21, 1
   6              		.eabi_attribute 23, 3
   7              		.eabi_attribute 24, 1
   8              		.eabi_attribute 25, 1
   9              		.eabi_attribute 26, 1
  10              		.eabi_attribute 30, 2
  11              		.eabi_attribute 18, 4
  12              		.thumb
  13              		.file	"can_lld.c"
  20 0000 B4040000 		.text
  20      02002902 
  20      00000201 
  20      FB0E0D00 
  20      01010101 
  21              	.Ltext0:
  22              		.cfi_sections	.debug_frame
  23              		.section	.text.can_lld_set_filters,"ax",%progbits
  24              		.align	2
  25              		.p2align 4,,15
  26              		.thumb
  27              		.thumb_func
  28              		.type	can_lld_set_filters, %function
  29              	can_lld_set_filters:
  30              	.LFB56:
  31              		.file 1 "../../../ChibiOS/os/hal/platforms/STM32/can_lld.c"
  32              		.loc 1 69 0
  33              		.cfi_startproc
  34              		@ args = 0, pretend = 0, frame = 0
  35              		@ frame_needed = 0, uses_anonymous_args = 0
  36              		@ link register save eliminated.
  37              	.LVL0:
  38 0000 F0B4     		push	{r4, r5, r6, r7}
  39              	.LCFI0:
  40              		.cfi_def_cfa_offset 16
  41              		.loc 1 72 0
  42 0002 914C     		ldr	r4, .L22
  43              		.cfi_offset 7, -4
  44              		.cfi_offset 6, -8
  45              		.cfi_offset 5, -12
  46              		.cfi_offset 4, -16
  47              		.loc 1 75 0
  48 0004 914B     		ldr	r3, .L22+4
  49              		.loc 1 72 0
  50 0006 E569     		ldr	r5, [r4, #28]
  51 0008 45F00075 		orr	r5, r5, #33554432
  52 000c E561     		str	r5, [r4, #28]
  53              		.loc 1 75 0
ARM GAS  C:\Users\DNIEL~1\AppData\Local\Temp\ccF8aCFh.s 			page 2


  54 000e D3F80042 		ldr	r4, [r3, #512]
  55 0012 240C     		lsrs	r4, r4, #16
  56 0014 2404     		lsls	r4, r4, #16
  57 0016 44F00104 		orr	r4, r4, #1
  58 001a 44EA0020 		orr	r0, r4, r0, lsl #8
  59              	.LVL1:
  60 001e C3F80002 		str	r0, [r3, #512]
  61              		.loc 1 76 0
  62 0022 0029     		cmp	r1, #0
  63 0024 00F00281 		beq	.L2
  64              	.LBB11:
  65              		.loc 1 80 0
  66 0028 0024     		movs	r4, #0
  67              		.loc 1 91 0
  68 002a 0126     		movs	r6, #1
  69 002c 11F0010F 		tst	r1, #1
  70              		.loc 1 80 0
  71 0030 C3F81C42 		str	r4, [r3, #540]
  72              		.loc 1 86 0
  73 0034 2746     		mov	r7, r4
  74              		.loc 1 81 0
  75 0036 C3F80442 		str	r4, [r3, #516]
  76              		.loc 1 93 0
  77 003a 1846     		mov	r0, r3
  78              		.loc 1 82 0
  79 003c C3F80C42 		str	r4, [r3, #524]
  80              		.loc 1 83 0
  81 0040 C3F81442 		str	r4, [r3, #532]
  82              	.LVL2:
  83              		.loc 1 85 0
  84 0044 C3F84042 		str	r4, [r3, #576]
  85              		.loc 1 86 0
  86 0048 C3F84442 		str	r4, [r3, #580]
  87              	.LVL3:
  88              		.loc 1 85 0
  89 004c C3F84842 		str	r4, [r3, #584]
  90              		.loc 1 86 0
  91 0050 C3F84C42 		str	r4, [r3, #588]
  92              	.LVL4:
  93              		.loc 1 85 0
  94 0054 C3F85042 		str	r4, [r3, #592]
  95              		.loc 1 86 0
  96 0058 C3F85442 		str	r4, [r3, #596]
  97              	.LVL5:
  98              		.loc 1 85 0
  99 005c C3F85842 		str	r4, [r3, #600]
 100              		.loc 1 86 0
 101 0060 C3F85C42 		str	r4, [r3, #604]
 102              	.LVL6:
 103              		.loc 1 85 0
 104 0064 C3F86042 		str	r4, [r3, #608]
 105              		.loc 1 86 0
 106 0068 C3F86442 		str	r4, [r3, #612]
 107              	.LVL7:
 108              		.loc 1 85 0
 109 006c C3F86842 		str	r4, [r3, #616]
 110              		.loc 1 86 0
ARM GAS  C:\Users\DNIEL~1\AppData\Local\Temp\ccF8aCFh.s 			page 3


 111 0070 C3F86C42 		str	r4, [r3, #620]
 112              	.LVL8:
 113              		.loc 1 85 0
 114 0074 C3F87042 		str	r4, [r3, #624]
 115              		.loc 1 86 0
 116 0078 C3F87442 		str	r4, [r3, #628]
 117              	.LVL9:
 118              		.loc 1 85 0
 119 007c C3F87842 		str	r4, [r3, #632]
 120              		.loc 1 86 0
 121 0080 C3F87C42 		str	r4, [r3, #636]
 122              	.LVL10:
 123              		.loc 1 85 0
 124 0084 C3F88042 		str	r4, [r3, #640]
 125              		.loc 1 86 0
 126 0088 C3F88442 		str	r4, [r3, #644]
 127              	.LVL11:
 128              		.loc 1 85 0
 129 008c C3F88842 		str	r4, [r3, #648]
 130              		.loc 1 86 0
 131 0090 C3F88C42 		str	r4, [r3, #652]
 132              	.LVL12:
 133              		.loc 1 85 0
 134 0094 C3F89042 		str	r4, [r3, #656]
 135              		.loc 1 86 0
 136 0098 C3F89442 		str	r4, [r3, #660]
 137              	.LVL13:
 138              		.loc 1 85 0
 139 009c C3F89842 		str	r4, [r3, #664]
 140              		.loc 1 86 0
 141 00a0 C3F89C42 		str	r4, [r3, #668]
 142              	.LVL14:
 143              		.loc 1 85 0
 144 00a4 C3F8A042 		str	r4, [r3, #672]
 145              		.loc 1 86 0
 146 00a8 C3F8A442 		str	r4, [r3, #676]
 147              	.LVL15:
 148              		.loc 1 85 0
 149 00ac C3F8A842 		str	r4, [r3, #680]
 150              		.loc 1 86 0
 151 00b0 C3F8AC42 		str	r4, [r3, #684]
 152              	.LVL16:
 153 00b4 73D1     		bne	.L7
 154              		.loc 1 91 0
 155 00b6 1568     		ldr	r5, [r2, #0]
 156              		.loc 1 92 0
 157 00b8 1379     		ldrb	r3, [r2, #4]	@ zero_extendqisi2
 158              		.loc 1 91 0
 159 00ba 16FA05F4 		lsls	r4, r6, r5
 160              		.loc 1 92 0
 161 00be 13F0010F 		tst	r3, #1
 162 00c2 05D0     		beq	.L9
 163              		.loc 1 93 0
 164 00c4 D0F80472 		ldr	r7, [r0, #516]
 165 00c8 44EA0707 		orr	r7, r4, r7
 166 00cc C0F80472 		str	r7, [r0, #516]
 167              	.L9:
ARM GAS  C:\Users\DNIEL~1\AppData\Local\Temp\ccF8aCFh.s 			page 4


 168              		.loc 1 94 0
 169 00d0 03F0020C 		and	ip, r3, #2
 170 00d4 5FFA8CF7 		uxtb	r7, ip
 171 00d8 2FB1     		cbz	r7, .L10
 172              		.loc 1 95 0
 173 00da D0F80C72 		ldr	r7, [r0, #524]
 174 00de 44EA0707 		orr	r7, r4, r7
 175 00e2 C0F80C72 		str	r7, [r0, #524]
 176              	.L10:
 177              		.loc 1 96 0
 178 00e6 03F0040C 		and	ip, r3, #4
 179 00ea 5FFA8CF3 		uxtb	r3, ip
 180 00ee 2BB1     		cbz	r3, .L11
 181              		.loc 1 97 0
 182 00f0 D0F81432 		ldr	r3, [r0, #532]
 183 00f4 44EA0307 		orr	r7, r4, r3
 184 00f8 C0F81472 		str	r7, [r0, #532]
 185              	.L11:
 186              		.loc 1 98 0
 187 00fc 9768     		ldr	r7, [r2, #8]
 188 00fe 4835     		adds	r5, r5, #72
 189 0100 40F83570 		str	r7, [r0, r5, lsl #3]
 190              		.loc 1 99 0
 191 0104 EB00     		lsls	r3, r5, #3
 192 0106 D768     		ldr	r7, [r2, #12]
 193 0108 03F18045 		add	r5, r3, #1073741824
 194 010c 05F5C84C 		add	ip, r5, #25600
 195 0110 CCF80470 		str	r7, [ip, #4]
 196              		.loc 1 100 0
 197 0114 D0F81C32 		ldr	r3, [r0, #540]
 198              		.loc 1 90 0
 199 0118 0127     		movs	r7, #1
 200              		.loc 1 100 0
 201 011a 44EA0305 		orr	r5, r4, r3
 202 011e C0F81C52 		str	r5, [r0, #540]
 203              	.LVL17:
 204              		.loc 1 101 0
 205 0122 1032     		adds	r2, r2, #16
 206              	.LVL18:
 207 0124 3BE0     		b	.L7
 208              	.LVL19:
 209              	.L21:
 210 0126 02F11003 		add	r3, r2, #16
 211              		.loc 1 92 0
 212 012a 1C79     		ldrb	r4, [r3, #4]	@ zero_extendqisi2
 213              		.loc 1 91 0
 214 012c 1269     		ldr	r2, [r2, #16]
 215              	.LVL20:
 216 012e 16FA02F5 		lsls	r5, r6, r2
 217              	.LVL21:
 218              		.loc 1 92 0
 219 0132 14F0010F 		tst	r4, #1
 220 0136 05D0     		beq	.L13
 221              		.loc 1 93 0
 222 0138 D0F804C2 		ldr	ip, [r0, #516]
 223 013c 45EA0C0C 		orr	ip, r5, ip
 224 0140 C0F804C2 		str	ip, [r0, #516]
ARM GAS  C:\Users\DNIEL~1\AppData\Local\Temp\ccF8aCFh.s 			page 5


 225              	.L13:
 226              		.loc 1 94 0
 227 0144 04F0020C 		and	ip, r4, #2
 228 0148 5FFA8CFC 		uxtb	ip, ip
 229 014c BCF1000F 		cmp	ip, #0
 230 0150 05D0     		beq	.L14
 231              		.loc 1 95 0
 232 0152 D0F80CC2 		ldr	ip, [r0, #524]
 233 0156 45EA0C0C 		orr	ip, r5, ip
 234 015a C0F80CC2 		str	ip, [r0, #524]
 235              	.L14:
 236              		.loc 1 96 0
 237 015e 04F0040C 		and	ip, r4, #4
 238 0162 5FFA8CF4 		uxtb	r4, ip
 239 0166 2CB1     		cbz	r4, .L15
 240              		.loc 1 97 0
 241 0168 D0F81442 		ldr	r4, [r0, #532]
 242 016c 45EA0404 		orr	r4, r5, r4
 243 0170 C0F81442 		str	r4, [r0, #532]
 244              	.L15:
 245              		.loc 1 98 0
 246 0174 9C68     		ldr	r4, [r3, #8]
 247 0176 4832     		adds	r2, r2, #72
 248 0178 40F83240 		str	r4, [r0, r2, lsl #3]
 249              		.loc 1 99 0
 250 017c D200     		lsls	r2, r2, #3
 251 017e DC68     		ldr	r4, [r3, #12]
 252 0180 02F18042 		add	r2, r2, #1073741824
 253 0184 02F5C84C 		add	ip, r2, #25600
 254 0188 CCF80440 		str	r4, [ip, #4]
 255              		.loc 1 100 0
 256 018c D0F81C42 		ldr	r4, [r0, #540]
 257              		.loc 1 90 0
 258 0190 0137     		adds	r7, r7, #1
 259              		.loc 1 100 0
 260 0192 45EA0402 		orr	r2, r5, r4
 261 0196 C0F81C22 		str	r2, [r0, #540]
 262              	.LVL22:
 263              		.loc 1 101 0
 264 019a 03F11002 		add	r2, r3, #16
 265              	.LVL23:
 266              	.L7:
 267              		.loc 1 91 0
 268 019e 1368     		ldr	r3, [r2, #0]
 269              		.loc 1 92 0
 270 01a0 1479     		ldrb	r4, [r2, #4]	@ zero_extendqisi2
 271              		.loc 1 91 0
 272 01a2 16FA03F5 		lsls	r5, r6, r3
 273              	.LVL24:
 274              		.loc 1 92 0
 275 01a6 14F0010F 		tst	r4, #1
 276 01aa 05D0     		beq	.L3
 277              		.loc 1 93 0
 278 01ac D0F804C2 		ldr	ip, [r0, #516]
 279 01b0 45EA0C0C 		orr	ip, r5, ip
 280 01b4 C0F804C2 		str	ip, [r0, #516]
 281              	.L3:
ARM GAS  C:\Users\DNIEL~1\AppData\Local\Temp\ccF8aCFh.s 			page 6


 282              		.loc 1 94 0
 283 01b8 04F0020C 		and	ip, r4, #2
 284 01bc 5FFA8CFC 		uxtb	ip, ip
 285 01c0 BCF1000F 		cmp	ip, #0
 286 01c4 05D0     		beq	.L4
 287              		.loc 1 95 0
 288 01c6 D0F80CC2 		ldr	ip, [r0, #524]
 289 01ca 45EA0C0C 		orr	ip, r5, ip
 290 01ce C0F80CC2 		str	ip, [r0, #524]
 291              	.L4:
 292              		.loc 1 96 0
 293 01d2 04F0040C 		and	ip, r4, #4
 294 01d6 5FFA8CF4 		uxtb	r4, ip
 295 01da 2CB1     		cbz	r4, .L5
 296              		.loc 1 97 0
 297 01dc D0F81442 		ldr	r4, [r0, #532]
 298 01e0 45EA0404 		orr	r4, r5, r4
 299 01e4 C0F81442 		str	r4, [r0, #532]
 300              	.L5:
 301              		.loc 1 98 0
 302 01e8 9468     		ldr	r4, [r2, #8]
 303 01ea 4833     		adds	r3, r3, #72
 304 01ec 40F83340 		str	r4, [r0, r3, lsl #3]
 305              		.loc 1 99 0
 306 01f0 DB00     		lsls	r3, r3, #3
 307 01f2 D468     		ldr	r4, [r2, #12]
 308 01f4 03F18043 		add	r3, r3, #1073741824
 309 01f8 03F5C84C 		add	ip, r3, #25600
 310 01fc CCF80440 		str	r4, [ip, #4]
 311              		.loc 1 100 0
 312 0200 D0F81C32 		ldr	r3, [r0, #540]
 313              		.loc 1 90 0
 314 0204 0137     		adds	r7, r7, #1
 315              		.loc 1 100 0
 316 0206 1D43     		orrs	r5, r5, r3
 317              	.LVL25:
 318              		.loc 1 90 0
 319 0208 8F42     		cmp	r7, r1
 320              		.loc 1 100 0
 321 020a C0F81C52 		str	r5, [r0, #540]
 322              	.LVL26:
 323              		.loc 1 90 0
 324 020e 8AD1     		bne	.L21
 325              	.LVL27:
 326              	.L6:
 327              	.LBE11:
 328              		.loc 1 123 0
 329 0210 0E4A     		ldr	r2, .L22+4
 330              		.loc 1 126 0
 331 0212 0D48     		ldr	r0, .L22
 332              		.loc 1 123 0
 333 0214 D2F80032 		ldr	r3, [r2, #512]
 334 0218 23F00101 		bic	r1, r3, #1
 335              	.LVL28:
 336 021c C2F80012 		str	r1, [r2, #512]
 337              		.loc 1 126 0
 338 0220 C369     		ldr	r3, [r0, #28]
ARM GAS  C:\Users\DNIEL~1\AppData\Local\Temp\ccF8aCFh.s 			page 7


 339 0222 23F00071 		bic	r1, r3, #33554432
 340 0226 C161     		str	r1, [r0, #28]
 341              		.loc 1 127 0
 342 0228 F0BC     		pop	{r4, r5, r6, r7}
 343 022a 7047     		bx	lr
 344              	.LVL29:
 345              	.L2:
 346              		.loc 1 119 0
 347 022c 0122     		movs	r2, #1
 348              	.LVL30:
 349              		.loc 1 107 0
 350 022e C3F84012 		str	r1, [r3, #576]
 351              		.loc 1 108 0
 352 0232 C3F84412 		str	r1, [r3, #580]
 353              		.loc 1 113 0
 354 0236 C3F80412 		str	r1, [r3, #516]
 355              		.loc 1 114 0
 356 023a C3F81412 		str	r1, [r3, #532]
 357              		.loc 1 119 0
 358 023e C3F80C22 		str	r2, [r3, #524]
 359              		.loc 1 120 0
 360 0242 C3F81C22 		str	r2, [r3, #540]
 361 0246 E3E7     		b	.L6
 362              	.L23:
 363              		.align	2
 364              	.L22:
 365 0248 00100240 		.word	1073876992
 366 024c 00640040 		.word	1073767424
 367              		.cfi_endproc
 368              	.LFE56:
 369              		.size	can_lld_set_filters, .-can_lld_set_filters
 370              		.section	.text.Vector8C,"ax",%progbits
 371              		.align	2
 372              		.p2align 4,,15
 373              		.global	Vector8C
 374              		.thumb
 375              		.thumb_func
 376              		.type	Vector8C, %function
 377              	Vector8C:
 378              	.LFB61:
 379              		.loc 1 255 0
 380              		.cfi_startproc
 381              		@ args = 0, pretend = 0, frame = 0
 382              		@ frame_needed = 0, uses_anonymous_args = 0
 383              	.LVL31:
 384 0000 10B5     		push	{r4, lr}
 385              	.LCFI1:
 386              		.cfi_def_cfa_offset 8
 387              	.LBB12:
 388              	.LBB13:
 389              		.loc 1 139 0
 390 0002 0C4C     		ldr	r4, .L29
 391              		.cfi_offset 14, -4
 392              		.cfi_offset 4, -8
 393 0004 0C4A     		ldr	r2, .L29+4
 394 0006 606B     		ldr	r0, [r4, #52]
 395 0008 8260     		str	r2, [r0, #8]
ARM GAS  C:\Users\DNIEL~1\AppData\Local\Temp\ccF8aCFh.s 			page 8


 396              		.loc 1 140 0
 397              	@ 140 "../../../ChibiOS/os/hal/platforms/STM32/can_lld.c" 1
 398 000a FFF7FEFF 		bl      _port_lock
 399              	@ 0 "" 2
 400              		.loc 1 141 0
 401              		.thumb
 402 000e 2369     		ldr	r3, [r4, #16]
 403 0010 002B     		cmp	r3, #0
 404 0012 05DA     		bge	.L25
 405              	.L27:
 406              		.loc 1 142 0
 407 0014 0948     		ldr	r0, .L29+8
 408 0016 FFF7FEFF 		bl	chSemSignalI
 409              		.loc 1 141 0
 410 001a 2169     		ldr	r1, [r4, #16]
 411 001c 0029     		cmp	r1, #0
 412 001e F9DB     		blt	.L27
 413              	.L25:
 414              		.loc 1 143 0
 415 0020 0748     		ldr	r0, .L29+12
 416 0022 0121     		movs	r1, #1
 417 0024 FFF7FEFF 		bl	chEvtBroadcastFlagsI
 418              		.loc 1 144 0
 419              	@ 144 "../../../ChibiOS/os/hal/platforms/STM32/can_lld.c" 1
 420 0028 FFF7FEFF 		bl      _port_unlock
 421              	@ 0 "" 2
 422              		.thumb
 423              	.LBE13:
 424              	.LBE12:
 425              		.loc 1 262 0
 426 002c BDE81040 		pop	{r4, lr}
 427              		.loc 1 261 0
 428 0030 FFF7FEBF 		b	_port_irq_epilogue
 429              	.L30:
 430              		.align	2
 431              	.L29:
 432 0034 00000000 		.word	.LANCHOR0
 433 0038 01010100 		.word	65793
 434 003c 08000000 		.word	.LANCHOR0+8
 435 0040 24000000 		.word	.LANCHOR0+36
 436              		.cfi_endproc
 437              	.LFE61:
 438              		.size	Vector8C, .-Vector8C
 439 0044 AFF30080 		.section	.text.Vector90,"ax",%progbits
 439      AFF30080 
 439      AFF30080 
 440              		.align	2
 441              		.p2align 4,,15
 442              		.global	Vector90
 443              		.thumb
 444              		.thumb_func
 445              		.type	Vector90, %function
 446              	Vector90:
 447              	.LFB62:
 448              		.loc 1 269 0
 449              		.cfi_startproc
 450              		@ args = 0, pretend = 0, frame = 0
ARM GAS  C:\Users\DNIEL~1\AppData\Local\Temp\ccF8aCFh.s 			page 9


 451              		@ frame_needed = 0, uses_anonymous_args = 0
 452              	.LVL32:
 453 0000 70B5     		push	{r4, r5, r6, lr}
 454              	.LCFI2:
 455              		.cfi_def_cfa_offset 16
 456              	.LBB14:
 457              	.LBB15:
 458              		.loc 1 157 0
 459 0002 164C     		ldr	r4, .L38
 460              		.cfi_offset 14, -4
 461              		.cfi_offset 6, -8
 462              		.cfi_offset 5, -12
 463              		.cfi_offset 4, -16
 464 0004 636B     		ldr	r3, [r4, #52]
 465 0006 DD68     		ldr	r5, [r3, #12]
 466              	.LVL33:
 467              		.loc 1 158 0
 468 0008 15F0030F 		tst	r5, #3
 469 000c 14D0     		beq	.L32
 470              		.loc 1 160 0
 471 000e 5869     		ldr	r0, [r3, #20]
 472 0010 20F00202 		bic	r2, r0, #2
 473 0014 5A61     		str	r2, [r3, #20]
 474              		.loc 1 161 0
 475              	@ 161 "../../../ChibiOS/os/hal/platforms/STM32/can_lld.c" 1
 476 0016 FFF7FEFF 		bl      _port_lock
 477              	@ 0 "" 2
 478              		.loc 1 162 0
 479              		.thumb
 480 001a E369     		ldr	r3, [r4, #28]
 481 001c 002B     		cmp	r3, #0
 482 001e 05DA     		bge	.L33
 483              	.L36:
 484              		.loc 1 163 0
 485 0020 0F48     		ldr	r0, .L38+4
 486 0022 FFF7FEFF 		bl	chSemSignalI
 487              		.loc 1 162 0
 488 0026 E169     		ldr	r1, [r4, #28]
 489 0028 0029     		cmp	r1, #0
 490 002a F9DB     		blt	.L36
 491              	.L33:
 492              		.loc 1 164 0
 493 002c 0D48     		ldr	r0, .L38+8
 494 002e 0121     		movs	r1, #1
 495 0030 FFF7FEFF 		bl	chEvtBroadcastFlagsI
 496              		.loc 1 165 0
 497              	@ 165 "../../../ChibiOS/os/hal/platforms/STM32/can_lld.c" 1
 498 0034 FFF7FEFF 		bl      _port_unlock
 499              	@ 0 "" 2
 500              		.thumb
 501              	.L32:
 502              		.loc 1 167 0
 503 0038 15F0100F 		tst	r5, #16
 504 003c 09D0     		beq	.L35
 505              		.loc 1 169 0
 506 003e 636B     		ldr	r3, [r4, #52]
 507 0040 1021     		movs	r1, #16
ARM GAS  C:\Users\DNIEL~1\AppData\Local\Temp\ccF8aCFh.s 			page 10


 508 0042 D960     		str	r1, [r3, #12]
 509              		.loc 1 170 0
 510              	@ 170 "../../../ChibiOS/os/hal/platforms/STM32/can_lld.c" 1
 511 0044 FFF7FEFF 		bl      _port_lock
 512              	@ 0 "" 2
 513              		.loc 1 171 0
 514              		.thumb
 515 0048 0748     		ldr	r0, .L38+12
 516 004a FFF7FEFF 		bl	chEvtBroadcastFlagsI
 517              		.loc 1 172 0
 518              	@ 172 "../../../ChibiOS/os/hal/platforms/STM32/can_lld.c" 1
 519 004e FFF7FEFF 		bl      _port_unlock
 520              	@ 0 "" 2
 521              		.thumb
 522              	.L35:
 523              	.LBE15:
 524              	.LBE14:
 525              		.loc 1 276 0
 526 0052 BDE87040 		pop	{r4, r5, r6, lr}
 527              		.loc 1 275 0
 528 0056 FFF7FEBF 		b	_port_irq_epilogue
 529              	.L39:
 530 005a 00BF     		.align	2
 531              	.L38:
 532 005c 00000000 		.word	.LANCHOR0
 533 0060 14000000 		.word	.LANCHOR0+20
 534 0064 20000000 		.word	.LANCHOR0+32
 535 0068 28000000 		.word	.LANCHOR0+40
 536              		.cfi_endproc
 537              	.LFE62:
 538              		.size	Vector90, .-Vector90
 539 006c AFF30080 		.section	.text.Vector94,"ax",%progbits
 540              		.align	2
 541              		.p2align 4,,15
 542              		.global	Vector94
 543              		.thumb
 544              		.thumb_func
 545              		.type	Vector94, %function
 546              	Vector94:
 547              	.LFB63:
 548              		.loc 1 283 0
 549              		.cfi_startproc
 550              		@ args = 0, pretend = 0, frame = 0
 551              		@ frame_needed = 0, uses_anonymous_args = 0
 552              	.LVL34:
 553 0000 70B5     		push	{r4, r5, r6, lr}
 554              	.LCFI3:
 555              		.cfi_def_cfa_offset 16
 556              	.LBB16:
 557              	.LBB17:
 558              		.loc 1 186 0
 559 0002 164C     		ldr	r4, .L47
 560              		.cfi_offset 14, -4
 561              		.cfi_offset 6, -8
 562              		.cfi_offset 5, -12
 563              		.cfi_offset 4, -16
 564 0004 636B     		ldr	r3, [r4, #52]
ARM GAS  C:\Users\DNIEL~1\AppData\Local\Temp\ccF8aCFh.s 			page 11


 565 0006 1D69     		ldr	r5, [r3, #16]
 566              	.LVL35:
 567              		.loc 1 187 0
 568 0008 15F0030F 		tst	r5, #3
 569 000c 14D0     		beq	.L41
 570              		.loc 1 189 0
 571 000e 5869     		ldr	r0, [r3, #20]
 572 0010 20F01002 		bic	r2, r0, #16
 573 0014 5A61     		str	r2, [r3, #20]
 574              		.loc 1 190 0
 575              	@ 190 "../../../ChibiOS/os/hal/platforms/STM32/can_lld.c" 1
 576 0016 FFF7FEFF 		bl      _port_lock
 577              	@ 0 "" 2
 578              		.loc 1 191 0
 579              		.thumb
 580 001a E369     		ldr	r3, [r4, #28]
 581 001c 002B     		cmp	r3, #0
 582 001e 05DA     		bge	.L42
 583              	.L45:
 584              		.loc 1 192 0
 585 0020 0F48     		ldr	r0, .L47+4
 586 0022 FFF7FEFF 		bl	chSemSignalI
 587              		.loc 1 191 0
 588 0026 E169     		ldr	r1, [r4, #28]
 589 0028 0029     		cmp	r1, #0
 590 002a F9DB     		blt	.L45
 591              	.L42:
 592              		.loc 1 193 0
 593 002c 0D48     		ldr	r0, .L47+8
 594 002e 0221     		movs	r1, #2
 595 0030 FFF7FEFF 		bl	chEvtBroadcastFlagsI
 596              		.loc 1 194 0
 597              	@ 194 "../../../ChibiOS/os/hal/platforms/STM32/can_lld.c" 1
 598 0034 FFF7FEFF 		bl      _port_unlock
 599              	@ 0 "" 2
 600              		.thumb
 601              	.L41:
 602              		.loc 1 196 0
 603 0038 15F0100F 		tst	r5, #16
 604 003c 09D0     		beq	.L44
 605              		.loc 1 198 0
 606 003e 636B     		ldr	r3, [r4, #52]
 607 0040 1021     		movs	r1, #16
 608 0042 1961     		str	r1, [r3, #16]
 609              		.loc 1 199 0
 610              	@ 199 "../../../ChibiOS/os/hal/platforms/STM32/can_lld.c" 1
 611 0044 FFF7FEFF 		bl      _port_lock
 612              	@ 0 "" 2
 613              		.loc 1 200 0
 614              		.thumb
 615 0048 0748     		ldr	r0, .L47+12
 616 004a FFF7FEFF 		bl	chEvtBroadcastFlagsI
 617              		.loc 1 201 0
 618              	@ 201 "../../../ChibiOS/os/hal/platforms/STM32/can_lld.c" 1
 619 004e FFF7FEFF 		bl      _port_unlock
 620              	@ 0 "" 2
 621              		.thumb
ARM GAS  C:\Users\DNIEL~1\AppData\Local\Temp\ccF8aCFh.s 			page 12


 622              	.L44:
 623              	.LBE17:
 624              	.LBE16:
 625              		.loc 1 290 0
 626 0052 BDE87040 		pop	{r4, r5, r6, lr}
 627              		.loc 1 289 0
 628 0056 FFF7FEBF 		b	_port_irq_epilogue
 629              	.L48:
 630 005a 00BF     		.align	2
 631              	.L47:
 632 005c 00000000 		.word	.LANCHOR0
 633 0060 14000000 		.word	.LANCHOR0+20
 634 0064 20000000 		.word	.LANCHOR0+32
 635 0068 28000000 		.word	.LANCHOR0+40
 636              		.cfi_endproc
 637              	.LFE63:
 638              		.size	Vector94, .-Vector94
 639 006c AFF30080 		.section	.text.Vector98,"ax",%progbits
 640              		.align	2
 641              		.p2align 4,,15
 642              		.global	Vector98
 643              		.thumb
 644              		.thumb_func
 645              		.type	Vector98, %function
 646              	Vector98:
 647              	.LFB64:
 648              		.loc 1 297 0
 649              		.cfi_startproc
 650              		@ args = 0, pretend = 0, frame = 0
 651              		@ frame_needed = 0, uses_anonymous_args = 0
 652              	.LVL36:
 653 0000 70B5     		push	{r4, r5, r6, lr}
 654              	.LCFI4:
 655              		.cfi_def_cfa_offset 16
 656              	.LBB18:
 657              	.LBB19:
 658              		.loc 1 215 0
 659 0002 1A4D     		ldr	r5, .L54
 660              		.cfi_offset 14, -4
 661              		.cfi_offset 6, -8
 662              		.cfi_offset 5, -12
 663              		.cfi_offset 4, -16
 664              		.loc 1 216 0
 665 0004 1C22     		movs	r2, #28
 666              		.loc 1 215 0
 667 0006 6B6B     		ldr	r3, [r5, #52]
 668 0008 5C68     		ldr	r4, [r3, #4]
 669              	.LVL37:
 670              		.loc 1 216 0
 671 000a 5A60     		str	r2, [r3, #4]
 672              		.loc 1 219 0
 673 000c 14F0080F 		tst	r4, #8
 674 0010 1CD1     		bne	.L53
 675              	.L50:
 676              		.loc 1 228 0
 677 0012 14F0040F 		tst	r4, #4
 678 0016 15D0     		beq	.L51
ARM GAS  C:\Users\DNIEL~1\AppData\Local\Temp\ccF8aCFh.s 			page 13


 679              	.LBB20:
 680              		.loc 1 230 0
 681 0018 6B6B     		ldr	r3, [r5, #52]
 682 001a 9A69     		ldr	r2, [r3, #24]
 683              	.LVL38:
 684              		.loc 1 232 0
 685 001c 9869     		ldr	r0, [r3, #24]
 686              		.loc 1 233 0
 687 001e 02F0070C 		and	ip, r2, #7
 688              	.LVL39:
 689              		.loc 1 232 0
 690 0022 20F07001 		bic	r1, r0, #112
 691              		.loc 1 234 0
 692 0026 12F0700F 		tst	r2, #112
 693              		.loc 1 232 0
 694 002a 9961     		str	r1, [r3, #24]
 695              		.loc 1 235 0
 696 002c 18BF     		it	ne
 697 002e 4CF0080C 		orrne	ip, ip, #8
 698              	.LVL40:
 699              		.loc 1 237 0
 700              	@ 237 "../../../ChibiOS/os/hal/platforms/STM32/can_lld.c" 1
 701 0032 FFF7FEFF 		bl      _port_lock
 702              	@ 0 "" 2
 703              		.loc 1 240 0
 704              		.thumb
 705 0036 0E48     		ldr	r0, .L54+4
 706 0038 4CEA0241 		orr	r1, ip, r2, lsl #16
 707 003c FFF7FEFF 		bl	chEvtBroadcastFlagsI
 708              	.LVL41:
 709              		.loc 1 241 0
 710              	@ 241 "../../../ChibiOS/os/hal/platforms/STM32/can_lld.c" 1
 711 0040 FFF7FEFF 		bl      _port_unlock
 712              	@ 0 "" 2
 713              		.thumb
 714              	.L51:
 715              	.LBE20:
 716              	.LBE19:
 717              	.LBE18:
 718              		.loc 1 304 0
 719 0044 BDE87040 		pop	{r4, r5, r6, lr}
 720              		.loc 1 303 0
 721 0048 FFF7FEBF 		b	_port_irq_epilogue
 722              	.L53:
 723              	.LBB22:
 724              	.LBB21:
 725              		.loc 1 221 0
 726 004c 1868     		ldr	r0, [r3, #0]
 727              		.loc 1 220 0
 728 004e 0321     		movs	r1, #3
 729              		.loc 1 221 0
 730 0050 20F00202 		bic	r2, r0, #2
 731              		.loc 1 220 0
 732 0054 2846     		mov	r0, r5
 733 0056 00F8301B 		strb	r1, [r0], #48
 734              		.loc 1 221 0
 735 005a 1A60     		str	r2, [r3, #0]
ARM GAS  C:\Users\DNIEL~1\AppData\Local\Temp\ccF8aCFh.s 			page 14


 736              		.loc 1 222 0
 737              	@ 222 "../../../ChibiOS/os/hal/platforms/STM32/can_lld.c" 1
 738 005c FFF7FEFF 		bl      _port_lock
 739              	@ 0 "" 2
 740              		.loc 1 223 0
 741              		.thumb
 742 0060 0021     		movs	r1, #0
 743 0062 FFF7FEFF 		bl	chEvtBroadcastFlagsI
 744              		.loc 1 224 0
 745              	@ 224 "../../../ChibiOS/os/hal/platforms/STM32/can_lld.c" 1
 746 0066 FFF7FEFF 		bl      _port_unlock
 747              	@ 0 "" 2
 748              		.thumb
 749 006a D2E7     		b	.L50
 750              	.L55:
 751              		.align	2
 752              	.L54:
 753 006c 00000000 		.word	.LANCHOR0
 754 0070 28000000 		.word	.LANCHOR0+40
 755              	.LBE21:
 756              	.LBE22:
 757              		.cfi_endproc
 758              	.LFE64:
 759              		.size	Vector98, .-Vector98
 760 0074 AFF30080 		.section	.text.can_lld_init,"ax",%progbits
 760      AFF30080 
 760      AFF30080 
 761              		.align	2
 762              		.p2align 4,,15
 763              		.global	can_lld_init
 764              		.thumb
 765              		.thumb_func
 766              		.type	can_lld_init, %function
 767              	can_lld_init:
 768              	.LFB65:
 769              		.loc 1 374 0
 770              		.cfi_startproc
 771              		@ args = 0, pretend = 0, frame = 0
 772              		@ frame_needed = 0, uses_anonymous_args = 0
 773 0000 10B5     		push	{r4, lr}
 774              	.LCFI5:
 775              		.cfi_def_cfa_offset 8
 776              		.loc 1 378 0
 777 0002 064C     		ldr	r4, .L57
 778              		.cfi_offset 14, -4
 779              		.cfi_offset 4, -8
 780 0004 2046     		mov	r0, r4
 781 0006 FFF7FEFF 		bl	canObjectInit
 782              		.loc 1 391 0
 783 000a 0021     		movs	r1, #0
 784              		.loc 1 379 0
 785 000c 044B     		ldr	r3, .L57+4
 786              		.loc 1 391 0
 787 000e 0E20     		movs	r0, #14
 788 0010 0A46     		mov	r2, r1
 789              		.loc 1 379 0
 790 0012 6363     		str	r3, [r4, #52]
ARM GAS  C:\Users\DNIEL~1\AppData\Local\Temp\ccF8aCFh.s 			page 15


 791              		.loc 1 393 0
 792 0014 BDE81040 		pop	{r4, lr}
 793              		.loc 1 391 0
 794 0018 FFF7FEBF 		b	can_lld_set_filters
 795              	.L58:
 796              		.align	2
 797              	.L57:
 798 001c 00000000 		.word	.LANCHOR0
 799 0020 00640040 		.word	1073767424
 800              		.cfi_endproc
 801              	.LFE65:
 802              		.size	can_lld_init, .-can_lld_init
 803 0024 AFF30080 		.section	.text.can_lld_start,"ax",%progbits
 803      AFF30080 
 803      AFF30080 
 804              		.align	2
 805              		.p2align 4,,15
 806              		.global	can_lld_start
 807              		.thumb
 808              		.thumb_func
 809              		.type	can_lld_start, %function
 810              	can_lld_start:
 811              	.LFB66:
 812              		.loc 1 402 0
 813              		.cfi_startproc
 814              		@ args = 0, pretend = 0, frame = 0
 815              		@ frame_needed = 0, uses_anonymous_args = 0
 816              	.LVL42:
 817              		.loc 1 406 0
 818 0000 1A4B     		ldr	r3, .L66
 819              		.loc 1 402 0
 820 0002 10B5     		push	{r4, lr}
 821              	.LCFI6:
 822              		.cfi_def_cfa_offset 8
 823              		.loc 1 406 0
 824 0004 9842     		cmp	r0, r3
 825              		.loc 1 402 0
 826 0006 0446     		mov	r4, r0
 827              		.cfi_offset 14, -4
 828              		.cfi_offset 4, -8
 829              		.loc 1 406 0
 830 0008 19D0     		beq	.L65
 831              	.LVL43:
 832              	.L60:
 833              		.loc 1 438 0
 834 000a 636B     		ldr	r3, [r4, #52]
 835              		.loc 1 437 0
 836 000c 0221     		movs	r1, #2
 837              		.loc 1 438 0
 838 000e 0120     		movs	r0, #1
 839              		.loc 1 437 0
 840 0010 2170     		strb	r1, [r4, #0]
 841              		.loc 1 438 0
 842 0012 1860     		str	r0, [r3, #0]
 843              		.loc 1 439 0
 844 0014 5A68     		ldr	r2, [r3, #4]
 845 0016 12F0010F 		tst	r2, #1
ARM GAS  C:\Users\DNIEL~1\AppData\Local\Temp\ccF8aCFh.s 			page 16


 846 001a 08D1     		bne	.L61
 847              	.L63:
 848              		.loc 1 440 0
 849 001c 0620     		movs	r0, #6
 850 001e 0121     		movs	r1, #1
 851 0020 FFF7FEFF 		bl	chSchGoSleepTimeoutS
 852              		.loc 1 439 0
 853 0024 636B     		ldr	r3, [r4, #52]
 854 0026 5A68     		ldr	r2, [r3, #4]
 855 0028 12F0010F 		tst	r2, #1
 856 002c F6D0     		beq	.L63
 857              	.L61:
 858              		.loc 1 442 0
 859 002e 6068     		ldr	r0, [r4, #4]
 860 0030 4168     		ldr	r1, [r0, #4]
 861              		.loc 1 444 0
 862 0032 0268     		ldr	r2, [r0, #0]
 863              		.loc 1 447 0
 864 0034 0E48     		ldr	r0, .L66+4
 865              		.loc 1 442 0
 866 0036 D961     		str	r1, [r3, #28]
 867              		.loc 1 444 0
 868 0038 1A60     		str	r2, [r3, #0]
 869              		.loc 1 447 0
 870 003a 5861     		str	r0, [r3, #20]
 871              		.loc 1 451 0
 872 003c 10BD     		pop	{r4, pc}
 873              	.L65:
 874              		.loc 1 407 0
 875 003e 1320     		movs	r0, #19
 876 0040 B021     		movs	r1, #176
 877 0042 FFF7FEFF 		bl	nvicEnableVector
 878              		.loc 1 409 0
 879 0046 1420     		movs	r0, #20
 880 0048 B021     		movs	r1, #176
 881 004a FFF7FEFF 		bl	nvicEnableVector
 882              		.loc 1 411 0
 883 004e 1520     		movs	r0, #21
 884 0050 B021     		movs	r1, #176
 885 0052 FFF7FEFF 		bl	nvicEnableVector
 886              		.loc 1 413 0
 887 0056 1620     		movs	r0, #22
 888 0058 B021     		movs	r1, #176
 889 005a FFF7FEFF 		bl	nvicEnableVector
 890              		.loc 1 415 0
 891 005e 0548     		ldr	r0, .L66+8
 892 0060 C169     		ldr	r1, [r0, #28]
 893 0062 41F00072 		orr	r2, r1, #33554432
 894 0066 C261     		str	r2, [r0, #28]
 895 0068 CFE7     		b	.L60
 896              	.L67:
 897 006a 00BF     		.align	2
 898              	.L66:
 899 006c 00000000 		.word	.LANCHOR0
 900 0070 5B8F0100 		.word	102235
 901 0074 00100240 		.word	1073876992
 902              		.cfi_endproc
ARM GAS  C:\Users\DNIEL~1\AppData\Local\Temp\ccF8aCFh.s 			page 17


 903              	.LFE66:
 904              		.size	can_lld_start, .-can_lld_start
 905 0078 AFF30080 		.section	.text.can_lld_stop,"ax",%progbits
 905      AFF30080 
 906              		.align	2
 907              		.p2align 4,,15
 908              		.global	can_lld_stop
 909              		.thumb
 910              		.thumb_func
 911              		.type	can_lld_stop, %function
 912              	can_lld_stop:
 913              	.LFB67:
 914              		.loc 1 460 0
 915              		.cfi_startproc
 916              		@ args = 0, pretend = 0, frame = 0
 917              		@ frame_needed = 0, uses_anonymous_args = 0
 918              	.LVL44:
 919 0000 08B5     		push	{r3, lr}
 920              	.LCFI7:
 921              		.cfi_def_cfa_offset 8
 922              		.loc 1 463 0
 923 0002 0378     		ldrb	r3, [r0, #0]	@ zero_extendqisi2
 924              		.cfi_offset 14, -4
 925              		.cfi_offset 3, -8
 926 0004 032B     		cmp	r3, #3
 927 0006 00D0     		beq	.L70
 928              	.LVL45:
 929              	.L68:
 930 0008 08BD     		pop	{r3, pc}
 931              	.LVL46:
 932              	.L70:
 933              		.loc 1 465 0
 934 000a 0D49     		ldr	r1, .L71
 935 000c 8842     		cmp	r0, r1
 936 000e FBD1     		bne	.L68
 937              		.loc 1 472 0
 938 0010 0C4B     		ldr	r3, .L71+4
 939 0012 0D4A     		ldr	r2, .L71+8
 940              		.loc 1 473 0
 941 0014 0021     		movs	r1, #0
 942              		.loc 1 472 0
 943 0016 1A60     		str	r2, [r3, #0]
 944              		.loc 1 474 0
 945 0018 1320     		movs	r0, #19
 946              	.LVL47:
 947              		.loc 1 473 0
 948 001a 5961     		str	r1, [r3, #20]
 949              		.loc 1 474 0
 950 001c FFF7FEFF 		bl	nvicDisableVector
 951              		.loc 1 475 0
 952 0020 1420     		movs	r0, #20
 953 0022 FFF7FEFF 		bl	nvicDisableVector
 954              		.loc 1 476 0
 955 0026 1520     		movs	r0, #21
 956 0028 FFF7FEFF 		bl	nvicDisableVector
 957              		.loc 1 477 0
 958 002c 1620     		movs	r0, #22
ARM GAS  C:\Users\DNIEL~1\AppData\Local\Temp\ccF8aCFh.s 			page 18


 959 002e FFF7FEFF 		bl	nvicDisableVector
 960              		.loc 1 478 0
 961 0032 0648     		ldr	r0, .L71+12
 962 0034 C369     		ldr	r3, [r0, #28]
 963 0036 23F00072 		bic	r2, r3, #33554432
 964 003a C261     		str	r2, [r0, #28]
 965 003c E4E7     		b	.L68
 966              	.L72:
 967 003e 00BF     		.align	2
 968              	.L71:
 969 0040 00000000 		.word	.LANCHOR0
 970 0044 00640040 		.word	1073767424
 971 0048 02000100 		.word	65538
 972 004c 00100240 		.word	1073876992
 973              		.cfi_endproc
 974              	.LFE67:
 975              		.size	can_lld_stop, .-can_lld_stop
 976              		.section	.text.can_lld_is_tx_empty,"ax",%progbits
 977              		.align	2
 978              		.p2align 4,,15
 979              		.global	can_lld_is_tx_empty
 980              		.thumb
 981              		.thumb_func
 982              		.type	can_lld_is_tx_empty, %function
 983              	can_lld_is_tx_empty:
 984              	.LFB68:
 985              		.loc 1 507 0
 986              		.cfi_startproc
 987              		@ args = 0, pretend = 0, frame = 0
 988              		@ frame_needed = 0, uses_anonymous_args = 0
 989              		@ link register save eliminated.
 990              	.LVL48:
 991              		.loc 1 509 0
 992 0000 0329     		cmp	r1, #3
 993 0002 1AD8     		bhi	.L80
 994 0004 DFE801F0 		tbb	[pc, r1]
 995              	.L79:
 996 0008 11       		.byte	(.L75-.L79)/2
 997 0009 0C       		.byte	(.L76-.L79)/2
 998 000a 07       		.byte	(.L77-.L79)/2
 999 000b 02       		.byte	(.L78-.L79)/2
 1000              		.align	1
 1001              	.L78:
 1002              		.loc 1 517 0
 1003 000c 426B     		ldr	r2, [r0, #52]
 1004 000e 9168     		ldr	r1, [r2, #8]
 1005              	.LVL49:
 1006 0010 C1F30070 		ubfx	r0, r1, #28, #1
 1007              	.LVL50:
 1008 0014 7047     		bx	lr
 1009              	.LVL51:
 1010              	.L77:
 1011              		.loc 1 515 0
 1012 0016 406B     		ldr	r0, [r0, #52]
 1013              	.LVL52:
 1014 0018 8368     		ldr	r3, [r0, #8]
 1015 001a C3F3C060 		ubfx	r0, r3, #27, #1
ARM GAS  C:\Users\DNIEL~1\AppData\Local\Temp\ccF8aCFh.s 			page 19


 1016 001e 7047     		bx	lr
 1017              	.LVL53:
 1018              	.L76:
 1019              		.loc 1 513 0
 1020 0020 426B     		ldr	r2, [r0, #52]
 1021 0022 9168     		ldr	r1, [r2, #8]
 1022              	.LVL54:
 1023 0024 C1F38060 		ubfx	r0, r1, #26, #1
 1024              	.LVL55:
 1025 0028 7047     		bx	lr
 1026              	.LVL56:
 1027              	.L75:
 1028              		.loc 1 511 0
 1029 002a 406B     		ldr	r0, [r0, #52]
 1030              	.LVL57:
 1031 002c 8368     		ldr	r3, [r0, #8]
 1032 002e 13F0E05F 		tst	r3, #469762048
 1033 0032 0CBF     		ite	eq
 1034 0034 0020     		moveq	r0, #0
 1035 0036 0120     		movne	r0, #1
 1036 0038 7047     		bx	lr
 1037              	.LVL58:
 1038              	.L80:
 1039              		.loc 1 519 0
 1040 003a 0020     		movs	r0, #0
 1041              	.LVL59:
 1042              		.loc 1 521 0
 1043 003c 7047     		bx	lr
 1044              		.cfi_endproc
 1045              	.LFE68:
 1046              		.size	can_lld_is_tx_empty, .-can_lld_is_tx_empty
 1047 003e 00BF     		.section	.text.can_lld_transmit,"ax",%progbits
 1048              		.align	2
 1049              		.p2align 4,,15
 1050              		.global	can_lld_transmit
 1051              		.thumb
 1052              		.thumb_func
 1053              		.type	can_lld_transmit, %function
 1054              	can_lld_transmit:
 1055              	.LFB69:
 1056              		.loc 1 534 0
 1057              		.cfi_startproc
 1058              		@ args = 0, pretend = 0, frame = 0
 1059              		@ frame_needed = 0, uses_anonymous_args = 0
 1060              		@ link register save eliminated.
 1061              	.LVL60:
 1062 0000 10B4     		push	{r4}
 1063              	.LCFI8:
 1064              		.cfi_def_cfa_offset 4
 1065              		.loc 1 539 0
 1066 0002 0329     		cmp	r1, #3
 1067 0004 1ED8     		bhi	.L81
 1068 0006 DFE801F0 		tbb	[pc, r1]
 1069              		.cfi_offset 4, -4
 1070              	.L87:
 1071 000a 34       		.byte	(.L83-.L87)/2
 1072 000b 30       		.byte	(.L84-.L87)/2
ARM GAS  C:\Users\DNIEL~1\AppData\Local\Temp\ccF8aCFh.s 			page 20


 1073 000c 1F       		.byte	(.L85-.L87)/2
 1074 000d 02       		.byte	(.L86-.L87)/2
 1075              		.align	1
 1076              	.L86:
 1077              		.loc 1 550 0
 1078 000e 416B     		ldr	r1, [r0, #52]
 1079              	.LVL61:
 1080 0010 01F5D073 		add	r3, r1, #416
 1081              	.LVL62:
 1082              	.L88:
 1083              		.loc 1 557 0
 1084 0014 1178     		ldrb	r1, [r2, #0]	@ zero_extendqisi2
 1085 0016 01F0200C 		and	ip, r1, #32
 1086 001a 5FFA8CF0 		uxtb	r0, ip
 1087 001e E8B1     		cbz	r0, .L89
 1088              	.L91:
 1089              		.loc 1 558 0
 1090 0020 5068     		ldr	r0, [r2, #4]
 1091 0022 C1F30014 		ubfx	r4, r1, #4, #1
 1092 0026 6400     		lsls	r4, r4, #1
 1093 0028 44EAC004 		orr	r4, r4, r0, lsl #3
 1094 002c 44F00404 		orr	r4, r4, #4
 1095              	.LVL63:
 1096              	.L90:
 1097              		.loc 1 562 0
 1098 0030 01F00F01 		and	r1, r1, #15
 1099 0034 5960     		str	r1, [r3, #4]
 1100              		.loc 1 563 0
 1101 0036 9068     		ldr	r0, [r2, #8]
 1102              		.loc 1 565 0
 1103 0038 44F00101 		orr	r1, r4, #1
 1104              		.loc 1 563 0
 1105 003c 9860     		str	r0, [r3, #8]
 1106              		.loc 1 564 0
 1107 003e D268     		ldr	r2, [r2, #12]
 1108              	.LVL64:
 1109 0040 DA60     		str	r2, [r3, #12]
 1110              		.loc 1 565 0
 1111 0042 1960     		str	r1, [r3, #0]
 1112              	.LVL65:
 1113              	.L81:
 1114              		.loc 1 566 0
 1115 0044 10BC     		pop	{r4}
 1116 0046 7047     		bx	lr
 1117              	.LVL66:
 1118              	.L85:
 1119              		.loc 1 557 0
 1120 0048 1178     		ldrb	r1, [r2, #0]	@ zero_extendqisi2
 1121              	.LVL67:
 1122              		.loc 1 547 0
 1123 004a 436B     		ldr	r3, [r0, #52]
 1124              		.loc 1 557 0
 1125 004c 01F0200C 		and	ip, r1, #32
 1126 0050 5FFA8CF0 		uxtb	r0, ip
 1127              	.LVL68:
 1128              		.loc 1 547 0
 1129 0054 03F5C873 		add	r3, r3, #400
ARM GAS  C:\Users\DNIEL~1\AppData\Local\Temp\ccF8aCFh.s 			page 21


 1130              	.LVL69:
 1131              		.loc 1 557 0
 1132 0058 0028     		cmp	r0, #0
 1133 005a E1D1     		bne	.L91
 1134              	.L89:
 1135              		.loc 1 561 0
 1136 005c 9088     		ldrh	r0, [r2, #4]
 1137 005e C1F3001C 		ubfx	ip, r1, #4, #1
 1138 0062 4405     		lsls	r4, r0, #21
 1139 0064 44EA4C04 		orr	r4, r4, ip, lsl #1
 1140              	.LVL70:
 1141 0068 E2E7     		b	.L90
 1142              	.LVL71:
 1143              	.L84:
 1144              		.loc 1 544 0
 1145 006a 446B     		ldr	r4, [r0, #52]
 1146 006c 04F5C073 		add	r3, r4, #384
 1147              	.LVL72:
 1148              		.loc 1 545 0
 1149 0070 D0E7     		b	.L88
 1150              	.LVL73:
 1151              	.L83:
 1152              		.loc 1 541 0
 1153 0072 416B     		ldr	r1, [r0, #52]
 1154              	.LVL74:
 1155 0074 8868     		ldr	r0, [r1, #8]
 1156              	.LVL75:
 1157 0076 C0F30163 		ubfx	r3, r0, #24, #2
 1158 007a 1833     		adds	r3, r3, #24
 1159 007c 01EB0313 		add	r3, r1, r3, lsl #4
 1160              	.LVL76:
 1161              		.loc 1 542 0
 1162 0080 C8E7     		b	.L88
 1163              		.cfi_endproc
 1164              	.LFE69:
 1165              		.size	can_lld_transmit, .-can_lld_transmit
 1166 0082 00BFAFF3 		.section	.text.can_lld_is_rx_nonempty,"ax",%progbits
 1166      0080AFF3 
 1166      0080AFF3 
 1166      0080
 1167              		.align	2
 1168              		.p2align 4,,15
 1169              		.global	can_lld_is_rx_nonempty
 1170              		.thumb
 1171              		.thumb_func
 1172              		.type	can_lld_is_rx_nonempty, %function
 1173              	can_lld_is_rx_nonempty:
 1174              	.LFB70:
 1175              		.loc 1 580 0
 1176              		.cfi_startproc
 1177              		@ args = 0, pretend = 0, frame = 0
 1178              		@ frame_needed = 0, uses_anonymous_args = 0
 1179              		@ link register save eliminated.
 1180              	.LVL77:
 1181              		.loc 1 582 0
 1182 0000 0129     		cmp	r1, #1
 1183 0002 0FD0     		beq	.L95
ARM GAS  C:\Users\DNIEL~1\AppData\Local\Temp\ccF8aCFh.s 			page 22


 1184 0004 03D3     		bcc	.L94
 1185 0006 0229     		cmp	r1, #2
 1186 0008 13D0     		beq	.L102
 1187              		.loc 1 591 0
 1188 000a 0020     		movs	r0, #0
 1189              	.LVL78:
 1190              		.loc 1 593 0
 1191 000c 7047     		bx	lr
 1192              	.LVL79:
 1193              	.L94:
 1194              		.loc 1 584 0
 1195 000e 436B     		ldr	r3, [r0, #52]
 1196 0010 DA68     		ldr	r2, [r3, #12]
 1197 0012 12F0030F 		tst	r2, #3
 1198 0016 13D1     		bne	.L99
 1199              		.loc 1 589 0
 1200 0018 1969     		ldr	r1, [r3, #16]
 1201              	.LVL80:
 1202 001a 11F00300 		ands	r0, r1, #3
 1203              	.LVL81:
 1204 001e 18BF     		it	ne
 1205 0020 0120     		movne	r0, #1
 1206 0022 7047     		bx	lr
 1207              	.LVL82:
 1208              	.L95:
 1209              		.loc 1 587 0
 1210 0024 436B     		ldr	r3, [r0, #52]
 1211 0026 D868     		ldr	r0, [r3, #12]
 1212              	.LVL83:
 1213 0028 10F00300 		ands	r0, r0, #3
 1214 002c 18BF     		it	ne
 1215 002e 0120     		movne	r0, #1
 1216 0030 7047     		bx	lr
 1217              	.LVL84:
 1218              	.L102:
 1219              		.loc 1 589 0
 1220 0032 436B     		ldr	r3, [r0, #52]
 1221 0034 1969     		ldr	r1, [r3, #16]
 1222              	.LVL85:
 1223 0036 11F00300 		ands	r0, r1, #3
 1224              	.LVL86:
 1225 003a 18BF     		it	ne
 1226 003c 0120     		movne	r0, #1
 1227 003e 7047     		bx	lr
 1228              	.LVL87:
 1229              	.L99:
 1230              		.loc 1 584 0
 1231 0040 0120     		movs	r0, #1
 1232              	.LVL88:
 1233 0042 7047     		bx	lr
 1234              		.cfi_endproc
 1235              	.LFE70:
 1236              		.size	can_lld_is_rx_nonempty, .-can_lld_is_rx_nonempty
 1237 0044 AFF30080 		.section	.text.can_lld_receive,"ax",%progbits
 1237      AFF30080 
 1237      AFF30080 
 1238              		.align	2
ARM GAS  C:\Users\DNIEL~1\AppData\Local\Temp\ccF8aCFh.s 			page 23


 1239              		.p2align 4,,15
 1240              		.global	can_lld_receive
 1241              		.thumb
 1242              		.thumb_func
 1243              		.type	can_lld_receive, %function
 1244              	can_lld_receive:
 1245              	.LFB71:
 1246              		.loc 1 606 0
 1247              		.cfi_startproc
 1248              		@ args = 0, pretend = 0, frame = 0
 1249              		@ frame_needed = 0, uses_anonymous_args = 0
 1250              		@ link register save eliminated.
 1251              	.LVL89:
 1252 0000 30B4     		push	{r4, r5}
 1253              	.LCFI9:
 1254              		.cfi_def_cfa_offset 8
 1255              		.loc 1 609 0
 1256 0002 0029     		cmp	r1, #0
 1257 0004 36D1     		bne	.L104
 1258              		.cfi_offset 5, -4
 1259              		.cfi_offset 4, -8
 1260              		.loc 1 610 0
 1261 0006 436B     		ldr	r3, [r0, #52]
 1262 0008 D968     		ldr	r1, [r3, #12]
 1263              	.LVL90:
 1264 000a 11F0030F 		tst	r1, #3
 1265 000e 37D0     		beq	.L113
 1266              	.L105:
 1267              		.loc 1 622 0
 1268 0010 D3F8B041 		ldr	r4, [r3, #432]
 1269              	.LVL91:
 1270              		.loc 1 623 0
 1271 0014 D3F8B411 		ldr	r1, [r3, #436]
 1272              	.LVL92:
 1273              		.loc 1 624 0
 1274 0018 D3F8B831 		ldr	r3, [r3, #440]
 1275 001c D360     		str	r3, [r2, #12]
 1276              		.loc 1 625 0
 1277 001e 456B     		ldr	r5, [r0, #52]
 1278 0020 D5F8BC31 		ldr	r3, [r5, #444]
 1279              		.loc 1 628 0
 1280 0024 2025     		movs	r5, #32
 1281              		.loc 1 625 0
 1282 0026 1361     		str	r3, [r2, #16]
 1283              		.loc 1 628 0
 1284 0028 436B     		ldr	r3, [r0, #52]
 1285 002a DD60     		str	r5, [r3, #12]
 1286              		.loc 1 632 0
 1287 002c D868     		ldr	r0, [r3, #12]
 1288              	.LVL93:
 1289 002e 10F0030F 		tst	r0, #3
 1290 0032 48D0     		beq	.L114
 1291              	.L110:
 1292              		.loc 1 656 0
 1293 0034 92F804C0 		ldrb	ip, [r2, #4]	@ zero_extendqisi2
 1294 0038 C4F34005 		ubfx	r5, r4, #1, #1
 1295 003c 65F3041C 		bfi	ip, r5, #4, #1
ARM GAS  C:\Users\DNIEL~1\AppData\Local\Temp\ccF8aCFh.s 			page 24


 1296              		.loc 1 657 0
 1297 0040 C4F38000 		ubfx	r0, r4, #2, #1
 1298 0044 60F3451C 		bfi	ip, r0, #5, #1
 1299              		.loc 1 658 0
 1300 0048 6046     		mov	r0, ip
 1301 004a 00F02003 		and	r3, r0, #32
 1302 004e DDB2     		uxtb	r5, r3
 1303              		.loc 1 657 0
 1304 0050 82F804C0 		strb	ip, [r2, #4]
 1305              		.loc 1 658 0
 1306 0054 002D     		cmp	r5, #0
 1307 0056 2ED0     		beq	.L111
 1308              		.loc 1 659 0
 1309 0058 9368     		ldr	r3, [r2, #8]
 1310 005a E408     		lsrs	r4, r4, #3
 1311              	.LVL94:
 1312 005c 64F31C03 		bfi	r3, r4, #0, #29
 1313 0060 9360     		str	r3, [r2, #8]
 1314              	.L112:
 1315              		.loc 1 662 0
 1316 0062 0346     		mov	r3, r0
 1317 0064 61F30303 		bfi	r3, r1, #0, #4
 1318              		.loc 1 663 0
 1319 0068 080A     		lsrs	r0, r1, #8
 1320              		.loc 1 664 0
 1321 006a 090C     		lsrs	r1, r1, #16
 1322              	.LVL95:
 1323              		.loc 1 662 0
 1324 006c 1371     		strb	r3, [r2, #4]
 1325              		.loc 1 663 0
 1326 006e 1070     		strb	r0, [r2, #0]
 1327              		.loc 1 664 0
 1328 0070 5180     		strh	r1, [r2, #2]	@ movhi
 1329 0072 03E0     		b	.L103
 1330              	.LVL96:
 1331              	.L104:
 1332              		.loc 1 619 0
 1333 0074 0129     		cmp	r1, #1
 1334 0076 2BD0     		beq	.L108
 1335 0078 0229     		cmp	r1, #2
 1336 007a 2BD0     		beq	.L115
 1337              	.LVL97:
 1338              	.L103:
 1339              		.loc 1 665 0
 1340 007c 30BC     		pop	{r4, r5}
 1341 007e 7047     		bx	lr
 1342              	.LVL98:
 1343              	.L113:
 1344              		.loc 1 612 0
 1345 0080 1969     		ldr	r1, [r3, #16]
 1346 0082 11F0030F 		tst	r1, #3
 1347 0086 F9D0     		beq	.L103
 1348              	.L106:
 1349              		.loc 1 637 0
 1350 0088 D3F8C041 		ldr	r4, [r3, #448]
 1351              	.LVL99:
 1352              		.loc 1 638 0
ARM GAS  C:\Users\DNIEL~1\AppData\Local\Temp\ccF8aCFh.s 			page 25


 1353 008c D3F8C411 		ldr	r1, [r3, #452]
 1354              	.LVL100:
 1355              		.loc 1 639 0
 1356 0090 D3F8C831 		ldr	r3, [r3, #456]
 1357 0094 D360     		str	r3, [r2, #12]
 1358              		.loc 1 640 0
 1359 0096 456B     		ldr	r5, [r0, #52]
 1360 0098 D5F8CC31 		ldr	r3, [r5, #460]
 1361              		.loc 1 643 0
 1362 009c 2025     		movs	r5, #32
 1363              		.loc 1 640 0
 1364 009e 1361     		str	r3, [r2, #16]
 1365              		.loc 1 643 0
 1366 00a0 436B     		ldr	r3, [r0, #52]
 1367 00a2 1D61     		str	r5, [r3, #16]
 1368              		.loc 1 647 0
 1369 00a4 1869     		ldr	r0, [r3, #16]
 1370              	.LVL101:
 1371 00a6 10F0030F 		tst	r0, #3
 1372 00aa C3D1     		bne	.L110
 1373              		.loc 1 648 0
 1374 00ac 5D69     		ldr	r5, [r3, #20]
 1375 00ae 45F01000 		orr	r0, r5, #16
 1376 00b2 5861     		str	r0, [r3, #20]
 1377 00b4 BEE7     		b	.L110
 1378              	.L111:
 1379              		.loc 1 661 0
 1380 00b6 B2F808C0 		ldrh	ip, [r2, #8]
 1381 00ba 640D     		lsrs	r4, r4, #21
 1382              	.LVL102:
 1383 00bc 64F30A0C 		bfi	ip, r4, #0, #11
 1384 00c0 A2F808C0 		strh	ip, [r2, #8]	@ movhi
 1385 00c4 CDE7     		b	.L112
 1386              	.LVL103:
 1387              	.L114:
 1388              		.loc 1 633 0
 1389 00c6 5D69     		ldr	r5, [r3, #20]
 1390 00c8 45F00200 		orr	r0, r5, #2
 1391 00cc 5861     		str	r0, [r3, #20]
 1392 00ce B1E7     		b	.L110
 1393              	.LVL104:
 1394              	.L108:
 1395              		.loc 1 619 0
 1396 00d0 436B     		ldr	r3, [r0, #52]
 1397 00d2 9DE7     		b	.L105
 1398              	.L115:
 1399 00d4 436B     		ldr	r3, [r0, #52]
 1400 00d6 D7E7     		b	.L106
 1401              		.cfi_endproc
 1402              	.LFE71:
 1403              		.size	can_lld_receive, .-can_lld_receive
 1404 00d8 AFF30080 		.section	.text.can_lld_sleep,"ax",%progbits
 1404      AFF30080 
 1405              		.align	2
 1406              		.p2align 4,,15
 1407              		.global	can_lld_sleep
 1408              		.thumb
ARM GAS  C:\Users\DNIEL~1\AppData\Local\Temp\ccF8aCFh.s 			page 26


 1409              		.thumb_func
 1410              		.type	can_lld_sleep, %function
 1411              	can_lld_sleep:
 1412              	.LFB72:
 1413              		.loc 1 675 0
 1414              		.cfi_startproc
 1415              		@ args = 0, pretend = 0, frame = 0
 1416              		@ frame_needed = 0, uses_anonymous_args = 0
 1417              		@ link register save eliminated.
 1418              	.LVL105:
 1419              		.loc 1 677 0
 1420 0000 436B     		ldr	r3, [r0, #52]
 1421 0002 1868     		ldr	r0, [r3, #0]
 1422              	.LVL106:
 1423 0004 40F00202 		orr	r2, r0, #2
 1424 0008 1A60     		str	r2, [r3, #0]
 1425              		.loc 1 678 0
 1426 000a 7047     		bx	lr
 1427              		.cfi_endproc
 1428              	.LFE72:
 1429              		.size	can_lld_sleep, .-can_lld_sleep
 1430 000c AFF30080 		.section	.text.can_lld_wakeup,"ax",%progbits
 1431              		.align	2
 1432              		.p2align 4,,15
 1433              		.global	can_lld_wakeup
 1434              		.thumb
 1435              		.thumb_func
 1436              		.type	can_lld_wakeup, %function
 1437              	can_lld_wakeup:
 1438              	.LFB73:
 1439              		.loc 1 687 0
 1440              		.cfi_startproc
 1441              		@ args = 0, pretend = 0, frame = 0
 1442              		@ frame_needed = 0, uses_anonymous_args = 0
 1443              		@ link register save eliminated.
 1444              	.LVL107:
 1445              		.loc 1 689 0
 1446 0000 436B     		ldr	r3, [r0, #52]
 1447 0002 1868     		ldr	r0, [r3, #0]
 1448              	.LVL108:
 1449 0004 20F00202 		bic	r2, r0, #2
 1450 0008 1A60     		str	r2, [r3, #0]
 1451              		.loc 1 690 0
 1452 000a 7047     		bx	lr
 1453              		.cfi_endproc
 1454              	.LFE73:
 1455              		.size	can_lld_wakeup, .-can_lld_wakeup
 1456 000c AFF30080 		.section	.text.canSTM32SetFilters,"ax",%progbits
 1457              		.align	2
 1458              		.p2align 4,,15
 1459              		.global	canSTM32SetFilters
 1460              		.thumb
 1461              		.thumb_func
 1462              		.type	canSTM32SetFilters, %function
 1463              	canSTM32SetFilters:
 1464              	.LFB74:
 1465              		.loc 1 705 0
ARM GAS  C:\Users\DNIEL~1\AppData\Local\Temp\ccF8aCFh.s 			page 27


 1466              		.cfi_startproc
 1467              		@ args = 0, pretend = 0, frame = 0
 1468              		@ frame_needed = 0, uses_anonymous_args = 0
 1469              		@ link register save eliminated.
 1470              	.LVL109:
 1471              		.loc 1 721 0
 1472              		.loc 1 720 0
 1473 0000 FFF7FEBF 		b	can_lld_set_filters
 1474              		.cfi_endproc
 1475              	.LFE74:
 1476              		.size	canSTM32SetFilters, .-canSTM32SetFilters
 1477              		.global	CAND1
 1478 0004 AFF30080 		.section	.bss.CAND1,"aw",%nobits
 1478      AFF30080 
 1478      AFF30080 
 1479              		.align	2
 1480              		.set	.LANCHOR0,. + 0
 1481              		.type	CAND1, %object
 1482              		.size	CAND1, 56
 1483              	CAND1:
 1484 0000 00000000 		.space	56
 1484      00000000 
 1484      00000000 
 1484      00000000 
 1484      00000000 
 1485              		.text
 1486              	.Letext0: