ARM GAS  C:\Users\DNIEL~1\AppData\Local\Temp\ccOPguCq.s 			page 1


   1              		.syntax unified
   2              		.cpu cortex-m3
   3              		.fpu softvfp
   4              		.eabi_attribute 20, 1
   5              		.eabi_attribute 21, 1
   6              		.eabi_attribute 23, 3
   7              		.eabi_attribute 24, 1
   8              		.eabi_attribute 25, 1
   9              		.eabi_attribute 26, 1
  10              		.eabi_attribute 30, 2
  11              		.eabi_attribute 18, 4
  12              		.thumb
  13              		.file	"can_comm.c"
  14              		.section	.debug_abbrev,"",%progbits
  15              	.Ldebug_abbrev0:
  16              		.section	.debug_info,"",%progbits
  17              	.Ldebug_info0:
  18              		.section	.debug_line,"",%progbits
  19              	.Ldebug_line0:
  20 0000 26030000 		.text
  20      02004C02 
  20      00000201 
  20      FB0E0D00 
  20      01010101 
  21              	.Ltext0:
  22              		.cfi_sections	.debug_frame
  23              		.section	.text.can_tx,"ax",%progbits
  24              		.align	2
  25              		.p2align 4,,15
  26              		.thumb
  27              		.thumb_func
  28              		.type	can_tx, %function
  29              	can_tx:
  30              	.LFB57:
  31              		.file 1 "src/can_comm.c"
  32              		.loc 1 181 0
  33              		.cfi_startproc
  34              		@ args = 0, pretend = 0, frame = 0
  35              		@ frame_needed = 0, uses_anonymous_args = 0
  36              	.LVL0:
  37 0000 2DE9F041 		push	{r4, r5, r6, r7, r8, lr}
  38              	.LCFI0:
  39              		.cfi_def_cfa_offset 24
  40              		.loc 1 184 0
  41 0004 2C4F     		ldr	r7, .L12
  42              		.cfi_offset 14, -4
  43              		.cfi_offset 8, -8
  44              		.cfi_offset 7, -12
  45              		.cfi_offset 6, -16
  46              		.cfi_offset 5, -20
  47              		.cfi_offset 4, -24
  48 0006 2D49     		ldr	r1, .L12+4
  49 0008 BB69     		ldr	r3, [r7, #24]
  50              		.loc 1 188 0
  51 000a 5A7F     		ldrb	r2, [r3, #29]	@ zero_extendqisi2
  52              		.loc 1 184 0
  53 000c 9961     		str	r1, [r3, #24]
ARM GAS  C:\Users\DNIEL~1\AppData\Local\Temp\ccOPguCq.s 			page 2


  54              		.loc 1 188 0
  55 000e 12F0040F 		tst	r2, #4
  56 0012 35D1     		bne	.L3
  57              		.loc 1 211 0
  58 0014 2A4C     		ldr	r4, .L12+8
  59 0016 2B4E     		ldr	r6, .L12+12
  60              	.LVL1:
  61              	.L9:
  62              		.loc 1 181 0
  63 0018 0125     		movs	r5, #1
  64              	.LVL2:
  65              	.L8:
  66 001a 6B1E     		subs	r3, r5, #1
  67              		.loc 1 197 0
  68 001c 0020     		movs	r0, #0
  69              		.loc 1 190 0
  70 001e 012B     		cmp	r3, #1
  71              		.loc 1 200 0
  72 0020 8046     		mov	r8, r0
  73              		.loc 1 190 0
  74 0022 30D0     		beq	.L5
  75 0024 022B     		cmp	r3, #2
  76 0026 20D0     		beq	.L6
  77              		.loc 1 195 0
  78 0028 3288     		ldrh	r2, [r6, #0]
  79 002a 6168     		ldr	r1, [r4, #4]
  80 002c 1302     		lsls	r3, r2, #8
  81 002e 5A1C     		adds	r2, r3, #1
  82 0030 62F31C01 		bfi	r1, r2, #0, #29
  83 0034 6160     		str	r1, [r4, #4]
  84              		.loc 1 197 0
  85 0036 FFF7FEFF 		bl	measGetValue
  86 003a 2072     		strb	r0, [r4, #8]
  87              		.loc 1 198 0
  88 003c 0220     		movs	r0, #2
  89 003e FFF7FEFF 		bl	measGetValue
  90 0042 6072     		strb	r0, [r4, #9]
  91              		.loc 1 199 0
  92 0044 0320     		movs	r0, #3
  93 0046 FFF7FEFF 		bl	measGetValue
  94              		.loc 1 200 0
  95 004a 84F80B80 		strb	r8, [r4, #11]
  96              		.loc 1 199 0
  97 004e A072     		strb	r0, [r4, #10]
  98              		.loc 1 201 0
  99 0050 FFF7FEFF 		bl	SPV1020VIN
 100 0054 A081     		strh	r0, [r4, #12]	@ movhi
 101              		.loc 1 202 0
 102 0056 0120     		movs	r0, #1
 103 0058 FFF7FEFF 		bl	measGetValue
 104              		.loc 1 204 0
 105 005c 4146     		mov	r1, r8
 106              		.loc 1 202 0
 107 005e E081     		strh	r0, [r4, #14]	@ movhi
 108              		.loc 1 204 0
 109 0060 174A     		ldr	r2, .L12+8
 110 0062 6423     		movs	r3, #100
ARM GAS  C:\Users\DNIEL~1\AppData\Local\Temp\ccOPguCq.s 			page 3


 111 0064 1848     		ldr	r0, .L12+16
 112 0066 FFF7FEFF 		bl	canTransmit
 113              	.L6:
 114              	.LVL3:
 115              		.loc 1 189 0
 116 006a 022D     		cmp	r5, #2
 117 006c 21DD     		ble	.L7
 118              		.loc 1 236 0
 119 006e 6420     		movs	r0, #100
 120 0070 FFF7FEFF 		bl	chThdSleep
 121              		.loc 1 188 0
 122 0074 B869     		ldr	r0, [r7, #24]
 123 0076 90F81DC0 		ldrb	ip, [r0, #29]	@ zero_extendqisi2
 124 007a 1CF0040F 		tst	ip, #4
 125 007e CBD0     		beq	.L9
 126              	.LVL4:
 127              	.L3:
 128              		.loc 1 239 0
 129 0080 0020     		movs	r0, #0
 130 0082 BDE8F081 		pop	{r4, r5, r6, r7, r8, pc}
 131              	.L5:
 132              		.loc 1 211 0
 133 0086 3288     		ldrh	r2, [r6, #0]
 134 0088 6068     		ldr	r0, [r4, #4]
 135 008a 1302     		lsls	r3, r2, #8
 136 008c 991C     		adds	r1, r3, #2
 137 008e 61F31C00 		bfi	r0, r1, #0, #29
 138 0092 6060     		str	r0, [r4, #4]
 139              		.loc 1 213 0
 140 0094 FFF7FEFF 		bl	SPV1020STATUS
 141 0098 2081     		strh	r0, [r4, #8]	@ movhi
 142              		.loc 1 214 0
 143 009a FFF7FEFF 		bl	SPV1020PWM
 144 009e 6081     		strh	r0, [r4, #10]	@ movhi
 145              		.loc 1 215 0
 146 00a0 FFF7FEFF 		bl	SPV1020CURR_IN
 147              		.loc 1 217 0
 148 00a4 0021     		movs	r1, #0
 149              		.loc 1 215 0
 150 00a6 A081     		strh	r0, [r4, #12]	@ movhi
 151              		.loc 1 217 0
 152 00a8 054A     		ldr	r2, .L12+8
 153 00aa 6423     		movs	r3, #100
 154 00ac 0648     		ldr	r0, .L12+16
 155 00ae FFF7FEFF 		bl	canTransmit
 156              	.LVL5:
 157              	.L7:
 158              		.loc 1 188 0
 159 00b2 0135     		adds	r5, r5, #1
 160 00b4 B1E7     		b	.L8
 161              	.L13:
 162 00b6 00BF     		.align	2
 163              	.L12:
 164 00b8 00000000 		.word	rlist
 165 00bc 00000000 		.word	.LC0
 166 00c0 00000000 		.word	.LANCHOR0
 167 00c4 00000000 		.word	.LANCHOR1
ARM GAS  C:\Users\DNIEL~1\AppData\Local\Temp\ccOPguCq.s 			page 4


 168 00c8 00000000 		.word	CAND1
 169              		.cfi_endproc
 170              	.LFE57:
 171              		.size	can_tx, .-can_tx
 172 00cc AFF30080 		.section	.text.can_rx,"ax",%progbits
 173              		.align	2
 174              		.p2align 4,,15
 175              		.thumb
 176              		.thumb_func
 177              		.type	can_rx, %function
 178              	can_rx:
 179              	.LFB56:
 180              		.loc 1 106 0
 181              		.cfi_startproc
 182              		@ args = 0, pretend = 0, frame = 16
 183              		@ frame_needed = 0, uses_anonymous_args = 0
 184              	.LVL6:
 185 0000 2DE9F041 		push	{r4, r5, r6, r7, r8, lr}
 186              	.LCFI1:
 187              		.cfi_def_cfa_offset 24
 188              		.loc 1 111 0
 189 0004 DFF8A480 		ldr	r8, .L32+28
 190              		.cfi_offset 14, -4
 191              		.cfi_offset 8, -8
 192              		.cfi_offset 7, -12
 193              		.cfi_offset 6, -16
 194              		.cfi_offset 5, -20
 195              		.cfi_offset 4, -24
 196 0008 214A     		ldr	r2, .L32
 197 000a D8F81830 		ldr	r3, [r8, #24]
 198              		.loc 1 106 0
 199 000e 84B0     		sub	sp, sp, #16
 200              	.LCFI2:
 201              		.cfi_def_cfa_offset 40
 202              		.loc 1 111 0
 203 0010 9A61     		str	r2, [r3, #24]
 204              		.loc 1 112 0
 205 0012 2048     		ldr	r0, .L32+4
 206              	.LVL7:
 207 0014 6946     		mov	r1, sp
 208 0016 0122     		movs	r2, #1
 209 0018 FFF7FEFF 		bl	chEvtRegisterMask
 210              		.loc 1 116 0
 211 001c 1E4E     		ldr	r6, .L32+8
 212              		.loc 1 118 0
 213 001e 1F4D     		ldr	r5, .L32+12
 214              		.loc 1 119 0
 215 0020 1F4C     		ldr	r4, .L32+16
 216              		.loc 1 134 0
 217 0022 204F     		ldr	r7, .L32+20
 218              	.L28:
 219              		.loc 1 113 0 discriminator 1
 220 0024 D8F81830 		ldr	r3, [r8, #24]
 221 0028 93F81DC0 		ldrb	ip, [r3, #29]	@ zero_extendqisi2
 222 002c 1CF0040F 		tst	ip, #4
 223 0030 0CD1     		bne	.L31
 224              	.L25:
ARM GAS  C:\Users\DNIEL~1\AppData\Local\Temp\ccOPguCq.s 			page 5


 225              		.loc 1 114 0
 226 0032 4FF0FF30 		mov	r0, #-1
 227 0036 6421     		movs	r1, #100
 228 0038 FFF7FEFF 		bl	chEvtWaitAnyTimeout
 229 003c F0B9     		cbnz	r0, .L29
 230              		.loc 1 113 0
 231 003e D8F81830 		ldr	r3, [r8, #24]
 232 0042 93F81DC0 		ldrb	ip, [r3, #29]	@ zero_extendqisi2
 233 0046 1CF0040F 		tst	ip, #4
 234 004a F2D0     		beq	.L25
 235              	.L31:
 236              		.loc 1 172 0
 237 004c 6946     		mov	r1, sp
 238 004e 1148     		ldr	r0, .L32+4
 239 0050 FFF7FEFF 		bl	chEvtUnregister
 240              		.loc 1 173 0
 241 0054 C820     		movs	r0, #200
 242 0056 FFF7FEFF 		bl	chThdSleep
 243              		.loc 1 175 0
 244 005a 0020     		movs	r0, #0
 245 005c 04B0     		add	sp, sp, #16
 246 005e BDE8F081 		pop	{r4, r5, r6, r7, r8, pc}
 247              	.L24:
 248              		.loc 1 118 0
 249 0062 B168     		ldr	r1, [r6, #8]
 250              		.loc 1 134 0
 251 0064 0420     		movs	r0, #4
 252              		.loc 1 118 0
 253 0066 C1F31C02 		ubfx	r2, r1, #0, #29
 254 006a C2F30F2E 		ubfx	lr, r2, #8, #16
 255              		.loc 1 119 0
 256 006e 5FFA82FC 		uxtb	ip, r2
 257              		.loc 1 118 0
 258 0072 A5F800E0 		strh	lr, [r5, #0]	@ movhi
 259              		.loc 1 119 0
 260 0076 A4F800C0 		strh	ip, [r4, #0]	@ movhi
 261              		.loc 1 134 0
 262 007a 3870     		strb	r0, [r7, #0]
 263              	.L29:
 264              		.loc 1 116 0 discriminator 1
 265 007c 0021     		movs	r1, #0
 266 007e 064A     		ldr	r2, .L32+8
 267 0080 0B46     		mov	r3, r1
 268 0082 0948     		ldr	r0, .L32+24
 269 0084 FFF7FEFF 		bl	canReceive
 270 0088 0028     		cmp	r0, #0
 271 008a EAD0     		beq	.L24
 272 008c CAE7     		b	.L28
 273              	.L33:
 274 008e 00BF     		.align	2
 275              	.L32:
 276 0090 0C000000 		.word	.LC1
 277 0094 20000000 		.word	CAND1+32
 278 0098 00000000 		.word	.LANCHOR2
 279 009c 00000000 		.word	.LANCHOR3
 280 00a0 00000000 		.word	.LANCHOR4
 281 00a4 00000000 		.word	.LANCHOR5
ARM GAS  C:\Users\DNIEL~1\AppData\Local\Temp\ccOPguCq.s 			page 6


 282 00a8 00000000 		.word	CAND1
 283 00ac 00000000 		.word	rlist
 284              		.cfi_endproc
 285              	.LFE56:
 286              		.size	can_rx, .-can_rx
 287              		.section	.text.can_commInit,"ax",%progbits
 288              		.align	2
 289              		.p2align 4,,15
 290              		.global	can_commInit
 291              		.thumb
 292              		.thumb_func
 293              		.type	can_commInit, %function
 294              	can_commInit:
 295              	.LFB58:
 296              		.loc 1 250 0
 297              		.cfi_startproc
 298              		@ args = 0, pretend = 0, frame = 0
 299              		@ frame_needed = 0, uses_anonymous_args = 0
 300 0000 F0B5     		push	{r4, r5, r6, r7, lr}
 301              	.LCFI3:
 302              		.cfi_def_cfa_offset 20
 303              		.loc 1 254 0
 304 0002 344E     		ldr	r6, .L45
 305              		.cfi_offset 14, -4
 306              		.cfi_offset 7, -8
 307              		.cfi_offset 6, -12
 308              		.cfi_offset 5, -16
 309              		.cfi_offset 4, -20
 310              		.loc 1 250 0
 311 0004 83B0     		sub	sp, sp, #12
 312              	.LCFI4:
 313              		.cfi_def_cfa_offset 32
 314              		.loc 1 254 0
 315 0006 B768     		ldr	r7, [r6, #8]
 316              		.loc 1 255 0
 317 0008 B468     		ldr	r4, [r6, #8]
 318              		.loc 1 254 0
 319 000a 17F0800F 		tst	r7, #128
 320              		.loc 1 256 0
 321 000e B168     		ldr	r1, [r6, #8]
 322              		.loc 1 254 0
 323 0010 14BF     		ite	ne
 324 0012 4FF0400E 		movne	lr, #64
 325 0016 4FF0410E 		moveq	lr, #65
 326              		.loc 1 257 0
 327 001a B568     		ldr	r5, [r6, #8]
 328              		.loc 1 255 0
 329 001c 14F0400F 		tst	r4, #64
 330 0020 14BF     		ite	ne
 331 0022 0020     		movne	r0, #0
 332 0024 0220     		moveq	r0, #2
 333              		.loc 1 259 0
 334 0026 A6F58063 		sub	r3, r6, #1024
 335              		.loc 1 256 0
 336 002a 11F0200F 		tst	r1, #32
 337              		.loc 1 255 0
 338 002e 0EEB000C 		add	ip, lr, r0
ARM GAS  C:\Users\DNIEL~1\AppData\Local\Temp\ccOPguCq.s 			page 7


 339              		.loc 1 258 0
 340 0032 B168     		ldr	r1, [r6, #8]
 341              		.loc 1 256 0
 342 0034 14BF     		ite	ne
 343 0036 0022     		movne	r2, #0
 344 0038 0422     		moveq	r2, #4
 345              		.loc 1 259 0
 346 003a 9F68     		ldr	r7, [r3, #8]
 347              		.loc 1 257 0
 348 003c 15F0100F 		tst	r5, #16
 349              		.loc 1 268 0
 350 0040 254B     		ldr	r3, .L45+4
 351              		.loc 1 264 0
 352 0042 264D     		ldr	r5, .L45+8
 353              		.loc 1 256 0
 354 0044 0CEB0206 		add	r6, ip, r2
 355              		.loc 1 257 0
 356 0048 14BF     		ite	ne
 357 004a 0024     		movne	r4, #0
 358 004c 0824     		moveq	r4, #8
 359              		.loc 1 264 0
 360 004e 95F800C0 		ldrb	ip, [r5, #0]	@ zero_extendqisi2
 361              		.loc 1 259 0
 362 0052 17F4807F 		tst	r7, #256
 363              		.loc 1 257 0
 364 0056 06EB0400 		add	r0, r6, r4
 365              		.loc 1 268 0
 366 005a 1F79     		ldrb	r7, [r3, #4]	@ zero_extendqisi2
 367              		.loc 1 258 0
 368 005c C1F3C00E 		ubfx	lr, r1, #3, #1
 369              		.loc 1 259 0
 370 0060 14BF     		ite	ne
 371 0062 0022     		movne	r2, #0
 372 0064 2022     		moveq	r2, #32
 373              		.loc 1 258 0
 374 0066 00EB0E14 		add	r4, r0, lr, lsl #4
 375              		.loc 1 265 0
 376 006a 4CF02006 		orr	r6, ip, #32
 377              		.loc 1 261 0
 378 006e 04EB020E 		add	lr, r4, r2
 379              		.loc 1 269 0
 380 0072 47F02000 		orr	r0, r7, #32
 381              		.loc 1 266 0
 382 0076 0821     		movs	r1, #8
 383              		.loc 1 262 0
 384 0078 BEF1400F 		cmp	lr, #64
 385 007c 38BF     		it	cc
 386 007e 4FF0400E 		movcc	lr, #64
 387              		.loc 1 270 0
 388 0082 00F0EF02 		and	r2, r0, #239
 389              		.loc 1 262 0
 390 0086 164F     		ldr	r7, .L45+12
 391              		.loc 1 266 0
 392 0088 06F0EF06 		and	r6, r6, #239
 393              		.loc 1 262 0
 394 008c BEF15F0F 		cmp	lr, #95
 395 0090 28BF     		it	cs
ARM GAS  C:\Users\DNIEL~1\AppData\Local\Temp\ccOPguCq.s 			page 8


 396 0092 4FF05F0E 		movcs	lr, #95
 397              		.loc 1 270 0
 398 0096 61F30302 		bfi	r2, r1, #0, #4
 399              		.loc 1 266 0
 400 009a 61F30306 		bfi	r6, r1, #0, #4
 401              		.loc 1 262 0
 402 009e A7F800E0 		strh	lr, [r7, #0]	@ movhi
 403              		.loc 1 272 0
 404 00a2 1048     		ldr	r0, .L45+16
 405              		.loc 1 266 0
 406 00a4 2E70     		strb	r6, [r5, #0]
 407              		.loc 1 272 0
 408 00a6 1049     		ldr	r1, .L45+20
 409              		.loc 1 270 0
 410 00a8 1A71     		strb	r2, [r3, #4]
 411              		.loc 1 272 0
 412 00aa FFF7FEFF 		bl	canStart
 413              		.loc 1 274 0
 414 00ae 0024     		movs	r4, #0
 415 00b0 4722     		movs	r2, #71
 416 00b2 4FF4E871 		mov	r1, #464
 417 00b6 0D4B     		ldr	r3, .L45+24
 418 00b8 0D48     		ldr	r0, .L45+28
 419 00ba 0094     		str	r4, [sp, #0]
 420 00bc FFF7FEFF 		bl	chThdCreateStatic
 421              		.loc 1 275 0
 422 00c0 4FF4E871 		mov	r1, #464
 423 00c4 4722     		movs	r2, #71
 424 00c6 0B4B     		ldr	r3, .L45+32
 425 00c8 0B48     		ldr	r0, .L45+36
 426 00ca 0094     		str	r4, [sp, #0]
 427 00cc FFF7FEFF 		bl	chThdCreateStatic
 428              		.loc 1 276 0
 429 00d0 03B0     		add	sp, sp, #12
 430 00d2 F0BD     		pop	{r4, r5, r6, r7, pc}
 431              	.L46:
 432              		.align	2
 433              	.L45:
 434 00d4 000C0140 		.word	1073810432
 435 00d8 00000000 		.word	.LANCHOR2
 436 00dc 00000000 		.word	.LANCHOR0
 437 00e0 00000000 		.word	.LANCHOR1
 438 00e4 00000000 		.word	CAND1
 439 00e8 00000000 		.word	.LANCHOR6
 440 00ec 00000000 		.word	can_rx
 441 00f0 00000000 		.word	.LANCHOR7
 442 00f4 00000000 		.word	can_tx
 443 00f8 00000000 		.word	.LANCHOR8
 444              		.cfi_endproc
 445              	.LFE58:
 446              		.size	can_commInit, .-can_commInit
 447              		.global	canstate
 448              		.global	canMessages
 449 00fc AFF30080 		.section	.bss.can_tx_wa,"aw",%nobits
 450              		.align	3
 451              		.set	.LANCHOR8,. + 0
 452              		.type	can_tx_wa, %object
ARM GAS  C:\Users\DNIEL~1\AppData\Local\Temp\ccOPguCq.s 			page 9


 453              		.size	can_tx_wa, 464
 454              	can_tx_wa:
 455 0000 00000000 		.space	464
 455      00000000 
 455      00000000 
 455      00000000 
 455      00000000 
 456              		.section	.bss.rx_id,"aw",%nobits
 457              		.align	1
 458              		.set	.LANCHOR3,. + 0
 459              		.type	rx_id, %object
 460              		.size	rx_id, 2
 461              	rx_id:
 462 0000 0000     		.space	2
 463              		.section	.bss.txmsg,"aw",%nobits
 464              		.align	2
 465              		.set	.LANCHOR0,. + 0
 466              		.type	txmsg, %object
 467              		.size	txmsg, 16
 468              	txmsg:
 469 0000 00000000 		.space	16
 469      00000000 
 469      00000000 
 469      00000000 
 470              		.section	.bss.can_rx_wa,"aw",%nobits
 471              		.align	3
 472              		.set	.LANCHOR7,. + 0
 473              		.type	can_rx_wa, %object
 474              		.size	can_rx_wa, 464
 475              	can_rx_wa:
 476 0000 00000000 		.space	464
 476      00000000 
 476      00000000 
 476      00000000 
 476      00000000 
 477              		.section	.bss.canMessages,"aw",%nobits
 478              		.type	canMessages, %object
 479              		.size	canMessages, 1
 480              	canMessages:
 481 0000 00       		.space	1
 482              		.section	.rodata.str1.4,"aMS",%progbits,1
 483              		.align	2
 484              	.LC0:
 485 0000 7472616E 		.ascii	"transmitter\000"
 485      736D6974 
 485      74657200 
 486              	.LC1:
 487 000c 72656365 		.ascii	"receiver\000"
 487      69766572 
 487      00
 488 0015 000000   		.section	.bss.canstate,"aw",%nobits
 489              		.set	.LANCHOR5,. + 0
 490              		.type	canstate, %object
 491              		.size	canstate, 1
 492              	canstate:
 493 0000 00       		.space	1
 494              		.section	.bss.messages,"aw",%nobits
ARM GAS  C:\Users\DNIEL~1\AppData\Local\Temp\ccOPguCq.s 			page 10


 495              		.align	1
 496              		.set	.LANCHOR4,. + 0
 497              		.type	messages, %object
 498              		.size	messages, 2
 499              	messages:
 500 0000 0000     		.space	2
 501              		.section	.bss.rxmsg,"aw",%nobits
 502              		.align	2
 503              		.set	.LANCHOR2,. + 0
 504              		.type	rxmsg, %object
 505              		.size	rxmsg, 20
 506              	rxmsg:
 507 0000 00000000 		.space	20
 507      00000000 
 507      00000000 
 507      00000000 
 507      00000000 
 508              		.section	.bss.tx_id,"aw",%nobits
 509              		.align	1
 510              		.set	.LANCHOR1,. + 0
 511              		.type	tx_id, %object
 512              		.size	tx_id, 2
 513              	tx_id:
 514 0000 0000     		.space	2
 515              		.section	.rodata.cancfg,"a",%progbits
 516              		.align	2
 517              		.set	.LANCHOR6,. + 0
 518              		.type	cancfg, %object
 519              		.size	cancfg, 8
 520              	cancfg:
 521 0000 40000000 		.word	64
 522 0004 05001800 		.word	1572869
 523              		.text
 524              	.Letext0:
 525              		.section	.debug_loc,"",%progbits
 526              	.Ldebug_loc0:
 527              	.LLST0:
 528 0000 00000000 		.4byte	.LFB57
 529 0004 04000000 		.4byte	.LCFI0
 530 0008 0200     		.2byte	0x2
 531 000a 7D       		.byte	0x7d
 532 000b 00       		.sleb128 0
 533 000c 04000000 		.4byte	.LCFI0
 534 0010 CC000000 		.4byte	.LFE57
 535 0014 0200     		.2byte	0x2
 536 0016 7D       		.byte	0x7d
 537 0017 18       		.sleb128 24
 538 0018 00000000 		.4byte	0x0
 539 001c 00000000 		.4byte	0x0
 540              	.LLST1:
 541 0020 00000000 		.4byte	.LVL0
 542 0024 18000000 		.4byte	.LVL1
 543 0028 0100     		.2byte	0x1
 544 002a 50       		.byte	0x50
 545 002b 00000000 		.4byte	0x0
 546 002f 00000000 		.4byte	0x0
 547              	.LLST2:
ARM GAS  C:\Users\DNIEL~1\AppData\Local\Temp\ccOPguCq.s 			page 11


 548 0033 18000000 		.4byte	.LVL1
 549 0037 1A000000 		.4byte	.LVL2
 550 003b 0200     		.2byte	0x2
 551 003d 30       		.byte	0x30
 552 003e 9F       		.byte	0x9f
 553 003f 6A000000 		.4byte	.LVL3
 554 0043 80000000 		.4byte	.LVL4
 555 0047 0100     		.2byte	0x1
 556 0049 55       		.byte	0x55
 557 004a 00000000 		.4byte	0x0
 558 004e 00000000 		.4byte	0x0
 559              	.LLST3:
 560 0052 00000000 		.4byte	.LFB56
 561 0056 04000000 		.4byte	.LCFI1
 562 005a 0200     		.2byte	0x2
 563 005c 7D       		.byte	0x7d
 564 005d 00       		.sleb128 0
 565 005e 04000000 		.4byte	.LCFI1
 566 0062 10000000 		.4byte	.LCFI2
 567 0066 0200     		.2byte	0x2
 568 0068 7D       		.byte	0x7d
 569 0069 18       		.sleb128 24
 570 006a 10000000 		.4byte	.LCFI2
 571 006e B0000000 		.4byte	.LFE56
 572 0072 0200     		.2byte	0x2
 573 0074 7D       		.byte	0x7d
 574 0075 28       		.sleb128 40
 575 0076 00000000 		.4byte	0x0
 576 007a 00000000 		.4byte	0x0
 577              	.LLST4:
 578 007e 00000000 		.4byte	.LVL6
 579 0082 14000000 		.4byte	.LVL7
 580 0086 0100     		.2byte	0x1
 581 0088 50       		.byte	0x50
 582 0089 00000000 		.4byte	0x0
 583 008d 00000000 		.4byte	0x0
 584              	.LLST5:
 585 0091 00000000 		.4byte	.LFB58
 586 0095 02000000 		.4byte	.LCFI3
 587 0099 0200     		.2byte	0x2
 588 009b 7D       		.byte	0x7d
 589 009c 00       		.sleb128 0
 590 009d 02000000 		.4byte	.LCFI3
 591 00a1 06000000 		.4byte	.LCFI4
 592 00a5 0200     		.2byte	0x2
 593 00a7 7D       		.byte	0x7d
 594 00a8 14       		.sleb128 20
 595 00a9 06000000 		.4byte	.LCFI4
 596 00ad FC000000 		.4byte	.LFE58
 597 00b1 0200     		.2byte	0x2
 598 00b3 7D       		.byte	0x7d
 599 00b4 20       		.sleb128 32
 600 00b5 00000000 		.4byte	0x0
 601 00b9 00000000 		.4byte	0x0
 602              		.file 2 "c:\\program files (x86)\\codesourcery\\sourcery g++ lite\\bin\\../lib/gcc/arm-none-eabi/4
 603              		.file 3 "../../../ChibiOS/os/ports/GCC/ARMCMx/chtypes.h"
 604              		.file 4 "../../../ChibiOS/os/kernel/include/chlists.h"
ARM GAS  C:\Users\DNIEL~1\AppData\Local\Temp\ccOPguCq.s 			page 12


 605              		.file 5 "../../../ChibiOS/os/kernel/include/chthreads.h"
 606              		.file 6 "../../../ChibiOS/os/ports/GCC/ARMCMx/chcore_v7m.h"
 607              		.file 7 "../../../ChibiOS/os/kernel/include/chschd.h"
 608              		.file 8 "../../../ChibiOS/os/kernel/include/chsem.h"
 609              		.file 9 "../../../ChibiOS/os/kernel/include/chmtx.h"
 610              		.file 10 "../../../ChibiOS/os/kernel/include/chevents.h"
 611              		.file 11 "../../../ChibiOS/os/hal/platforms/STM32F1xx/stm32f10x.h"
 612              		.file 12 "../../../ChibiOS/os/hal/include/can.h"
 613              		.file 13 "../../../ChibiOS/os/hal/platforms/STM32/can_lld.h"
 614              		.file 14 "include/meas.h"
 615              		.file 15 "../../../ChibiOS/os/ports/common/ARMCMx/CMSIS/include/core_cm3.h"
 616              		.section	.debug_info
 617 0000 C70D0000 		.4byte	0xdc7
 618 0004 0200     		.2byte	0x2
 619 0006 00000000 		.4byte	.Ldebug_abbrev0
 620 000a 04       		.byte	0x4
 621 000b 01       		.uleb128 0x1
 622 000c 29060000 		.4byte	.LASF162
 623 0010 01       		.byte	0x1
 624 0011 89050000 		.4byte	.LASF163
 625 0015 45000000 		.4byte	.LASF164
 626 0019 00000000 		.4byte	0x0
 627 001d 00000000 		.4byte	0x0
 628 0021 00000000 		.4byte	.Ldebug_ranges0+0x0
 629 0025 00000000 		.4byte	.Ldebug_line0
 630 0029 02       		.uleb128 0x2
 631 002a 04       		.byte	0x4
 632 002b 07       		.byte	0x7
 633 002c D9010000 		.4byte	.LASF0
 634 0030 02       		.uleb128 0x2
 635 0031 01       		.byte	0x1
 636 0032 06       		.byte	0x6
 637 0033 C9000000 		.4byte	.LASF1
 638 0037 02       		.uleb128 0x2
 639 0038 01       		.byte	0x1
 640 0039 08       		.byte	0x8
 641 003a 32040000 		.4byte	.LASF2
 642 003e 02       		.uleb128 0x2
 643 003f 02       		.byte	0x2
 644 0040 05       		.byte	0x5
 645 0041 86040000 		.4byte	.LASF3
 646 0045 02       		.uleb128 0x2
 647 0046 02       		.byte	0x2
 648 0047 07       		.byte	0x7
 649 0048 2F020000 		.4byte	.LASF4
 650 004c 03       		.uleb128 0x3
 651 004d 04       		.byte	0x4
 652 004e 05       		.byte	0x5
 653 004f 696E7400 		.ascii	"int\000"
 654 0053 02       		.uleb128 0x2
 655 0054 08       		.byte	0x8
 656 0055 05       		.byte	0x5
 657 0056 BB000000 		.4byte	.LASF5
 658 005a 02       		.uleb128 0x2
 659 005b 08       		.byte	0x8
 660 005c 07       		.byte	0x7
 661 005d 84000000 		.4byte	.LASF6
ARM GAS  C:\Users\DNIEL~1\AppData\Local\Temp\ccOPguCq.s 			page 13


 662 0061 02       		.uleb128 0x2
 663 0062 04       		.byte	0x4
 664 0063 05       		.byte	0x5
 665 0064 19010000 		.4byte	.LASF7
 666 0068 04       		.uleb128 0x4
 667 0069 04       		.byte	0x4
 668 006a 02       		.uleb128 0x2
 669 006b 04       		.byte	0x4
 670 006c 07       		.byte	0x7
 671 006d 1E050000 		.4byte	.LASF8
 672 0071 02       		.uleb128 0x2
 673 0072 01       		.byte	0x1
 674 0073 08       		.byte	0x8
 675 0074 30050000 		.4byte	.LASF9
 676 0078 05       		.uleb128 0x5
 677 0079 04       		.byte	0x4
 678 007a 7E000000 		.4byte	0x7e
 679 007e 06       		.uleb128 0x6
 680 007f 71000000 		.4byte	0x71
 681 0083 07       		.uleb128 0x7
 682 0084 E4050000 		.4byte	.LASF10
 683 0088 02       		.byte	0x2
 684 0089 2A       		.byte	0x2a
 685 008a 37000000 		.4byte	0x37
 686 008e 07       		.uleb128 0x7
 687 008f 5B010000 		.4byte	.LASF11
 688 0093 02       		.byte	0x2
 689 0094 36       		.byte	0x36
 690 0095 45000000 		.4byte	0x45
 691 0099 07       		.uleb128 0x7
 692 009a 2A040000 		.4byte	.LASF12
 693 009e 02       		.byte	0x2
 694 009f 4F       		.byte	0x4f
 695 00a0 61000000 		.4byte	0x61
 696 00a4 07       		.uleb128 0x7
 697 00a5 FF040000 		.4byte	.LASF13
 698 00a9 02       		.byte	0x2
 699 00aa 50       		.byte	0x50
 700 00ab 6A000000 		.4byte	0x6a
 701 00af 07       		.uleb128 0x7
 702 00b0 26000000 		.4byte	.LASF14
 703 00b4 02       		.byte	0x2
 704 00b5 78       		.byte	0x78
 705 00b6 5A000000 		.4byte	0x5a
 706 00ba 02       		.uleb128 0x2
 707 00bb 01       		.byte	0x1
 708 00bc 02       		.byte	0x2
 709 00bd 24040000 		.4byte	.LASF15
 710 00c1 07       		.uleb128 0x7
 711 00c2 77020000 		.4byte	.LASF16
 712 00c6 03       		.byte	0x3
 713 00c7 2C       		.byte	0x2c
 714 00c8 83000000 		.4byte	0x83
 715 00cc 07       		.uleb128 0x7
 716 00cd 22010000 		.4byte	.LASF17
 717 00d1 03       		.byte	0x3
 718 00d2 2D       		.byte	0x2d
ARM GAS  C:\Users\DNIEL~1\AppData\Local\Temp\ccOPguCq.s 			page 14


 719 00d3 83000000 		.4byte	0x83
 720 00d7 07       		.uleb128 0x7
 721 00d8 D0030000 		.4byte	.LASF18
 722 00dc 03       		.byte	0x3
 723 00dd 2E       		.byte	0x2e
 724 00de 83000000 		.4byte	0x83
 725 00e2 07       		.uleb128 0x7
 726 00e3 04010000 		.4byte	.LASF19
 727 00e7 03       		.byte	0x3
 728 00e8 2F       		.byte	0x2f
 729 00e9 83000000 		.4byte	0x83
 730 00ed 07       		.uleb128 0x7
 731 00ee 11040000 		.4byte	.LASF20
 732 00f2 03       		.byte	0x3
 733 00f3 30       		.byte	0x30
 734 00f4 A4000000 		.4byte	0xa4
 735 00f8 07       		.uleb128 0x7
 736 00f9 69020000 		.4byte	.LASF21
 737 00fd 03       		.byte	0x3
 738 00fe 31       		.byte	0x31
 739 00ff 99000000 		.4byte	0x99
 740 0103 07       		.uleb128 0x7
 741 0104 9B020000 		.4byte	.LASF22
 742 0108 03       		.byte	0x3
 743 0109 33       		.byte	0x33
 744 010a A4000000 		.4byte	0xa4
 745 010e 07       		.uleb128 0x7
 746 010f D6020000 		.4byte	.LASF23
 747 0113 03       		.byte	0x3
 748 0114 34       		.byte	0x34
 749 0115 A4000000 		.4byte	0xa4
 750 0119 07       		.uleb128 0x7
 751 011a 51050000 		.4byte	.LASF24
 752 011e 03       		.byte	0x3
 753 011f 35       		.byte	0x35
 754 0120 A4000000 		.4byte	0xa4
 755 0124 07       		.uleb128 0x7
 756 0125 D3010000 		.4byte	.LASF25
 757 0129 03       		.byte	0x3
 758 012a 36       		.byte	0x36
 759 012b 99000000 		.4byte	0x99
 760 012f 07       		.uleb128 0x7
 761 0130 D2040000 		.4byte	.LASF26
 762 0134 04       		.byte	0x4
 763 0135 2A       		.byte	0x2a
 764 0136 3A010000 		.4byte	0x13a
 765 013a 08       		.uleb128 0x8
 766 013b D2040000 		.4byte	.LASF26
 767 013f 48       		.byte	0x48
 768 0140 05       		.byte	0x5
 769 0141 5E       		.byte	0x5e
 770 0142 5F020000 		.4byte	0x25f
 771 0146 09       		.uleb128 0x9
 772 0147 BE040000 		.4byte	.LASF27
 773 014b 05       		.byte	0x5
 774 014c 5F       		.byte	0x5f
 775 014d 84020000 		.4byte	0x284
ARM GAS  C:\Users\DNIEL~1\AppData\Local\Temp\ccOPguCq.s 			page 15


 776 0151 02       		.byte	0x2
 777 0152 23       		.byte	0x23
 778 0153 00       		.uleb128 0x0
 779 0154 09       		.uleb128 0x9
 780 0155 0A040000 		.4byte	.LASF28
 781 0159 05       		.byte	0x5
 782 015a 61       		.byte	0x61
 783 015b 84020000 		.4byte	0x284
 784 015f 02       		.byte	0x2
 785 0160 23       		.byte	0x23
 786 0161 04       		.uleb128 0x4
 787 0162 09       		.uleb128 0x9
 788 0163 AB000000 		.4byte	.LASF29
 789 0167 05       		.byte	0x5
 790 0168 63       		.byte	0x63
 791 0169 ED000000 		.4byte	0xed
 792 016d 02       		.byte	0x2
 793 016e 23       		.byte	0x23
 794 016f 08       		.uleb128 0x8
 795 0170 09       		.uleb128 0x9
 796 0171 58060000 		.4byte	.LASF30
 797 0175 05       		.byte	0x5
 798 0176 64       		.byte	0x64
 799 0177 5B030000 		.4byte	0x35b
 800 017b 02       		.byte	0x2
 801 017c 23       		.byte	0x23
 802 017d 0C       		.uleb128 0xc
 803 017e 09       		.uleb128 0x9
 804 017f 69010000 		.4byte	.LASF31
 805 0183 05       		.byte	0x5
 806 0184 66       		.byte	0x66
 807 0185 84020000 		.4byte	0x284
 808 0189 02       		.byte	0x2
 809 018a 23       		.byte	0x23
 810 018b 10       		.uleb128 0x10
 811 018c 09       		.uleb128 0x9
 812 018d 40030000 		.4byte	.LASF32
 813 0191 05       		.byte	0x5
 814 0192 67       		.byte	0x67
 815 0193 84020000 		.4byte	0x284
 816 0197 02       		.byte	0x2
 817 0198 23       		.byte	0x23
 818 0199 14       		.uleb128 0x14
 819 019a 09       		.uleb128 0x9
 820 019b 35060000 		.4byte	.LASF33
 821 019f 05       		.byte	0x5
 822 01a0 6E       		.byte	0x6e
 823 01a1 78000000 		.4byte	0x78
 824 01a5 02       		.byte	0x2
 825 01a6 23       		.byte	0x23
 826 01a7 18       		.uleb128 0x18
 827 01a8 09       		.uleb128 0x9
 828 01a9 90040000 		.4byte	.LASF34
 829 01ad 05       		.byte	0x5
 830 01ae 79       		.byte	0x79
 831 01af CC000000 		.4byte	0xcc
 832 01b3 02       		.byte	0x2
ARM GAS  C:\Users\DNIEL~1\AppData\Local\Temp\ccOPguCq.s 			page 16


 833 01b4 23       		.byte	0x23
 834 01b5 1C       		.uleb128 0x1c
 835 01b6 09       		.uleb128 0x9
 836 01b7 C5040000 		.4byte	.LASF35
 837 01bb 05       		.byte	0x5
 838 01bc 7D       		.byte	0x7d
 839 01bd C1000000 		.4byte	0xc1
 840 01c1 02       		.byte	0x2
 841 01c2 23       		.byte	0x23
 842 01c3 1D       		.uleb128 0x1d
 843 01c4 09       		.uleb128 0x9
 844 01c5 4B010000 		.4byte	.LASF36
 845 01c9 05       		.byte	0x5
 846 01ca 82       		.byte	0x82
 847 01cb D7000000 		.4byte	0xd7
 848 01cf 02       		.byte	0x2
 849 01d0 23       		.byte	0x23
 850 01d1 1E       		.uleb128 0x1e
 851 01d2 09       		.uleb128 0x9
 852 01d3 98040000 		.4byte	.LASF37
 853 01d7 05       		.byte	0x5
 854 01d8 88       		.byte	0x88
 855 01d9 E2000000 		.4byte	0xe2
 856 01dd 02       		.byte	0x2
 857 01de 23       		.byte	0x23
 858 01df 1F       		.uleb128 0x1f
 859 01e0 09       		.uleb128 0x9
 860 01e1 12000000 		.4byte	.LASF38
 861 01e5 05       		.byte	0x5
 862 01e6 8F       		.byte	0x8f
 863 01e7 83030000 		.4byte	0x383
 864 01eb 02       		.byte	0x2
 865 01ec 23       		.byte	0x23
 866 01ed 20       		.uleb128 0x20
 867 01ee 0A       		.uleb128 0xa
 868 01ef 705F7500 		.ascii	"p_u\000"
 869 01f3 05       		.byte	0x5
 870 01f4 B4       		.byte	0xb4
 871 01f5 E8040000 		.4byte	0x4e8
 872 01f9 02       		.byte	0x2
 873 01fa 23       		.byte	0x23
 874 01fb 24       		.uleb128 0x24
 875 01fc 09       		.uleb128 0x9
 876 01fd 5E060000 		.4byte	.LASF39
 877 0201 05       		.byte	0x5
 878 0202 B9       		.byte	0xb9
 879 0203 AC020000 		.4byte	0x2ac
 880 0207 02       		.byte	0x2
 881 0208 23       		.byte	0x23
 882 0209 28       		.uleb128 0x28
 883 020a 09       		.uleb128 0x9
 884 020b F7010000 		.4byte	.LASF40
 885 020f 05       		.byte	0x5
 886 0210 BF       		.byte	0xbf
 887 0211 8A020000 		.4byte	0x28a
 888 0215 02       		.byte	0x2
 889 0216 23       		.byte	0x23
ARM GAS  C:\Users\DNIEL~1\AppData\Local\Temp\ccOPguCq.s 			page 17


 890 0217 2C       		.uleb128 0x2c
 891 0218 09       		.uleb128 0x9
 892 0219 3C060000 		.4byte	.LASF41
 893 021d 05       		.byte	0x5
 894 021e C3       		.byte	0xc3
 895 021f F8000000 		.4byte	0xf8
 896 0223 02       		.byte	0x2
 897 0224 23       		.byte	0x23
 898 0225 34       		.uleb128 0x34
 899 0226 09       		.uleb128 0x9
 900 0227 EA040000 		.4byte	.LASF42
 901 022b 05       		.byte	0x5
 902 022c C9       		.byte	0xc9
 903 022d 03010000 		.4byte	0x103
 904 0231 02       		.byte	0x2
 905 0232 23       		.byte	0x23
 906 0233 38       		.uleb128 0x38
 907 0234 09       		.uleb128 0x9
 908 0235 7C040000 		.4byte	.LASF43
 909 0239 05       		.byte	0x5
 910 023a D0       		.byte	0xd0
 911 023b 1D050000 		.4byte	0x51d
 912 023f 02       		.byte	0x2
 913 0240 23       		.byte	0x23
 914 0241 3C       		.uleb128 0x3c
 915 0242 09       		.uleb128 0x9
 916 0243 5B050000 		.4byte	.LASF44
 917 0247 05       		.byte	0x5
 918 0248 D4       		.byte	0xd4
 919 0249 ED000000 		.4byte	0xed
 920 024d 02       		.byte	0x2
 921 024e 23       		.byte	0x23
 922 024f 40       		.uleb128 0x40
 923 0250 09       		.uleb128 0x9
 924 0251 E7000000 		.4byte	.LASF45
 925 0255 05       		.byte	0x5
 926 0256 DA       		.byte	0xda
 927 0257 68000000 		.4byte	0x68
 928 025b 02       		.byte	0x2
 929 025c 23       		.byte	0x23
 930 025d 44       		.uleb128 0x44
 931 025e 00       		.byte	0x0
 932 025f 0B       		.uleb128 0xb
 933 0260 08       		.byte	0x8
 934 0261 04       		.byte	0x4
 935 0262 61       		.byte	0x61
 936 0263 84020000 		.4byte	0x284
 937 0267 09       		.uleb128 0x9
 938 0268 BE040000 		.4byte	.LASF27
 939 026c 04       		.byte	0x4
 940 026d 62       		.byte	0x62
 941 026e 84020000 		.4byte	0x284
 942 0272 02       		.byte	0x2
 943 0273 23       		.byte	0x23
 944 0274 00       		.uleb128 0x0
 945 0275 09       		.uleb128 0x9
 946 0276 0A040000 		.4byte	.LASF28
ARM GAS  C:\Users\DNIEL~1\AppData\Local\Temp\ccOPguCq.s 			page 18


 947 027a 04       		.byte	0x4
 948 027b 64       		.byte	0x64
 949 027c 84020000 		.4byte	0x284
 950 0280 02       		.byte	0x2
 951 0281 23       		.byte	0x23
 952 0282 04       		.uleb128 0x4
 953 0283 00       		.byte	0x0
 954 0284 05       		.uleb128 0x5
 955 0285 04       		.byte	0x4
 956 0286 2F010000 		.4byte	0x12f
 957 028a 07       		.uleb128 0x7
 958 028b 59030000 		.4byte	.LASF46
 959 028f 04       		.byte	0x4
 960 0290 66       		.byte	0x66
 961 0291 5F020000 		.4byte	0x25f
 962 0295 0B       		.uleb128 0xb
 963 0296 04       		.byte	0x4
 964 0297 04       		.byte	0x4
 965 0298 6B       		.byte	0x6b
 966 0299 AC020000 		.4byte	0x2ac
 967 029d 09       		.uleb128 0x9
 968 029e BE040000 		.4byte	.LASF27
 969 02a2 04       		.byte	0x4
 970 02a3 6D       		.byte	0x6d
 971 02a4 84020000 		.4byte	0x284
 972 02a8 02       		.byte	0x2
 973 02a9 23       		.byte	0x23
 974 02aa 00       		.uleb128 0x0
 975 02ab 00       		.byte	0x0
 976 02ac 07       		.uleb128 0x7
 977 02ad 7F020000 		.4byte	.LASF47
 978 02b1 04       		.byte	0x4
 979 02b2 70       		.byte	0x70
 980 02b3 95020000 		.4byte	0x295
 981 02b7 07       		.uleb128 0x7
 982 02b8 B3010000 		.4byte	.LASF48
 983 02bc 06       		.byte	0x6
 984 02bd E5       		.byte	0xe5
 985 02be 68000000 		.4byte	0x68
 986 02c2 07       		.uleb128 0x7
 987 02c3 CB020000 		.4byte	.LASF49
 988 02c7 06       		.byte	0x6
 989 02c8 EB       		.byte	0xeb
 990 02c9 AF000000 		.4byte	0xaf
 991 02cd 0C       		.uleb128 0xc
 992 02ce 7B050000 		.4byte	.LASF50
 993 02d2 24       		.byte	0x24
 994 02d3 06       		.byte	0x6
 995 02d4 0C01     		.2byte	0x10c
 996 02d6 5B030000 		.4byte	0x35b
 997 02da 0D       		.uleb128 0xd
 998 02db 723400   		.ascii	"r4\000"
 999 02de 06       		.byte	0x6
 1000 02df 1F01     		.2byte	0x11f
 1001 02e1 B7020000 		.4byte	0x2b7
 1002 02e5 02       		.byte	0x2
 1003 02e6 23       		.byte	0x23
ARM GAS  C:\Users\DNIEL~1\AppData\Local\Temp\ccOPguCq.s 			page 19


 1004 02e7 00       		.uleb128 0x0
 1005 02e8 0D       		.uleb128 0xd
 1006 02e9 723500   		.ascii	"r5\000"
 1007 02ec 06       		.byte	0x6
 1008 02ed 2001     		.2byte	0x120
 1009 02ef B7020000 		.4byte	0x2b7
 1010 02f3 02       		.byte	0x2
 1011 02f4 23       		.byte	0x23
 1012 02f5 04       		.uleb128 0x4
 1013 02f6 0D       		.uleb128 0xd
 1014 02f7 723600   		.ascii	"r6\000"
 1015 02fa 06       		.byte	0x6
 1016 02fb 2101     		.2byte	0x121
 1017 02fd B7020000 		.4byte	0x2b7
 1018 0301 02       		.byte	0x2
 1019 0302 23       		.byte	0x23
 1020 0303 08       		.uleb128 0x8
 1021 0304 0D       		.uleb128 0xd
 1022 0305 723700   		.ascii	"r7\000"
 1023 0308 06       		.byte	0x6
 1024 0309 2201     		.2byte	0x122
 1025 030b B7020000 		.4byte	0x2b7
 1026 030f 02       		.byte	0x2
 1027 0310 23       		.byte	0x23
 1028 0311 0C       		.uleb128 0xc
 1029 0312 0D       		.uleb128 0xd
 1030 0313 723800   		.ascii	"r8\000"
 1031 0316 06       		.byte	0x6
 1032 0317 2301     		.2byte	0x123
 1033 0319 B7020000 		.4byte	0x2b7
 1034 031d 02       		.byte	0x2
 1035 031e 23       		.byte	0x23
 1036 031f 10       		.uleb128 0x10
 1037 0320 0D       		.uleb128 0xd
 1038 0321 723900   		.ascii	"r9\000"
 1039 0324 06       		.byte	0x6
 1040 0325 2401     		.2byte	0x124
 1041 0327 B7020000 		.4byte	0x2b7
 1042 032b 02       		.byte	0x2
 1043 032c 23       		.byte	0x23
 1044 032d 14       		.uleb128 0x14
 1045 032e 0D       		.uleb128 0xd
 1046 032f 72313000 		.ascii	"r10\000"
 1047 0333 06       		.byte	0x6
 1048 0334 2501     		.2byte	0x125
 1049 0336 B7020000 		.4byte	0x2b7
 1050 033a 02       		.byte	0x2
 1051 033b 23       		.byte	0x23
 1052 033c 18       		.uleb128 0x18
 1053 033d 0D       		.uleb128 0xd
 1054 033e 72313100 		.ascii	"r11\000"
 1055 0342 06       		.byte	0x6
 1056 0343 2601     		.2byte	0x126
 1057 0345 B7020000 		.4byte	0x2b7
 1058 0349 02       		.byte	0x2
 1059 034a 23       		.byte	0x23
 1060 034b 1C       		.uleb128 0x1c
ARM GAS  C:\Users\DNIEL~1\AppData\Local\Temp\ccOPguCq.s 			page 20


 1061 034c 0D       		.uleb128 0xd
 1062 034d 6C7200   		.ascii	"lr\000"
 1063 0350 06       		.byte	0x6
 1064 0351 2701     		.2byte	0x127
 1065 0353 B7020000 		.4byte	0x2b7
 1066 0357 02       		.byte	0x2
 1067 0358 23       		.byte	0x23
 1068 0359 20       		.uleb128 0x20
 1069 035a 00       		.byte	0x0
 1070 035b 0C       		.uleb128 0xc
 1071 035c 73050000 		.4byte	.LASF51
 1072 0360 04       		.byte	0x4
 1073 0361 06       		.byte	0x6
 1074 0362 3101     		.2byte	0x131
 1075 0364 78030000 		.4byte	0x378
 1076 0368 0D       		.uleb128 0xd
 1077 0369 72313300 		.ascii	"r13\000"
 1078 036d 06       		.byte	0x6
 1079 036e 3201     		.2byte	0x132
 1080 0370 78030000 		.4byte	0x378
 1081 0374 02       		.byte	0x2
 1082 0375 23       		.byte	0x23
 1083 0376 00       		.uleb128 0x0
 1084 0377 00       		.byte	0x0
 1085 0378 05       		.uleb128 0x5
 1086 0379 04       		.byte	0x4
 1087 037a CD020000 		.4byte	0x2cd
 1088 037e 0E       		.uleb128 0xe
 1089 037f A4000000 		.4byte	0xa4
 1090 0383 0E       		.uleb128 0xe
 1091 0384 19010000 		.4byte	0x119
 1092 0388 0B       		.uleb128 0xb
 1093 0389 1C       		.byte	0x1c
 1094 038a 07       		.byte	0x7
 1095 038b 5E       		.byte	0x5e
 1096 038c E5030000 		.4byte	0x3e5
 1097 0390 09       		.uleb128 0x9
 1098 0391 08050000 		.4byte	.LASF52
 1099 0395 07       		.byte	0x7
 1100 0396 5F       		.byte	0x5f
 1101 0397 8A020000 		.4byte	0x28a
 1102 039b 02       		.byte	0x2
 1103 039c 23       		.byte	0x23
 1104 039d 00       		.uleb128 0x0
 1105 039e 09       		.uleb128 0x9
 1106 039f B0040000 		.4byte	.LASF53
 1107 03a3 07       		.byte	0x7
 1108 03a4 60       		.byte	0x60
 1109 03a5 ED000000 		.4byte	0xed
 1110 03a9 02       		.byte	0x2
 1111 03aa 23       		.byte	0x23
 1112 03ab 08       		.uleb128 0x8
 1113 03ac 09       		.uleb128 0x9
 1114 03ad 48030000 		.4byte	.LASF54
 1115 03b1 07       		.byte	0x7
 1116 03b2 62       		.byte	0x62
 1117 03b3 5B030000 		.4byte	0x35b
ARM GAS  C:\Users\DNIEL~1\AppData\Local\Temp\ccOPguCq.s 			page 21


 1118 03b7 02       		.byte	0x2
 1119 03b8 23       		.byte	0x23
 1120 03b9 0C       		.uleb128 0xc
 1121 03ba 09       		.uleb128 0x9
 1122 03bb AB010000 		.4byte	.LASF55
 1123 03bf 07       		.byte	0x7
 1124 03c0 65       		.byte	0x65
 1125 03c1 84020000 		.4byte	0x284
 1126 03c5 02       		.byte	0x2
 1127 03c6 23       		.byte	0x23
 1128 03c7 10       		.uleb128 0x10
 1129 03c8 09       		.uleb128 0x9
 1130 03c9 75030000 		.4byte	.LASF56
 1131 03cd 07       		.byte	0x7
 1132 03ce 66       		.byte	0x66
 1133 03cf 84020000 		.4byte	0x284
 1134 03d3 02       		.byte	0x2
 1135 03d4 23       		.byte	0x23
 1136 03d5 14       		.uleb128 0x14
 1137 03d6 09       		.uleb128 0x9
 1138 03d7 6B030000 		.4byte	.LASF57
 1139 03db 07       		.byte	0x7
 1140 03dc 69       		.byte	0x69
 1141 03dd 84020000 		.4byte	0x284
 1142 03e1 02       		.byte	0x2
 1143 03e2 23       		.byte	0x23
 1144 03e3 18       		.uleb128 0x18
 1145 03e4 00       		.byte	0x0
 1146 03e5 07       		.uleb128 0x7
 1147 03e6 BC050000 		.4byte	.LASF58
 1148 03ea 07       		.byte	0x7
 1149 03eb 6B       		.byte	0x6b
 1150 03ec 88030000 		.4byte	0x388
 1151 03f0 08       		.uleb128 0x8
 1152 03f1 98050000 		.4byte	.LASF59
 1153 03f5 0C       		.byte	0xc
 1154 03f6 08       		.byte	0x8
 1155 03f7 2C       		.byte	0x2c
 1156 03f8 19040000 		.4byte	0x419
 1157 03fc 09       		.uleb128 0x9
 1158 03fd 71010000 		.4byte	.LASF60
 1159 0401 08       		.byte	0x8
 1160 0402 2D       		.byte	0x2d
 1161 0403 8A020000 		.4byte	0x28a
 1162 0407 02       		.byte	0x2
 1163 0408 23       		.byte	0x23
 1164 0409 00       		.uleb128 0x0
 1165 040a 09       		.uleb128 0x9
 1166 040b 29020000 		.4byte	.LASF61
 1167 040f 08       		.byte	0x8
 1168 0410 2F       		.byte	0x2f
 1169 0411 24010000 		.4byte	0x124
 1170 0415 02       		.byte	0x2
 1171 0416 23       		.byte	0x23
 1172 0417 08       		.uleb128 0x8
 1173 0418 00       		.byte	0x0
 1174 0419 07       		.uleb128 0x7
ARM GAS  C:\Users\DNIEL~1\AppData\Local\Temp\ccOPguCq.s 			page 22


 1175 041a 98050000 		.4byte	.LASF59
 1176 041e 08       		.byte	0x8
 1177 041f 30       		.byte	0x30
 1178 0420 F0030000 		.4byte	0x3f0
 1179 0424 08       		.uleb128 0x8
 1180 0425 A7020000 		.4byte	.LASF62
 1181 0429 10       		.byte	0x10
 1182 042a 09       		.byte	0x9
 1183 042b 2C       		.byte	0x2c
 1184 042c 5B040000 		.4byte	0x45b
 1185 0430 09       		.uleb128 0x9
 1186 0431 EF000000 		.4byte	.LASF63
 1187 0435 09       		.byte	0x9
 1188 0436 2D       		.byte	0x2d
 1189 0437 8A020000 		.4byte	0x28a
 1190 043b 02       		.byte	0x2
 1191 043c 23       		.byte	0x23
 1192 043d 00       		.uleb128 0x0
 1193 043e 09       		.uleb128 0x9
 1194 043f 50060000 		.4byte	.LASF64
 1195 0443 09       		.byte	0x9
 1196 0444 2F       		.byte	0x2f
 1197 0445 84020000 		.4byte	0x284
 1198 0449 02       		.byte	0x2
 1199 044a 23       		.byte	0x23
 1200 044b 08       		.uleb128 0x8
 1201 044c 09       		.uleb128 0x9
 1202 044d 4A050000 		.4byte	.LASF65
 1203 0451 09       		.byte	0x9
 1204 0452 31       		.byte	0x31
 1205 0453 5B040000 		.4byte	0x45b
 1206 0457 02       		.byte	0x2
 1207 0458 23       		.byte	0x23
 1208 0459 0C       		.uleb128 0xc
 1209 045a 00       		.byte	0x0
 1210 045b 05       		.uleb128 0x5
 1211 045c 04       		.byte	0x4
 1212 045d 24040000 		.4byte	0x424
 1213 0461 07       		.uleb128 0x7
 1214 0462 A7020000 		.4byte	.LASF62
 1215 0466 09       		.byte	0x9
 1216 0467 33       		.byte	0x33
 1217 0468 24040000 		.4byte	0x424
 1218 046c 07       		.uleb128 0x7
 1219 046d 12060000 		.4byte	.LASF66
 1220 0471 0A       		.byte	0xa
 1221 0472 2C       		.byte	0x2c
 1222 0473 77040000 		.4byte	0x477
 1223 0477 08       		.uleb128 0x8
 1224 0478 12060000 		.4byte	.LASF66
 1225 047c 10       		.byte	0x10
 1226 047d 0A       		.byte	0xa
 1227 047e 31       		.byte	0x31
 1228 047f BC040000 		.4byte	0x4bc
 1229 0483 09       		.uleb128 0x9
 1230 0484 6F020000 		.4byte	.LASF67
 1231 0488 0A       		.byte	0xa
ARM GAS  C:\Users\DNIEL~1\AppData\Local\Temp\ccOPguCq.s 			page 23


 1232 0489 32       		.byte	0x32
 1233 048a BC040000 		.4byte	0x4bc
 1234 048e 02       		.byte	0x2
 1235 048f 23       		.byte	0x23
 1236 0490 00       		.uleb128 0x0
 1237 0491 09       		.uleb128 0x9
 1238 0492 5A040000 		.4byte	.LASF68
 1239 0496 0A       		.byte	0xa
 1240 0497 35       		.byte	0x35
 1241 0498 84020000 		.4byte	0x284
 1242 049c 02       		.byte	0x2
 1243 049d 23       		.byte	0x23
 1244 049e 04       		.uleb128 0x4
 1245 049f 09       		.uleb128 0x9
 1246 04a0 7D030000 		.4byte	.LASF69
 1247 04a4 0A       		.byte	0xa
 1248 04a5 37       		.byte	0x37
 1249 04a6 03010000 		.4byte	0x103
 1250 04aa 02       		.byte	0x2
 1251 04ab 23       		.byte	0x23
 1252 04ac 08       		.uleb128 0x8
 1253 04ad 09       		.uleb128 0x9
 1254 04ae 73040000 		.4byte	.LASF70
 1255 04b2 0A       		.byte	0xa
 1256 04b3 3A       		.byte	0x3a
 1257 04b4 0E010000 		.4byte	0x10e
 1258 04b8 02       		.byte	0x2
 1259 04b9 23       		.byte	0x23
 1260 04ba 0C       		.uleb128 0xc
 1261 04bb 00       		.byte	0x0
 1262 04bc 05       		.uleb128 0x5
 1263 04bd 04       		.byte	0x4
 1264 04be 6C040000 		.4byte	0x46c
 1265 04c2 08       		.uleb128 0x8
 1266 04c3 C7010000 		.4byte	.LASF71
 1267 04c7 04       		.byte	0x4
 1268 04c8 0A       		.byte	0xa
 1269 04c9 41       		.byte	0x41
 1270 04ca DD040000 		.4byte	0x4dd
 1271 04ce 09       		.uleb128 0x9
 1272 04cf B4050000 		.4byte	.LASF72
 1273 04d3 0A       		.byte	0xa
 1274 04d4 42       		.byte	0x42
 1275 04d5 BC040000 		.4byte	0x4bc
 1276 04d9 02       		.byte	0x2
 1277 04da 23       		.byte	0x23
 1278 04db 00       		.uleb128 0x0
 1279 04dc 00       		.byte	0x0
 1280 04dd 07       		.uleb128 0x7
 1281 04de C7010000 		.4byte	.LASF71
 1282 04e2 0A       		.byte	0xa
 1283 04e3 45       		.byte	0x45
 1284 04e4 C2040000 		.4byte	0x4c2
 1285 04e8 0F       		.uleb128 0xf
 1286 04e9 04       		.byte	0x4
 1287 04ea 05       		.byte	0x5
 1288 04eb 96       		.byte	0x96
ARM GAS  C:\Users\DNIEL~1\AppData\Local\Temp\ccOPguCq.s 			page 24


 1289 04ec 1D050000 		.4byte	0x51d
 1290 04f0 10       		.uleb128 0x10
 1291 04f1 1F000000 		.4byte	.LASF73
 1292 04f5 05       		.byte	0x5
 1293 04f6 9D       		.byte	0x9d
 1294 04f7 F8000000 		.4byte	0xf8
 1295 04fb 10       		.uleb128 0x10
 1296 04fc 9B000000 		.4byte	.LASF74
 1297 0500 05       		.byte	0x5
 1298 0501 A4       		.byte	0xa4
 1299 0502 F8000000 		.4byte	0xf8
 1300 0506 10       		.uleb128 0x10
 1301 0507 FD000000 		.4byte	.LASF75
 1302 050b 05       		.byte	0x5
 1303 050c AB       		.byte	0xab
 1304 050d 68000000 		.4byte	0x68
 1305 0511 10       		.uleb128 0x10
 1306 0512 B7040000 		.4byte	.LASF76
 1307 0516 05       		.byte	0x5
 1308 0517 B2       		.byte	0xb2
 1309 0518 03010000 		.4byte	0x103
 1310 051c 00       		.byte	0x0
 1311 051d 05       		.uleb128 0x5
 1312 051e 04       		.byte	0x4
 1313 051f 61040000 		.4byte	0x461
 1314 0523 11       		.uleb128 0x11
 1315 0524 A4000000 		.4byte	0xa4
 1316 0528 33050000 		.4byte	0x533
 1317 052c 12       		.uleb128 0x12
 1318 052d 29000000 		.4byte	0x29
 1319 0531 07       		.byte	0x7
 1320 0532 00       		.byte	0x0
 1321 0533 11       		.uleb128 0x11
 1322 0534 A4000000 		.4byte	0xa4
 1323 0538 43050000 		.4byte	0x543
 1324 053c 12       		.uleb128 0x12
 1325 053d 29000000 		.4byte	0x29
 1326 0541 01       		.byte	0x1
 1327 0542 00       		.byte	0x0
 1328 0543 0E       		.uleb128 0xe
 1329 0544 99000000 		.4byte	0x99
 1330 0548 13       		.uleb128 0x13
 1331 0549 10       		.byte	0x10
 1332 054a 0B       		.byte	0xb
 1333 054b AC02     		.2byte	0x2ac
 1334 054d 8E050000 		.4byte	0x58e
 1335 0551 0D       		.uleb128 0xd
 1336 0552 54495200 		.ascii	"TIR\000"
 1337 0556 0B       		.byte	0xb
 1338 0557 AE02     		.2byte	0x2ae
 1339 0559 7E030000 		.4byte	0x37e
 1340 055d 02       		.byte	0x2
 1341 055e 23       		.byte	0x23
 1342 055f 00       		.uleb128 0x0
 1343 0560 14       		.uleb128 0x14
 1344 0561 C2010000 		.4byte	.LASF77
 1345 0565 0B       		.byte	0xb
ARM GAS  C:\Users\DNIEL~1\AppData\Local\Temp\ccOPguCq.s 			page 25


 1346 0566 AF02     		.2byte	0x2af
 1347 0568 7E030000 		.4byte	0x37e
 1348 056c 02       		.byte	0x2
 1349 056d 23       		.byte	0x23
 1350 056e 04       		.uleb128 0x4
 1351 056f 14       		.uleb128 0x14
 1352 0570 14010000 		.4byte	.LASF78
 1353 0574 0B       		.byte	0xb
 1354 0575 B002     		.2byte	0x2b0
 1355 0577 7E030000 		.4byte	0x37e
 1356 057b 02       		.byte	0x2
 1357 057c 23       		.byte	0x23
 1358 057d 08       		.uleb128 0x8
 1359 057e 14       		.uleb128 0x14
 1360 057f 66030000 		.4byte	.LASF79
 1361 0583 0B       		.byte	0xb
 1362 0584 B102     		.2byte	0x2b1
 1363 0586 7E030000 		.4byte	0x37e
 1364 058a 02       		.byte	0x2
 1365 058b 23       		.byte	0x23
 1366 058c 0C       		.uleb128 0xc
 1367 058d 00       		.byte	0x0
 1368 058e 15       		.uleb128 0x15
 1369 058f 2B010000 		.4byte	.LASF80
 1370 0593 0B       		.byte	0xb
 1371 0594 B202     		.2byte	0x2b2
 1372 0596 48050000 		.4byte	0x548
 1373 059a 13       		.uleb128 0x13
 1374 059b 10       		.byte	0x10
 1375 059c 0B       		.byte	0xb
 1376 059d B802     		.2byte	0x2b8
 1377 059f E0050000 		.4byte	0x5e0
 1378 05a3 0D       		.uleb128 0xd
 1379 05a4 52495200 		.ascii	"RIR\000"
 1380 05a8 0B       		.byte	0xb
 1381 05a9 BA02     		.2byte	0x2ba
 1382 05ab 7E030000 		.4byte	0x37e
 1383 05af 02       		.byte	0x2
 1384 05b0 23       		.byte	0x23
 1385 05b1 00       		.uleb128 0x0
 1386 05b2 14       		.uleb128 0x14
 1387 05b3 0F020000 		.4byte	.LASF81
 1388 05b7 0B       		.byte	0xb
 1389 05b8 BB02     		.2byte	0x2bb
 1390 05ba 7E030000 		.4byte	0x37e
 1391 05be 02       		.byte	0x2
 1392 05bf 23       		.byte	0x23
 1393 05c0 04       		.uleb128 0x4
 1394 05c1 14       		.uleb128 0x14
 1395 05c2 42060000 		.4byte	.LASF82
 1396 05c6 0B       		.byte	0xb
 1397 05c7 BC02     		.2byte	0x2bc
 1398 05c9 7E030000 		.4byte	0x37e
 1399 05cd 02       		.byte	0x2
 1400 05ce 23       		.byte	0x23
 1401 05cf 08       		.uleb128 0x8
 1402 05d0 14       		.uleb128 0x14
ARM GAS  C:\Users\DNIEL~1\AppData\Local\Temp\ccOPguCq.s 			page 26


 1403 05d1 3C050000 		.4byte	.LASF83
 1404 05d5 0B       		.byte	0xb
 1405 05d6 BD02     		.2byte	0x2bd
 1406 05d8 7E030000 		.4byte	0x37e
 1407 05dc 02       		.byte	0x2
 1408 05dd 23       		.byte	0x23
 1409 05de 0C       		.uleb128 0xc
 1410 05df 00       		.byte	0x0
 1411 05e0 15       		.uleb128 0x15
 1412 05e1 C6050000 		.4byte	.LASF84
 1413 05e5 0B       		.byte	0xb
 1414 05e6 BE02     		.2byte	0x2be
 1415 05e8 9A050000 		.4byte	0x59a
 1416 05ec 13       		.uleb128 0x13
 1417 05ed 08       		.byte	0x8
 1418 05ee 0B       		.byte	0xb
 1419 05ef C402     		.2byte	0x2c4
 1420 05f1 14060000 		.4byte	0x614
 1421 05f5 0D       		.uleb128 0xd
 1422 05f6 46523100 		.ascii	"FR1\000"
 1423 05fa 0B       		.byte	0xb
 1424 05fb C602     		.2byte	0x2c6
 1425 05fd 7E030000 		.4byte	0x37e
 1426 0601 02       		.byte	0x2
 1427 0602 23       		.byte	0x23
 1428 0603 00       		.uleb128 0x0
 1429 0604 0D       		.uleb128 0xd
 1430 0605 46523200 		.ascii	"FR2\000"
 1431 0609 0B       		.byte	0xb
 1432 060a C702     		.2byte	0x2c7
 1433 060c 7E030000 		.4byte	0x37e
 1434 0610 02       		.byte	0x2
 1435 0611 23       		.byte	0x23
 1436 0612 04       		.uleb128 0x4
 1437 0613 00       		.byte	0x0
 1438 0614 15       		.uleb128 0x15
 1439 0615 4E020000 		.4byte	.LASF85
 1440 0619 0B       		.byte	0xb
 1441 061a C802     		.2byte	0x2c8
 1442 061c EC050000 		.4byte	0x5ec
 1443 0620 16       		.uleb128 0x16
 1444 0621 B002     		.2byte	0x2b0
 1445 0623 0B       		.byte	0xb
 1446 0624 CE02     		.2byte	0x2ce
 1447 0626 82070000 		.4byte	0x782
 1448 062a 0D       		.uleb128 0xd
 1449 062b 4D435200 		.ascii	"MCR\000"
 1450 062f 0B       		.byte	0xb
 1451 0630 D002     		.2byte	0x2d0
 1452 0632 7E030000 		.4byte	0x37e
 1453 0636 02       		.byte	0x2
 1454 0637 23       		.byte	0x23
 1455 0638 00       		.uleb128 0x0
 1456 0639 0D       		.uleb128 0xd
 1457 063a 4D535200 		.ascii	"MSR\000"
 1458 063e 0B       		.byte	0xb
 1459 063f D102     		.2byte	0x2d1
ARM GAS  C:\Users\DNIEL~1\AppData\Local\Temp\ccOPguCq.s 			page 27


 1460 0641 7E030000 		.4byte	0x37e
 1461 0645 02       		.byte	0x2
 1462 0646 23       		.byte	0x23
 1463 0647 04       		.uleb128 0x4
 1464 0648 0D       		.uleb128 0xd
 1465 0649 54535200 		.ascii	"TSR\000"
 1466 064d 0B       		.byte	0xb
 1467 064e D202     		.2byte	0x2d2
 1468 0650 7E030000 		.4byte	0x37e
 1469 0654 02       		.byte	0x2
 1470 0655 23       		.byte	0x23
 1471 0656 08       		.uleb128 0x8
 1472 0657 14       		.uleb128 0x14
 1473 0658 99010000 		.4byte	.LASF86
 1474 065c 0B       		.byte	0xb
 1475 065d D302     		.2byte	0x2d3
 1476 065f 7E030000 		.4byte	0x37e
 1477 0663 02       		.byte	0x2
 1478 0664 23       		.byte	0x23
 1479 0665 0C       		.uleb128 0xc
 1480 0666 14       		.uleb128 0x14
 1481 0667 42020000 		.4byte	.LASF87
 1482 066b 0B       		.byte	0xb
 1483 066c D402     		.2byte	0x2d4
 1484 066e 7E030000 		.4byte	0x37e
 1485 0672 02       		.byte	0x2
 1486 0673 23       		.byte	0x23
 1487 0674 10       		.uleb128 0x10
 1488 0675 0D       		.uleb128 0xd
 1489 0676 49455200 		.ascii	"IER\000"
 1490 067a 0B       		.byte	0xb
 1491 067b D502     		.2byte	0x2d5
 1492 067d 7E030000 		.4byte	0x37e
 1493 0681 02       		.byte	0x2
 1494 0682 23       		.byte	0x23
 1495 0683 14       		.uleb128 0x14
 1496 0684 0D       		.uleb128 0xd
 1497 0685 45535200 		.ascii	"ESR\000"
 1498 0689 0B       		.byte	0xb
 1499 068a D602     		.2byte	0x2d6
 1500 068c 7E030000 		.4byte	0x37e
 1501 0690 02       		.byte	0x2
 1502 0691 23       		.byte	0x23
 1503 0692 18       		.uleb128 0x18
 1504 0693 0D       		.uleb128 0xd
 1505 0694 42545200 		.ascii	"BTR\000"
 1506 0698 0B       		.byte	0xb
 1507 0699 D702     		.2byte	0x2d7
 1508 069b 7E030000 		.4byte	0x37e
 1509 069f 02       		.byte	0x2
 1510 06a0 23       		.byte	0x23
 1511 06a1 1C       		.uleb128 0x1c
 1512 06a2 14       		.uleb128 0x14
 1513 06a3 D8030000 		.4byte	.LASF88
 1514 06a7 0B       		.byte	0xb
 1515 06a8 D802     		.2byte	0x2d8
 1516 06aa 82070000 		.4byte	0x782
ARM GAS  C:\Users\DNIEL~1\AppData\Local\Temp\ccOPguCq.s 			page 28


 1517 06ae 02       		.byte	0x2
 1518 06af 23       		.byte	0x23
 1519 06b0 20       		.uleb128 0x20
 1520 06b1 14       		.uleb128 0x14
 1521 06b2 EC010000 		.4byte	.LASF89
 1522 06b6 0B       		.byte	0xb
 1523 06b7 D902     		.2byte	0x2d9
 1524 06b9 92070000 		.4byte	0x792
 1525 06bd 03       		.byte	0x3
 1526 06be 23       		.byte	0x23
 1527 06bf 8003     		.uleb128 0x180
 1528 06c1 14       		.uleb128 0x14
 1529 06c2 66050000 		.4byte	.LASF90
 1530 06c6 0B       		.byte	0xb
 1531 06c7 DA02     		.2byte	0x2da
 1532 06c9 A2070000 		.4byte	0x7a2
 1533 06cd 03       		.byte	0x3
 1534 06ce 23       		.byte	0x23
 1535 06cf B003     		.uleb128 0x1b0
 1536 06d1 14       		.uleb128 0x14
 1537 06d2 E2030000 		.4byte	.LASF91
 1538 06d6 0B       		.byte	0xb
 1539 06d7 DB02     		.2byte	0x2db
 1540 06d9 B2070000 		.4byte	0x7b2
 1541 06dd 03       		.byte	0x3
 1542 06de 23       		.byte	0x23
 1543 06df D003     		.uleb128 0x1d0
 1544 06e1 0D       		.uleb128 0xd
 1545 06e2 464D5200 		.ascii	"FMR\000"
 1546 06e6 0B       		.byte	0xb
 1547 06e7 DC02     		.2byte	0x2dc
 1548 06e9 7E030000 		.4byte	0x37e
 1549 06ed 03       		.byte	0x3
 1550 06ee 23       		.byte	0x23
 1551 06ef 8004     		.uleb128 0x200
 1552 06f1 14       		.uleb128 0x14
 1553 06f2 CD040000 		.4byte	.LASF92
 1554 06f6 0B       		.byte	0xb
 1555 06f7 DD02     		.2byte	0x2dd
 1556 06f9 7E030000 		.4byte	0x37e
 1557 06fd 03       		.byte	0x3
 1558 06fe 23       		.byte	0x23
 1559 06ff 8404     		.uleb128 0x204
 1560 0701 14       		.uleb128 0x14
 1561 0702 EC030000 		.4byte	.LASF93
 1562 0706 0B       		.byte	0xb
 1563 0707 DE02     		.2byte	0x2de
 1564 0709 A4000000 		.4byte	0xa4
 1565 070d 03       		.byte	0x3
 1566 070e 23       		.byte	0x23
 1567 070f 8804     		.uleb128 0x208
 1568 0711 14       		.uleb128 0x14
 1569 0712 AF050000 		.4byte	.LASF94
 1570 0716 0B       		.byte	0xb
 1571 0717 DF02     		.2byte	0x2df
 1572 0719 7E030000 		.4byte	0x37e
 1573 071d 03       		.byte	0x3
ARM GAS  C:\Users\DNIEL~1\AppData\Local\Temp\ccOPguCq.s 			page 29


 1574 071e 23       		.byte	0x23
 1575 071f 8C04     		.uleb128 0x20c
 1576 0721 14       		.uleb128 0x14
 1577 0722 F6030000 		.4byte	.LASF95
 1578 0726 0B       		.byte	0xb
 1579 0727 E002     		.2byte	0x2e0
 1580 0729 A4000000 		.4byte	0xa4
 1581 072d 03       		.byte	0x3
 1582 072e 23       		.byte	0x23
 1583 072f 9004     		.uleb128 0x210
 1584 0731 14       		.uleb128 0x14
 1585 0732 A5030000 		.4byte	.LASF96
 1586 0736 0B       		.byte	0xb
 1587 0737 E102     		.2byte	0x2e1
 1588 0739 7E030000 		.4byte	0x37e
 1589 073d 03       		.byte	0x3
 1590 073e 23       		.byte	0x23
 1591 073f 9404     		.uleb128 0x214
 1592 0741 14       		.uleb128 0x14
 1593 0742 00040000 		.4byte	.LASF97
 1594 0746 0B       		.byte	0xb
 1595 0747 E202     		.2byte	0x2e2
 1596 0749 A4000000 		.4byte	0xa4
 1597 074d 03       		.byte	0x3
 1598 074e 23       		.byte	0x23
 1599 074f 9804     		.uleb128 0x218
 1600 0751 14       		.uleb128 0x14
 1601 0752 24020000 		.4byte	.LASF98
 1602 0756 0B       		.byte	0xb
 1603 0757 E302     		.2byte	0x2e3
 1604 0759 7E030000 		.4byte	0x37e
 1605 075d 03       		.byte	0x3
 1606 075e 23       		.byte	0x23
 1607 075f 9C04     		.uleb128 0x21c
 1608 0761 14       		.uleb128 0x14
 1609 0762 F5040000 		.4byte	.LASF99
 1610 0766 0B       		.byte	0xb
 1611 0767 E402     		.2byte	0x2e4
 1612 0769 23050000 		.4byte	0x523
 1613 076d 03       		.byte	0x3
 1614 076e 23       		.byte	0x23
 1615 076f A004     		.uleb128 0x220
 1616 0771 14       		.uleb128 0x14
 1617 0772 8B020000 		.4byte	.LASF100
 1618 0776 0B       		.byte	0xb
 1619 0777 E602     		.2byte	0x2e6
 1620 0779 C2070000 		.4byte	0x7c2
 1621 077d 03       		.byte	0x3
 1622 077e 23       		.byte	0x23
 1623 077f C004     		.uleb128 0x240
 1624 0781 00       		.byte	0x0
 1625 0782 11       		.uleb128 0x11
 1626 0783 A4000000 		.4byte	0xa4
 1627 0787 92070000 		.4byte	0x792
 1628 078b 12       		.uleb128 0x12
 1629 078c 29000000 		.4byte	0x29
 1630 0790 57       		.byte	0x57
ARM GAS  C:\Users\DNIEL~1\AppData\Local\Temp\ccOPguCq.s 			page 30


 1631 0791 00       		.byte	0x0
 1632 0792 11       		.uleb128 0x11
 1633 0793 8E050000 		.4byte	0x58e
 1634 0797 A2070000 		.4byte	0x7a2
 1635 079b 12       		.uleb128 0x12
 1636 079c 29000000 		.4byte	0x29
 1637 07a0 02       		.byte	0x2
 1638 07a1 00       		.byte	0x0
 1639 07a2 11       		.uleb128 0x11
 1640 07a3 E0050000 		.4byte	0x5e0
 1641 07a7 B2070000 		.4byte	0x7b2
 1642 07ab 12       		.uleb128 0x12
 1643 07ac 29000000 		.4byte	0x29
 1644 07b0 01       		.byte	0x1
 1645 07b1 00       		.byte	0x0
 1646 07b2 11       		.uleb128 0x11
 1647 07b3 A4000000 		.4byte	0xa4
 1648 07b7 C2070000 		.4byte	0x7c2
 1649 07bb 12       		.uleb128 0x12
 1650 07bc 29000000 		.4byte	0x29
 1651 07c0 0B       		.byte	0xb
 1652 07c1 00       		.byte	0x0
 1653 07c2 11       		.uleb128 0x11
 1654 07c3 14060000 		.4byte	0x614
 1655 07c7 D2070000 		.4byte	0x7d2
 1656 07cb 12       		.uleb128 0x12
 1657 07cc 29000000 		.4byte	0x29
 1658 07d0 0D       		.byte	0xd
 1659 07d1 00       		.byte	0x0
 1660 07d2 15       		.uleb128 0x15
 1661 07d3 39000000 		.4byte	.LASF101
 1662 07d7 0B       		.byte	0xb
 1663 07d8 EA02     		.2byte	0x2ea
 1664 07da 20060000 		.4byte	0x620
 1665 07de 13       		.uleb128 0x13
 1666 07df 1C       		.byte	0x1c
 1667 07e0 0B       		.byte	0xb
 1668 07e1 F803     		.2byte	0x3f8
 1669 07e3 51080000 		.4byte	0x851
 1670 07e7 0D       		.uleb128 0xd
 1671 07e8 43524C00 		.ascii	"CRL\000"
 1672 07ec 0B       		.byte	0xb
 1673 07ed FA03     		.2byte	0x3fa
 1674 07ef 7E030000 		.4byte	0x37e
 1675 07f3 02       		.byte	0x2
 1676 07f4 23       		.byte	0x23
 1677 07f5 00       		.uleb128 0x0
 1678 07f6 0D       		.uleb128 0xd
 1679 07f7 43524800 		.ascii	"CRH\000"
 1680 07fb 0B       		.byte	0xb
 1681 07fc FB03     		.2byte	0x3fb
 1682 07fe 7E030000 		.4byte	0x37e
 1683 0802 02       		.byte	0x2
 1684 0803 23       		.byte	0x23
 1685 0804 04       		.uleb128 0x4
 1686 0805 0D       		.uleb128 0xd
 1687 0806 49445200 		.ascii	"IDR\000"
ARM GAS  C:\Users\DNIEL~1\AppData\Local\Temp\ccOPguCq.s 			page 31


 1688 080a 0B       		.byte	0xb
 1689 080b FC03     		.2byte	0x3fc
 1690 080d 7E030000 		.4byte	0x37e
 1691 0811 02       		.byte	0x2
 1692 0812 23       		.byte	0x23
 1693 0813 08       		.uleb128 0x8
 1694 0814 0D       		.uleb128 0xd
 1695 0815 4F445200 		.ascii	"ODR\000"
 1696 0819 0B       		.byte	0xb
 1697 081a FD03     		.2byte	0x3fd
 1698 081c 7E030000 		.4byte	0x37e
 1699 0820 02       		.byte	0x2
 1700 0821 23       		.byte	0x23
 1701 0822 0C       		.uleb128 0xc
 1702 0823 14       		.uleb128 0x14
 1703 0824 E2000000 		.4byte	.LASF102
 1704 0828 0B       		.byte	0xb
 1705 0829 FE03     		.2byte	0x3fe
 1706 082b 7E030000 		.4byte	0x37e
 1707 082f 02       		.byte	0x2
 1708 0830 23       		.byte	0x23
 1709 0831 10       		.uleb128 0x10
 1710 0832 0D       		.uleb128 0xd
 1711 0833 42525200 		.ascii	"BRR\000"
 1712 0837 0B       		.byte	0xb
 1713 0838 FF03     		.2byte	0x3ff
 1714 083a 7E030000 		.4byte	0x37e
 1715 083e 02       		.byte	0x2
 1716 083f 23       		.byte	0x23
 1717 0840 14       		.uleb128 0x14
 1718 0841 14       		.uleb128 0x14
 1719 0842 1F020000 		.4byte	.LASF103
 1720 0846 0B       		.byte	0xb
 1721 0847 0004     		.2byte	0x400
 1722 0849 7E030000 		.4byte	0x37e
 1723 084d 02       		.byte	0x2
 1724 084e 23       		.byte	0x23
 1725 084f 18       		.uleb128 0x18
 1726 0850 00       		.byte	0x0
 1727 0851 15       		.uleb128 0x15
 1728 0852 02020000 		.4byte	.LASF104
 1729 0856 0B       		.byte	0xb
 1730 0857 0104     		.2byte	0x401
 1731 0859 DE070000 		.4byte	0x7de
 1732 085d 17       		.uleb128 0x17
 1733 085e 01       		.byte	0x1
 1734 085f 0C       		.byte	0xc
 1735 0860 6E       		.byte	0x6e
 1736 0861 84080000 		.4byte	0x884
 1737 0865 18       		.uleb128 0x18
 1738 0866 19040000 		.4byte	.LASF105
 1739 086a 00       		.sleb128 0
 1740 086b 18       		.uleb128 0x18
 1741 086c 9C030000 		.4byte	.LASF106
 1742 0870 01       		.sleb128 1
 1743 0871 18       		.uleb128 0x18
 1744 0872 D5000000 		.4byte	.LASF107
ARM GAS  C:\Users\DNIEL~1\AppData\Local\Temp\ccOPguCq.s 			page 32


 1745 0876 02       		.sleb128 2
 1746 0877 18       		.uleb128 0x18
 1747 0878 8F010000 		.4byte	.LASF108
 1748 087c 03       		.sleb128 3
 1749 087d 18       		.uleb128 0x18
 1750 087e 16030000 		.4byte	.LASF109
 1751 0882 04       		.sleb128 4
 1752 0883 00       		.byte	0x0
 1753 0884 07       		.uleb128 0x7
 1754 0885 91030000 		.4byte	.LASF110
 1755 0889 0C       		.byte	0xc
 1756 088a 74       		.byte	0x74
 1757 088b 5D080000 		.4byte	0x85d
 1758 088f 0B       		.uleb128 0xb
 1759 0890 01       		.byte	0x1
 1760 0891 0D       		.byte	0xd
 1761 0892 9A       		.byte	0x9a
 1762 0893 CB080000 		.4byte	0x8cb
 1763 0897 19       		.uleb128 0x19
 1764 0898 444C4300 		.ascii	"DLC\000"
 1765 089c 0D       		.byte	0xd
 1766 089d 9B       		.byte	0x9b
 1767 089e 83000000 		.4byte	0x83
 1768 08a2 01       		.byte	0x1
 1769 08a3 04       		.byte	0x4
 1770 08a4 04       		.byte	0x4
 1771 08a5 02       		.byte	0x2
 1772 08a6 23       		.byte	0x23
 1773 08a7 00       		.uleb128 0x0
 1774 08a8 19       		.uleb128 0x19
 1775 08a9 52545200 		.ascii	"RTR\000"
 1776 08ad 0D       		.byte	0xd
 1777 08ae 9C       		.byte	0x9c
 1778 08af 83000000 		.4byte	0x83
 1779 08b3 01       		.byte	0x1
 1780 08b4 01       		.byte	0x1
 1781 08b5 03       		.byte	0x3
 1782 08b6 02       		.byte	0x2
 1783 08b7 23       		.byte	0x23
 1784 08b8 00       		.uleb128 0x0
 1785 08b9 19       		.uleb128 0x19
 1786 08ba 49444500 		.ascii	"IDE\000"
 1787 08be 0D       		.byte	0xd
 1788 08bf 9D       		.byte	0x9d
 1789 08c0 83000000 		.4byte	0x83
 1790 08c4 01       		.byte	0x1
 1791 08c5 01       		.byte	0x1
 1792 08c6 02       		.byte	0x2
 1793 08c7 02       		.byte	0x2
 1794 08c8 23       		.byte	0x23
 1795 08c9 00       		.uleb128 0x0
 1796 08ca 00       		.byte	0x0
 1797 08cb 0B       		.uleb128 0xb
 1798 08cc 04       		.byte	0x4
 1799 08cd 0D       		.byte	0xd
 1800 08ce A0       		.byte	0xa0
 1801 08cf E5080000 		.4byte	0x8e5
ARM GAS  C:\Users\DNIEL~1\AppData\Local\Temp\ccOPguCq.s 			page 33


 1802 08d3 19       		.uleb128 0x19
 1803 08d4 53494400 		.ascii	"SID\000"
 1804 08d8 0D       		.byte	0xd
 1805 08d9 A1       		.byte	0xa1
 1806 08da A4000000 		.4byte	0xa4
 1807 08de 04       		.byte	0x4
 1808 08df 0B       		.byte	0xb
 1809 08e0 15       		.byte	0x15
 1810 08e1 02       		.byte	0x2
 1811 08e2 23       		.byte	0x23
 1812 08e3 00       		.uleb128 0x0
 1813 08e4 00       		.byte	0x0
 1814 08e5 0B       		.uleb128 0xb
 1815 08e6 04       		.byte	0x4
 1816 08e7 0D       		.byte	0xd
 1817 08e8 A3       		.byte	0xa3
 1818 08e9 FF080000 		.4byte	0x8ff
 1819 08ed 19       		.uleb128 0x19
 1820 08ee 45494400 		.ascii	"EID\000"
 1821 08f2 0D       		.byte	0xd
 1822 08f3 A4       		.byte	0xa4
 1823 08f4 A4000000 		.4byte	0xa4
 1824 08f8 04       		.byte	0x4
 1825 08f9 1D       		.byte	0x1d
 1826 08fa 03       		.byte	0x3
 1827 08fb 02       		.byte	0x2
 1828 08fc 23       		.byte	0x23
 1829 08fd 00       		.uleb128 0x0
 1830 08fe 00       		.byte	0x0
 1831 08ff 0F       		.uleb128 0xf
 1832 0900 04       		.byte	0x4
 1833 0901 0D       		.byte	0xd
 1834 0902 9F       		.byte	0x9f
 1835 0903 12090000 		.4byte	0x912
 1836 0907 1A       		.uleb128 0x1a
 1837 0908 CB080000 		.4byte	0x8cb
 1838 090c 1A       		.uleb128 0x1a
 1839 090d E5080000 		.4byte	0x8e5
 1840 0911 00       		.byte	0x0
 1841 0912 0F       		.uleb128 0xf
 1842 0913 08       		.byte	0x8
 1843 0914 0D       		.byte	0xd
 1844 0915 A7       		.byte	0xa7
 1845 0916 3C090000 		.4byte	0x93c
 1846 091a 10       		.uleb128 0x10
 1847 091b 27030000 		.4byte	.LASF111
 1848 091f 0D       		.byte	0xd
 1849 0920 A8       		.byte	0xa8
 1850 0921 3C090000 		.4byte	0x93c
 1851 0925 10       		.uleb128 0x10
 1852 0926 A8050000 		.4byte	.LASF112
 1853 092a 0D       		.byte	0xd
 1854 092b A9       		.byte	0xa9
 1855 092c 4C090000 		.4byte	0x94c
 1856 0930 10       		.uleb128 0x10
 1857 0931 A4000000 		.4byte	.LASF113
 1858 0935 0D       		.byte	0xd
ARM GAS  C:\Users\DNIEL~1\AppData\Local\Temp\ccOPguCq.s 			page 34


 1859 0936 AA       		.byte	0xaa
 1860 0937 33050000 		.4byte	0x533
 1861 093b 00       		.byte	0x0
 1862 093c 11       		.uleb128 0x11
 1863 093d 83000000 		.4byte	0x83
 1864 0941 4C090000 		.4byte	0x94c
 1865 0945 12       		.uleb128 0x12
 1866 0946 29000000 		.4byte	0x29
 1867 094a 07       		.byte	0x7
 1868 094b 00       		.byte	0x0
 1869 094c 11       		.uleb128 0x11
 1870 094d 8E000000 		.4byte	0x8e
 1871 0951 5C090000 		.4byte	0x95c
 1872 0955 12       		.uleb128 0x12
 1873 0956 29000000 		.4byte	0x29
 1874 095a 03       		.byte	0x3
 1875 095b 00       		.byte	0x0
 1876 095c 0B       		.uleb128 0xb
 1877 095d 10       		.byte	0x10
 1878 095e 0D       		.byte	0xd
 1879 095f 99       		.byte	0x99
 1880 0960 7D090000 		.4byte	0x97d
 1881 0964 1B       		.uleb128 0x1b
 1882 0965 8F080000 		.4byte	0x88f
 1883 0969 02       		.byte	0x2
 1884 096a 23       		.byte	0x23
 1885 096b 00       		.uleb128 0x0
 1886 096c 1B       		.uleb128 0x1b
 1887 096d FF080000 		.4byte	0x8ff
 1888 0971 02       		.byte	0x2
 1889 0972 23       		.byte	0x23
 1890 0973 04       		.uleb128 0x4
 1891 0974 1B       		.uleb128 0x1b
 1892 0975 12090000 		.4byte	0x912
 1893 0979 02       		.byte	0x2
 1894 097a 23       		.byte	0x23
 1895 097b 08       		.uleb128 0x8
 1896 097c 00       		.byte	0x0
 1897 097d 07       		.uleb128 0x7
 1898 097e 14020000 		.4byte	.LASF114
 1899 0982 0D       		.byte	0xd
 1900 0983 AC       		.byte	0xac
 1901 0984 5C090000 		.4byte	0x95c
 1902 0988 0B       		.uleb128 0xb
 1903 0989 04       		.byte	0x4
 1904 098a 0D       		.byte	0xd
 1905 098b B4       		.byte	0xb4
 1906 098c AD090000 		.4byte	0x9ad
 1907 0990 0A       		.uleb128 0xa
 1908 0991 464D4900 		.ascii	"FMI\000"
 1909 0995 0D       		.byte	0xd
 1910 0996 B5       		.byte	0xb5
 1911 0997 83000000 		.4byte	0x83
 1912 099b 02       		.byte	0x2
 1913 099c 23       		.byte	0x23
 1914 099d 00       		.uleb128 0x0
 1915 099e 09       		.uleb128 0x9
ARM GAS  C:\Users\DNIEL~1\AppData\Local\Temp\ccOPguCq.s 			page 35


 1916 099f 64010000 		.4byte	.LASF115
 1917 09a3 0D       		.byte	0xd
 1918 09a4 B6       		.byte	0xb6
 1919 09a5 8E000000 		.4byte	0x8e
 1920 09a9 02       		.byte	0x2
 1921 09aa 23       		.byte	0x23
 1922 09ab 02       		.uleb128 0x2
 1923 09ac 00       		.byte	0x0
 1924 09ad 0B       		.uleb128 0xb
 1925 09ae 01       		.byte	0x1
 1926 09af 0D       		.byte	0xd
 1927 09b0 B8       		.byte	0xb8
 1928 09b1 E9090000 		.4byte	0x9e9
 1929 09b5 19       		.uleb128 0x19
 1930 09b6 444C4300 		.ascii	"DLC\000"
 1931 09ba 0D       		.byte	0xd
 1932 09bb B9       		.byte	0xb9
 1933 09bc 83000000 		.4byte	0x83
 1934 09c0 01       		.byte	0x1
 1935 09c1 04       		.byte	0x4
 1936 09c2 04       		.byte	0x4
 1937 09c3 02       		.byte	0x2
 1938 09c4 23       		.byte	0x23
 1939 09c5 00       		.uleb128 0x0
 1940 09c6 19       		.uleb128 0x19
 1941 09c7 52545200 		.ascii	"RTR\000"
 1942 09cb 0D       		.byte	0xd
 1943 09cc BA       		.byte	0xba
 1944 09cd 83000000 		.4byte	0x83
 1945 09d1 01       		.byte	0x1
 1946 09d2 01       		.byte	0x1
 1947 09d3 03       		.byte	0x3
 1948 09d4 02       		.byte	0x2
 1949 09d5 23       		.byte	0x23
 1950 09d6 00       		.uleb128 0x0
 1951 09d7 19       		.uleb128 0x19
 1952 09d8 49444500 		.ascii	"IDE\000"
 1953 09dc 0D       		.byte	0xd
 1954 09dd BB       		.byte	0xbb
 1955 09de 83000000 		.4byte	0x83
 1956 09e2 01       		.byte	0x1
 1957 09e3 01       		.byte	0x1
 1958 09e4 02       		.byte	0x2
 1959 09e5 02       		.byte	0x2
 1960 09e6 23       		.byte	0x23
 1961 09e7 00       		.uleb128 0x0
 1962 09e8 00       		.byte	0x0
 1963 09e9 0B       		.uleb128 0xb
 1964 09ea 04       		.byte	0x4
 1965 09eb 0D       		.byte	0xd
 1966 09ec BE       		.byte	0xbe
 1967 09ed 030A0000 		.4byte	0xa03
 1968 09f1 19       		.uleb128 0x19
 1969 09f2 53494400 		.ascii	"SID\000"
 1970 09f6 0D       		.byte	0xd
 1971 09f7 BF       		.byte	0xbf
 1972 09f8 A4000000 		.4byte	0xa4
ARM GAS  C:\Users\DNIEL~1\AppData\Local\Temp\ccOPguCq.s 			page 36


 1973 09fc 04       		.byte	0x4
 1974 09fd 0B       		.byte	0xb
 1975 09fe 15       		.byte	0x15
 1976 09ff 02       		.byte	0x2
 1977 0a00 23       		.byte	0x23
 1978 0a01 00       		.uleb128 0x0
 1979 0a02 00       		.byte	0x0
 1980 0a03 0B       		.uleb128 0xb
 1981 0a04 04       		.byte	0x4
 1982 0a05 0D       		.byte	0xd
 1983 0a06 C1       		.byte	0xc1
 1984 0a07 1D0A0000 		.4byte	0xa1d
 1985 0a0b 19       		.uleb128 0x19
 1986 0a0c 45494400 		.ascii	"EID\000"
 1987 0a10 0D       		.byte	0xd
 1988 0a11 C2       		.byte	0xc2
 1989 0a12 A4000000 		.4byte	0xa4
 1990 0a16 04       		.byte	0x4
 1991 0a17 1D       		.byte	0x1d
 1992 0a18 03       		.byte	0x3
 1993 0a19 02       		.byte	0x2
 1994 0a1a 23       		.byte	0x23
 1995 0a1b 00       		.uleb128 0x0
 1996 0a1c 00       		.byte	0x0
 1997 0a1d 0F       		.uleb128 0xf
 1998 0a1e 04       		.byte	0x4
 1999 0a1f 0D       		.byte	0xd
 2000 0a20 BD       		.byte	0xbd
 2001 0a21 300A0000 		.4byte	0xa30
 2002 0a25 1A       		.uleb128 0x1a
 2003 0a26 E9090000 		.4byte	0x9e9
 2004 0a2a 1A       		.uleb128 0x1a
 2005 0a2b 030A0000 		.4byte	0xa03
 2006 0a2f 00       		.byte	0x0
 2007 0a30 0F       		.uleb128 0xf
 2008 0a31 08       		.byte	0x8
 2009 0a32 0D       		.byte	0xd
 2010 0a33 C5       		.byte	0xc5
 2011 0a34 5A0A0000 		.4byte	0xa5a
 2012 0a38 10       		.uleb128 0x10
 2013 0a39 27030000 		.4byte	.LASF111
 2014 0a3d 0D       		.byte	0xd
 2015 0a3e C6       		.byte	0xc6
 2016 0a3f 3C090000 		.4byte	0x93c
 2017 0a43 10       		.uleb128 0x10
 2018 0a44 A8050000 		.4byte	.LASF112
 2019 0a48 0D       		.byte	0xd
 2020 0a49 C7       		.byte	0xc7
 2021 0a4a 4C090000 		.4byte	0x94c
 2022 0a4e 10       		.uleb128 0x10
 2023 0a4f A4000000 		.4byte	.LASF113
 2024 0a53 0D       		.byte	0xd
 2025 0a54 C8       		.byte	0xc8
 2026 0a55 33050000 		.4byte	0x533
 2027 0a59 00       		.byte	0x0
 2028 0a5a 0B       		.uleb128 0xb
 2029 0a5b 14       		.byte	0x14
ARM GAS  C:\Users\DNIEL~1\AppData\Local\Temp\ccOPguCq.s 			page 37


 2030 0a5c 0D       		.byte	0xd
 2031 0a5d B3       		.byte	0xb3
 2032 0a5e 830A0000 		.4byte	0xa83
 2033 0a62 1B       		.uleb128 0x1b
 2034 0a63 88090000 		.4byte	0x988
 2035 0a67 02       		.byte	0x2
 2036 0a68 23       		.byte	0x23
 2037 0a69 00       		.uleb128 0x0
 2038 0a6a 1B       		.uleb128 0x1b
 2039 0a6b AD090000 		.4byte	0x9ad
 2040 0a6f 02       		.byte	0x2
 2041 0a70 23       		.byte	0x23
 2042 0a71 04       		.uleb128 0x4
 2043 0a72 1B       		.uleb128 0x1b
 2044 0a73 1D0A0000 		.4byte	0xa1d
 2045 0a77 02       		.byte	0x2
 2046 0a78 23       		.byte	0x23
 2047 0a79 08       		.uleb128 0x8
 2048 0a7a 1B       		.uleb128 0x1b
 2049 0a7b 300A0000 		.4byte	0xa30
 2050 0a7f 02       		.byte	0x2
 2051 0a80 23       		.byte	0x23
 2052 0a81 0C       		.uleb128 0xc
 2053 0a82 00       		.byte	0x0
 2054 0a83 07       		.uleb128 0x7
 2055 0a84 4E030000 		.4byte	.LASF116
 2056 0a88 0D       		.byte	0xd
 2057 0a89 CA       		.byte	0xca
 2058 0a8a 5A0A0000 		.4byte	0xa5a
 2059 0a8e 0B       		.uleb128 0xb
 2060 0a8f 08       		.byte	0x8
 2061 0a90 0D       		.byte	0xd
 2062 0a91 F4       		.byte	0xf4
 2063 0a92 B40A0000 		.4byte	0xab4
 2064 0a96 0A       		.uleb128 0xa
 2065 0a97 6D637200 		.ascii	"mcr\000"
 2066 0a9b 0D       		.byte	0xd
 2067 0a9c FA       		.byte	0xfa
 2068 0a9d A4000000 		.4byte	0xa4
 2069 0aa1 02       		.byte	0x2
 2070 0aa2 23       		.byte	0x23
 2071 0aa3 00       		.uleb128 0x0
 2072 0aa4 0D       		.uleb128 0xd
 2073 0aa5 62747200 		.ascii	"btr\000"
 2074 0aa9 0D       		.byte	0xd
 2075 0aaa 0001     		.2byte	0x100
 2076 0aac A4000000 		.4byte	0xa4
 2077 0ab0 02       		.byte	0x2
 2078 0ab1 23       		.byte	0x23
 2079 0ab2 04       		.uleb128 0x4
 2080 0ab3 00       		.byte	0x0
 2081 0ab4 15       		.uleb128 0x15
 2082 0ab5 2F000000 		.4byte	.LASF117
 2083 0ab9 0D       		.byte	0xd
 2084 0aba 0101     		.2byte	0x101
 2085 0abc 8E0A0000 		.4byte	0xa8e
 2086 0ac0 13       		.uleb128 0x13
ARM GAS  C:\Users\DNIEL~1\AppData\Local\Temp\ccOPguCq.s 			page 38


 2087 0ac1 38       		.byte	0x38
 2088 0ac2 0D       		.byte	0xd
 2089 0ac3 0601     		.2byte	0x106
 2090 0ac5 600B0000 		.4byte	0xb60
 2091 0ac9 14       		.uleb128 0x14
 2092 0aca 0E010000 		.4byte	.LASF118
 2093 0ace 0D       		.byte	0xd
 2094 0acf 0A01     		.2byte	0x10a
 2095 0ad1 84080000 		.4byte	0x884
 2096 0ad5 02       		.byte	0x2
 2097 0ad6 23       		.byte	0x23
 2098 0ad7 00       		.uleb128 0x0
 2099 0ad8 14       		.uleb128 0x14
 2100 0ad9 35050000 		.4byte	.LASF119
 2101 0add 0D       		.byte	0xd
 2102 0ade 0E01     		.2byte	0x10e
 2103 0ae0 600B0000 		.4byte	0xb60
 2104 0ae4 02       		.byte	0x2
 2105 0ae5 23       		.byte	0x23
 2106 0ae6 04       		.uleb128 0x4
 2107 0ae7 14       		.uleb128 0x14
 2108 0ae8 F7000000 		.4byte	.LASF120
 2109 0aec 0D       		.byte	0xd
 2110 0aed 1201     		.2byte	0x112
 2111 0aef 19040000 		.4byte	0x419
 2112 0af3 02       		.byte	0x2
 2113 0af4 23       		.byte	0x23
 2114 0af5 08       		.uleb128 0x8
 2115 0af6 14       		.uleb128 0x14
 2116 0af7 F9050000 		.4byte	.LASF121
 2117 0afb 0D       		.byte	0xd
 2118 0afc 1601     		.2byte	0x116
 2119 0afe 19040000 		.4byte	0x419
 2120 0b02 02       		.byte	0x2
 2121 0b03 23       		.byte	0x23
 2122 0b04 14       		.uleb128 0x14
 2123 0b05 14       		.uleb128 0x14
 2124 0b06 9E010000 		.4byte	.LASF122
 2125 0b0a 0D       		.byte	0xd
 2126 0b0b 2301     		.2byte	0x123
 2127 0b0d DD040000 		.4byte	0x4dd
 2128 0b11 02       		.byte	0x2
 2129 0b12 23       		.byte	0x23
 2130 0b13 20       		.uleb128 0x20
 2131 0b14 14       		.uleb128 0x14
 2132 0b15 10050000 		.4byte	.LASF123
 2133 0b19 0D       		.byte	0xd
 2134 0b1a 2A01     		.2byte	0x12a
 2135 0b1c DD040000 		.4byte	0x4dd
 2136 0b20 02       		.byte	0x2
 2137 0b21 23       		.byte	0x23
 2138 0b22 24       		.uleb128 0x24
 2139 0b23 14       		.uleb128 0x14
 2140 0b24 B7030000 		.4byte	.LASF124
 2141 0b28 0D       		.byte	0xd
 2142 0b29 3001     		.2byte	0x130
 2143 0b2b DD040000 		.4byte	0x4dd
ARM GAS  C:\Users\DNIEL~1\AppData\Local\Temp\ccOPguCq.s 			page 39


 2144 0b2f 02       		.byte	0x2
 2145 0b30 23       		.byte	0x23
 2146 0b31 28       		.uleb128 0x28
 2147 0b32 14       		.uleb128 0x14
 2148 0b33 85030000 		.4byte	.LASF125
 2149 0b37 0D       		.byte	0xd
 2150 0b38 3501     		.2byte	0x135
 2151 0b3a DD040000 		.4byte	0x4dd
 2152 0b3e 02       		.byte	0x2
 2153 0b3f 23       		.byte	0x23
 2154 0b40 2C       		.uleb128 0x2c
 2155 0b41 14       		.uleb128 0x14
 2156 0b42 4D040000 		.4byte	.LASF126
 2157 0b46 0D       		.byte	0xd
 2158 0b47 3901     		.2byte	0x139
 2159 0b49 DD040000 		.4byte	0x4dd
 2160 0b4d 02       		.byte	0x2
 2161 0b4e 23       		.byte	0x23
 2162 0b4f 30       		.uleb128 0x30
 2163 0b50 0D       		.uleb128 0xd
 2164 0b51 63616E00 		.ascii	"can\000"
 2165 0b55 0D       		.byte	0xd
 2166 0b56 3F01     		.2byte	0x13f
 2167 0b58 6B0B0000 		.4byte	0xb6b
 2168 0b5c 02       		.byte	0x2
 2169 0b5d 23       		.byte	0x23
 2170 0b5e 34       		.uleb128 0x34
 2171 0b5f 00       		.byte	0x0
 2172 0b60 05       		.uleb128 0x5
 2173 0b61 04       		.byte	0x4
 2174 0b62 660B0000 		.4byte	0xb66
 2175 0b66 06       		.uleb128 0x6
 2176 0b67 B40A0000 		.4byte	0xab4
 2177 0b6b 05       		.uleb128 0x5
 2178 0b6c 04       		.byte	0x4
 2179 0b6d D2070000 		.4byte	0x7d2
 2180 0b71 15       		.uleb128 0x15
 2181 0b72 2D030000 		.4byte	.LASF127
 2182 0b76 0D       		.byte	0xd
 2183 0b77 4001     		.2byte	0x140
 2184 0b79 C00A0000 		.4byte	0xac0
 2185 0b7d 1C       		.uleb128 0x1c
 2186 0b7e 40040000 		.4byte	.LASF133
 2187 0b82 01       		.byte	0x1
 2188 0b83 0E       		.byte	0xe
 2189 0b84 0C       		.byte	0xc
 2190 0b85 A80B0000 		.4byte	0xba8
 2191 0b89 18       		.uleb128 0x18
 2192 0b8a 47060000 		.4byte	.LASF128
 2193 0b8e 00       		.sleb128 0
 2194 0b8f 18       		.uleb128 0x18
 2195 0b90 84010000 		.4byte	.LASF129
 2196 0b94 01       		.sleb128 1
 2197 0b95 18       		.uleb128 0x18
 2198 0b96 B4020000 		.4byte	.LASF130
 2199 0b9a 02       		.sleb128 2
 2200 0b9b 18       		.uleb128 0x18
ARM GAS  C:\Users\DNIEL~1\AppData\Local\Temp\ccOPguCq.s 			page 40


 2201 0b9c A2040000 		.4byte	.LASF131
 2202 0ba0 03       		.sleb128 3
 2203 0ba1 18       		.uleb128 0x18
 2204 0ba2 AB030000 		.4byte	.LASF132
 2205 0ba6 04       		.sleb128 4
 2206 0ba7 00       		.byte	0x0
 2207 0ba8 1C       		.uleb128 0x1c
 2208 0ba9 20060000 		.4byte	.LASF134
 2209 0bad 01       		.byte	0x1
 2210 0bae 01       		.byte	0x1
 2211 0baf 29       		.byte	0x29
 2212 0bb0 D90B0000 		.4byte	0xbd9
 2213 0bb4 18       		.uleb128 0x18
 2214 0bb5 0F030000 		.4byte	.LASF135
 2215 0bb9 00       		.sleb128 0
 2216 0bba 18       		.uleb128 0x18
 2217 0bbb 82050000 		.4byte	.LASF136
 2218 0bbf 01       		.sleb128 1
 2219 0bc0 18       		.uleb128 0x18
 2220 0bc1 0A060000 		.4byte	.LASF137
 2221 0bc5 02       		.sleb128 2
 2222 0bc6 18       		.uleb128 0x18
 2223 0bc7 47020000 		.4byte	.LASF138
 2224 0bcb 03       		.sleb128 3
 2225 0bcc 18       		.uleb128 0x18
 2226 0bcd 37030000 		.4byte	.LASF139
 2227 0bd1 04       		.sleb128 4
 2228 0bd2 18       		.uleb128 0x18
 2229 0bd3 79010000 		.4byte	.LASF140
 2230 0bd7 05       		.sleb128 5
 2231 0bd8 00       		.byte	0x0
 2232 0bd9 1C       		.uleb128 0x1c
 2233 0bda 06000000 		.4byte	.LASF141
 2234 0bde 01       		.byte	0x1
 2235 0bdf 01       		.byte	0x1
 2236 0be0 33       		.byte	0x33
 2237 0be1 FE0B0000 		.4byte	0xbfe
 2238 0be5 18       		.uleb128 0x18
 2239 0be6 E2020000 		.4byte	.LASF142
 2240 0bea 00       		.sleb128 0
 2241 0beb 18       		.uleb128 0x18
 2242 0bec F1020000 		.4byte	.LASF143
 2243 0bf0 01       		.sleb128 1
 2244 0bf1 18       		.uleb128 0x18
 2245 0bf2 00030000 		.4byte	.LASF144
 2246 0bf6 02       		.sleb128 2
 2247 0bf7 18       		.uleb128 0x18
 2248 0bf8 EC050000 		.4byte	.LASF145
 2249 0bfc 03       		.sleb128 3
 2250 0bfd 00       		.byte	0x0
 2251 0bfe 1D       		.uleb128 0x1d
 2252 0bff D9040000 		.4byte	.LASF146
 2253 0c03 01       		.byte	0x1
 2254 0c04 B5       		.byte	0xb5
 2255 0c05 01       		.byte	0x1
 2256 0c06 F8000000 		.4byte	0xf8
 2257 0c0a 00000000 		.4byte	.LFB57
ARM GAS  C:\Users\DNIEL~1\AppData\Local\Temp\ccOPguCq.s 			page 41


 2258 0c0e CC000000 		.4byte	.LFE57
 2259 0c12 00000000 		.4byte	.LLST0
 2260 0c16 370C0000 		.4byte	0xc37
 2261 0c1a 1E       		.uleb128 0x1e
 2262 0c1b 7000     		.ascii	"p\000"
 2263 0c1d 01       		.byte	0x1
 2264 0c1e B5       		.byte	0xb5
 2265 0c1f 68000000 		.4byte	0x68
 2266 0c23 20000000 		.4byte	.LLST1
 2267 0c27 1F       		.uleb128 0x1f
 2268 0c28 41010000 		.4byte	.LASF148
 2269 0c2c 01       		.byte	0x1
 2270 0c2d BA       		.byte	0xba
 2271 0c2e 4C000000 		.4byte	0x4c
 2272 0c32 33000000 		.4byte	.LLST2
 2273 0c36 00       		.byte	0x0
 2274 0c37 1D       		.uleb128 0x1d
 2275 0c38 AD020000 		.4byte	.LASF147
 2276 0c3c 01       		.byte	0x1
 2277 0c3d 6A       		.byte	0x6a
 2278 0c3e 01       		.byte	0x1
 2279 0c3f F8000000 		.4byte	0xf8
 2280 0c43 00000000 		.4byte	.LFB56
 2281 0c47 B0000000 		.4byte	.LFE56
 2282 0c4b 52000000 		.4byte	.LLST3
 2283 0c4f 7A0C0000 		.4byte	0xc7a
 2284 0c53 1E       		.uleb128 0x1e
 2285 0c54 7000     		.ascii	"p\000"
 2286 0c56 01       		.byte	0x1
 2287 0c57 6A       		.byte	0x6a
 2288 0c58 68000000 		.4byte	0x68
 2289 0c5c 7E000000 		.4byte	.LLST4
 2290 0c60 20       		.uleb128 0x20
 2291 0c61 656C00   		.ascii	"el\000"
 2292 0c64 01       		.byte	0x1
 2293 0c65 6B       		.byte	0x6b
 2294 0c66 6C040000 		.4byte	0x46c
 2295 0c6a 02       		.byte	0x2
 2296 0c6b 91       		.byte	0x91
 2297 0c6c 58       		.sleb128 -40
 2298 0c6d 21       		.uleb128 0x21
 2299 0c6e FF050000 		.4byte	.LASF149
 2300 0c72 01       		.byte	0x1
 2301 0c73 6C       		.byte	0x6c
 2302 0c74 F8000000 		.4byte	0xf8
 2303 0c78 00       		.byte	0x0
 2304 0c79 00       		.byte	0x0
 2305 0c7a 22       		.uleb128 0x22
 2306 0c7b 01       		.byte	0x1
 2307 0c7c C3030000 		.4byte	.LASF165
 2308 0c80 01       		.byte	0x1
 2309 0c81 FA       		.byte	0xfa
 2310 0c82 01       		.byte	0x1
 2311 0c83 00000000 		.4byte	.LFB58
 2312 0c87 FC000000 		.4byte	.LFE58
 2313 0c8b 91000000 		.4byte	.LLST5
 2314 0c8f 23       		.uleb128 0x23
ARM GAS  C:\Users\DNIEL~1\AppData\Local\Temp\ccOPguCq.s 			page 42


 2315 0c90 DE050000 		.4byte	.LASF150
 2316 0c94 07       		.byte	0x7
 2317 0c95 6F       		.byte	0x6f
 2318 0c96 E5030000 		.4byte	0x3e5
 2319 0c9a 01       		.byte	0x1
 2320 0c9b 01       		.byte	0x1
 2321 0c9c 24       		.uleb128 0x24
 2322 0c9d 66040000 		.4byte	.LASF151
 2323 0ca1 0F       		.byte	0xf
 2324 0ca2 0706     		.2byte	0x607
 2325 0ca4 43050000 		.4byte	0x543
 2326 0ca8 01       		.byte	0x1
 2327 0ca9 01       		.byte	0x1
 2328 0caa 24       		.uleb128 0x24
 2329 0cab E6010000 		.4byte	.LASF152
 2330 0caf 0D       		.byte	0xd
 2331 0cb0 4B01     		.2byte	0x14b
 2332 0cb2 710B0000 		.4byte	0xb71
 2333 0cb6 01       		.byte	0x1
 2334 0cb7 01       		.byte	0x1
 2335 0cb8 23       		.uleb128 0x23
 2336 0cb9 41050000 		.4byte	.LASF153
 2337 0cbd 01       		.byte	0x1
 2338 0cbe 31       		.byte	0x31
 2339 0cbf A80B0000 		.4byte	0xba8
 2340 0cc3 01       		.byte	0x1
 2341 0cc4 01       		.byte	0x1
 2342 0cc5 11       		.uleb128 0x11
 2343 0cc6 83000000 		.4byte	0x83
 2344 0cca D50C0000 		.4byte	0xcd5
 2345 0cce 12       		.uleb128 0x12
 2346 0ccf 29000000 		.4byte	0x29
 2347 0cd3 05       		.byte	0x5
 2348 0cd4 00       		.byte	0x0
 2349 0cd5 25       		.uleb128 0x25
 2350 0cd6 B2000000 		.4byte	.LASF166
 2351 0cda 01       		.byte	0x1
 2352 0cdb 3B       		.byte	0x3b
 2353 0cdc E00C0000 		.4byte	0xce0
 2354 0ce0 06       		.uleb128 0x6
 2355 0ce1 C50C0000 		.4byte	0xcc5
 2356 0ce5 26       		.uleb128 0x26
 2357 0ce6 00000000 		.4byte	.LASF154
 2358 0cea 01       		.byte	0x1
 2359 0ceb 42       		.byte	0x42
 2360 0cec 830A0000 		.4byte	0xa83
 2361 0cf0 05       		.byte	0x5
 2362 0cf1 03       		.byte	0x3
 2363 0cf2 00000000 		.4byte	rxmsg
 2364 0cf6 26       		.uleb128 0x26
 2365 0cf7 A2050000 		.4byte	.LASF155
 2366 0cfb 01       		.byte	0x1
 2367 0cfc 43       		.byte	0x43
 2368 0cfd 7D090000 		.4byte	0x97d
 2369 0d01 05       		.byte	0x5
 2370 0d02 03       		.byte	0x3
 2371 0d03 00000000 		.4byte	txmsg
ARM GAS  C:\Users\DNIEL~1\AppData\Local\Temp\ccOPguCq.s 			page 43


 2372 0d07 26       		.uleb128 0x26
 2373 0d08 20030000 		.4byte	.LASF156
 2374 0d0c 01       		.byte	0x1
 2375 0d0d 5C       		.byte	0x5c
 2376 0d0e 660B0000 		.4byte	0xb66
 2377 0d12 05       		.byte	0x5
 2378 0d13 03       		.byte	0x3
 2379 0d14 00000000 		.4byte	cancfg
 2380 0d18 26       		.uleb128 0x26
 2381 0d19 BC010000 		.4byte	.LASF157
 2382 0d1d 01       		.byte	0x1
 2383 0d1e 62       		.byte	0x62
 2384 0d1f 8E000000 		.4byte	0x8e
 2385 0d23 05       		.byte	0x5
 2386 0d24 03       		.byte	0x3
 2387 0d25 00000000 		.4byte	tx_id
 2388 0d29 26       		.uleb128 0x26
 2389 0d2a 19000000 		.4byte	.LASF158
 2390 0d2e 01       		.byte	0x1
 2391 0d2f 63       		.byte	0x63
 2392 0d30 8E000000 		.4byte	0x8e
 2393 0d34 05       		.byte	0x5
 2394 0d35 03       		.byte	0x3
 2395 0d36 00000000 		.4byte	rx_id
 2396 0d3a 26       		.uleb128 0x26
 2397 0d3b 52010000 		.4byte	.LASF159
 2398 0d3f 01       		.byte	0x1
 2399 0d40 64       		.byte	0x64
 2400 0d41 8E000000 		.4byte	0x8e
 2401 0d45 05       		.byte	0x5
 2402 0d46 03       		.byte	0x3
 2403 0d47 00000000 		.4byte	messages
 2404 0d4b 11       		.uleb128 0x11
 2405 0d4c C2020000 		.4byte	0x2c2
 2406 0d50 5B0D0000 		.4byte	0xd5b
 2407 0d54 12       		.uleb128 0x12
 2408 0d55 29000000 		.4byte	0x29
 2409 0d59 39       		.byte	0x39
 2410 0d5a 00       		.byte	0x0
 2411 0d5b 26       		.uleb128 0x26
 2412 0d5c C1020000 		.4byte	.LASF160
 2413 0d60 01       		.byte	0x1
 2414 0d61 69       		.byte	0x69
 2415 0d62 4B0D0000 		.4byte	0xd4b
 2416 0d66 05       		.byte	0x5
 2417 0d67 03       		.byte	0x3
 2418 0d68 00000000 		.4byte	can_rx_wa
 2419 0d6c 26       		.uleb128 0x26
 2420 0d6d E0040000 		.4byte	.LASF161
 2421 0d71 01       		.byte	0x1
 2422 0d72 B4       		.byte	0xb4
 2423 0d73 4B0D0000 		.4byte	0xd4b
 2424 0d77 05       		.byte	0x5
 2425 0d78 03       		.byte	0x3
 2426 0d79 00000000 		.4byte	can_tx_wa
 2427 0d7d 23       		.uleb128 0x23
 2428 0d7e DE050000 		.4byte	.LASF150
ARM GAS  C:\Users\DNIEL~1\AppData\Local\Temp\ccOPguCq.s 			page 44


 2429 0d82 07       		.byte	0x7
 2430 0d83 6F       		.byte	0x6f
 2431 0d84 E5030000 		.4byte	0x3e5
 2432 0d88 01       		.byte	0x1
 2433 0d89 01       		.byte	0x1
 2434 0d8a 24       		.uleb128 0x24
 2435 0d8b 66040000 		.4byte	.LASF151
 2436 0d8f 0F       		.byte	0xf
 2437 0d90 0706     		.2byte	0x607
 2438 0d92 43050000 		.4byte	0x543
 2439 0d96 01       		.byte	0x1
 2440 0d97 01       		.byte	0x1
 2441 0d98 24       		.uleb128 0x24
 2442 0d99 E6010000 		.4byte	.LASF152
 2443 0d9d 0D       		.byte	0xd
 2444 0d9e 4B01     		.2byte	0x14b
 2445 0da0 710B0000 		.4byte	0xb71
 2446 0da4 01       		.byte	0x1
 2447 0da5 01       		.byte	0x1
 2448 0da6 27       		.uleb128 0x27
 2449 0da7 41050000 		.4byte	.LASF153
 2450 0dab 01       		.byte	0x1
 2451 0dac 31       		.byte	0x31
 2452 0dad A80B0000 		.4byte	0xba8
 2453 0db1 01       		.byte	0x1
 2454 0db2 05       		.byte	0x5
 2455 0db3 03       		.byte	0x3
 2456 0db4 00000000 		.4byte	canstate
 2457 0db8 27       		.uleb128 0x27
 2458 0db9 06000000 		.4byte	.LASF141
 2459 0dbd 01       		.byte	0x1
 2460 0dbe 39       		.byte	0x39
 2461 0dbf D90B0000 		.4byte	0xbd9
 2462 0dc3 01       		.byte	0x1
 2463 0dc4 05       		.byte	0x5
 2464 0dc5 03       		.byte	0x3
 2465 0dc6 00000000 		.4byte	canMessages
 2466 0dca 00       		.byte	0x0
 2467              		.section	.debug_abbrev
 2468 0000 01       		.uleb128 0x1
 2469 0001 11       		.uleb128 0x11
 2470 0002 01       		.byte	0x1
 2471 0003 25       		.uleb128 0x25
 2472 0004 0E       		.uleb128 0xe
 2473 0005 13       		.uleb128 0x13
 2474 0006 0B       		.uleb128 0xb
 2475 0007 03       		.uleb128 0x3
 2476 0008 0E       		.uleb128 0xe
 2477 0009 1B       		.uleb128 0x1b
 2478 000a 0E       		.uleb128 0xe
 2479 000b 11       		.uleb128 0x11
 2480 000c 01       		.uleb128 0x1
 2481 000d 52       		.uleb128 0x52
 2482 000e 01       		.uleb128 0x1
 2483 000f 55       		.uleb128 0x55
 2484 0010 06       		.uleb128 0x6
 2485 0011 10       		.uleb128 0x10
ARM GAS  C:\Users\DNIEL~1\AppData\Local\Temp\ccOPguCq.s 			page 45


 2486 0012 06       		.uleb128 0x6
 2487 0013 00       		.byte	0x0
 2488 0014 00       		.byte	0x0
 2489 0015 02       		.uleb128 0x2
 2490 0016 24       		.uleb128 0x24
 2491 0017 00       		.byte	0x0
 2492 0018 0B       		.uleb128 0xb
 2493 0019 0B       		.uleb128 0xb
 2494 001a 3E       		.uleb128 0x3e
 2495 001b 0B       		.uleb128 0xb
 2496 001c 03       		.uleb128 0x3
 2497 001d 0E       		.uleb128 0xe
 2498 001e 00       		.byte	0x0
 2499 001f 00       		.byte	0x0
 2500 0020 03       		.uleb128 0x3
 2501 0021 24       		.uleb128 0x24
 2502 0022 00       		.byte	0x0
 2503 0023 0B       		.uleb128 0xb
 2504 0024 0B       		.uleb128 0xb
 2505 0025 3E       		.uleb128 0x3e
 2506 0026 0B       		.uleb128 0xb
 2507 0027 03       		.uleb128 0x3
 2508 0028 08       		.uleb128 0x8
 2509 0029 00       		.byte	0x0
 2510 002a 00       		.byte	0x0
 2511 002b 04       		.uleb128 0x4
 2512 002c 0F       		.uleb128 0xf
 2513 002d 00       		.byte	0x0
 2514 002e 0B       		.uleb128 0xb
 2515 002f 0B       		.uleb128 0xb
 2516 0030 00       		.byte	0x0
 2517 0031 00       		.byte	0x0
 2518 0032 05       		.uleb128 0x5
 2519 0033 0F       		.uleb128 0xf
 2520 0034 00       		.byte	0x0
 2521 0035 0B       		.uleb128 0xb
 2522 0036 0B       		.uleb128 0xb
 2523 0037 49       		.uleb128 0x49
 2524 0038 13       		.uleb128 0x13
 2525 0039 00       		.byte	0x0
 2526 003a 00       		.byte	0x0
 2527 003b 06       		.uleb128 0x6
 2528 003c 26       		.uleb128 0x26
 2529 003d 00       		.byte	0x0
 2530 003e 49       		.uleb128 0x49
 2531 003f 13       		.uleb128 0x13
 2532 0040 00       		.byte	0x0
 2533 0041 00       		.byte	0x0
 2534 0042 07       		.uleb128 0x7
 2535 0043 16       		.uleb128 0x16
 2536 0044 00       		.byte	0x0
 2537 0045 03       		.uleb128 0x3
 2538 0046 0E       		.uleb128 0xe
 2539 0047 3A       		.uleb128 0x3a
 2540 0048 0B       		.uleb128 0xb
 2541 0049 3B       		.uleb128 0x3b
 2542 004a 0B       		.uleb128 0xb
ARM GAS  C:\Users\DNIEL~1\AppData\Local\Temp\ccOPguCq.s 			page 46


 2543 004b 49       		.uleb128 0x49
 2544 004c 13       		.uleb128 0x13
 2545 004d 00       		.byte	0x0
 2546 004e 00       		.byte	0x0
 2547 004f 08       		.uleb128 0x8
 2548 0050 13       		.uleb128 0x13
 2549 0051 01       		.byte	0x1
 2550 0052 03       		.uleb128 0x3
 2551 0053 0E       		.uleb128 0xe
 2552 0054 0B       		.uleb128 0xb
 2553 0055 0B       		.uleb128 0xb
 2554 0056 3A       		.uleb128 0x3a
 2555 0057 0B       		.uleb128 0xb
 2556 0058 3B       		.uleb128 0x3b
 2557 0059 0B       		.uleb128 0xb
 2558 005a 01       		.uleb128 0x1
 2559 005b 13       		.uleb128 0x13
 2560 005c 00       		.byte	0x0
 2561 005d 00       		.byte	0x0
 2562 005e 09       		.uleb128 0x9
 2563 005f 0D       		.uleb128 0xd
 2564 0060 00       		.byte	0x0
 2565 0061 03       		.uleb128 0x3
 2566 0062 0E       		.uleb128 0xe
 2567 0063 3A       		.uleb128 0x3a
 2568 0064 0B       		.uleb128 0xb
 2569 0065 3B       		.uleb128 0x3b
 2570 0066 0B       		.uleb128 0xb
 2571 0067 49       		.uleb128 0x49
 2572 0068 13       		.uleb128 0x13
 2573 0069 38       		.uleb128 0x38
 2574 006a 0A       		.uleb128 0xa
 2575 006b 00       		.byte	0x0
 2576 006c 00       		.byte	0x0
 2577 006d 0A       		.uleb128 0xa
 2578 006e 0D       		.uleb128 0xd
 2579 006f 00       		.byte	0x0
 2580 0070 03       		.uleb128 0x3
 2581 0071 08       		.uleb128 0x8
 2582 0072 3A       		.uleb128 0x3a
 2583 0073 0B       		.uleb128 0xb
 2584 0074 3B       		.uleb128 0x3b
 2585 0075 0B       		.uleb128 0xb
 2586 0076 49       		.uleb128 0x49
 2587 0077 13       		.uleb128 0x13
 2588 0078 38       		.uleb128 0x38
 2589 0079 0A       		.uleb128 0xa
 2590 007a 00       		.byte	0x0
 2591 007b 00       		.byte	0x0
 2592 007c 0B       		.uleb128 0xb
 2593 007d 13       		.uleb128 0x13
 2594 007e 01       		.byte	0x1
 2595 007f 0B       		.uleb128 0xb
 2596 0080 0B       		.uleb128 0xb
 2597 0081 3A       		.uleb128 0x3a
 2598 0082 0B       		.uleb128 0xb
 2599 0083 3B       		.uleb128 0x3b
ARM GAS  C:\Users\DNIEL~1\AppData\Local\Temp\ccOPguCq.s 			page 47


 2600 0084 0B       		.uleb128 0xb
 2601 0085 01       		.uleb128 0x1
 2602 0086 13       		.uleb128 0x13
 2603 0087 00       		.byte	0x0
 2604 0088 00       		.byte	0x0
 2605 0089 0C       		.uleb128 0xc
 2606 008a 13       		.uleb128 0x13
 2607 008b 01       		.byte	0x1
 2608 008c 03       		.uleb128 0x3
 2609 008d 0E       		.uleb128 0xe
 2610 008e 0B       		.uleb128 0xb
 2611 008f 0B       		.uleb128 0xb
 2612 0090 3A       		.uleb128 0x3a
 2613 0091 0B       		.uleb128 0xb
 2614 0092 3B       		.uleb128 0x3b
 2615 0093 05       		.uleb128 0x5
 2616 0094 01       		.uleb128 0x1
 2617 0095 13       		.uleb128 0x13
 2618 0096 00       		.byte	0x0
 2619 0097 00       		.byte	0x0
 2620 0098 0D       		.uleb128 0xd
 2621 0099 0D       		.uleb128 0xd
 2622 009a 00       		.byte	0x0
 2623 009b 03       		.uleb128 0x3
 2624 009c 08       		.uleb128 0x8
 2625 009d 3A       		.uleb128 0x3a
 2626 009e 0B       		.uleb128 0xb
 2627 009f 3B       		.uleb128 0x3b
 2628 00a0 05       		.uleb128 0x5
 2629 00a1 49       		.uleb128 0x49
 2630 00a2 13       		.uleb128 0x13
 2631 00a3 38       		.uleb128 0x38
 2632 00a4 0A       		.uleb128 0xa
 2633 00a5 00       		.byte	0x0
 2634 00a6 00       		.byte	0x0
 2635 00a7 0E       		.uleb128 0xe
 2636 00a8 35       		.uleb128 0x35
 2637 00a9 00       		.byte	0x0
 2638 00aa 49       		.uleb128 0x49
 2639 00ab 13       		.uleb128 0x13
 2640 00ac 00       		.byte	0x0
 2641 00ad 00       		.byte	0x0
 2642 00ae 0F       		.uleb128 0xf
 2643 00af 17       		.uleb128 0x17
 2644 00b0 01       		.byte	0x1
 2645 00b1 0B       		.uleb128 0xb
 2646 00b2 0B       		.uleb128 0xb
 2647 00b3 3A       		.uleb128 0x3a
 2648 00b4 0B       		.uleb128 0xb
 2649 00b5 3B       		.uleb128 0x3b
 2650 00b6 0B       		.uleb128 0xb
 2651 00b7 01       		.uleb128 0x1
 2652 00b8 13       		.uleb128 0x13
 2653 00b9 00       		.byte	0x0
 2654 00ba 00       		.byte	0x0
 2655 00bb 10       		.uleb128 0x10
 2656 00bc 0D       		.uleb128 0xd
ARM GAS  C:\Users\DNIEL~1\AppData\Local\Temp\ccOPguCq.s 			page 48


 2657 00bd 00       		.byte	0x0
 2658 00be 03       		.uleb128 0x3
 2659 00bf 0E       		.uleb128 0xe
 2660 00c0 3A       		.uleb128 0x3a
 2661 00c1 0B       		.uleb128 0xb
 2662 00c2 3B       		.uleb128 0x3b
 2663 00c3 0B       		.uleb128 0xb
 2664 00c4 49       		.uleb128 0x49
 2665 00c5 13       		.uleb128 0x13
 2666 00c6 00       		.byte	0x0
 2667 00c7 00       		.byte	0x0
 2668 00c8 11       		.uleb128 0x11
 2669 00c9 01       		.uleb128 0x1
 2670 00ca 01       		.byte	0x1
 2671 00cb 49       		.uleb128 0x49
 2672 00cc 13       		.uleb128 0x13
 2673 00cd 01       		.uleb128 0x1
 2674 00ce 13       		.uleb128 0x13
 2675 00cf 00       		.byte	0x0
 2676 00d0 00       		.byte	0x0
 2677 00d1 12       		.uleb128 0x12
 2678 00d2 21       		.uleb128 0x21
 2679 00d3 00       		.byte	0x0
 2680 00d4 49       		.uleb128 0x49
 2681 00d5 13       		.uleb128 0x13
 2682 00d6 2F       		.uleb128 0x2f
 2683 00d7 0B       		.uleb128 0xb
 2684 00d8 00       		.byte	0x0
 2685 00d9 00       		.byte	0x0
 2686 00da 13       		.uleb128 0x13
 2687 00db 13       		.uleb128 0x13
 2688 00dc 01       		.byte	0x1
 2689 00dd 0B       		.uleb128 0xb
 2690 00de 0B       		.uleb128 0xb
 2691 00df 3A       		.uleb128 0x3a
 2692 00e0 0B       		.uleb128 0xb
 2693 00e1 3B       		.uleb128 0x3b
 2694 00e2 05       		.uleb128 0x5
 2695 00e3 01       		.uleb128 0x1
 2696 00e4 13       		.uleb128 0x13
 2697 00e5 00       		.byte	0x0
 2698 00e6 00       		.byte	0x0
 2699 00e7 14       		.uleb128 0x14
 2700 00e8 0D       		.uleb128 0xd
 2701 00e9 00       		.byte	0x0
 2702 00ea 03       		.uleb128 0x3
 2703 00eb 0E       		.uleb128 0xe
 2704 00ec 3A       		.uleb128 0x3a
 2705 00ed 0B       		.uleb128 0xb
 2706 00ee 3B       		.uleb128 0x3b
 2707 00ef 05       		.uleb128 0x5
 2708 00f0 49       		.uleb128 0x49
 2709 00f1 13       		.uleb128 0x13
 2710 00f2 38       		.uleb128 0x38
 2711 00f3 0A       		.uleb128 0xa
 2712 00f4 00       		.byte	0x0
 2713 00f5 00       		.byte	0x0
ARM GAS  C:\Users\DNIEL~1\AppData\Local\Temp\ccOPguCq.s 			page 49


 2714 00f6 15       		.uleb128 0x15
 2715 00f7 16       		.uleb128 0x16
 2716 00f8 00       		.byte	0x0
 2717 00f9 03       		.uleb128 0x3
 2718 00fa 0E       		.uleb128 0xe
 2719 00fb 3A       		.uleb128 0x3a
 2720 00fc 0B       		.uleb128 0xb
 2721 00fd 3B       		.uleb128 0x3b
 2722 00fe 05       		.uleb128 0x5
 2723 00ff 49       		.uleb128 0x49
 2724 0100 13       		.uleb128 0x13
 2725 0101 00       		.byte	0x0
 2726 0102 00       		.byte	0x0
 2727 0103 16       		.uleb128 0x16
 2728 0104 13       		.uleb128 0x13
 2729 0105 01       		.byte	0x1
 2730 0106 0B       		.uleb128 0xb
 2731 0107 05       		.uleb128 0x5
 2732 0108 3A       		.uleb128 0x3a
 2733 0109 0B       		.uleb128 0xb
 2734 010a 3B       		.uleb128 0x3b
 2735 010b 05       		.uleb128 0x5
 2736 010c 01       		.uleb128 0x1
 2737 010d 13       		.uleb128 0x13
 2738 010e 00       		.byte	0x0
 2739 010f 00       		.byte	0x0
 2740 0110 17       		.uleb128 0x17
 2741 0111 04       		.uleb128 0x4
 2742 0112 01       		.byte	0x1
 2743 0113 0B       		.uleb128 0xb
 2744 0114 0B       		.uleb128 0xb
 2745 0115 3A       		.uleb128 0x3a
 2746 0116 0B       		.uleb128 0xb
 2747 0117 3B       		.uleb128 0x3b
 2748 0118 0B       		.uleb128 0xb
 2749 0119 01       		.uleb128 0x1
 2750 011a 13       		.uleb128 0x13
 2751 011b 00       		.byte	0x0
 2752 011c 00       		.byte	0x0
 2753 011d 18       		.uleb128 0x18
 2754 011e 28       		.uleb128 0x28
 2755 011f 00       		.byte	0x0
 2756 0120 03       		.uleb128 0x3
 2757 0121 0E       		.uleb128 0xe
 2758 0122 1C       		.uleb128 0x1c
 2759 0123 0D       		.uleb128 0xd
 2760 0124 00       		.byte	0x0
 2761 0125 00       		.byte	0x0
 2762 0126 19       		.uleb128 0x19
 2763 0127 0D       		.uleb128 0xd
 2764 0128 00       		.byte	0x0
 2765 0129 03       		.uleb128 0x3
 2766 012a 08       		.uleb128 0x8
 2767 012b 3A       		.uleb128 0x3a
 2768 012c 0B       		.uleb128 0xb
 2769 012d 3B       		.uleb128 0x3b
 2770 012e 0B       		.uleb128 0xb
ARM GAS  C:\Users\DNIEL~1\AppData\Local\Temp\ccOPguCq.s 			page 50


 2771 012f 49       		.uleb128 0x49
 2772 0130 13       		.uleb128 0x13
 2773 0131 0B       		.uleb128 0xb
 2774 0132 0B       		.uleb128 0xb
 2775 0133 0D       		.uleb128 0xd
 2776 0134 0B       		.uleb128 0xb
 2777 0135 0C       		.uleb128 0xc
 2778 0136 0B       		.uleb128 0xb
 2779 0137 38       		.uleb128 0x38
 2780 0138 0A       		.uleb128 0xa
 2781 0139 00       		.byte	0x0
 2782 013a 00       		.byte	0x0
 2783 013b 1A       		.uleb128 0x1a
 2784 013c 0D       		.uleb128 0xd
 2785 013d 00       		.byte	0x0
 2786 013e 49       		.uleb128 0x49
 2787 013f 13       		.uleb128 0x13
 2788 0140 00       		.byte	0x0
 2789 0141 00       		.byte	0x0
 2790 0142 1B       		.uleb128 0x1b
 2791 0143 0D       		.uleb128 0xd
 2792 0144 00       		.byte	0x0
 2793 0145 49       		.uleb128 0x49
 2794 0146 13       		.uleb128 0x13
 2795 0147 38       		.uleb128 0x38
 2796 0148 0A       		.uleb128 0xa
 2797 0149 00       		.byte	0x0
 2798 014a 00       		.byte	0x0
 2799 014b 1C       		.uleb128 0x1c
 2800 014c 04       		.uleb128 0x4
 2801 014d 01       		.byte	0x1
 2802 014e 03       		.uleb128 0x3
 2803 014f 0E       		.uleb128 0xe
 2804 0150 0B       		.uleb128 0xb
 2805 0151 0B       		.uleb128 0xb
 2806 0152 3A       		.uleb128 0x3a
 2807 0153 0B       		.uleb128 0xb
 2808 0154 3B       		.uleb128 0x3b
 2809 0155 0B       		.uleb128 0xb
 2810 0156 01       		.uleb128 0x1
 2811 0157 13       		.uleb128 0x13
 2812 0158 00       		.byte	0x0
 2813 0159 00       		.byte	0x0
 2814 015a 1D       		.uleb128 0x1d
 2815 015b 2E       		.uleb128 0x2e
 2816 015c 01       		.byte	0x1
 2817 015d 03       		.uleb128 0x3
 2818 015e 0E       		.uleb128 0xe
 2819 015f 3A       		.uleb128 0x3a
 2820 0160 0B       		.uleb128 0xb
 2821 0161 3B       		.uleb128 0x3b
 2822 0162 0B       		.uleb128 0xb
 2823 0163 27       		.uleb128 0x27
 2824 0164 0C       		.uleb128 0xc
 2825 0165 49       		.uleb128 0x49
 2826 0166 13       		.uleb128 0x13
 2827 0167 11       		.uleb128 0x11
ARM GAS  C:\Users\DNIEL~1\AppData\Local\Temp\ccOPguCq.s 			page 51


 2828 0168 01       		.uleb128 0x1
 2829 0169 12       		.uleb128 0x12
 2830 016a 01       		.uleb128 0x1
 2831 016b 40       		.uleb128 0x40
 2832 016c 06       		.uleb128 0x6
 2833 016d 01       		.uleb128 0x1
 2834 016e 13       		.uleb128 0x13
 2835 016f 00       		.byte	0x0
 2836 0170 00       		.byte	0x0
 2837 0171 1E       		.uleb128 0x1e
 2838 0172 05       		.uleb128 0x5
 2839 0173 00       		.byte	0x0
 2840 0174 03       		.uleb128 0x3
 2841 0175 08       		.uleb128 0x8
 2842 0176 3A       		.uleb128 0x3a
 2843 0177 0B       		.uleb128 0xb
 2844 0178 3B       		.uleb128 0x3b
 2845 0179 0B       		.uleb128 0xb
 2846 017a 49       		.uleb128 0x49
 2847 017b 13       		.uleb128 0x13
 2848 017c 02       		.uleb128 0x2
 2849 017d 06       		.uleb128 0x6
 2850 017e 00       		.byte	0x0
 2851 017f 00       		.byte	0x0
 2852 0180 1F       		.uleb128 0x1f
 2853 0181 34       		.uleb128 0x34
 2854 0182 00       		.byte	0x0
 2855 0183 03       		.uleb128 0x3
 2856 0184 0E       		.uleb128 0xe
 2857 0185 3A       		.uleb128 0x3a
 2858 0186 0B       		.uleb128 0xb
 2859 0187 3B       		.uleb128 0x3b
 2860 0188 0B       		.uleb128 0xb
 2861 0189 49       		.uleb128 0x49
 2862 018a 13       		.uleb128 0x13
 2863 018b 02       		.uleb128 0x2
 2864 018c 06       		.uleb128 0x6
 2865 018d 00       		.byte	0x0
 2866 018e 00       		.byte	0x0
 2867 018f 20       		.uleb128 0x20
 2868 0190 34       		.uleb128 0x34
 2869 0191 00       		.byte	0x0
 2870 0192 03       		.uleb128 0x3
 2871 0193 08       		.uleb128 0x8
 2872 0194 3A       		.uleb128 0x3a
 2873 0195 0B       		.uleb128 0xb
 2874 0196 3B       		.uleb128 0x3b
 2875 0197 0B       		.uleb128 0xb
 2876 0198 49       		.uleb128 0x49
 2877 0199 13       		.uleb128 0x13
 2878 019a 02       		.uleb128 0x2
 2879 019b 0A       		.uleb128 0xa
 2880 019c 00       		.byte	0x0
 2881 019d 00       		.byte	0x0
 2882 019e 21       		.uleb128 0x21
 2883 019f 34       		.uleb128 0x34
 2884 01a0 00       		.byte	0x0
ARM GAS  C:\Users\DNIEL~1\AppData\Local\Temp\ccOPguCq.s 			page 52


 2885 01a1 03       		.uleb128 0x3
 2886 01a2 0E       		.uleb128 0xe
 2887 01a3 3A       		.uleb128 0x3a
 2888 01a4 0B       		.uleb128 0xb
 2889 01a5 3B       		.uleb128 0x3b
 2890 01a6 0B       		.uleb128 0xb
 2891 01a7 49       		.uleb128 0x49
 2892 01a8 13       		.uleb128 0x13
 2893 01a9 1C       		.uleb128 0x1c
 2894 01aa 0B       		.uleb128 0xb
 2895 01ab 00       		.byte	0x0
 2896 01ac 00       		.byte	0x0
 2897 01ad 22       		.uleb128 0x22
 2898 01ae 2E       		.uleb128 0x2e
 2899 01af 00       		.byte	0x0
 2900 01b0 3F       		.uleb128 0x3f
 2901 01b1 0C       		.uleb128 0xc
 2902 01b2 03       		.uleb128 0x3
 2903 01b3 0E       		.uleb128 0xe
 2904 01b4 3A       		.uleb128 0x3a
 2905 01b5 0B       		.uleb128 0xb
 2906 01b6 3B       		.uleb128 0x3b
 2907 01b7 0B       		.uleb128 0xb
 2908 01b8 27       		.uleb128 0x27
 2909 01b9 0C       		.uleb128 0xc
 2910 01ba 11       		.uleb128 0x11
 2911 01bb 01       		.uleb128 0x1
 2912 01bc 12       		.uleb128 0x12
 2913 01bd 01       		.uleb128 0x1
 2914 01be 40       		.uleb128 0x40
 2915 01bf 06       		.uleb128 0x6
 2916 01c0 00       		.byte	0x0
 2917 01c1 00       		.byte	0x0
 2918 01c2 23       		.uleb128 0x23
 2919 01c3 34       		.uleb128 0x34
 2920 01c4 00       		.byte	0x0
 2921 01c5 03       		.uleb128 0x3
 2922 01c6 0E       		.uleb128 0xe
 2923 01c7 3A       		.uleb128 0x3a
 2924 01c8 0B       		.uleb128 0xb
 2925 01c9 3B       		.uleb128 0x3b
 2926 01ca 0B       		.uleb128 0xb
 2927 01cb 49       		.uleb128 0x49
 2928 01cc 13       		.uleb128 0x13
 2929 01cd 3F       		.uleb128 0x3f
 2930 01ce 0C       		.uleb128 0xc
 2931 01cf 3C       		.uleb128 0x3c
 2932 01d0 0C       		.uleb128 0xc
 2933 01d1 00       		.byte	0x0
 2934 01d2 00       		.byte	0x0
 2935 01d3 24       		.uleb128 0x24
 2936 01d4 34       		.uleb128 0x34
 2937 01d5 00       		.byte	0x0
 2938 01d6 03       		.uleb128 0x3
 2939 01d7 0E       		.uleb128 0xe
 2940 01d8 3A       		.uleb128 0x3a
 2941 01d9 0B       		.uleb128 0xb
ARM GAS  C:\Users\DNIEL~1\AppData\Local\Temp\ccOPguCq.s 			page 53


 2942 01da 3B       		.uleb128 0x3b
 2943 01db 05       		.uleb128 0x5
 2944 01dc 49       		.uleb128 0x49
 2945 01dd 13       		.uleb128 0x13
 2946 01de 3F       		.uleb128 0x3f
 2947 01df 0C       		.uleb128 0xc
 2948 01e0 3C       		.uleb128 0x3c
 2949 01e1 0C       		.uleb128 0xc
 2950 01e2 00       		.byte	0x0
 2951 01e3 00       		.byte	0x0
 2952 01e4 25       		.uleb128 0x25
 2953 01e5 34       		.uleb128 0x34
 2954 01e6 00       		.byte	0x0
 2955 01e7 03       		.uleb128 0x3
 2956 01e8 0E       		.uleb128 0xe
 2957 01e9 3A       		.uleb128 0x3a
 2958 01ea 0B       		.uleb128 0xb
 2959 01eb 3B       		.uleb128 0x3b
 2960 01ec 0B       		.uleb128 0xb
 2961 01ed 49       		.uleb128 0x49
 2962 01ee 13       		.uleb128 0x13
 2963 01ef 00       		.byte	0x0
 2964 01f0 00       		.byte	0x0
 2965 01f1 26       		.uleb128 0x26
 2966 01f2 34       		.uleb128 0x34
 2967 01f3 00       		.byte	0x0
 2968 01f4 03       		.uleb128 0x3
 2969 01f5 0E       		.uleb128 0xe
 2970 01f6 3A       		.uleb128 0x3a
 2971 01f7 0B       		.uleb128 0xb
 2972 01f8 3B       		.uleb128 0x3b
 2973 01f9 0B       		.uleb128 0xb
 2974 01fa 49       		.uleb128 0x49
 2975 01fb 13       		.uleb128 0x13
 2976 01fc 02       		.uleb128 0x2
 2977 01fd 0A       		.uleb128 0xa
 2978 01fe 00       		.byte	0x0
 2979 01ff 00       		.byte	0x0
 2980 0200 27       		.uleb128 0x27
 2981 0201 34       		.uleb128 0x34
 2982 0202 00       		.byte	0x0
 2983 0203 03       		.uleb128 0x3
 2984 0204 0E       		.uleb128 0xe
 2985 0205 3A       		.uleb128 0x3a
 2986 0206 0B       		.uleb128 0xb
 2987 0207 3B       		.uleb128 0x3b
 2988 0208 0B       		.uleb128 0xb
 2989 0209 49       		.uleb128 0x49
 2990 020a 13       		.uleb128 0x13
 2991 020b 3F       		.uleb128 0x3f
 2992 020c 0C       		.uleb128 0xc
 2993 020d 02       		.uleb128 0x2
 2994 020e 0A       		.uleb128 0xa
 2995 020f 00       		.byte	0x0
 2996 0210 00       		.byte	0x0
 2997 0211 00       		.byte	0x0
 2998              		.section	.debug_pubnames,"",%progbits
ARM GAS  C:\Users\DNIEL~1\AppData\Local\Temp\ccOPguCq.s 			page 54


 2999 0000 3C000000 		.4byte	0x3c
 3000 0004 0200     		.2byte	0x2
 3001 0006 00000000 		.4byte	.Ldebug_info0
 3002 000a CB0D0000 		.4byte	0xdcb
 3003 000e 7A0C0000 		.4byte	0xc7a
 3004 0012 63616E5F 		.ascii	"can_commInit\000"
 3004      636F6D6D 
 3004      496E6974 
 3004      00
 3005 001f A60D0000 		.4byte	0xda6
 3006 0023 63616E73 		.ascii	"canstate\000"
 3006      74617465 
 3006      00
 3007 002c B80D0000 		.4byte	0xdb8
 3008 0030 63616E4D 		.ascii	"canMessages\000"
 3008      65737361 
 3008      67657300 
 3009 003c 00000000 		.4byte	0x0
 3010              		.section	.debug_pubtypes,"",%progbits
 3011 0000 A7020000 		.4byte	0x2a7
 3012 0004 0200     		.2byte	0x2
 3013 0006 00000000 		.4byte	.Ldebug_info0
 3014 000a CB0D0000 		.4byte	0xdcb
 3015 000e 83000000 		.4byte	0x83
 3016 0012 75696E74 		.ascii	"uint8_t\000"
 3016      385F7400 
 3017 001a 8E000000 		.4byte	0x8e
 3018 001e 75696E74 		.ascii	"uint16_t\000"
 3018      31365F74 
 3018      00
 3019 0027 99000000 		.4byte	0x99
 3020 002b 696E7433 		.ascii	"int32_t\000"
 3020      325F7400 
 3021 0033 A4000000 		.4byte	0xa4
 3022 0037 75696E74 		.ascii	"uint32_t\000"
 3022      33325F74 
 3022      00
 3023 0040 AF000000 		.4byte	0xaf
 3024 0044 75696E74 		.ascii	"uint64_t\000"
 3024      36345F74 
 3024      00
 3025 004d C1000000 		.4byte	0xc1
 3026 0051 746D6F64 		.ascii	"tmode_t\000"
 3026      655F7400 
 3027 0059 CC000000 		.4byte	0xcc
 3028 005d 74737461 		.ascii	"tstate_t\000"
 3028      74655F74 
 3028      00
 3029 0066 D7000000 		.4byte	0xd7
 3030 006a 74726566 		.ascii	"trefs_t\000"
 3030      735F7400 
 3031 0072 E2000000 		.4byte	0xe2
 3032 0076 74736C69 		.ascii	"tslices_t\000"
 3032      6365735F 
 3032      7400
 3033 0080 ED000000 		.4byte	0xed
 3034 0084 74707269 		.ascii	"tprio_t\000"
ARM GAS  C:\Users\DNIEL~1\AppData\Local\Temp\ccOPguCq.s 			page 55


 3034      6F5F7400 
 3035 008c F8000000 		.4byte	0xf8
 3036 0090 6D73675F 		.ascii	"msg_t\000"
 3036      7400
 3037 0096 03010000 		.4byte	0x103
 3038 009a 6576656E 		.ascii	"eventmask_t\000"
 3038      746D6173 
 3038      6B5F7400 
 3039 00a6 0E010000 		.4byte	0x10e
 3040 00aa 666C6167 		.ascii	"flagsmask_t\000"
 3040      736D6173 
 3040      6B5F7400 
 3041 00b6 19010000 		.4byte	0x119
 3042 00ba 73797374 		.ascii	"systime_t\000"
 3042      696D655F 
 3042      7400
 3043 00c4 24010000 		.4byte	0x124
 3044 00c8 636E745F 		.ascii	"cnt_t\000"
 3044      7400
 3045 00ce 2F010000 		.4byte	0x12f
 3046 00d2 54687265 		.ascii	"Thread\000"
 3046      616400
 3047 00d9 8A020000 		.4byte	0x28a
 3048 00dd 54687265 		.ascii	"ThreadsQueue\000"
 3048      61647351 
 3048      75657565 
 3048      00
 3049 00ea AC020000 		.4byte	0x2ac
 3050 00ee 54687265 		.ascii	"ThreadsList\000"
 3050      6164734C 
 3050      69737400 
 3051 00fa B7020000 		.4byte	0x2b7
 3052 00fe 72656761 		.ascii	"regarm_t\000"
 3052      726D5F74 
 3052      00
 3053 0107 C2020000 		.4byte	0x2c2
 3054 010b 73746B61 		.ascii	"stkalign_t\000"
 3054      6C69676E 
 3054      5F7400
 3055 0116 CD020000 		.4byte	0x2cd
 3056 011a 696E7463 		.ascii	"intctx\000"
 3056      747800
 3057 0121 5B030000 		.4byte	0x35b
 3058 0125 636F6E74 		.ascii	"context\000"
 3058      65787400 
 3059 012d E5030000 		.4byte	0x3e5
 3060 0131 52656164 		.ascii	"ReadyList\000"
 3060      794C6973 
 3060      7400
 3061 013b F0030000 		.4byte	0x3f0
 3062 013f 53656D61 		.ascii	"Semaphore\000"
 3062      70686F72 
 3062      6500
 3063 0149 19040000 		.4byte	0x419
 3064 014d 53656D61 		.ascii	"Semaphore\000"
 3064      70686F72 
 3064      6500
ARM GAS  C:\Users\DNIEL~1\AppData\Local\Temp\ccOPguCq.s 			page 56


 3065 0157 24040000 		.4byte	0x424
 3066 015b 4D757465 		.ascii	"Mutex\000"
 3066      7800
 3067 0161 61040000 		.4byte	0x461
 3068 0165 4D757465 		.ascii	"Mutex\000"
 3068      7800
 3069 016b 6C040000 		.4byte	0x46c
 3070 016f 4576656E 		.ascii	"EventListener\000"
 3070      744C6973 
 3070      74656E65 
 3070      7200
 3071 017d 77040000 		.4byte	0x477
 3072 0181 4576656E 		.ascii	"EventListener\000"
 3072      744C6973 
 3072      74656E65 
 3072      7200
 3073 018f C2040000 		.4byte	0x4c2
 3074 0193 4576656E 		.ascii	"EventSource\000"
 3074      74536F75 
 3074      72636500 
 3075 019f DD040000 		.4byte	0x4dd
 3076 01a3 4576656E 		.ascii	"EventSource\000"
 3076      74536F75 
 3076      72636500 
 3077 01af 3A010000 		.4byte	0x13a
 3078 01b3 54687265 		.ascii	"Thread\000"
 3078      616400
 3079 01ba 8E050000 		.4byte	0x58e
 3080 01be 43414E5F 		.ascii	"CAN_TxMailBox_TypeDef\000"
 3080      54784D61 
 3080      696C426F 
 3080      785F5479 
 3080      70654465 
 3081 01d4 E0050000 		.4byte	0x5e0
 3082 01d8 43414E5F 		.ascii	"CAN_FIFOMailBox_TypeDef\000"
 3082      4649464F 
 3082      4D61696C 
 3082      426F785F 
 3082      54797065 
 3083 01f0 14060000 		.4byte	0x614
 3084 01f4 43414E5F 		.ascii	"CAN_FilterRegister_TypeDef\000"
 3084      46696C74 
 3084      65725265 
 3084      67697374 
 3084      65725F54 
 3085 020f D2070000 		.4byte	0x7d2
 3086 0213 43414E5F 		.ascii	"CAN_TypeDef\000"
 3086      54797065 
 3086      44656600 
 3087 021f 51080000 		.4byte	0x851
 3088 0223 4750494F 		.ascii	"GPIO_TypeDef\000"
 3088      5F547970 
 3088      65446566 
 3088      00
 3089 0230 84080000 		.4byte	0x884
 3090 0234 63616E73 		.ascii	"canstate_t\000"
 3090      74617465 
ARM GAS  C:\Users\DNIEL~1\AppData\Local\Temp\ccOPguCq.s 			page 57


 3090      5F7400
 3091 023f 7D090000 		.4byte	0x97d
 3092 0243 43414E54 		.ascii	"CANTxFrame\000"
 3092      78467261 
 3092      6D6500
 3093 024e 830A0000 		.4byte	0xa83
 3094 0252 43414E52 		.ascii	"CANRxFrame\000"
 3094      78467261 
 3094      6D6500
 3095 025d B40A0000 		.4byte	0xab4
 3096 0261 43414E43 		.ascii	"CANConfig\000"
 3096      6F6E6669 
 3096      6700
 3097 026b 710B0000 		.4byte	0xb71
 3098 026f 43414E44 		.ascii	"CANDriver\000"
 3098      72697665 
 3098      7200
 3099 0279 7D0B0000 		.4byte	0xb7d
 3100 027d 6D656173 		.ascii	"measChannels\000"
 3100      4368616E 
 3100      6E656C73 
 3100      00
 3101 028a A80B0000 		.4byte	0xba8
 3102 028e 63616E53 		.ascii	"canState\000"
 3102      74617465 
 3102      00
 3103 0297 D90B0000 		.4byte	0xbd9
 3104 029b 63616E4D 		.ascii	"canMessages\000"
 3104      65737361 
 3104      67657300 
 3105 02a7 00000000 		.4byte	0x0
 3106              		.section	.debug_aranges,"",%progbits
 3107 0000 2C000000 		.4byte	0x2c
 3108 0004 0200     		.2byte	0x2
 3109 0006 00000000 		.4byte	.Ldebug_info0
 3110 000a 04       		.byte	0x4
 3111 000b 00       		.byte	0x0
 3112 000c 0000     		.2byte	0x0
 3113 000e 0000     		.2byte	0x0
 3114 0010 00000000 		.4byte	.LFB57
 3115 0014 CC000000 		.4byte	.LFE57-.LFB57
 3116 0018 00000000 		.4byte	.LFB56
 3117 001c B0000000 		.4byte	.LFE56-.LFB56
 3118 0020 00000000 		.4byte	.LFB58
 3119 0024 FC000000 		.4byte	.LFE58-.LFB58
 3120 0028 00000000 		.4byte	0x0
 3121 002c 00000000 		.4byte	0x0
 3122              		.section	.debug_ranges,"",%progbits
 3123              	.Ldebug_ranges0:
 3124 0000 00000000 		.4byte	.LFB57
 3125 0004 CC000000 		.4byte	.LFE57
 3126 0008 00000000 		.4byte	.LFB56
 3127 000c B0000000 		.4byte	.LFE56
 3128 0010 00000000 		.4byte	.LFB58
 3129 0014 FC000000 		.4byte	.LFE58
 3130 0018 00000000 		.4byte	0x0
 3131 001c 00000000 		.4byte	0x0
ARM GAS  C:\Users\DNIEL~1\AppData\Local\Temp\ccOPguCq.s 			page 58


 3132              		.section	.debug_str,"MS",%progbits,1
 3133              	.LASF154:
 3134 0000 72786D73 		.ascii	"rxmsg\000"
 3134      6700
 3135              	.LASF141:
 3136 0006 63616E4D 		.ascii	"canMessages\000"
 3136      65737361 
 3136      67657300 
 3137              	.LASF38:
 3138 0012 705F7469 		.ascii	"p_time\000"
 3138      6D6500
 3139              	.LASF158:
 3140 0019 72785F69 		.ascii	"rx_id\000"
 3140      6400
 3141              	.LASF73:
 3142 001f 7264796D 		.ascii	"rdymsg\000"
 3142      736700
 3143              	.LASF14:
 3144 0026 75696E74 		.ascii	"uint64_t\000"
 3144      36345F74 
 3144      00
 3145              	.LASF117:
 3146 002f 43414E43 		.ascii	"CANConfig\000"
 3146      6F6E6669 
 3146      6700
 3147              	.LASF101:
 3148 0039 43414E5F 		.ascii	"CAN_TypeDef\000"
 3148      54797065 
 3148      44656600 
 3149              	.LASF164:
 3150 0045 433A5C44 		.ascii	"C:\\Dani\\MegaLux\\Repo\\LuxControl\\LuxControl\\lu"
 3150      616E695C 
 3150      4D656761 
 3150      4C75785C 
 3150      5265706F 
 3151 0072 78636F6E 		.ascii	"xcontrol\\firmware\000"
 3151      74726F6C 
 3151      5C666972 
 3151      6D776172 
 3151      6500
 3152              	.LASF6:
 3153 0084 6C6F6E67 		.ascii	"long long unsigned int\000"
 3153      206C6F6E 
 3153      6720756E 
 3153      7369676E 
 3153      65642069 
 3154              	.LASF74:
 3155 009b 65786974 		.ascii	"exitcode\000"
 3155      636F6465 
 3155      00
 3156              	.LASF113:
 3157 00a4 64617461 		.ascii	"data32\000"
 3157      333200
 3158              	.LASF29:
 3159 00ab 705F7072 		.ascii	"p_prio\000"
 3159      696F00
 3160              	.LASF166:
ARM GAS  C:\Users\DNIEL~1\AppData\Local\Temp\ccOPguCq.s 			page 59


 3161 00b2 6469705F 		.ascii	"dip_name\000"
 3161      6E616D65 
 3161      00
 3162              	.LASF5:
 3163 00bb 6C6F6E67 		.ascii	"long long int\000"
 3163      206C6F6E 
 3163      6720696E 
 3163      7400
 3164              	.LASF1:
 3165 00c9 7369676E 		.ascii	"signed char\000"
 3165      65642063 
 3165      68617200 
 3166              	.LASF107:
 3167 00d5 43414E5F 		.ascii	"CAN_STARTING\000"
 3167      53544152 
 3167      54494E47 
 3167      00
 3168              	.LASF102:
 3169 00e2 42535252 		.ascii	"BSRR\000"
 3169      00
 3170              	.LASF45:
 3171 00e7 705F6D70 		.ascii	"p_mpool\000"
 3171      6F6F6C00 
 3172              	.LASF63:
 3173 00ef 6D5F7175 		.ascii	"m_queue\000"
 3173      65756500 
 3174              	.LASF120:
 3175 00f7 74787365 		.ascii	"txsem\000"
 3175      6D00
 3176              	.LASF75:
 3177 00fd 77746F62 		.ascii	"wtobjp\000"
 3177      6A7000
 3178              	.LASF19:
 3179 0104 74736C69 		.ascii	"tslices_t\000"
 3179      6365735F 
 3179      7400
 3180              	.LASF118:
 3181 010e 73746174 		.ascii	"state\000"
 3181      6500
 3182              	.LASF78:
 3183 0114 54444C52 		.ascii	"TDLR\000"
 3183      00
 3184              	.LASF7:
 3185 0119 6C6F6E67 		.ascii	"long int\000"
 3185      20696E74 
 3185      00
 3186              	.LASF17:
 3187 0122 74737461 		.ascii	"tstate_t\000"
 3187      74655F74 
 3187      00
 3188              	.LASF80:
 3189 012b 43414E5F 		.ascii	"CAN_TxMailBox_TypeDef\000"
 3189      54784D61 
 3189      696C426F 
 3189      785F5479 
 3189      70654465 
 3190              	.LASF148:
ARM GAS  C:\Users\DNIEL~1\AppData\Local\Temp\ccOPguCq.s 			page 60


 3191 0141 74785F73 		.ascii	"tx_status\000"
 3191      74617475 
 3191      7300
 3192              	.LASF36:
 3193 014b 705F7265 		.ascii	"p_refs\000"
 3193      667300
 3194              	.LASF159:
 3195 0152 6D657373 		.ascii	"messages\000"
 3195      61676573 
 3195      00
 3196              	.LASF11:
 3197 015b 75696E74 		.ascii	"uint16_t\000"
 3197      31365F74 
 3197      00
 3198              	.LASF115:
 3199 0164 54494D45 		.ascii	"TIME\000"
 3199      00
 3200              	.LASF31:
 3201 0169 705F6E65 		.ascii	"p_newer\000"
 3201      77657200 
 3202              	.LASF60:
 3203 0171 735F7175 		.ascii	"s_queue\000"
 3203      65756500 
 3204              	.LASF140:
 3205 0179 43414E5F 		.ascii	"CAN_NUM_CH\000"
 3205      4E554D5F 
 3205      434800
 3206              	.LASF129:
 3207 0184 4D454153 		.ascii	"MEAS_V_OUT\000"
 3207      5F565F4F 
 3207      555400
 3208              	.LASF108:
 3209 018f 43414E5F 		.ascii	"CAN_READY\000"
 3209      52454144 
 3209      5900
 3210              	.LASF86:
 3211 0199 52463052 		.ascii	"RF0R\000"
 3211      00
 3212              	.LASF122:
 3213 019e 72786675 		.ascii	"rxfull_event\000"
 3213      6C6C5F65 
 3213      76656E74 
 3213      00
 3214              	.LASF55:
 3215 01ab 725F6E65 		.ascii	"r_newer\000"
 3215      77657200 
 3216              	.LASF48:
 3217 01b3 72656761 		.ascii	"regarm_t\000"
 3217      726D5F74 
 3217      00
 3218              	.LASF157:
 3219 01bc 74785F69 		.ascii	"tx_id\000"
 3219      6400
 3220              	.LASF77:
 3221 01c2 54445452 		.ascii	"TDTR\000"
 3221      00
 3222              	.LASF71:
ARM GAS  C:\Users\DNIEL~1\AppData\Local\Temp\ccOPguCq.s 			page 61


 3223 01c7 4576656E 		.ascii	"EventSource\000"
 3223      74536F75 
 3223      72636500 
 3224              	.LASF25:
 3225 01d3 636E745F 		.ascii	"cnt_t\000"
 3225      7400
 3226              	.LASF0:
 3227 01d9 756E7369 		.ascii	"unsigned int\000"
 3227      676E6564 
 3227      20696E74 
 3227      00
 3228              	.LASF152:
 3229 01e6 43414E44 		.ascii	"CAND1\000"
 3229      3100
 3230              	.LASF89:
 3231 01ec 7354784D 		.ascii	"sTxMailBox\000"
 3231      61696C42 
 3231      6F7800
 3232              	.LASF40:
 3233 01f7 705F6D73 		.ascii	"p_msgqueue\000"
 3233      67717565 
 3233      756500
 3234              	.LASF104:
 3235 0202 4750494F 		.ascii	"GPIO_TypeDef\000"
 3235      5F547970 
 3235      65446566 
 3235      00
 3236              	.LASF81:
 3237 020f 52445452 		.ascii	"RDTR\000"
 3237      00
 3238              	.LASF114:
 3239 0214 43414E54 		.ascii	"CANTxFrame\000"
 3239      78467261 
 3239      6D6500
 3240              	.LASF103:
 3241 021f 4C434B52 		.ascii	"LCKR\000"
 3241      00
 3242              	.LASF98:
 3243 0224 46413152 		.ascii	"FA1R\000"
 3243      00
 3244              	.LASF61:
 3245 0229 735F636E 		.ascii	"s_cnt\000"
 3245      7400
 3246              	.LASF4:
 3247 022f 73686F72 		.ascii	"short unsigned int\000"
 3247      7420756E 
 3247      7369676E 
 3247      65642069 
 3247      6E7400
 3248              	.LASF87:
 3249 0242 52463152 		.ascii	"RF1R\000"
 3249      00
 3250              	.LASF138:
 3251 0247 43414E5F 		.ascii	"CAN_LC\000"
 3251      4C4300
 3252              	.LASF85:
 3253 024e 43414E5F 		.ascii	"CAN_FilterRegister_TypeDef\000"
ARM GAS  C:\Users\DNIEL~1\AppData\Local\Temp\ccOPguCq.s 			page 62


 3253      46696C74 
 3253      65725265 
 3253      67697374 
 3253      65725F54 
 3254              	.LASF21:
 3255 0269 6D73675F 		.ascii	"msg_t\000"
 3255      7400
 3256              	.LASF67:
 3257 026f 656C5F6E 		.ascii	"el_next\000"
 3257      65787400 
 3258              	.LASF16:
 3259 0277 746D6F64 		.ascii	"tmode_t\000"
 3259      655F7400 
 3260              	.LASF47:
 3261 027f 54687265 		.ascii	"ThreadsList\000"
 3261      6164734C 
 3261      69737400 
 3262              	.LASF100:
 3263 028b 7346696C 		.ascii	"sFilterRegister\000"
 3263      74657252 
 3263      65676973 
 3263      74657200 
 3264              	.LASF22:
 3265 029b 6576656E 		.ascii	"eventmask_t\000"
 3265      746D6173 
 3265      6B5F7400 
 3266              	.LASF62:
 3267 02a7 4D757465 		.ascii	"Mutex\000"
 3267      7800
 3268              	.LASF147:
 3269 02ad 63616E5F 		.ascii	"can_rx\000"
 3269      727800
 3270              	.LASF130:
 3271 02b4 4D454153 		.ascii	"MEAS_IN_CURR\000"
 3271      5F494E5F 
 3271      43555252 
 3271      00
 3272              	.LASF160:
 3273 02c1 63616E5F 		.ascii	"can_rx_wa\000"
 3273      72785F77 
 3273      6100
 3274              	.LASF49:
 3275 02cb 73746B61 		.ascii	"stkalign_t\000"
 3275      6C69676E 
 3275      5F7400
 3276              	.LASF23:
 3277 02d6 666C6167 		.ascii	"flagsmask_t\000"
 3277      736D6173 
 3277      6B5F7400 
 3278              	.LASF142:
 3279 02e2 43414E5F 		.ascii	"CAN_MESSAGES_1\000"
 3279      4D455353 
 3279      41474553 
 3279      5F3100
 3280              	.LASF143:
 3281 02f1 43414E5F 		.ascii	"CAN_MESSAGES_2\000"
 3281      4D455353 
ARM GAS  C:\Users\DNIEL~1\AppData\Local\Temp\ccOPguCq.s 			page 63


 3281      41474553 
 3281      5F3200
 3282              	.LASF144:
 3283 0300 43414E5F 		.ascii	"CAN_MESSAGES_3\000"
 3283      4D455353 
 3283      41474553 
 3283      5F3300
 3284              	.LASF135:
 3285 030f 43414E5F 		.ascii	"CAN_SM\000"
 3285      534D00
 3286              	.LASF109:
 3287 0316 43414E5F 		.ascii	"CAN_SLEEP\000"
 3287      534C4545 
 3287      5000
 3288              	.LASF156:
 3289 0320 63616E63 		.ascii	"cancfg\000"
 3289      666700
 3290              	.LASF111:
 3291 0327 64617461 		.ascii	"data8\000"
 3291      3800
 3292              	.LASF127:
 3293 032d 43414E44 		.ascii	"CANDriver\000"
 3293      72697665 
 3293      7200
 3294              	.LASF139:
 3295 0337 43414E5F 		.ascii	"CAN_WAIT\000"
 3295      57414954 
 3295      00
 3296              	.LASF32:
 3297 0340 705F6F6C 		.ascii	"p_older\000"
 3297      64657200 
 3298              	.LASF54:
 3299 0348 725F6374 		.ascii	"r_ctx\000"
 3299      7800
 3300              	.LASF116:
 3301 034e 43414E52 		.ascii	"CANRxFrame\000"
 3301      78467261 
 3301      6D6500
 3302              	.LASF46:
 3303 0359 54687265 		.ascii	"ThreadsQueue\000"
 3303      61647351 
 3303      75657565 
 3303      00
 3304              	.LASF79:
 3305 0366 54444852 		.ascii	"TDHR\000"
 3305      00
 3306              	.LASF57:
 3307 036b 725F6375 		.ascii	"r_current\000"
 3307      7272656E 
 3307      7400
 3308              	.LASF56:
 3309 0375 725F6F6C 		.ascii	"r_older\000"
 3309      64657200 
 3310              	.LASF69:
 3311 037d 656C5F6D 		.ascii	"el_mask\000"
 3311      61736B00 
 3312              	.LASF125:
ARM GAS  C:\Users\DNIEL~1\AppData\Local\Temp\ccOPguCq.s 			page 64


 3313 0385 736C6565 		.ascii	"sleep_event\000"
 3313      705F6576 
 3313      656E7400 
 3314              	.LASF110:
 3315 0391 63616E73 		.ascii	"canstate_t\000"
 3315      74617465 
 3315      5F7400
 3316              	.LASF106:
 3317 039c 43414E5F 		.ascii	"CAN_STOP\000"
 3317      53544F50 
 3317      00
 3318              	.LASF96:
 3319 03a5 46464131 		.ascii	"FFA1R\000"
 3319      5200
 3320              	.LASF132:
 3321 03ab 4D454153 		.ascii	"MEAS_NUM_CH\000"
 3321      5F4E554D 
 3321      5F434800 
 3322              	.LASF124:
 3323 03b7 6572726F 		.ascii	"error_event\000"
 3323      725F6576 
 3323      656E7400 
 3324              	.LASF165:
 3325 03c3 63616E5F 		.ascii	"can_commInit\000"
 3325      636F6D6D 
 3325      496E6974 
 3325      00
 3326              	.LASF18:
 3327 03d0 74726566 		.ascii	"trefs_t\000"
 3327      735F7400 
 3328              	.LASF88:
 3329 03d8 52455345 		.ascii	"RESERVED0\000"
 3329      52564544 
 3329      3000
 3330              	.LASF91:
 3331 03e2 52455345 		.ascii	"RESERVED1\000"
 3331      52564544 
 3331      3100
 3332              	.LASF93:
 3333 03ec 52455345 		.ascii	"RESERVED2\000"
 3333      52564544 
 3333      3200
 3334              	.LASF95:
 3335 03f6 52455345 		.ascii	"RESERVED3\000"
 3335      52564544 
 3335      3300
 3336              	.LASF97:
 3337 0400 52455345 		.ascii	"RESERVED4\000"
 3337      52564544 
 3337      3400
 3338              	.LASF28:
 3339 040a 705F7072 		.ascii	"p_prev\000"
 3339      657600
 3340              	.LASF20:
 3341 0411 74707269 		.ascii	"tprio_t\000"
 3341      6F5F7400 
 3342              	.LASF105:
ARM GAS  C:\Users\DNIEL~1\AppData\Local\Temp\ccOPguCq.s 			page 65


 3343 0419 43414E5F 		.ascii	"CAN_UNINIT\000"
 3343      554E494E 
 3343      495400
 3344              	.LASF15:
 3345 0424 5F426F6F 		.ascii	"_Bool\000"
 3345      6C00
 3346              	.LASF12:
 3347 042a 696E7433 		.ascii	"int32_t\000"
 3347      325F7400 
 3348              	.LASF2:
 3349 0432 756E7369 		.ascii	"unsigned char\000"
 3349      676E6564 
 3349      20636861 
 3349      7200
 3350              	.LASF133:
 3351 0440 6D656173 		.ascii	"measChannels\000"
 3351      4368616E 
 3351      6E656C73 
 3351      00
 3352              	.LASF126:
 3353 044d 77616B65 		.ascii	"wakeup_event\000"
 3353      75705F65 
 3353      76656E74 
 3353      00
 3354              	.LASF68:
 3355 045a 656C5F6C 		.ascii	"el_listener\000"
 3355      69737465 
 3355      6E657200 
 3356              	.LASF151:
 3357 0466 49544D5F 		.ascii	"ITM_RxBuffer\000"
 3357      52784275 
 3357      66666572 
 3357      00
 3358              	.LASF70:
 3359 0473 656C5F66 		.ascii	"el_flags\000"
 3359      6C616773 
 3359      00
 3360              	.LASF43:
 3361 047c 705F6D74 		.ascii	"p_mtxlist\000"
 3361      786C6973 
 3361      7400
 3362              	.LASF3:
 3363 0486 73686F72 		.ascii	"short int\000"
 3363      7420696E 
 3363      7400
 3364              	.LASF34:
 3365 0490 705F7374 		.ascii	"p_state\000"
 3365      61746500 
 3366              	.LASF37:
 3367 0498 705F7072 		.ascii	"p_preempt\000"
 3367      65656D70 
 3367      7400
 3368              	.LASF131:
 3369 04a2 4D454153 		.ascii	"MEAS_OUT_CURR\000"
 3369      5F4F5554 
 3369      5F435552 
 3369      5200
ARM GAS  C:\Users\DNIEL~1\AppData\Local\Temp\ccOPguCq.s 			page 66


 3370              	.LASF53:
 3371 04b0 725F7072 		.ascii	"r_prio\000"
 3371      696F00
 3372              	.LASF76:
 3373 04b7 65776D61 		.ascii	"ewmask\000"
 3373      736B00
 3374              	.LASF27:
 3375 04be 705F6E65 		.ascii	"p_next\000"
 3375      787400
 3376              	.LASF35:
 3377 04c5 705F666C 		.ascii	"p_flags\000"
 3377      61677300 
 3378              	.LASF92:
 3379 04cd 464D3152 		.ascii	"FM1R\000"
 3379      00
 3380              	.LASF26:
 3381 04d2 54687265 		.ascii	"Thread\000"
 3381      616400
 3382              	.LASF146:
 3383 04d9 63616E5F 		.ascii	"can_tx\000"
 3383      747800
 3384              	.LASF161:
 3385 04e0 63616E5F 		.ascii	"can_tx_wa\000"
 3385      74785F77 
 3385      6100
 3386              	.LASF42:
 3387 04ea 705F6570 		.ascii	"p_epending\000"
 3387      656E6469 
 3387      6E6700
 3388              	.LASF99:
 3389 04f5 52455345 		.ascii	"RESERVED5\000"
 3389      52564544 
 3389      3500
 3390              	.LASF13:
 3391 04ff 75696E74 		.ascii	"uint32_t\000"
 3391      33325F74 
 3391      00
 3392              	.LASF52:
 3393 0508 725F7175 		.ascii	"r_queue\000"
 3393      65756500 
 3394              	.LASF123:
 3395 0510 7478656D 		.ascii	"txempty_event\000"
 3395      7074795F 
 3395      6576656E 
 3395      7400
 3396              	.LASF8:
 3397 051e 6C6F6E67 		.ascii	"long unsigned int\000"
 3397      20756E73 
 3397      69676E65 
 3397      6420696E 
 3397      7400
 3398              	.LASF9:
 3399 0530 63686172 		.ascii	"char\000"
 3399      00
 3400              	.LASF119:
 3401 0535 636F6E66 		.ascii	"config\000"
 3401      696700
ARM GAS  C:\Users\DNIEL~1\AppData\Local\Temp\ccOPguCq.s 			page 67


 3402              	.LASF83:
 3403 053c 52444852 		.ascii	"RDHR\000"
 3403      00
 3404              	.LASF153:
 3405 0541 63616E73 		.ascii	"canstate\000"
 3405      74617465 
 3405      00
 3406              	.LASF65:
 3407 054a 6D5F6E65 		.ascii	"m_next\000"
 3407      787400
 3408              	.LASF24:
 3409 0551 73797374 		.ascii	"systime_t\000"
 3409      696D655F 
 3409      7400
 3410              	.LASF44:
 3411 055b 705F7265 		.ascii	"p_realprio\000"
 3411      616C7072 
 3411      696F00
 3412              	.LASF90:
 3413 0566 73464946 		.ascii	"sFIFOMailBox\000"
 3413      4F4D6169 
 3413      6C426F78 
 3413      00
 3414              	.LASF51:
 3415 0573 636F6E74 		.ascii	"context\000"
 3415      65787400 
 3416              	.LASF50:
 3417 057b 696E7463 		.ascii	"intctx\000"
 3417      747800
 3418              	.LASF136:
 3419 0582 43414E5F 		.ascii	"CAN_ML\000"
 3419      4D4C00
 3420              	.LASF163:
 3421 0589 7372632F 		.ascii	"src/can_comm.c\000"
 3421      63616E5F 
 3421      636F6D6D 
 3421      2E6300
 3422              	.LASF59:
 3423 0598 53656D61 		.ascii	"Semaphore\000"
 3423      70686F72 
 3423      6500
 3424              	.LASF155:
 3425 05a2 74786D73 		.ascii	"txmsg\000"
 3425      6700
 3426              	.LASF112:
 3427 05a8 64617461 		.ascii	"data16\000"
 3427      313600
 3428              	.LASF94:
 3429 05af 46533152 		.ascii	"FS1R\000"
 3429      00
 3430              	.LASF72:
 3431 05b4 65735F6E 		.ascii	"es_next\000"
 3431      65787400 
 3432              	.LASF58:
 3433 05bc 52656164 		.ascii	"ReadyList\000"
 3433      794C6973 
 3433      7400
ARM GAS  C:\Users\DNIEL~1\AppData\Local\Temp\ccOPguCq.s 			page 68


 3434              	.LASF84:
 3435 05c6 43414E5F 		.ascii	"CAN_FIFOMailBox_TypeDef\000"
 3435      4649464F 
 3435      4D61696C 
 3435      426F785F 
 3435      54797065 
 3436              	.LASF150:
 3437 05de 726C6973 		.ascii	"rlist\000"
 3437      7400
 3438              	.LASF10:
 3439 05e4 75696E74 		.ascii	"uint8_t\000"
 3439      385F7400 
 3440              	.LASF145:
 3441 05ec 43414E5F 		.ascii	"CAN_NUM_MESS\000"
 3441      4E554D5F 
 3441      4D455353 
 3441      00
 3442              	.LASF121:
 3443 05f9 72787365 		.ascii	"rxsem\000"
 3443      6D00
 3444              	.LASF149:
 3445 05ff 63616E5F 		.ascii	"can_tx_msg\000"
 3445      74785F6D 
 3445      736700
 3446              	.LASF137:
 3447 060a 43414E5F 		.ascii	"CAN_RPY\000"
 3447      52505900 
 3448              	.LASF66:
 3449 0612 4576656E 		.ascii	"EventListener\000"
 3449      744C6973 
 3449      74656E65 
 3449      7200
 3450              	.LASF134:
 3451 0620 63616E53 		.ascii	"canState\000"
 3451      74617465 
 3451      00
 3452              	.LASF162:
 3453 0629 474E5520 		.ascii	"GNU C 4.5.2\000"
 3453      4320342E 
 3453      352E3200 
 3454              	.LASF33:
 3455 0635 705F6E61 		.ascii	"p_name\000"
 3455      6D6500
 3456              	.LASF41:
 3457 063c 705F6D73 		.ascii	"p_msg\000"
 3457      6700
 3458              	.LASF82:
 3459 0642 52444C52 		.ascii	"RDLR\000"
 3459      00
 3460              	.LASF128:
 3461 0647 4D454153 		.ascii	"MEAS_NTC\000"
 3461      5F4E5443 
 3461      00
 3462              	.LASF64:
 3463 0650 6D5F6F77 		.ascii	"m_owner\000"
 3463      6E657200 
 3464              	.LASF30:
ARM GAS  C:\Users\DNIEL~1\AppData\Local\Temp\ccOPguCq.s 			page 69


 3465 0658 705F6374 		.ascii	"p_ctx\000"
 3465      7800
 3466              	.LASF39:
 3467 065e 705F7761 		.ascii	"p_waiting\000"
 3467      6974696E 
 3467      6700
 3468              		.ident	"GCC: (Sourcery G++ Lite 2011.03-42) 4.5.2"
ARM GAS  C:\Users\DNIEL~1\AppData\Local\Temp\ccOPguCq.s 			page 70


DEFINED SYMBOLS
                            *ABS*:00000000 can_comm.c
C:\Users\DNIEL~1\AppData\Local\Temp\ccOPguCq.s:24     .text.can_tx:00000000 $t
C:\Users\DNIEL~1\AppData\Local\Temp\ccOPguCq.s:29     .text.can_tx:00000000 can_tx
C:\Users\DNIEL~1\AppData\Local\Temp\ccOPguCq.s:164    .text.can_tx:000000b8 $d
C:\Users\DNIEL~1\AppData\Local\Temp\ccOPguCq.s:173    .text.can_rx:00000000 $t
C:\Users\DNIEL~1\AppData\Local\Temp\ccOPguCq.s:178    .text.can_rx:00000000 can_rx
C:\Users\DNIEL~1\AppData\Local\Temp\ccOPguCq.s:276    .text.can_rx:00000090 $d
C:\Users\DNIEL~1\AppData\Local\Temp\ccOPguCq.s:288    .text.can_commInit:00000000 $t
C:\Users\DNIEL~1\AppData\Local\Temp\ccOPguCq.s:294    .text.can_commInit:00000000 can_commInit
C:\Users\DNIEL~1\AppData\Local\Temp\ccOPguCq.s:434    .text.can_commInit:000000d4 $d
C:\Users\DNIEL~1\AppData\Local\Temp\ccOPguCq.s:492    .bss.canstate:00000000 canstate
C:\Users\DNIEL~1\AppData\Local\Temp\ccOPguCq.s:480    .bss.canMessages:00000000 canMessages
C:\Users\DNIEL~1\AppData\Local\Temp\ccOPguCq.s:450    .bss.can_tx_wa:00000000 $d
C:\Users\DNIEL~1\AppData\Local\Temp\ccOPguCq.s:454    .bss.can_tx_wa:00000000 can_tx_wa
C:\Users\DNIEL~1\AppData\Local\Temp\ccOPguCq.s:457    .bss.rx_id:00000000 $d
C:\Users\DNIEL~1\AppData\Local\Temp\ccOPguCq.s:461    .bss.rx_id:00000000 rx_id
C:\Users\DNIEL~1\AppData\Local\Temp\ccOPguCq.s:464    .bss.txmsg:00000000 $d
C:\Users\DNIEL~1\AppData\Local\Temp\ccOPguCq.s:468    .bss.txmsg:00000000 txmsg
C:\Users\DNIEL~1\AppData\Local\Temp\ccOPguCq.s:471    .bss.can_rx_wa:00000000 $d
C:\Users\DNIEL~1\AppData\Local\Temp\ccOPguCq.s:475    .bss.can_rx_wa:00000000 can_rx_wa
C:\Users\DNIEL~1\AppData\Local\Temp\ccOPguCq.s:481    .bss.canMessages:00000000 $d
C:\Users\DNIEL~1\AppData\Local\Temp\ccOPguCq.s:483    .rodata.str1.4:00000000 $d
C:\Users\DNIEL~1\AppData\Local\Temp\ccOPguCq.s:493    .bss.canstate:00000000 $d
C:\Users\DNIEL~1\AppData\Local\Temp\ccOPguCq.s:495    .bss.messages:00000000 $d
C:\Users\DNIEL~1\AppData\Local\Temp\ccOPguCq.s:499    .bss.messages:00000000 messages
C:\Users\DNIEL~1\AppData\Local\Temp\ccOPguCq.s:502    .bss.rxmsg:00000000 $d
C:\Users\DNIEL~1\AppData\Local\Temp\ccOPguCq.s:506    .bss.rxmsg:00000000 rxmsg
C:\Users\DNIEL~1\AppData\Local\Temp\ccOPguCq.s:509    .bss.tx_id:00000000 $d
C:\Users\DNIEL~1\AppData\Local\Temp\ccOPguCq.s:513    .bss.tx_id:00000000 tx_id
C:\Users\DNIEL~1\AppData\Local\Temp\ccOPguCq.s:516    .rodata.cancfg:00000000 $d
C:\Users\DNIEL~1\AppData\Local\Temp\ccOPguCq.s:520    .rodata.cancfg:00000000 cancfg
                     .debug_frame:00000010 $d
C:\Users\DNIEL~1\AppData\Local\Temp\ccOPguCq.s:172    .text.can_tx:000000cc $t
C:\Users\DNIEL~1\AppData\Local\Temp\ccOPguCq.s:449    .text.can_commInit:000000fc $t

UNDEFINED SYMBOLS
measGetValue
SPV1020VIN
canTransmit
chThdSleep
SPV1020STATUS
SPV1020PWM
SPV1020CURR_IN
rlist
CAND1
chEvtRegisterMask
chEvtWaitAnyTimeout
chEvtUnregister
canReceive
canStart
chThdCreateStatic
