ARM GAS  C:\Users\DNIEL~1\AppData\Local\Temp\cceiCCYI.s 			page 1


   1              		.syntax unified
   2              		.cpu cortex-m3
   3              		.fpu softvfp
   4              		.eabi_attribute 20, 1
   5              		.eabi_attribute 21, 1
   6              		.eabi_attribute 23, 3
   7              		.eabi_attribute 24, 1
   8              		.eabi_attribute 25, 1
   9              		.eabi_attribute 26, 1
  10              		.eabi_attribute 30, 2
  11              		.eabi_attribute 18, 4
  12              		.thumb
  13              		.file	"chcore_v7m.c"
  20 0000 51020000 		.text
  20      02007401 
  20      00000201 
  20      FB0E0D00 
  20      01010101 
  21              	.Ltext0:
  22              		.cfi_sections	.debug_frame
  23              		.section	.text._port_switch_from_isr,"ax",%progbits
  24              		.align	2
  25              		.p2align 4,,15
  26              		.global	_port_switch_from_isr
  27              		.thumb
  28              		.thumb_func
  29              		.type	_port_switch_from_isr, %function
  30              	_port_switch_from_isr:
  31              	.LFB6:
  32              		.file 1 "../../../ChibiOS/os/ports/GCC/ARMCMx/chcore_v7m.c"
  33              		.loc 1 200 0
  34              		.cfi_startproc
  35              		@ Naked Function: prologue and epilogue provided by programmer.
  36              		@ args = 0, pretend = 0, frame = 0
  37              		@ frame_needed = 0, uses_anonymous_args = 0
  38              		.loc 1 203 0
  39 0000 FFF7FEFF 		bl	chSchDoReschedule
  40              		.loc 1 205 0
  41              	@ 205 "../../../ChibiOS/os/ports/GCC/ARMCMx/chcore_v7m.c" 1
  42              		_port_exit_from_isr:
  43              	@ 0 "" 2
  44              		.loc 1 207 0
  45              	@ 207 "../../../ChibiOS/os/ports/GCC/ARMCMx/chcore_v7m.c" 1
  46 0004 00DF     		svc     #0
  47              	@ 0 "" 2
  48              		.loc 1 214 0
  49              		.thumb
  50              		.cfi_endproc
  51              	.LFE6:
  52              		.size	_port_switch_from_isr, .-_port_switch_from_isr
  53 0006 00BFAFF3 		.section	.text.SVCallVector,"ax",%progbits
ARM GAS  C:\Users\DNIEL~1\AppData\Local\Temp\cceiCCYI.s 			page 2


  53      0080AFF3 
  53      0080
  54              		.align	2
  55              		.p2align 4,,15
  56              		.global	SVCallVector
  57              		.thumb
  58              		.thumb_func
  59              		.type	SVCallVector, %function
  60              	SVCallVector:
  61              	.LFB1:
  62              		.loc 1 58 0
  63              		.cfi_startproc
  64              		@ args = 0, pretend = 0, frame = 0
  65              		@ frame_needed = 0, uses_anonymous_args = 0
  66 0000 00B5     		push	{lr}
  67              	.LCFI0:
  68              		.cfi_def_cfa_offset 4
  69              		.loc 1 62 0
  70              	@ 62 "../../../ChibiOS/os/ports/GCC/ARMCMx/chcore_v7m.c" 1
  71 0002 EFF30983 		mrs     r3, PSP
  72              	@ 0 "" 2
  73              	.LVL0:
  74              		.loc 1 66 0
  75              		.thumb
  76 0006 2033     		adds	r3, r3, #32
  77              	.LVL1:
  78              		.loc 1 73 0
  79              	@ 73 "../../../ChibiOS/os/ports/GCC/ARMCMx/chcore_v7m.c" 1
  80 0008 83F30988 		msr     PSP, r3
  81              	@ 0 "" 2
  82              		.loc 1 74 0
  83              	@ 74 "../../../ChibiOS/os/ports/GCC/ARMCMx/chcore_v7m.c" 1
  84 000c FFF7FEFF 		bl      _port_unlock
  85              	@ 0 "" 2
  86              	.LVL2:
  87              		.loc 1 75 0
  88              		.thumb
  89 0010 5DF804FB 		ldr	pc, [sp], #4
  90              		.cfi_offset 14, -4
  91              		.cfi_endproc
  92              	.LFE1:
  93              		.size	SVCallVector, .-SVCallVector
  94 0014 AFF30080 		.section	.text._port_init,"ax",%progbits
  94      AFF30080 
  94      AFF30080 
  95              		.align	2
  96              		.p2align 4,,15
  97              		.global	_port_init
  98              		.thumb
  99              		.thumb_func
 100              		.type	_port_init, %function
 101              	_port_init:
 102              	.LFB2:
 103              		.loc 1 111 0
 104              		.cfi_startproc
 105              		@ args = 0, pretend = 0, frame = 0
 106              		@ frame_needed = 0, uses_anonymous_args = 0
ARM GAS  C:\Users\DNIEL~1\AppData\Local\Temp\cceiCCYI.s 			page 3


 107              		.loc 1 114 0
 108 0000 0A4B     		ldr	r3, .L4
 109 0002 0022     		movs	r2, #0
 110              		.loc 1 111 0
 111 0004 10B5     		push	{r4, lr}
 112              	.LCFI1:
 113              		.cfi_def_cfa_offset 8
 114              		.loc 1 114 0
 115 0006 9A60     		str	r2, [r3, #8]
 116              		.loc 1 115 0
 117 0008 094A     		ldr	r2, .L4+4
 118              		.loc 1 118 0
 119 000a 0720     		movs	r0, #7
 120 000c 1021     		movs	r1, #16
 121              		.loc 1 115 0
 122 000e DA60     		str	r2, [r3, #12]
 123              		.loc 1 118 0
 124              		.cfi_offset 14, -4
 125              		.cfi_offset 4, -8
 126 0010 FFF7FEFF 		bl	nvicSetSystemHandlerPriority
 127              		.loc 1 120 0
 128 0014 0A20     		movs	r0, #10
 129 0016 4FF40071 		mov	r1, #512
 130 001a FFF7FEFF 		bl	nvicSetSystemHandlerPriority
 131              		.loc 1 122 0
 132 001e 0B20     		movs	r0, #11
 133 0020 8021     		movs	r1, #128
 134              		.loc 1 124 0
 135 0022 BDE81040 		pop	{r4, lr}
 136              		.loc 1 122 0
 137 0026 FFF7FEBF 		b	nvicSetSystemHandlerPriority
 138              	.L5:
 139 002a 00BF     		.align	2
 140              	.L4:
 141 002c 00ED00E0 		.word	-536810240
 142 0030 0003FA05 		.word	100270848
 143              		.cfi_endproc
 144              	.LFE2:
 145              		.size	_port_init, .-_port_init
 146 0034 AFF30080 		.section	.text._port_lock,"ax",%progbits
 146      AFF30080 
 146      AFF30080 
 147              		.align	2
 148              		.p2align 4,,15
 149              		.global	_port_lock
 150              		.thumb
 151              		.thumb_func
 152              		.type	_port_lock, %function
 153              	_port_lock:
 154              	.LFB3:
 155              		.loc 1 127 0
 156              		.cfi_startproc
 157              		@ args = 0, pretend = 0, frame = 0
 158              		@ frame_needed = 0, uses_anonymous_args = 0
 159              		@ link register save eliminated.
 160              		.loc 1 128 0
 161 0000 2023     		movs	r3, #32
ARM GAS  C:\Users\DNIEL~1\AppData\Local\Temp\cceiCCYI.s 			page 4


 162              	.LVL3:
 163              		.loc 1 129 0
 164              	@ 129 "../../../ChibiOS/os/ports/GCC/ARMCMx/chcore_v7m.c" 1
 165 0002 83F31188 		msr     BASEPRI, r3
 166              	@ 0 "" 2
 167              	.LVL4:
 168              		.loc 1 130 0
 169              		.thumb
 170 0006 7047     		bx	lr
 171              		.cfi_endproc
 172              	.LFE3:
 173              		.size	_port_lock, .-_port_lock
 174 0008 AFF30080 		.section	.text._port_unlock,"ax",%progbits
 174      AFF30080 
 175              		.align	2
 176              		.p2align 4,,15
 177              		.global	_port_unlock
 178              		.thumb
 179              		.thumb_func
 180              		.type	_port_unlock, %function
 181              	_port_unlock:
 182              	.LFB4:
 183              		.loc 1 132 0
 184              		.cfi_startproc
 185              		@ args = 0, pretend = 0, frame = 0
 186              		@ frame_needed = 0, uses_anonymous_args = 0
 187              		@ link register save eliminated.
 188              		.loc 1 133 0
 189 0000 0023     		movs	r3, #0
 190              	.LVL5:
 191              		.loc 1 134 0
 192              	@ 134 "../../../ChibiOS/os/ports/GCC/ARMCMx/chcore_v7m.c" 1
 193 0002 83F31188 		msr     BASEPRI, r3
 194              	@ 0 "" 2
 195              	.LVL6:
 196              		.loc 1 135 0
 197              		.thumb
 198 0006 7047     		bx	lr
 199              		.cfi_endproc
 200              	.LFE4:
 201              		.size	_port_unlock, .-_port_unlock
 202 0008 AFF30080 		.section	.text._port_irq_epilogue,"ax",%progbits
 202      AFF30080 
 203              		.align	2
 204              		.p2align 4,,15
 205              		.global	_port_irq_epilogue
 206              		.thumb
 207              		.thumb_func
 208              		.type	_port_irq_epilogue, %function
 209              	_port_irq_epilogue:
 210              	.LFB5:
 211              		.loc 1 141 0
 212              		.cfi_startproc
 213              		@ args = 0, pretend = 0, frame = 0
 214              		@ frame_needed = 0, uses_anonymous_args = 0
 215 0000 00B5     		push	{lr}
 216              	.LCFI2:
ARM GAS  C:\Users\DNIEL~1\AppData\Local\Temp\cceiCCYI.s 			page 5


 217              		.cfi_def_cfa_offset 4
 218              		.loc 1 143 0
 219              	@ 143 "../../../ChibiOS/os/ports/GCC/ARMCMx/chcore_v7m.c" 1
 220 0002 FFF7FEFF 		bl      _port_lock
 221              	@ 0 "" 2
 222              		.loc 1 144 0
 223              		.thumb
 224 0006 1748     		ldr	r0, .L16
 225 0008 4368     		ldr	r3, [r0, #4]
 226 000a 13F4006F 		tst	r3, #2048
 227 000e 17D0     		beq	.L9
 228              		.cfi_offset 14, -4
 229              	.LBB2:
 230              		.loc 1 148 0
 231              	@ 148 "../../../ChibiOS/os/ports/GCC/ARMCMx/chcore_v7m.c" 1
 232 0010 EFF30983 		mrs     r3, PSP
 233              	@ 0 "" 2
 234              	.LVL7:
 235              		.loc 1 152 0
 236              		.thumb
 237 0014 203B     		subs	r3, r3, #32
 238              	.LVL8:
 239              		.loc 1 153 0
 240              	@ 153 "../../../ChibiOS/os/ports/GCC/ARMCMx/chcore_v7m.c" 1
 241 0016 83F30988 		msr     PSP, r3
 242              	@ 0 "" 2
 243              		.loc 1 158 0
 244              		.thumb
 245 001a 1349     		ldr	r1, .L16+4
 246              		.loc 1 154 0
 247 001c 4FF08070 		mov	r0, #16777216
 248              		.loc 1 158 0
 249 0020 8A69     		ldr	r2, [r1, #24]
 250              		.loc 1 154 0
 251 0022 D861     		str	r0, [r3, #28]
 252              		.loc 1 158 0
 253 0024 D07F     		ldrb	r0, [r2, #31]	@ zero_extendqisi2
 254 0026 78B1     		cbz	r0, .L10
 255              		.loc 1 158 0 is_stmt 0 discriminator 1
 256 0028 0868     		ldr	r0, [r1, #0]
 257 002a 9268     		ldr	r2, [r2, #8]
 258 002c 8168     		ldr	r1, [r0, #8]
 259 002e 9142     		cmp	r1, r2
 260 0030 94BF     		ite	ls
 261 0032 0022     		movls	r2, #0
 262 0034 0122     		movhi	r2, #1
 263 0036 82B1     		cbz	r2, .L12
 264              	.L15:
 265              		.loc 1 160 0 is_stmt 1
 266 0038 0C4A     		ldr	r2, .L16+8
 267 003a 9A61     		str	r2, [r3, #24]
 268 003c 5DF804FB 		ldr	pc, [sp], #4
 269              	.LVL9:
 270              	.L9:
 271              	.LBE2:
 272              		.loc 1 190 0
 273              	@ 190 "../../../ChibiOS/os/ports/GCC/ARMCMx/chcore_v7m.c" 1
ARM GAS  C:\Users\DNIEL~1\AppData\Local\Temp\cceiCCYI.s 			page 6


 274 0040 FFF7FEFF 		bl      _port_unlock
 275              	@ 0 "" 2
 276              		.thumb
 277 0044 5DF804FB 		ldr	pc, [sp], #4
 278              	.LVL10:
 279              	.L10:
 280              	.LBB3:
 281              		.loc 1 158 0 discriminator 2
 282 0048 0868     		ldr	r0, [r1, #0]
 283 004a 9268     		ldr	r2, [r2, #8]
 284 004c 8168     		ldr	r1, [r0, #8]
 285 004e 9142     		cmp	r1, r2
 286 0050 34BF     		ite	cc
 287 0052 0022     		movcc	r2, #0
 288 0054 0122     		movcs	r2, #1
 289 0056 002A     		cmp	r2, #0
 290 0058 EED1     		bne	.L15
 291              	.L12:
 292              		.loc 1 169 0
 293 005a 0549     		ldr	r1, .L16+12
 294 005c 9961     		str	r1, [r3, #24]
 295 005e 5DF804FB 		ldr	pc, [sp], #4
 296              	.L17:
 297 0062 00BF     		.align	2
 298              	.L16:
 299 0064 00ED00E0 		.word	-536810240
 300 0068 00000000 		.word	rlist
 301 006c 00000000 		.word	_port_switch_from_isr
 302 0070 04000000 		.word	_port_exit_from_isr
 303              	.LBE3:
 304              		.cfi_endproc
 305              	.LFE5:
 306              		.size	_port_irq_epilogue, .-_port_irq_epilogue
 307 0074 AFF30080 		.section	.text.SysTickVector,"ax",%progbits
 307      AFF30080 
 307      AFF30080 
 308              		.align	2
 309              		.p2align 4,,15
 310              		.global	SysTickVector
 311              		.thumb
 312              		.thumb_func
 313              		.type	SysTickVector, %function
 314              	SysTickVector:
 315              	.LFB0:
 316              		.loc 1 40 0
 317              		.cfi_startproc
 318              		@ args = 0, pretend = 0, frame = 0
 319              		@ frame_needed = 0, uses_anonymous_args = 0
 320 0000 10B5     		push	{r4, lr}
 321              	.LCFI3:
 322              		.cfi_def_cfa_offset 8
 323              		.loc 1 44 0
 324              	@ 44 "../../../ChibiOS/os/ports/GCC/ARMCMx/chcore_v7m.c" 1
 325 0002 FFF7FEFF 		bl      _port_lock
 326              	@ 0 "" 2
 327              		.loc 1 45 0
 328              		.thumb
ARM GAS  C:\Users\DNIEL~1\AppData\Local\Temp\cceiCCYI.s 			page 7


 329              		.cfi_offset 14, -4
 330              		.cfi_offset 4, -8
 331 0006 FFF7FEFF 		bl	chSysTimerHandlerI
 332              		.loc 1 46 0
 333              	@ 46 "../../../ChibiOS/os/ports/GCC/ARMCMx/chcore_v7m.c" 1
 334 000a FFF7FEFF 		bl      _port_unlock
 335              	@ 0 "" 2
 336              		.loc 1 49 0
 337              		.thumb
 338 000e BDE81040 		pop	{r4, lr}
 339              		.loc 1 48 0
 340 0012 FFF7FEBF 		b	_port_irq_epilogue
 341              		.cfi_endproc
 342              	.LFE0:
 343              		.size	SysTickVector, .-SysTickVector
 344 0016 00BFAFF3 		.section	.text._port_switch,"ax",%progbits
 344      0080AFF3 
 344      0080
 345              		.align	2
 346              		.p2align 4,,15
 347              		.global	_port_switch
 348              		.thumb
 349              		.thumb_func
 350              		.type	_port_switch, %function
 351              	_port_switch:
 352              	.LFB7:
 353              		.loc 1 229 0
 354              		.cfi_startproc
 355              		@ Naked Function: prologue and epilogue provided by programmer.
 356              		@ args = 0, pretend = 0, frame = 0
 357              		@ frame_needed = 0, uses_anonymous_args = 0
 358              	.LVL11:
 359              		.loc 1 231 0
 360              	@ 231 "../../../ChibiOS/os/ports/GCC/ARMCMx/chcore_v7m.c" 1
 361 0000 2DE9F04F 		push    {r4, r5, r6, r7, r8, r9, r10, r11, lr}
 362              	@ 0 "" 2
 363              		.loc 1 237 0
 364              	@ 237 "../../../ChibiOS/os/ports/GCC/ARMCMx/chcore_v7m.c" 1
 365 0004 C1F80CD0 		str     sp, [r1, #12]                          
 366 0008 D0F80CD0 		ldr     sp, [r0, #12]
 367              	@ 0 "" 2
 368              		.loc 1 243 0
 369              	@ 243 "../../../ChibiOS/os/ports/GCC/ARMCMx/chcore_v7m.c" 1
 370 000c BDE8F08F 		pop     {r4, r5, r6, r7, r8, r9, r10, r11, pc}
 371              	@ 0 "" 2
 372              		.loc 1 245 0
 373              		.thumb
 374              		.cfi_endproc
 375              	.LFE7:
 376              		.size	_port_switch, .-_port_switch
 377              		.section	.text._port_thread_start,"ax",%progbits
 378              		.align	2
 379              		.p2align 4,,15
 380              		.global	_port_thread_start
 381              		.thumb
 382              		.thumb_func
 383              		.type	_port_thread_start, %function
ARM GAS  C:\Users\DNIEL~1\AppData\Local\Temp\cceiCCYI.s 			page 8


 384              	_port_thread_start:
 385              	.LFB8:
 386              		.loc 1 252 0
 387              		.cfi_startproc
 388              		@ args = 0, pretend = 0, frame = 0
 389              		@ frame_needed = 0, uses_anonymous_args = 0
 390 0000 00B5     		push	{lr}
 391              	.LCFI4:
 392              		.cfi_def_cfa_offset 4
 393              		.loc 1 254 0
 394              	@ 254 "../../../ChibiOS/os/ports/GCC/ARMCMx/chcore_v7m.c" 1
 395 0002 FFF7FEFF 		bl      _port_unlock
 396              	@ 0 "" 2
 397              		.loc 1 255 0
 398              	@ 255 "../../../ChibiOS/os/ports/GCC/ARMCMx/chcore_v7m.c" 1
 399 0006 2846     		mov     r0, r5                                 
 400 0008 A047     		blx     r4                                     
 401 000a FFF7FEFF 		bl      chThdExit
 402              	@ 0 "" 2
 403              		.loc 1 258 0
 404              		.thumb
 405 000e 5DF804FB 		ldr	pc, [sp], #4
 406              		.cfi_offset 14, -4
 407              		.cfi_endproc
 408              	.LFE8:
 409              		.size	_port_thread_start, .-_port_thread_start
 410 0012 00BFAFF3 		.text
 410      0080AFF3 
 410      0080AFF3 
 410      0080
 411              	.Letext0: