ARM GAS  C:\Users\DNIEL~1\AppData\Local\Temp\cc0B5lCd.s 			page 1


   1              		.syntax unified
   2              		.cpu cortex-m3
   3              		.fpu softvfp
   4              		.eabi_attribute 20, 1
   5              		.eabi_attribute 21, 1
   6              		.eabi_attribute 23, 3
   7              		.eabi_attribute 24, 1
   8              		.eabi_attribute 25, 1
   9              		.eabi_attribute 26, 1
  10              		.eabi_attribute 30, 2
  11              		.eabi_attribute 18, 4
  12              		.thumb
  13              		.file	"chdynamic.c"
  20 0000 73020000 		.text
  20      0200EC01 
  20      00000201 
  20      FB0E0D00 
  20      01010101 
  21              	.Ltext0:
  22              		.cfi_sections	.debug_frame
  23              		.section	.text.chThdAddRef,"ax",%progbits
  24              		.align	2
  25              		.p2align 4,,15
  26              		.global	chThdAddRef
  27              		.thumb
  28              		.thumb_func
  29              		.type	chThdAddRef, %function
  30              	chThdAddRef:
  31              	.LFB0:
  32              		.file 1 "../../../ChibiOS/os/kernel/src/chdynamic.c"
  33              		.loc 1 45 0
  34              		.cfi_startproc
  35              		@ args = 0, pretend = 0, frame = 0
  36              		@ frame_needed = 0, uses_anonymous_args = 0
  37              	.LVL0:
  38 0000 00B5     		push	{lr}
  39              	.LCFI0:
  40              		.cfi_def_cfa_offset 4
  41              		.loc 1 47 0
  42              	@ 47 "../../../ChibiOS/os/kernel/src/chdynamic.c" 1
  43 0002 FFF7FEFF 		bl      _port_lock
  44              	@ 0 "" 2
  45              		.loc 1 49 0
  46              		.thumb
  47 0006 817F     		ldrb	r1, [r0, #30]	@ zero_extendqisi2
  48 0008 4B1C     		adds	r3, r1, #1
  49 000a 8377     		strb	r3, [r0, #30]
  50              		.loc 1 50 0
  51              	@ 50 "../../../ChibiOS/os/kernel/src/chdynamic.c" 1
  52 000c FFF7FEFF 		bl      _port_unlock
  53              	@ 0 "" 2
ARM GAS  C:\Users\DNIEL~1\AppData\Local\Temp\cc0B5lCd.s 			page 2


  54              		.loc 1 52 0
  55              		.thumb
  56 0010 5DF804FB 		ldr	pc, [sp], #4
  57              		.cfi_offset 14, -4
  58              		.cfi_endproc
  59              	.LFE0:
  60              		.size	chThdAddRef, .-chThdAddRef
  61 0014 AFF30080 		.section	.text.chThdRelease,"ax",%progbits
  61      AFF30080 
  61      AFF30080 
  62              		.align	2
  63              		.p2align 4,,15
  64              		.global	chThdRelease
  65              		.thumb
  66              		.thumb_func
  67              		.type	chThdRelease, %function
  68              	chThdRelease:
  69              	.LFB1:
  70              		.loc 1 67 0
  71              		.cfi_startproc
  72              		@ args = 0, pretend = 0, frame = 0
  73              		@ frame_needed = 0, uses_anonymous_args = 0
  74              	.LVL1:
  75 0000 00B5     		push	{lr}
  76              	.LCFI1:
  77              		.cfi_def_cfa_offset 4
  78              		.loc 1 67 0
  79 0002 0146     		mov	r1, r0
  80              		.loc 1 70 0
  81              	@ 70 "../../../ChibiOS/os/kernel/src/chdynamic.c" 1
  82 0004 FFF7FEFF 		bl      _port_lock
  83              	@ 0 "" 2
  84              		.loc 1 72 0
  85              		.thumb
  86 0008 827F     		ldrb	r2, [r0, #30]	@ zero_extendqisi2
  87 000a 531E     		subs	r3, r2, #1
  88 000c DAB2     		uxtb	r2, r3
  89 000e 8277     		strb	r2, [r0, #30]
  90              	.LVL2:
  91              		.loc 1 73 0
  92              	@ 73 "../../../ChibiOS/os/kernel/src/chdynamic.c" 1
  93 0010 FFF7FEFF 		bl      _port_unlock
  94              	@ 0 "" 2
  95              		.loc 1 78 0
  96              		.thumb
  97 0014 22B9     		cbnz	r2, .L2
  98              		.cfi_offset 14, -4
  99              		.loc 1 78 0 is_stmt 0 discriminator 1
 100 0016 90F81CC0 		ldrb	ip, [r0, #28]	@ zero_extendqisi2
 101 001a BCF10E0F 		cmp	ip, #14
 102 001e 01D0     		beq	.L7
 103              	.L2:
 104 0020 5DF804FB 		ldr	pc, [sp], #4
 105              	.L7:
 106              		.loc 1 79 0 is_stmt 1
 107 0024 90F81DE0 		ldrb	lr, [r0, #29]	@ zero_extendqisi2
 108 0028 0EF00303 		and	r3, lr, #3
ARM GAS  C:\Users\DNIEL~1\AppData\Local\Temp\cc0B5lCd.s 			page 3


 109 002c 012B     		cmp	r3, #1
 110 002e 0BD0     		beq	.L4
 111 0030 022B     		cmp	r3, #2
 112 0032 F5D1     		bne	.L2
 113              		.loc 1 91 0
 114 0034 4369     		ldr	r3, [r0, #20]
 115 0036 0269     		ldr	r2, [r0, #16]
 116              	.LVL3:
 117              		.loc 1 93 0
 118 0038 406C     		ldr	r0, [r0, #68]
 119              	.LVL4:
 120              		.loc 1 91 0
 121 003a 1A61     		str	r2, [r3, #16]
 122 003c 0A69     		ldr	r2, [r1, #16]
 123 003e 5361     		str	r3, [r2, #20]
 124              		.loc 1 98 0
 125 0040 5DF804EB 		ldr	lr, [sp], #4
 126              		.loc 1 93 0
 127 0044 FFF7FEBF 		b	chPoolFree
 128              	.LVL5:
 129              	.L4:
 130              		.loc 1 83 0
 131 0048 4369     		ldr	r3, [r0, #20]
 132 004a 0269     		ldr	r2, [r0, #16]
 133              	.LVL6:
 134 004c 1A61     		str	r2, [r3, #16]
 135 004e 0169     		ldr	r1, [r0, #16]
 136 0050 4B61     		str	r3, [r1, #20]
 137              		.loc 1 98 0
 138 0052 5DF804EB 		ldr	lr, [sp], #4
 139              		.loc 1 85 0
 140 0056 FFF7FEBF 		b	chHeapFree
 141              		.cfi_endproc
 142              	.LFE1:
 143              		.size	chThdRelease, .-chThdRelease
 144 005a 00BFAFF3 		.section	.text.chThdCreateFromHeap,"ax",%progbits
 144      0080
 145              		.align	2
 146              		.p2align 4,,15
 147              		.global	chThdCreateFromHeap
 148              		.thumb
 149              		.thumb_func
 150              		.type	chThdCreateFromHeap, %function
 151              	chThdCreateFromHeap:
 152              	.LFB2:
 153              		.loc 1 124 0
 154              		.cfi_startproc
 155              		@ args = 4, pretend = 0, frame = 0
 156              		@ frame_needed = 0, uses_anonymous_args = 0
 157              	.LVL7:
 158 0000 70B5     		push	{r4, r5, r6, lr}
 159              	.LCFI2:
 160              		.cfi_def_cfa_offset 16
 161 0002 82B0     		sub	sp, sp, #8
 162              	.LCFI3:
 163              		.cfi_def_cfa_offset 24
 164              		.loc 1 124 0
ARM GAS  C:\Users\DNIEL~1\AppData\Local\Temp\cc0B5lCd.s 			page 4


 165 0004 0D46     		mov	r5, r1
 166              		.cfi_offset 14, -4
 167              		.cfi_offset 6, -8
 168              		.cfi_offset 5, -12
 169              		.cfi_offset 4, -16
 170 0006 1646     		mov	r6, r2
 171 0008 1C46     		mov	r4, r3
 172              		.loc 1 128 0
 173 000a FFF7FEFF 		bl	chHeapAlloc
 174              	.LVL8:
 175              		.loc 1 129 0
 176 000e 98B1     		cbz	r0, .L10
 177              		.loc 1 141 0
 178              	@ 141 "../../../ChibiOS/os/kernel/src/chdynamic.c" 1
 179 0010 FFF7FEFF 		bl      _port_lock
 180              	@ 0 "" 2
 181              		.loc 1 142 0
 182              		.thumb
 183 0014 2346     		mov	r3, r4
 184 0016 069C     		ldr	r4, [sp, #24]
 185              	.LVL9:
 186 0018 2946     		mov	r1, r5
 187 001a 3246     		mov	r2, r6
 188 001c 0094     		str	r4, [sp, #0]
 189 001e FFF7FEFF 		bl	chThdCreateI
 190              	.LVL10:
 191              		.loc 1 143 0
 192 0022 0123     		movs	r3, #1
 193 0024 4377     		strb	r3, [r0, #29]
 194              		.loc 1 144 0
 195 0026 0021     		movs	r1, #0
 196              		.loc 1 142 0
 197 0028 0446     		mov	r4, r0
 198              	.LVL11:
 199              		.loc 1 144 0
 200 002a FFF7FEFF 		bl	chSchWakeupS
 201              	.LVL12:
 202              		.loc 1 145 0
 203              	@ 145 "../../../ChibiOS/os/kernel/src/chdynamic.c" 1
 204 002e FFF7FEFF 		bl      _port_unlock
 205              	@ 0 "" 2
 206              	.LVL13:
 207              		.thumb
 208              	.L9:
 209              		.loc 1 147 0
 210 0032 2046     		mov	r0, r4
 211 0034 02B0     		add	sp, sp, #8
 212 0036 70BD     		pop	{r4, r5, r6, pc}
 213              	.LVL14:
 214              	.L10:
 215              		.loc 1 130 0
 216 0038 0446     		mov	r4, r0
 217              	.LVL15:
 218 003a FAE7     		b	.L9
 219              		.cfi_endproc
 220              	.LFE2:
 221              		.size	chThdCreateFromHeap, .-chThdCreateFromHeap
ARM GAS  C:\Users\DNIEL~1\AppData\Local\Temp\cc0B5lCd.s 			page 5


 222 003c AFF30080 		.section	.text.chThdCreateFromMemoryPool,"ax",%progbits
 223              		.align	2
 224              		.p2align 4,,15
 225              		.global	chThdCreateFromMemoryPool
 226              		.thumb
 227              		.thumb_func
 228              		.type	chThdCreateFromMemoryPool, %function
 229              	chThdCreateFromMemoryPool:
 230              	.LFB3:
 231              		.loc 1 173 0
 232              		.cfi_startproc
 233              		@ args = 0, pretend = 0, frame = 0
 234              		@ frame_needed = 0, uses_anonymous_args = 0
 235              	.LVL16:
 236 0000 F0B5     		push	{r4, r5, r6, r7, lr}
 237              	.LCFI4:
 238              		.cfi_def_cfa_offset 20
 239 0002 83B0     		sub	sp, sp, #12
 240              	.LCFI5:
 241              		.cfi_def_cfa_offset 32
 242              		.loc 1 173 0
 243 0004 0446     		mov	r4, r0
 244              		.cfi_offset 14, -4
 245              		.cfi_offset 7, -8
 246              		.cfi_offset 6, -12
 247              		.cfi_offset 5, -16
 248              		.cfi_offset 4, -20
 249 0006 0F46     		mov	r7, r1
 250 0008 1646     		mov	r6, r2
 251 000a 1D46     		mov	r5, r3
 252              		.loc 1 179 0
 253 000c FFF7FEFF 		bl	chPoolAlloc
 254              	.LVL17:
 255              		.loc 1 180 0
 256 0010 98B1     		cbz	r0, .L13
 257              		.loc 1 192 0
 258              	@ 192 "../../../ChibiOS/os/kernel/src/chdynamic.c" 1
 259 0012 FFF7FEFF 		bl      _port_lock
 260              	@ 0 "" 2
 261              		.loc 1 193 0
 262              		.thumb
 263 0016 6168     		ldr	r1, [r4, #4]
 264 0018 3A46     		mov	r2, r7
 265 001a 3346     		mov	r3, r6
 266 001c 0095     		str	r5, [sp, #0]
 267 001e FFF7FEFF 		bl	chThdCreateI
 268              	.LVL18:
 269              		.loc 1 194 0
 270 0022 0223     		movs	r3, #2
 271 0024 4377     		strb	r3, [r0, #29]
 272              		.loc 1 195 0
 273 0026 4464     		str	r4, [r0, #68]
 274              		.loc 1 196 0
 275 0028 0021     		movs	r1, #0
 276              		.loc 1 193 0
 277 002a 0546     		mov	r5, r0
 278              	.LVL19:
ARM GAS  C:\Users\DNIEL~1\AppData\Local\Temp\cc0B5lCd.s 			page 6


 279              		.loc 1 196 0
 280 002c FFF7FEFF 		bl	chSchWakeupS
 281              	.LVL20:
 282              		.loc 1 197 0
 283              	@ 197 "../../../ChibiOS/os/kernel/src/chdynamic.c" 1
 284 0030 FFF7FEFF 		bl      _port_unlock
 285              	@ 0 "" 2
 286              	.LVL21:
 287              		.thumb
 288              	.L12:
 289              		.loc 1 199 0
 290 0034 2846     		mov	r0, r5
 291 0036 03B0     		add	sp, sp, #12
 292 0038 F0BD     		pop	{r4, r5, r6, r7, pc}
 293              	.LVL22:
 294              	.L13:
 295              		.loc 1 181 0
 296 003a 0546     		mov	r5, r0
 297              	.LVL23:
 298 003c FAE7     		b	.L12
 299              		.cfi_endproc
 300              	.LFE3:
 301              		.size	chThdCreateFromMemoryPool, .-chThdCreateFromMemoryPool
 302 003e 00BF     		.text
 303              	.Letext0: