ARM GAS  C:\Users\DNIEL~1\AppData\Local\Temp\cc88w4yE.s 			page 1


   1              		.syntax unified
   2              		.cpu cortex-m3
   3              		.fpu softvfp
   4              		.eabi_attribute 20, 1
   5              		.eabi_attribute 21, 1
   6              		.eabi_attribute 23, 3
   7              		.eabi_attribute 24, 1
   8              		.eabi_attribute 25, 1
   9              		.eabi_attribute 26, 1
  10              		.eabi_attribute 30, 2
  11              		.eabi_attribute 18, 4
  12              		.thumb
  13              		.file	"chevents.c"
  20 0000 07030000 		.text
  20      02006D01 
  20      00000201 
  20      FB0E0D00 
  20      01010101 
  21              	.Ltext0:
  22              		.cfi_sections	.debug_frame
  23              		.section	.text.chEvtRegisterMask,"ax",%progbits
  24              		.align	2
  25              		.p2align 4,,15
  26              		.global	chEvtRegisterMask
  27              		.thumb
  28              		.thumb_func
  29              		.type	chEvtRegisterMask, %function
  30              	chEvtRegisterMask:
  31              	.LFB0:
  32              		.file 1 "../../../ChibiOS/os/kernel/src/chevents.c"
  33              		.loc 1 78 0
  34              		.cfi_startproc
  35              		@ args = 0, pretend = 0, frame = 0
  36              		@ frame_needed = 0, uses_anonymous_args = 0
  37              	.LVL0:
  38 0000 10B5     		push	{r4, lr}
  39              	.LCFI0:
  40              		.cfi_def_cfa_offset 8
  41              		.loc 1 82 0
  42              	@ 82 "../../../ChibiOS/os/kernel/src/chevents.c" 1
  43 0002 FFF7FEFF 		bl      _port_lock
  44              	@ 0 "" 2
  45              		.loc 1 85 0
  46              		.thumb
  47 0006 064B     		ldr	r3, .L2
  48              		.loc 1 83 0
  49 0008 0468     		ldr	r4, [r0, #0]
  50              		.cfi_offset 14, -4
  51              		.cfi_offset 4, -8
  52              		.loc 1 85 0
  53 000a 9B69     		ldr	r3, [r3, #24]
ARM GAS  C:\Users\DNIEL~1\AppData\Local\Temp\cc88w4yE.s 			page 2


  54              		.loc 1 83 0
  55 000c 0C60     		str	r4, [r1, #0]
  56              		.loc 1 84 0
  57 000e 0160     		str	r1, [r0, #0]
  58              		.loc 1 85 0
  59 0010 4B60     		str	r3, [r1, #4]
  60              		.loc 1 87 0
  61 0012 0023     		movs	r3, #0
  62              		.loc 1 86 0
  63 0014 8A60     		str	r2, [r1, #8]
  64              		.loc 1 87 0
  65 0016 CB60     		str	r3, [r1, #12]
  66              		.loc 1 88 0
  67              	@ 88 "../../../ChibiOS/os/kernel/src/chevents.c" 1
  68 0018 FFF7FEFF 		bl      _port_unlock
  69              	@ 0 "" 2
  70              		.loc 1 89 0
  71              		.thumb
  72 001c 10BD     		pop	{r4, pc}
  73              	.L3:
  74 001e 00BF     		.align	2
  75              	.L2:
  76 0020 00000000 		.word	rlist
  77              		.cfi_endproc
  78              	.LFE0:
  79              		.size	chEvtRegisterMask, .-chEvtRegisterMask
  80 0024 AFF30080 		.section	.text.chEvtUnregister,"ax",%progbits
  80      AFF30080 
  80      AFF30080 
  81              		.align	2
  82              		.p2align 4,,15
  83              		.global	chEvtUnregister
  84              		.thumb
  85              		.thumb_func
  86              		.type	chEvtUnregister, %function
  87              	chEvtUnregister:
  88              	.LFB1:
  89              		.loc 1 104 0
  90              		.cfi_startproc
  91              		@ args = 0, pretend = 0, frame = 0
  92              		@ frame_needed = 0, uses_anonymous_args = 0
  93              	.LVL1:
  94 0000 00B5     		push	{lr}
  95              	.LCFI1:
  96              		.cfi_def_cfa_offset 4
  97              		.loc 1 110 0
  98              	@ 110 "../../../ChibiOS/os/kernel/src/chevents.c" 1
  99 0002 FFF7FEFF 		bl      _port_lock
 100              	@ 0 "" 2
 101              		.loc 1 109 0
 102              		.thumb
 103 0006 0246     		mov	r2, r0
 104              		.loc 1 111 0
 105 0008 02E0     		b	.L5
 106              		.cfi_offset 14, -4
 107              	.LVL2:
 108              	.L7:
ARM GAS  C:\Users\DNIEL~1\AppData\Local\Temp\cc88w4yE.s 			page 3


 109              		.loc 1 112 0
 110 000a 9942     		cmp	r1, r3
 111 000c 07D0     		beq	.L10
 112 000e 1A46     		mov	r2, r3
 113              	.LVL3:
 114              	.L5:
 115              		.loc 1 111 0 discriminator 1
 116 0010 1368     		ldr	r3, [r2, #0]
 117 0012 9842     		cmp	r0, r3
 118 0014 F9D1     		bne	.L7
 119              		.loc 1 118 0
 120              	@ 118 "../../../ChibiOS/os/kernel/src/chevents.c" 1
 121 0016 FFF7FEFF 		bl      _port_unlock
 122              	@ 0 "" 2
 123              		.loc 1 119 0
 124              		.thumb
 125 001a 5DF804FB 		ldr	pc, [sp], #4
 126              	.L10:
 127              		.loc 1 113 0
 128 001e 0B68     		ldr	r3, [r1, #0]
 129 0020 1360     		str	r3, [r2, #0]
 130              		.loc 1 118 0
 131              	@ 118 "../../../ChibiOS/os/kernel/src/chevents.c" 1
 132 0022 FFF7FEFF 		bl      _port_unlock
 133              	@ 0 "" 2
 134              		.loc 1 119 0
 135              		.thumb
 136 0026 5DF804FB 		ldr	pc, [sp], #4
 137              		.cfi_endproc
 138              	.LFE1:
 139              		.size	chEvtUnregister, .-chEvtUnregister
 140 002a 00BFAFF3 		.section	.text.chEvtGetAndClearEvents,"ax",%progbits
 140      0080
 141              		.align	2
 142              		.p2align 4,,15
 143              		.global	chEvtGetAndClearEvents
 144              		.thumb
 145              		.thumb_func
 146              		.type	chEvtGetAndClearEvents, %function
 147              	chEvtGetAndClearEvents:
 148              	.LFB2:
 149              		.loc 1 129 0
 150              		.cfi_startproc
 151              		@ args = 0, pretend = 0, frame = 0
 152              		@ frame_needed = 0, uses_anonymous_args = 0
 153              	.LVL4:
 154 0000 00B5     		push	{lr}
 155              	.LCFI2:
 156              		.cfi_def_cfa_offset 4
 157              		.loc 1 132 0
 158              	@ 132 "../../../ChibiOS/os/kernel/src/chevents.c" 1
 159 0002 FFF7FEFF 		bl      _port_lock
 160              	@ 0 "" 2
 161              		.loc 1 134 0
 162              		.thumb
 163 0006 054A     		ldr	r2, .L12
 164 0008 9369     		ldr	r3, [r2, #24]
ARM GAS  C:\Users\DNIEL~1\AppData\Local\Temp\cc88w4yE.s 			page 4


 165 000a 9A6B     		ldr	r2, [r3, #56]
 166              	.LVL5:
 167              		.loc 1 135 0
 168 000c 22EA0001 		bic	r1, r2, r0
 169 0010 9963     		str	r1, [r3, #56]
 170              		.loc 1 137 0
 171              	@ 137 "../../../ChibiOS/os/kernel/src/chevents.c" 1
 172 0012 FFF7FEFF 		bl      _port_unlock
 173              	@ 0 "" 2
 174              		.loc 1 139 0
 175              		.thumb
 176 0016 1040     		ands	r0, r0, r2
 177              	.LVL6:
 178 0018 5DF804FB 		ldr	pc, [sp], #4
 179              		.cfi_offset 14, -4
 180              	.L13:
 181              		.align	2
 182              	.L12:
 183 001c 00000000 		.word	rlist
 184              		.cfi_endproc
 185              	.LFE2:
 186              		.size	chEvtGetAndClearEvents, .-chEvtGetAndClearEvents
 187              		.section	.text.chEvtAddEvents,"ax",%progbits
 188              		.align	2
 189              		.p2align 4,,15
 190              		.global	chEvtAddEvents
 191              		.thumb
 192              		.thumb_func
 193              		.type	chEvtAddEvents, %function
 194              	chEvtAddEvents:
 195              	.LFB3:
 196              		.loc 1 150 0
 197              		.cfi_startproc
 198              		@ args = 0, pretend = 0, frame = 0
 199              		@ frame_needed = 0, uses_anonymous_args = 0
 200              	.LVL7:
 201 0000 00B5     		push	{lr}
 202              	.LCFI3:
 203              		.cfi_def_cfa_offset 4
 204              		.loc 1 152 0
 205              	@ 152 "../../../ChibiOS/os/kernel/src/chevents.c" 1
 206 0002 FFF7FEFF 		bl      _port_lock
 207              	@ 0 "" 2
 208              		.loc 1 154 0
 209              		.thumb
 210 0006 0449     		ldr	r1, .L15
 211 0008 8B69     		ldr	r3, [r1, #24]
 212 000a 9A6B     		ldr	r2, [r3, #56]
 213 000c 1043     		orrs	r0, r0, r2
 214              	.LVL8:
 215 000e 9863     		str	r0, [r3, #56]
 216              	.LVL9:
 217              		.loc 1 156 0
 218              	@ 156 "../../../ChibiOS/os/kernel/src/chevents.c" 1
 219 0010 FFF7FEFF 		bl      _port_unlock
 220              	@ 0 "" 2
 221              		.loc 1 158 0
ARM GAS  C:\Users\DNIEL~1\AppData\Local\Temp\cc88w4yE.s 			page 5


 222              		.thumb
 223 0014 5DF804FB 		ldr	pc, [sp], #4
 224              		.cfi_offset 14, -4
 225              	.L16:
 226              		.align	2
 227              	.L15:
 228 0018 00000000 		.word	rlist
 229              		.cfi_endproc
 230              	.LFE3:
 231              		.size	chEvtAddEvents, .-chEvtAddEvents
 232 001c AFF30080 		.section	.text.chEvtGetAndClearFlags,"ax",%progbits
 233              		.align	2
 234              		.p2align 4,,15
 235              		.global	chEvtGetAndClearFlags
 236              		.thumb
 237              		.thumb_func
 238              		.type	chEvtGetAndClearFlags, %function
 239              	chEvtGetAndClearFlags:
 240              	.LFB5:
 241              		.loc 1 202 0
 242              		.cfi_startproc
 243              		@ args = 0, pretend = 0, frame = 0
 244              		@ frame_needed = 0, uses_anonymous_args = 0
 245              	.LVL10:
 246 0000 00B5     		push	{lr}
 247              	.LCFI4:
 248              		.cfi_def_cfa_offset 4
 249              		.loc 1 202 0
 250 0002 0246     		mov	r2, r0
 251              		.loc 1 205 0
 252              	@ 205 "../../../ChibiOS/os/kernel/src/chevents.c" 1
 253 0004 FFF7FEFF 		bl      _port_lock
 254              	@ 0 "" 2
 255              		.loc 1 208 0
 256              		.thumb
 257 0008 0023     		movs	r3, #0
 258              		.loc 1 207 0
 259 000a C068     		ldr	r0, [r0, #12]
 260              	.LVL11:
 261              		.loc 1 208 0
 262 000c D360     		str	r3, [r2, #12]
 263              		.loc 1 210 0
 264              	@ 210 "../../../ChibiOS/os/kernel/src/chevents.c" 1
 265 000e FFF7FEFF 		bl      _port_unlock
 266              	@ 0 "" 2
 267              		.loc 1 212 0
 268              		.thumb
 269 0012 5DF804FB 		ldr	pc, [sp], #4
 270              		.cfi_offset 14, -4
 271              		.cfi_endproc
 272              	.LFE5:
 273              		.size	chEvtGetAndClearFlags, .-chEvtGetAndClearFlags
 274 0016 00BFAFF3 		.section	.text.chEvtSignalI,"ax",%progbits
 274      0080AFF3 
 274      0080
 275              		.align	2
 276              		.p2align 4,,15
ARM GAS  C:\Users\DNIEL~1\AppData\Local\Temp\cc88w4yE.s 			page 6


 277              		.global	chEvtSignalI
 278              		.thumb
 279              		.thumb_func
 280              		.type	chEvtSignalI, %function
 281              	chEvtSignalI:
 282              	.LFB7:
 283              		.loc 1 244 0
 284              		.cfi_startproc
 285              		@ args = 0, pretend = 0, frame = 0
 286              		@ frame_needed = 0, uses_anonymous_args = 0
 287              	.LVL12:
 288 0000 08B5     		push	{r3, lr}
 289              	.LCFI5:
 290              		.cfi_def_cfa_offset 8
 291              		.loc 1 249 0
 292 0002 826B     		ldr	r2, [r0, #56]
 293              		.loc 1 251 0
 294 0004 037F     		ldrb	r3, [r0, #28]	@ zero_extendqisi2
 295              		.cfi_offset 14, -4
 296              		.cfi_offset 3, -8
 297              		.loc 1 249 0
 298 0006 41EA0202 		orr	r2, r1, r2
 299              		.loc 1 251 0
 300 000a 082B     		cmp	r3, #8
 301              		.loc 1 249 0
 302 000c 8263     		str	r2, [r0, #56]
 303              		.loc 1 251 0
 304 000e 0CD0     		beq	.L22
 305              		.loc 1 252 0
 306 0010 092B     		cmp	r3, #9
 307 0012 00D0     		beq	.L23
 308              	.LVL13:
 309              	.L18:
 310 0014 08BD     		pop	{r3, pc}
 311              	.LVL14:
 312              	.L23:
 313              		.loc 1 254 0
 314 0016 436A     		ldr	r3, [r0, #36]
 315 0018 02EA0301 		and	r1, r2, r3
 316              	.LVL15:
 317              		.loc 1 253 0
 318 001c 8B42     		cmp	r3, r1
 319 001e F9D1     		bne	.L18
 320              	.L20:
 321              		.loc 1 255 0
 322 0020 FFF7FEFF 		bl	chSchReadyI
 323              	.LVL16:
 324 0024 0022     		movs	r2, #0
 325 0026 4262     		str	r2, [r0, #36]
 326 0028 08BD     		pop	{r3, pc}
 327              	.LVL17:
 328              	.L22:
 329              		.loc 1 252 0 discriminator 1
 330 002a 436A     		ldr	r3, [r0, #36]
 331              		.loc 1 251 0 discriminator 1
 332 002c 1A42     		tst	r2, r3
 333 002e F7D1     		bne	.L20
ARM GAS  C:\Users\DNIEL~1\AppData\Local\Temp\cc88w4yE.s 			page 7


 334 0030 08BD     		pop	{r3, pc}
 335              		.cfi_endproc
 336              	.LFE7:
 337              		.size	chEvtSignalI, .-chEvtSignalI
 338 0032 00BFAFF3 		.section	.text.chEvtSignal,"ax",%progbits
 338      0080AFF3 
 338      0080AFF3 
 338      0080
 339              		.align	2
 340              		.p2align 4,,15
 341              		.global	chEvtSignal
 342              		.thumb
 343              		.thumb_func
 344              		.type	chEvtSignal, %function
 345              	chEvtSignal:
 346              	.LFB6:
 347              		.loc 1 222 0
 348              		.cfi_startproc
 349              		@ args = 0, pretend = 0, frame = 0
 350              		@ frame_needed = 0, uses_anonymous_args = 0
 351              	.LVL18:
 352 0000 08B5     		push	{r3, lr}
 353              	.LCFI6:
 354              		.cfi_def_cfa_offset 8
 355              		.loc 1 226 0
 356              	@ 226 "../../../ChibiOS/os/kernel/src/chevents.c" 1
 357 0002 FFF7FEFF 		bl      _port_lock
 358              	@ 0 "" 2
 359              		.loc 1 227 0
 360              		.thumb
 361              		.cfi_offset 14, -4
 362              		.cfi_offset 3, -8
 363 0006 FFF7FEFF 		bl	chEvtSignalI
 364              	.LVL19:
 365              		.loc 1 228 0
 366 000a FFF7FEFF 		bl	chSchRescheduleS
 367              		.loc 1 229 0
 368              	@ 229 "../../../ChibiOS/os/kernel/src/chevents.c" 1
 369 000e FFF7FEFF 		bl      _port_unlock
 370              	@ 0 "" 2
 371              		.loc 1 230 0
 372              		.thumb
 373 0012 08BD     		pop	{r3, pc}
 374              		.cfi_endproc
 375              	.LFE6:
 376              		.size	chEvtSignal, .-chEvtSignal
 377 0014 AFF30080 		.section	.text.chEvtBroadcastFlagsI,"ax",%progbits
 377      AFF30080 
 377      AFF30080 
 378              		.align	2
 379              		.p2align 4,,15
 380              		.global	chEvtBroadcastFlagsI
 381              		.thumb
 382              		.thumb_func
 383              		.type	chEvtBroadcastFlagsI, %function
 384              	chEvtBroadcastFlagsI:
 385              	.LFB4:
ARM GAS  C:\Users\DNIEL~1\AppData\Local\Temp\cc88w4yE.s 			page 8


 386              		.loc 1 177 0
 387              		.cfi_startproc
 388              		@ args = 0, pretend = 0, frame = 0
 389              		@ frame_needed = 0, uses_anonymous_args = 0
 390              	.LVL20:
 391 0000 70B5     		push	{r4, r5, r6, lr}
 392              	.LCFI7:
 393              		.cfi_def_cfa_offset 16
 394              		.loc 1 183 0
 395 0002 0468     		ldr	r4, [r0, #0]
 396              		.cfi_offset 14, -4
 397              		.cfi_offset 6, -8
 398              		.cfi_offset 5, -12
 399              		.cfi_offset 4, -16
 400              	.LVL21:
 401              		.loc 1 177 0
 402 0004 0546     		mov	r5, r0
 403              		.loc 1 184 0
 404 0006 8442     		cmp	r4, r0
 405              		.loc 1 177 0
 406 0008 0E46     		mov	r6, r1
 407              		.loc 1 184 0
 408 000a 0AD0     		beq	.L25
 409              	.LVL22:
 410              	.L28:
 411              		.loc 1 185 0
 412 000c E168     		ldr	r1, [r4, #12]
 413              		.loc 1 186 0
 414 000e 6068     		ldr	r0, [r4, #4]
 415              		.loc 1 185 0
 416 0010 41EA0603 		orr	r3, r1, r6
 417 0014 E360     		str	r3, [r4, #12]
 418              		.loc 1 186 0
 419 0016 A168     		ldr	r1, [r4, #8]
 420 0018 FFF7FEFF 		bl	chEvtSignalI
 421              		.loc 1 187 0
 422 001c 2468     		ldr	r4, [r4, #0]
 423              	.LVL23:
 424              		.loc 1 184 0
 425 001e AC42     		cmp	r4, r5
 426 0020 F4D1     		bne	.L28
 427              	.L25:
 428 0022 70BD     		pop	{r4, r5, r6, pc}
 429              		.cfi_endproc
 430              	.LFE4:
 431              		.size	chEvtBroadcastFlagsI, .-chEvtBroadcastFlagsI
 432 0024 AFF30080 		.section	.text.chEvtBroadcastFlags,"ax",%progbits
 432      AFF30080 
 432      AFF30080 
 433              		.align	2
 434              		.p2align 4,,15
 435              		.global	chEvtBroadcastFlags
 436              		.thumb
 437              		.thumb_func
 438              		.type	chEvtBroadcastFlags, %function
 439              	chEvtBroadcastFlags:
 440              	.LFB8:
ARM GAS  C:\Users\DNIEL~1\AppData\Local\Temp\cc88w4yE.s 			page 9


 441              		.loc 1 271 0
 442              		.cfi_startproc
 443              		@ args = 0, pretend = 0, frame = 0
 444              		@ frame_needed = 0, uses_anonymous_args = 0
 445              	.LVL24:
 446 0000 08B5     		push	{r3, lr}
 447              	.LCFI8:
 448              		.cfi_def_cfa_offset 8
 449              		.loc 1 273 0
 450              	@ 273 "../../../ChibiOS/os/kernel/src/chevents.c" 1
 451 0002 FFF7FEFF 		bl      _port_lock
 452              	@ 0 "" 2
 453              		.loc 1 274 0
 454              		.thumb
 455              		.cfi_offset 14, -4
 456              		.cfi_offset 3, -8
 457 0006 FFF7FEFF 		bl	chEvtBroadcastFlagsI
 458              	.LVL25:
 459              		.loc 1 275 0
 460 000a FFF7FEFF 		bl	chSchRescheduleS
 461              		.loc 1 276 0
 462              	@ 276 "../../../ChibiOS/os/kernel/src/chevents.c" 1
 463 000e FFF7FEFF 		bl      _port_unlock
 464              	@ 0 "" 2
 465              		.loc 1 277 0
 466              		.thumb
 467 0012 08BD     		pop	{r3, pc}
 468              		.cfi_endproc
 469              	.LFE8:
 470              		.size	chEvtBroadcastFlags, .-chEvtBroadcastFlags
 471 0014 AFF30080 		.section	.text.chEvtGetAndClearFlagsI,"ax",%progbits
 471      AFF30080 
 471      AFF30080 
 472              		.align	2
 473              		.p2align 4,,15
 474              		.global	chEvtGetAndClearFlagsI
 475              		.thumb
 476              		.thumb_func
 477              		.type	chEvtGetAndClearFlagsI, %function
 478              	chEvtGetAndClearFlagsI:
 479              	.LFB9:
 480              		.loc 1 290 0
 481              		.cfi_startproc
 482              		@ args = 0, pretend = 0, frame = 0
 483              		@ frame_needed = 0, uses_anonymous_args = 0
 484              		@ link register save eliminated.
 485              	.LVL26:
 486              		.loc 1 290 0
 487 0000 0346     		mov	r3, r0
 488              		.loc 1 294 0
 489 0002 0022     		movs	r2, #0
 490              		.loc 1 293 0
 491 0004 C068     		ldr	r0, [r0, #12]
 492              	.LVL27:
 493              		.loc 1 294 0
 494 0006 DA60     		str	r2, [r3, #12]
 495              		.loc 1 297 0
ARM GAS  C:\Users\DNIEL~1\AppData\Local\Temp\cc88w4yE.s 			page 10


 496 0008 7047     		bx	lr
 497              		.cfi_endproc
 498              	.LFE9:
 499              		.size	chEvtGetAndClearFlagsI, .-chEvtGetAndClearFlagsI
 500 000a 00BFAFF3 		.section	.text.chEvtDispatch,"ax",%progbits
 500      0080
 501              		.align	2
 502              		.p2align 4,,15
 503              		.global	chEvtDispatch
 504              		.thumb
 505              		.thumb_func
 506              		.type	chEvtDispatch, %function
 507              	chEvtDispatch:
 508              	.LFB10:
 509              		.loc 1 308 0
 510              		.cfi_startproc
 511              		@ args = 0, pretend = 0, frame = 0
 512              		@ frame_needed = 0, uses_anonymous_args = 0
 513              	.LVL28:
 514 0000 F8B5     		push	{r3, r4, r5, r6, r7, lr}
 515              	.LCFI9:
 516              		.cfi_def_cfa_offset 24
 517              		.loc 1 314 0
 518 0002 0D46     		mov	r5, r1
 519              		.cfi_offset 14, -4
 520              		.cfi_offset 7, -8
 521              		.cfi_offset 6, -12
 522              		.cfi_offset 5, -16
 523              		.cfi_offset 4, -20
 524              		.cfi_offset 3, -24
 525              		.loc 1 308 0
 526 0004 0746     		mov	r7, r0
 527              		.loc 1 314 0
 528 0006 99B1     		cbz	r1, .L32
 529 0008 0024     		movs	r4, #0
 530              		.loc 1 315 0
 531 000a 0126     		movs	r6, #1
 532 000c 16FA04F3 		lsls	r3, r6, r4
 533 0010 2B42     		tst	r3, r5
 534 0012 05D1     		bne	.L36
 535              	.LVL29:
 536              	.L34:
 537              		.loc 1 314 0
 538 0014 65B1     		cbz	r5, .L32
 539              	.LVL30:
 540              	.L37:
 541              		.loc 1 322 0
 542 0016 0134     		adds	r4, r4, #1
 543              		.loc 1 315 0
 544 0018 16FA04F3 		lsls	r3, r6, r4
 545 001c 2B42     		tst	r3, r5
 546 001e F9D0     		beq	.L34
 547              	.L36:
 548              		.loc 1 319 0
 549 0020 25EA0305 		bic	r5, r5, r3
 550              	.LVL31:
 551              		.loc 1 320 0
ARM GAS  C:\Users\DNIEL~1\AppData\Local\Temp\cc88w4yE.s 			page 11


 552 0024 57F82420 		ldr	r2, [r7, r4, lsl #2]
 553 0028 2046     		mov	r0, r4
 554 002a 9047     		blx	r2
 555              	.LVL32:
 556              		.loc 1 314 0
 557 002c 002D     		cmp	r5, #0
 558 002e F2D1     		bne	.L37
 559              	.LVL33:
 560              	.L32:
 561 0030 F8BD     		pop	{r3, r4, r5, r6, r7, pc}
 562              		.cfi_endproc
 563              	.LFE10:
 564              		.size	chEvtDispatch, .-chEvtDispatch
 565 0032 00BFAFF3 		.section	.text.chEvtWaitOneTimeout,"ax",%progbits
 565      0080AFF3 
 565      0080AFF3 
 565      0080
 566              		.align	2
 567              		.p2align 4,,15
 568              		.global	chEvtWaitOneTimeout
 569              		.thumb
 570              		.thumb_func
 571              		.type	chEvtWaitOneTimeout, %function
 572              	chEvtWaitOneTimeout:
 573              	.LFB11:
 574              		.loc 1 439 0
 575              		.cfi_startproc
 576              		@ args = 0, pretend = 0, frame = 0
 577              		@ frame_needed = 0, uses_anonymous_args = 0
 578              	.LVL34:
 579              		.loc 1 440 0
 580 0000 114B     		ldr	r3, .L44
 581              		.loc 1 439 0
 582 0002 70B5     		push	{r4, r5, r6, lr}
 583              	.LCFI10:
 584              		.cfi_def_cfa_offset 16
 585              		.loc 1 439 0
 586 0004 0546     		mov	r5, r0
 587              		.cfi_offset 14, -4
 588              		.cfi_offset 6, -8
 589              		.cfi_offset 5, -12
 590              		.cfi_offset 4, -16
 591              		.loc 1 440 0
 592 0006 9E69     		ldr	r6, [r3, #24]
 593              	.LVL35:
 594              		.loc 1 443 0
 595              	@ 443 "../../../ChibiOS/os/kernel/src/chevents.c" 1
 596 0008 FFF7FEFF 		bl      _port_lock
 597              	@ 0 "" 2
 598              	.LVL36:
 599              		.loc 1 445 0
 600              		.thumb
 601 000c B36B     		ldr	r3, [r6, #56]
 602              	.LVL37:
 603 000e 10EA0304 		ands	r4, r0, r3
 604 0012 0DD1     		bne	.L39
 605              	.LVL38:
ARM GAS  C:\Users\DNIEL~1\AppData\Local\Temp\cc88w4yE.s 			page 12


 606              		.loc 1 446 0
 607 0014 19B9     		cbnz	r1, .L40
 608              		.loc 1 447 0
 609              	@ 447 "../../../ChibiOS/os/kernel/src/chevents.c" 1
 610 0016 FFF7FEFF 		bl      _port_unlock
 611              	@ 0 "" 2
 612              	.LVL39:
 613              		.loc 1 462 0
 614              		.thumb
 615 001a 2046     		mov	r0, r4
 616              	.LVL40:
 617 001c 70BD     		pop	{r4, r5, r6, pc}
 618              	.L40:
 619              		.loc 1 450 0
 620 001e 7062     		str	r0, [r6, #36]
 621              		.loc 1 451 0
 622 0020 0820     		movs	r0, #8
 623 0022 FFF7FEFF 		bl	chSchGoSleepTimeoutS
 624              	.LVL41:
 625 0026 0028     		cmp	r0, #0
 626 0028 0BDB     		blt	.L43
 627              		.loc 1 455 0
 628 002a B36B     		ldr	r3, [r6, #56]
 629 002c 05EA0304 		and	r4, r5, r3
 630              	.LVL42:
 631              	.L39:
 632              		.loc 1 457 0
 633 0030 6242     		negs	r2, r4
 634 0032 1440     		ands	r4, r4, r2
 635              	.LVL43:
 636              		.loc 1 458 0
 637 0034 23EA0400 		bic	r0, r3, r4
 638 0038 B063     		str	r0, [r6, #56]
 639              		.loc 1 460 0
 640              	@ 460 "../../../ChibiOS/os/kernel/src/chevents.c" 1
 641 003a FFF7FEFF 		bl      _port_unlock
 642              	@ 0 "" 2
 643              		.thumb
 644              	.L41:
 645              		.loc 1 462 0
 646 003e 2046     		mov	r0, r4
 647 0040 70BD     		pop	{r4, r5, r6, pc}
 648              	.L43:
 649              		.loc 1 452 0
 650              	@ 452 "../../../ChibiOS/os/kernel/src/chevents.c" 1
 651 0042 FFF7FEFF 		bl      _port_unlock
 652              	@ 0 "" 2
 653              		.loc 1 453 0
 654              		.thumb
 655 0046 FAE7     		b	.L41
 656              	.L45:
 657              		.align	2
 658              	.L44:
 659 0048 00000000 		.word	rlist
 660              		.cfi_endproc
 661              	.LFE11:
 662              		.size	chEvtWaitOneTimeout, .-chEvtWaitOneTimeout
ARM GAS  C:\Users\DNIEL~1\AppData\Local\Temp\cc88w4yE.s 			page 13


 663 004c AFF30080 		.section	.text.chEvtWaitAnyTimeout,"ax",%progbits
 664              		.align	2
 665              		.p2align 4,,15
 666              		.global	chEvtWaitAnyTimeout
 667              		.thumb
 668              		.thumb_func
 669              		.type	chEvtWaitAnyTimeout, %function
 670              	chEvtWaitAnyTimeout:
 671              	.LFB12:
 672              		.loc 1 482 0
 673              		.cfi_startproc
 674              		@ args = 0, pretend = 0, frame = 0
 675              		@ frame_needed = 0, uses_anonymous_args = 0
 676              	.LVL44:
 677              		.loc 1 483 0
 678 0000 104B     		ldr	r3, .L52
 679              		.loc 1 482 0
 680 0002 70B5     		push	{r4, r5, r6, lr}
 681              	.LCFI11:
 682              		.cfi_def_cfa_offset 16
 683              		.loc 1 482 0
 684 0004 0446     		mov	r4, r0
 685              		.cfi_offset 14, -4
 686              		.cfi_offset 6, -8
 687              		.cfi_offset 5, -12
 688              		.cfi_offset 4, -16
 689              		.loc 1 483 0
 690 0006 9D69     		ldr	r5, [r3, #24]
 691              	.LVL45:
 692              		.loc 1 486 0
 693              	@ 486 "../../../ChibiOS/os/kernel/src/chevents.c" 1
 694 0008 FFF7FEFF 		bl      _port_lock
 695              	@ 0 "" 2
 696              	.LVL46:
 697              		.loc 1 488 0
 698              		.thumb
 699 000c AB6B     		ldr	r3, [r5, #56]
 700              	.LVL47:
 701 000e 10EA0306 		ands	r6, r0, r3
 702 0012 0DD1     		bne	.L47
 703              		.loc 1 489 0
 704 0014 19B9     		cbnz	r1, .L48
 705              		.loc 1 490 0
 706              	@ 490 "../../../ChibiOS/os/kernel/src/chevents.c" 1
 707 0016 FFF7FEFF 		bl      _port_unlock
 708              	@ 0 "" 2
 709              	.LVL48:
 710              		.loc 1 504 0
 711              		.thumb
 712 001a 3046     		mov	r0, r6
 713              	.LVL49:
 714 001c 70BD     		pop	{r4, r5, r6, pc}
 715              	.L48:
 716              		.loc 1 493 0
 717 001e 6862     		str	r0, [r5, #36]
 718              		.loc 1 494 0
 719 0020 0820     		movs	r0, #8
ARM GAS  C:\Users\DNIEL~1\AppData\Local\Temp\cc88w4yE.s 			page 14


 720 0022 FFF7FEFF 		bl	chSchGoSleepTimeoutS
 721              	.LVL50:
 722 0026 0028     		cmp	r0, #0
 723 0028 09DB     		blt	.L51
 724              		.loc 1 498 0
 725 002a AB6B     		ldr	r3, [r5, #56]
 726 002c 04EA0306 		and	r6, r4, r3
 727              	.LVL51:
 728              	.L47:
 729              		.loc 1 500 0
 730 0030 23EA0600 		bic	r0, r3, r6
 731 0034 A863     		str	r0, [r5, #56]
 732              		.loc 1 502 0
 733              	@ 502 "../../../ChibiOS/os/kernel/src/chevents.c" 1
 734 0036 FFF7FEFF 		bl      _port_unlock
 735              	@ 0 "" 2
 736              		.thumb
 737              	.L49:
 738              		.loc 1 504 0
 739 003a 3046     		mov	r0, r6
 740 003c 70BD     		pop	{r4, r5, r6, pc}
 741              	.L51:
 742              		.loc 1 495 0
 743              	@ 495 "../../../ChibiOS/os/kernel/src/chevents.c" 1
 744 003e FFF7FEFF 		bl      _port_unlock
 745              	@ 0 "" 2
 746              		.loc 1 496 0
 747              		.thumb
 748 0042 FAE7     		b	.L49
 749              	.L53:
 750              		.align	2
 751              	.L52:
 752 0044 00000000 		.word	rlist
 753              		.cfi_endproc
 754              	.LFE12:
 755              		.size	chEvtWaitAnyTimeout, .-chEvtWaitAnyTimeout
 756 0048 AFF30080 		.section	.text.chEvtWaitAllTimeout,"ax",%progbits
 756      AFF30080 
 757              		.align	2
 758              		.p2align 4,,15
 759              		.global	chEvtWaitAllTimeout
 760              		.thumb
 761              		.thumb_func
 762              		.type	chEvtWaitAllTimeout, %function
 763              	chEvtWaitAllTimeout:
 764              	.LFB13:
 765              		.loc 1 523 0
 766              		.cfi_startproc
 767              		@ args = 0, pretend = 0, frame = 0
 768              		@ frame_needed = 0, uses_anonymous_args = 0
 769              	.LVL52:
 770 0000 38B5     		push	{r3, r4, r5, lr}
 771              	.LCFI12:
 772              		.cfi_def_cfa_offset 16
 773              		.loc 1 524 0
 774 0002 104B     		ldr	r3, .L59
 775              		.cfi_offset 14, -4
ARM GAS  C:\Users\DNIEL~1\AppData\Local\Temp\cc88w4yE.s 			page 15


 776              		.cfi_offset 5, -8
 777              		.cfi_offset 4, -12
 778              		.cfi_offset 3, -16
 779              		.loc 1 523 0
 780 0004 0446     		mov	r4, r0
 781              		.loc 1 524 0
 782 0006 9D69     		ldr	r5, [r3, #24]
 783              	.LVL53:
 784              		.loc 1 526 0
 785              	@ 526 "../../../ChibiOS/os/kernel/src/chevents.c" 1
 786 0008 FFF7FEFF 		bl      _port_lock
 787              	@ 0 "" 2
 788              	.LVL54:
 789              		.loc 1 528 0
 790              		.thumb
 791 000c AB6B     		ldr	r3, [r5, #56]
 792 000e 1840     		ands	r0, r0, r3
 793              	.LVL55:
 794 0010 A042     		cmp	r0, r4
 795 0012 0CD0     		beq	.L55
 796              		.loc 1 529 0
 797 0014 21B9     		cbnz	r1, .L56
 798              		.loc 1 530 0
 799              	@ 530 "../../../ChibiOS/os/kernel/src/chevents.c" 1
 800 0016 FFF7FEFF 		bl      _port_unlock
 801              	@ 0 "" 2
 802              		.loc 1 531 0
 803              		.thumb
 804 001a 0C46     		mov	r4, r1
 805              	.LVL56:
 806              		.loc 1 543 0
 807 001c 2046     		mov	r0, r4
 808 001e 38BD     		pop	{r3, r4, r5, pc}
 809              	.LVL57:
 810              	.L56:
 811              		.loc 1 534 0
 812 0020 0920     		movs	r0, #9
 813              		.loc 1 533 0
 814 0022 6C62     		str	r4, [r5, #36]
 815              		.loc 1 534 0
 816 0024 FFF7FEFF 		bl	chSchGoSleepTimeoutS
 817              	.LVL58:
 818 0028 0028     		cmp	r0, #0
 819 002a 07DB     		blt	.L58
 820 002c AB6B     		ldr	r3, [r5, #56]
 821              	.L55:
 822              		.loc 1 539 0
 823 002e 23EA0401 		bic	r1, r3, r4
 824 0032 A963     		str	r1, [r5, #56]
 825              		.loc 1 541 0
 826              	@ 541 "../../../ChibiOS/os/kernel/src/chevents.c" 1
 827 0034 FFF7FEFF 		bl      _port_unlock
 828              	@ 0 "" 2
 829              	.LVL59:
 830              		.thumb
 831              	.L57:
 832              		.loc 1 543 0
ARM GAS  C:\Users\DNIEL~1\AppData\Local\Temp\cc88w4yE.s 			page 16


 833 0038 2046     		mov	r0, r4
 834 003a 38BD     		pop	{r3, r4, r5, pc}
 835              	.LVL60:
 836              	.L58:
 837              		.loc 1 535 0
 838              	@ 535 "../../../ChibiOS/os/kernel/src/chevents.c" 1
 839 003c FFF7FEFF 		bl      _port_unlock
 840              	@ 0 "" 2
 841              		.loc 1 536 0
 842              		.thumb
 843 0040 0024     		movs	r4, #0
 844              	.LVL61:
 845 0042 F9E7     		b	.L57
 846              	.L60:
 847              		.align	2
 848              	.L59:
 849 0044 00000000 		.word	rlist
 850              		.cfi_endproc
 851              	.LFE13:
 852              		.size	chEvtWaitAllTimeout, .-chEvtWaitAllTimeout
 853 0048 AFF30080 		.text
 853      AFF30080 
 854              	.Letext0: