ARM GAS  C:\Users\DNIEL~1\AppData\Local\Temp\cclh5j0d.s 			page 1


   1              		.syntax unified
   2              		.cpu cortex-m3
   3              		.fpu softvfp
   4              		.eabi_attribute 20, 1
   5              		.eabi_attribute 21, 1
   6              		.eabi_attribute 23, 3
   7              		.eabi_attribute 24, 1
   8              		.eabi_attribute 25, 1
   9              		.eabi_attribute 26, 1
  10              		.eabi_attribute 30, 2
  11              		.eabi_attribute 18, 4
  12              		.thumb
  13              		.file	"chheap.c"
  20 0000 C9020000 		.text
  20      0200D901 
  20      00000201 
  20      FB0E0D00 
  20      01010101 
  21              	.Ltext0:
  22              		.cfi_sections	.debug_frame
  23              		.section	.text._heap_init,"ax",%progbits
  24              		.align	2
  25              		.p2align 4,,15
  26              		.global	_heap_init
  27              		.thumb
  28              		.thumb_func
  29              		.type	_heap_init, %function
  30              	_heap_init:
  31              	.LFB0:
  32              		.file 1 "../../../ChibiOS/os/kernel/src/chheap.c"
  33              		.loc 1 68 0
  34              		.cfi_startproc
  35              		@ args = 0, pretend = 0, frame = 0
  36              		@ frame_needed = 0, uses_anonymous_args = 0
  37              		@ link register save eliminated.
  38              		.loc 1 69 0
  39 0000 044B     		ldr	r3, .L2
  40 0002 0549     		ldr	r1, .L2+4
  41              		.loc 1 70 0
  42 0004 0022     		movs	r2, #0
  43              		.loc 1 73 0
  44 0006 03F11000 		add	r0, r3, #16
  45              		.loc 1 69 0
  46 000a 1960     		str	r1, [r3, #0]
  47              		.loc 1 70 0
  48 000c 9A60     		str	r2, [r3, #8]
  49              		.loc 1 71 0
  50 000e DA60     		str	r2, [r3, #12]
  51              		.loc 1 77 0
  52              		.loc 1 73 0
  53 0010 FFF7FEBF 		b	chMtxInit
ARM GAS  C:\Users\DNIEL~1\AppData\Local\Temp\cclh5j0d.s 			page 2


  54              	.L3:
  55              		.align	2
  56              	.L2:
  57 0014 00000000 		.word	.LANCHOR0
  58 0018 00000000 		.word	chCoreAlloc
  59              		.cfi_endproc
  60              	.LFE0:
  61              		.size	_heap_init, .-_heap_init
  62 001c AFF30080 		.section	.text.chHeapInit,"ax",%progbits
  63              		.align	2
  64              		.p2align 4,,15
  65              		.global	chHeapInit
  66              		.thumb
  67              		.thumb_func
  68              		.type	chHeapInit, %function
  69              	chHeapInit:
  70              	.LFB1:
  71              		.loc 1 92 0
  72              		.cfi_startproc
  73              		@ args = 0, pretend = 0, frame = 0
  74              		@ frame_needed = 0, uses_anonymous_args = 0
  75              		@ link register save eliminated.
  76              	.LVL0:
  77              		.loc 1 97 0
  78 0000 0023     		movs	r3, #0
  79 0002 0360     		str	r3, [r0, #0]
  80              	.LVL1:
  81              		.loc 1 98 0
  82 0004 8160     		str	r1, [r0, #8]
  83              		.loc 1 99 0
  84 0006 C360     		str	r3, [r0, #12]
  85              		.loc 1 101 0
  86 0008 083A     		subs	r2, r2, #8
  87              	.LVL2:
  88              		.loc 1 103 0
  89 000a 1030     		adds	r0, r0, #16
  90              	.LVL3:
  91              		.loc 1 100 0
  92 000c 0B60     		str	r3, [r1, #0]
  93              		.loc 1 101 0
  94 000e 4A60     		str	r2, [r1, #4]
  95              		.loc 1 107 0
  96              		.loc 1 103 0
  97 0010 FFF7FEBF 		b	chMtxInit
  98              		.cfi_endproc
  99              	.LFE1:
 100              		.size	chHeapInit, .-chHeapInit
 101 0014 AFF30080 		.section	.text.chHeapAlloc,"ax",%progbits
 101      AFF30080 
 101      AFF30080 
 102              		.align	2
 103              		.p2align 4,,15
 104              		.global	chHeapAlloc
 105              		.thumb
 106              		.thumb_func
 107              		.type	chHeapAlloc, %function
 108              	chHeapAlloc:
ARM GAS  C:\Users\DNIEL~1\AppData\Local\Temp\cclh5j0d.s 			page 3


 109              	.LFB2:
 110              		.loc 1 125 0
 111              		.cfi_startproc
 112              		@ args = 0, pretend = 0, frame = 0
 113              		@ frame_needed = 0, uses_anonymous_args = 0
 114              	.LVL4:
 115 0000 F8B5     		push	{r3, r4, r5, r6, r7, lr}
 116              	.LCFI0:
 117              		.cfi_def_cfa_offset 24
 118              		.loc 1 129 0
 119 0002 204E     		ldr	r6, .L19
 120              		.cfi_offset 14, -4
 121              		.cfi_offset 7, -8
 122              		.cfi_offset 6, -12
 123              		.cfi_offset 5, -16
 124              		.cfi_offset 4, -20
 125              		.cfi_offset 3, -24
 126              		.loc 1 131 0
 127 0004 0731     		adds	r1, r1, #7
 128              	.LVL5:
 129              		.loc 1 129 0
 130 0006 0028     		cmp	r0, #0
 131 0008 18BF     		it	ne
 132 000a 0646     		movne	r6, r0
 133              	.LVL6:
 134              		.loc 1 133 0
 135 000c 06F11000 		add	r0, r6, #16
 136              		.loc 1 131 0
 137 0010 21F00705 		bic	r5, r1, #7
 138              	.LVL7:
 139              		.loc 1 132 0
 140 0014 06F10804 		add	r4, r6, #8
 141              	.LVL8:
 142              		.loc 1 133 0
 143 0018 FFF7FEFF 		bl	chMtxLock
 144              		.loc 1 135 0
 145 001c 00E0     		b	.L7
 146              	.LVL9:
 147              	.L13:
 148              		.loc 1 137 0
 149 001e 1C46     		mov	r4, r3
 150              	.LVL10:
 151              	.L7:
 152              		.loc 1 135 0 discriminator 1
 153 0020 2368     		ldr	r3, [r4, #0]
 154 0022 F3B1     		cbz	r3, .L17
 155              	.LVL11:
 156              		.loc 1 137 0
 157 0024 5A68     		ldr	r2, [r3, #4]
 158 0026 9542     		cmp	r5, r2
 159 0028 F9D8     		bhi	.L13
 160              		.loc 1 138 0
 161 002a 05F10801 		add	r1, r5, #8
 162 002e 8A42     		cmp	r2, r1
 163 0030 14D3     		bcc	.L18
 164              		.loc 1 148 0
 165 0032 6FF00707 		mvn	r7, #7
ARM GAS  C:\Users\DNIEL~1\AppData\Local\Temp\cclh5j0d.s 			page 4


 166              		.loc 1 147 0
 167 0036 D3F800E0 		ldr	lr, [r3, #0]
 168              		.loc 1 148 0
 169 003a C5EB070C 		rsb	ip, r5, r7
 170 003e 0CEB0200 		add	r0, ip, r2
 171              		.loc 1 146 0
 172 0042 5F18     		adds	r7, r3, r1
 173              	.LVL12:
 174              		.loc 1 147 0
 175 0044 43F801E0 		str	lr, [r3, r1]
 176              		.loc 1 148 0
 177 0048 7860     		str	r0, [r7, #4]
 178              		.loc 1 149 0
 179 004a 2760     		str	r7, [r4, #0]
 180              		.loc 1 150 0
 181 004c 5D60     		str	r5, [r3, #4]
 182              	.LVL13:
 183              	.L9:
 184              		.loc 1 152 0
 185 004e 1C46     		mov	r4, r3
 186              	.LVL14:
 187 0050 44F8086B 		str	r6, [r4], #8
 188              		.loc 1 154 0
 189 0054 FFF7FEFF 		bl	chMtxUnlock
 190              	.LVL15:
 191              	.L10:
 192              		.loc 1 174 0
 193 0058 2046     		mov	r0, r4
 194 005a F8BD     		pop	{r3, r4, r5, r6, r7, pc}
 195              	.LVL16:
 196              	.L18:
 197              		.loc 1 142 0
 198 005c 1A68     		ldr	r2, [r3, #0]
 199 005e 2260     		str	r2, [r4, #0]
 200 0060 F5E7     		b	.L9
 201              	.LVL17:
 202              	.L17:
 203              		.loc 1 160 0
 204 0062 FFF7FEFF 		bl	chMtxUnlock
 205              		.loc 1 164 0
 206 0066 3468     		ldr	r4, [r6, #0]
 207              	.LVL18:
 208 0068 002C     		cmp	r4, #0
 209 006a F5D0     		beq	.L10
 210              		.loc 1 165 0
 211 006c 05F10800 		add	r0, r5, #8
 212 0070 A047     		blx	r4
 213              	.LVL19:
 214              		.loc 1 166 0
 215 0072 20B1     		cbz	r0, .L15
 216              		.loc 1 167 0
 217 0074 0660     		str	r6, [r0, #0]
 218              		.loc 1 168 0
 219 0076 4560     		str	r5, [r0, #4]
 220              		.loc 1 169 0
 221 0078 00F10804 		add	r4, r0, #8
 222              	.LVL20:
ARM GAS  C:\Users\DNIEL~1\AppData\Local\Temp\cclh5j0d.s 			page 5


 223              		.loc 1 170 0
 224 007c ECE7     		b	.L10
 225              	.LVL21:
 226              	.L15:
 227              		.loc 1 173 0
 228 007e 0446     		mov	r4, r0
 229 0080 EAE7     		b	.L10
 230              	.L20:
 231 0082 00BF     		.align	2
 232              	.L19:
 233 0084 00000000 		.word	.LANCHOR0
 234              		.cfi_endproc
 235              	.LFE2:
 236              		.size	chHeapAlloc, .-chHeapAlloc
 237 0088 AFF30080 		.section	.text.chHeapFree,"ax",%progbits
 237      AFF30080 
 238              		.align	2
 239              		.p2align 4,,15
 240              		.global	chHeapFree
 241              		.thumb
 242              		.thumb_func
 243              		.type	chHeapFree, %function
 244              	chHeapFree:
 245              	.LFB3:
 246              		.loc 1 187 0
 247              		.cfi_startproc
 248              		@ args = 0, pretend = 0, frame = 0
 249              		@ frame_needed = 0, uses_anonymous_args = 0
 250              	.LVL22:
 251 0000 70B5     		push	{r4, r5, r6, lr}
 252              	.LCFI1:
 253              		.cfi_def_cfa_offset 16
 254              		.loc 1 187 0
 255 0002 0646     		mov	r6, r0
 256              		.cfi_offset 14, -4
 257              		.cfi_offset 6, -8
 258              		.cfi_offset 5, -12
 259              		.cfi_offset 4, -16
 260              		.loc 1 194 0
 261 0004 50F8080C 		ldr	r0, [r0, #-8]
 262              	.LVL23:
 263              		.loc 1 193 0
 264 0008 A6F10804 		sub	r4, r6, #8
 265              	.LVL24:
 266              		.loc 1 195 0
 267 000c 00F10805 		add	r5, r0, #8
 268              	.LVL25:
 269              		.loc 1 196 0
 270 0010 1030     		adds	r0, r0, #16
 271 0012 FFF7FEFF 		bl	chMtxLock
 272              	.LVL26:
 273              		.loc 1 195 0
 274 0016 2B46     		mov	r3, r5
 275              		.loc 1 203 0
 276 0018 AB42     		cmp	r3, r5
 277 001a 05D0     		beq	.L22
 278              	.LVL27:
ARM GAS  C:\Users\DNIEL~1\AppData\Local\Temp\cclh5j0d.s 			page 6


 279              	.L29:
 280              		.loc 1 203 0 is_stmt 0 discriminator 2
 281 001c A342     		cmp	r3, r4
 282 001e 03D3     		bcc	.L22
 283              		.loc 1 217 0 is_stmt 1
 284 0020 1A68     		ldr	r2, [r3, #0]
 285              	.L25:
 286              	.LVL28:
 287              		.loc 1 221 0
 288 0022 1346     		mov	r3, r2
 289              		.loc 1 203 0
 290 0024 AB42     		cmp	r3, r5
 291 0026 F9D1     		bne	.L29
 292              	.LVL29:
 293              	.L22:
 294              		.loc 1 204 0 discriminator 1
 295 0028 1A68     		ldr	r2, [r3, #0]
 296              		.loc 1 203 0 discriminator 1
 297 002a 0AB1     		cbz	r2, .L24
 298              		.loc 1 204 0
 299 002c 9442     		cmp	r4, r2
 300 002e F8D2     		bcs	.L25
 301              	.L24:
 302              		.loc 1 209 0
 303 0030 6168     		ldr	r1, [r4, #4]
 304              		.loc 1 206 0
 305 0032 46F8082C 		str	r2, [r6, #-8]
 306              		.loc 1 207 0
 307 0036 1C60     		str	r4, [r3, #0]
 308              		.loc 1 209 0
 309 0038 01F10802 		add	r2, r1, #8
 310 003c 56F8085C 		ldr	r5, [r6, #-8]
 311              	.LVL30:
 312 0040 A018     		adds	r0, r4, r2
 313 0042 A842     		cmp	r0, r5
 314 0044 0AD0     		beq	.L30
 315              		.loc 1 214 0
 316 0046 5A68     		ldr	r2, [r3, #4]
 317 0048 02F1080E 		add	lr, r2, #8
 318 004c 03EB0E0C 		add	ip, r3, lr
 319 0050 A445     		cmp	ip, r4
 320 0052 11D0     		beq	.L31
 321              	.L27:
 322              		.loc 1 226 0
 323 0054 BDE87040 		pop	{r4, r5, r6, lr}
 324              		.loc 1 224 0
 325 0058 FFF7FEBF 		b	chMtxUnlock
 326              	.LVL31:
 327              	.L30:
 328              		.loc 1 211 0
 329 005c 4068     		ldr	r0, [r0, #4]
 330              		.loc 1 212 0
 331 005e A258     		ldr	r2, [r4, r2]
 332              		.loc 1 211 0
 333 0060 0918     		adds	r1, r1, r0
 334 0062 0831     		adds	r1, r1, #8
 335 0064 6160     		str	r1, [r4, #4]
ARM GAS  C:\Users\DNIEL~1\AppData\Local\Temp\cclh5j0d.s 			page 7


 336              		.loc 1 212 0
 337 0066 46F8082C 		str	r2, [r6, #-8]
 338              		.loc 1 214 0
 339 006a 5A68     		ldr	r2, [r3, #4]
 340 006c 02F1080E 		add	lr, r2, #8
 341 0070 03EB0E0C 		add	ip, r3, lr
 342 0074 A445     		cmp	ip, r4
 343 0076 EDD1     		bne	.L27
 344              	.L31:
 345              		.loc 1 216 0
 346 0078 6068     		ldr	r0, [r4, #4]
 347              		.loc 1 217 0
 348 007a 56F8081C 		ldr	r1, [r6, #-8]
 349              		.loc 1 216 0
 350 007e 1218     		adds	r2, r2, r0
 351 0080 0832     		adds	r2, r2, #8
 352 0082 5A60     		str	r2, [r3, #4]
 353              		.loc 1 217 0
 354 0084 1960     		str	r1, [r3, #0]
 355 0086 E5E7     		b	.L27
 356              		.cfi_endproc
 357              	.LFE3:
 358              		.size	chHeapFree, .-chHeapFree
 359 0088 AFF30080 		.section	.text.chHeapStatus,"ax",%progbits
 359      AFF30080 
 360              		.align	2
 361              		.p2align 4,,15
 362              		.global	chHeapStatus
 363              		.thumb
 364              		.thumb_func
 365              		.type	chHeapStatus, %function
 366              	chHeapStatus:
 367              	.LFB4:
 368              		.loc 1 243 0
 369              		.cfi_startproc
 370              		@ args = 0, pretend = 0, frame = 0
 371              		@ frame_needed = 0, uses_anonymous_args = 0
 372              	.LVL32:
 373 0000 38B5     		push	{r3, r4, r5, lr}
 374              	.LCFI2:
 375              		.cfi_def_cfa_offset 16
 376              		.loc 1 248 0
 377 0002 0E4C     		ldr	r4, .L40
 378              		.cfi_offset 14, -4
 379              		.cfi_offset 5, -8
 380              		.cfi_offset 4, -12
 381              		.cfi_offset 3, -16
 382              		.loc 1 243 0
 383 0004 0D46     		mov	r5, r1
 384              		.loc 1 248 0
 385 0006 0028     		cmp	r0, #0
 386 0008 18BF     		it	ne
 387 000a 0446     		movne	r4, r0
 388              	.LVL33:
 389              		.loc 1 250 0
 390 000c 04F11000 		add	r0, r4, #16
 391 0010 FFF7FEFF 		bl	chMtxLock
ARM GAS  C:\Users\DNIEL~1\AppData\Local\Temp\cclh5j0d.s 			page 8


 392              	.LVL34:
 393              		.loc 1 253 0
 394 0014 A368     		ldr	r3, [r4, #8]
 395 0016 6BB1     		cbz	r3, .L38
 396              		.loc 1 253 0 is_stmt 0 discriminator 2
 397 0018 0022     		movs	r2, #0
 398 001a 1446     		mov	r4, r2
 399              	.LVL35:
 400              	.L35:
 401              		.loc 1 254 0 is_stmt 1 discriminator 2
 402 001c 5968     		ldr	r1, [r3, #4]
 403              		.loc 1 253 0 discriminator 2
 404 001e 1B68     		ldr	r3, [r3, #0]
 405              		.loc 1 254 0 discriminator 2
 406 0020 5218     		adds	r2, r2, r1
 407              	.LVL36:
 408              		.loc 1 253 0 discriminator 2
 409 0022 0134     		adds	r4, r4, #1
 410              	.LVL37:
 411 0024 002B     		cmp	r3, #0
 412 0026 F9D1     		bne	.L35
 413              	.LVL38:
 414              	.L34:
 415              		.loc 1 255 0
 416 0028 05B1     		cbz	r5, .L36
 417              		.loc 1 256 0
 418 002a 2A60     		str	r2, [r5, #0]
 419              	.L36:
 420              		.loc 1 258 0
 421 002c FFF7FEFF 		bl	chMtxUnlock
 422              		.loc 1 260 0
 423 0030 2046     		mov	r0, r4
 424 0032 38BD     		pop	{r3, r4, r5, pc}
 425              	.LVL39:
 426              	.L38:
 427              		.loc 1 252 0
 428 0034 1A46     		mov	r2, r3
 429              		.loc 1 253 0
 430 0036 1C46     		mov	r4, r3
 431 0038 F6E7     		b	.L34
 432              	.L41:
 433 003a 00BF     		.align	2
 434              	.L40:
 435 003c 00000000 		.word	.LANCHOR0
 436              		.cfi_endproc
 437              	.LFE4:
 438              		.size	chHeapStatus, .-chHeapStatus
 439              		.section	.bss.default_heap,"aw",%nobits
 440              		.align	3
 441              		.set	.LANCHOR0,. + 0
 442              		.type	default_heap, %object
 443              		.size	default_heap, 32
 444              	default_heap:
 445 0000 00000000 		.space	32
 445      00000000 
 445      00000000 
 445      00000000 
ARM GAS  C:\Users\DNIEL~1\AppData\Local\Temp\cclh5j0d.s 			page 9


 445      00000000 
 446              		.text
 447              	.Letext0: