ARM GAS  C:\Users\DNIEL~1\AppData\Local\Temp\ccbq6EAL.s 			page 1


   1              		.syntax unified
   2              		.cpu cortex-m3
   3              		.fpu softvfp
   4              		.eabi_attribute 20, 1
   5              		.eabi_attribute 21, 1
   6              		.eabi_attribute 23, 3
   7              		.eabi_attribute 24, 1
   8              		.eabi_attribute 25, 1
   9              		.eabi_attribute 26, 1
  10              		.eabi_attribute 30, 2
  11              		.eabi_attribute 18, 4
  12              		.thumb
  13              		.file	"chlists.c"
  20 0000 F6010000 		.text
  20      02005201 
  20      00000201 
  20      FB0E0D00 
  20      01010101 
  21              	.Ltext0:
  22              		.cfi_sections	.debug_frame
  23              		.section	.text.prio_insert,"ax",%progbits
  24              		.align	2
  25              		.p2align 4,,15
  26              		.global	prio_insert
  27              		.thumb
  28              		.thumb_func
  29              		.type	prio_insert, %function
  30              	prio_insert:
  31              	.LFB0:
  32              		.file 1 "../../../ChibiOS/os/kernel/src/chlists.c"
  33              		.loc 1 44 0
  34              		.cfi_startproc
  35              		@ args = 0, pretend = 0, frame = 0
  36              		@ frame_needed = 0, uses_anonymous_args = 0
  37              		@ link register save eliminated.
  38              	.LVL0:
  39 0000 10B4     		push	{r4}
  40              	.LCFI0:
  41              		.cfi_def_cfa_offset 4
  42              		.loc 1 47 0
  43 0002 0B46     		mov	r3, r1
  44 0004 03E0     		b	.L3
  45              		.cfi_offset 4, -4
  46              	.LVL1:
  47              	.L7:
  48              		.loc 1 52 0 discriminator 1
  49 0006 9C68     		ldr	r4, [r3, #8]
  50 0008 8268     		ldr	r2, [r0, #8]
  51 000a 9442     		cmp	r4, r2
  52 000c 09D3     		bcc	.L6
  53              	.L3:
ARM GAS  C:\Users\DNIEL~1\AppData\Local\Temp\ccbq6EAL.s 			page 2


  54              		.loc 1 50 0 discriminator 1
  55 000e 1B68     		ldr	r3, [r3, #0]
  56              	.LVL2:
  57              		.loc 1 52 0 discriminator 1
  58 0010 9942     		cmp	r1, r3
  59 0012 F8D1     		bne	.L7
  60              	.LVL3:
  61              	.L2:
  62              		.loc 1 55 0
  63 0014 4B68     		ldr	r3, [r1, #4]
  64              	.LVL4:
  65              		.loc 1 54 0
  66 0016 0160     		str	r1, [r0, #0]
  67              		.loc 1 55 0
  68 0018 4360     		str	r3, [r0, #4]
  69              		.loc 1 56 0
  70 001a 1860     		str	r0, [r3, #0]
  71 001c 4860     		str	r0, [r1, #4]
  72              		.loc 1 57 0
  73 001e 10BC     		pop	{r4}
  74 0020 7047     		bx	lr
  75              	.LVL5:
  76              	.L6:
  77              		.loc 1 50 0
  78 0022 1946     		mov	r1, r3
  79              	.LVL6:
  80 0024 F6E7     		b	.L2
  81              		.cfi_endproc
  82              	.LFE0:
  83              		.size	prio_insert, .-prio_insert
  84 0026 00BFAFF3 		.section	.text.queue_insert,"ax",%progbits
  84      0080AFF3 
  84      0080
  85              		.align	2
  86              		.p2align 4,,15
  87              		.global	queue_insert
  88              		.thumb
  89              		.thumb_func
  90              		.type	queue_insert, %function
  91              	queue_insert:
  92              	.LFB1:
  93              		.loc 1 67 0
  94              		.cfi_startproc
  95              		@ args = 0, pretend = 0, frame = 0
  96              		@ frame_needed = 0, uses_anonymous_args = 0
  97              		@ link register save eliminated.
  98              	.LVL7:
  99              		.loc 1 70 0
 100 0000 4B68     		ldr	r3, [r1, #4]
 101              		.loc 1 69 0
 102 0002 0160     		str	r1, [r0, #0]
 103              		.loc 1 70 0
 104 0004 4360     		str	r3, [r0, #4]
 105              		.loc 1 71 0
 106 0006 4860     		str	r0, [r1, #4]
 107 0008 1860     		str	r0, [r3, #0]
 108              		.loc 1 72 0
ARM GAS  C:\Users\DNIEL~1\AppData\Local\Temp\ccbq6EAL.s 			page 3


 109 000a 7047     		bx	lr
 110              		.cfi_endproc
 111              	.LFE1:
 112              		.size	queue_insert, .-queue_insert
 113 000c AFF30080 		.section	.text.fifo_remove,"ax",%progbits
 114              		.align	2
 115              		.p2align 4,,15
 116              		.global	fifo_remove
 117              		.thumb
 118              		.thumb_func
 119              		.type	fifo_remove, %function
 120              	fifo_remove:
 121              	.LFB2:
 122              		.loc 1 84 0
 123              		.cfi_startproc
 124              		@ args = 0, pretend = 0, frame = 0
 125              		@ frame_needed = 0, uses_anonymous_args = 0
 126              		@ link register save eliminated.
 127              	.LVL8:
 128              		.loc 1 84 0
 129 0000 0346     		mov	r3, r0
 130              		.loc 1 85 0
 131 0002 0068     		ldr	r0, [r0, #0]
 132              	.LVL9:
 133              		.loc 1 87 0
 134 0004 0268     		ldr	r2, [r0, #0]
 135 0006 1A60     		str	r2, [r3, #0]
 136 0008 5360     		str	r3, [r2, #4]
 137              		.loc 1 89 0
 138 000a 7047     		bx	lr
 139              		.cfi_endproc
 140              	.LFE2:
 141              		.size	fifo_remove, .-fifo_remove
 142 000c AFF30080 		.section	.text.lifo_remove,"ax",%progbits
 143              		.align	2
 144              		.p2align 4,,15
 145              		.global	lifo_remove
 146              		.thumb
 147              		.thumb_func
 148              		.type	lifo_remove, %function
 149              	lifo_remove:
 150              	.LFB3:
 151              		.loc 1 101 0
 152              		.cfi_startproc
 153              		@ args = 0, pretend = 0, frame = 0
 154              		@ frame_needed = 0, uses_anonymous_args = 0
 155              		@ link register save eliminated.
 156              	.LVL10:
 157              		.loc 1 101 0
 158 0000 0346     		mov	r3, r0
 159              		.loc 1 102 0
 160 0002 4068     		ldr	r0, [r0, #4]
 161              	.LVL11:
 162              		.loc 1 104 0
 163 0004 4268     		ldr	r2, [r0, #4]
 164 0006 5A60     		str	r2, [r3, #4]
 165 0008 1360     		str	r3, [r2, #0]
ARM GAS  C:\Users\DNIEL~1\AppData\Local\Temp\ccbq6EAL.s 			page 4


 166              		.loc 1 106 0
 167 000a 7047     		bx	lr
 168              		.cfi_endproc
 169              	.LFE3:
 170              		.size	lifo_remove, .-lifo_remove
 171 000c AFF30080 		.section	.text.dequeue,"ax",%progbits
 172              		.align	2
 173              		.p2align 4,,15
 174              		.global	dequeue
 175              		.thumb
 176              		.thumb_func
 177              		.type	dequeue, %function
 178              	dequeue:
 179              	.LFB4:
 180              		.loc 1 118 0
 181              		.cfi_startproc
 182              		@ args = 0, pretend = 0, frame = 0
 183              		@ frame_needed = 0, uses_anonymous_args = 0
 184              		@ link register save eliminated.
 185              	.LVL12:
 186              		.loc 1 120 0
 187 0000 4268     		ldr	r2, [r0, #4]
 188 0002 0168     		ldr	r1, [r0, #0]
 189 0004 1160     		str	r1, [r2, #0]
 190              		.loc 1 121 0
 191 0006 0368     		ldr	r3, [r0, #0]
 192 0008 5A60     		str	r2, [r3, #4]
 193              		.loc 1 123 0
 194 000a 7047     		bx	lr
 195              		.cfi_endproc
 196              	.LFE4:
 197              		.size	dequeue, .-dequeue
 198 000c AFF30080 		.section	.text.list_insert,"ax",%progbits
 199              		.align	2
 200              		.p2align 4,,15
 201              		.global	list_insert
 202              		.thumb
 203              		.thumb_func
 204              		.type	list_insert, %function
 205              	list_insert:
 206              	.LFB5:
 207              		.loc 1 133 0
 208              		.cfi_startproc
 209              		@ args = 0, pretend = 0, frame = 0
 210              		@ frame_needed = 0, uses_anonymous_args = 0
 211              		@ link register save eliminated.
 212              	.LVL13:
 213              		.loc 1 135 0
 214 0000 0B68     		ldr	r3, [r1, #0]
 215 0002 0360     		str	r3, [r0, #0]
 216              		.loc 1 136 0
 217 0004 0860     		str	r0, [r1, #0]
 218              		.loc 1 137 0
 219 0006 7047     		bx	lr
 220              		.cfi_endproc
 221              	.LFE5:
 222              		.size	list_insert, .-list_insert
ARM GAS  C:\Users\DNIEL~1\AppData\Local\Temp\ccbq6EAL.s 			page 5


 223 0008 AFF30080 		.section	.text.list_remove,"ax",%progbits
 223      AFF30080 
 224              		.align	2
 225              		.p2align 4,,15
 226              		.global	list_remove
 227              		.thumb
 228              		.thumb_func
 229              		.type	list_remove, %function
 230              	list_remove:
 231              	.LFB6:
 232              		.loc 1 148 0
 233              		.cfi_startproc
 234              		@ args = 0, pretend = 0, frame = 0
 235              		@ frame_needed = 0, uses_anonymous_args = 0
 236              		@ link register save eliminated.
 237              	.LVL14:
 238              		.loc 1 148 0
 239 0000 0346     		mov	r3, r0
 240              		.loc 1 150 0
 241 0002 0068     		ldr	r0, [r0, #0]
 242              	.LVL15:
 243              		.loc 1 151 0
 244 0004 0268     		ldr	r2, [r0, #0]
 245 0006 1A60     		str	r2, [r3, #0]
 246              		.loc 1 153 0
 247 0008 7047     		bx	lr
 248              		.cfi_endproc
 249              	.LFE6:
 250              		.size	list_remove, .-list_remove
 251 000a 00BFAFF3 		.text
 251      0080
 252              	.Letext0: