ARM GAS  C:\Users\DNIEL~1\AppData\Local\Temp\cc8k9BYW.s 			page 1


   1              		.syntax unified
   2              		.cpu cortex-m3
   3              		.fpu softvfp
   4              		.eabi_attribute 20, 1
   5              		.eabi_attribute 21, 1
   6              		.eabi_attribute 23, 3
   7              		.eabi_attribute 24, 1
   8              		.eabi_attribute 25, 1
   9              		.eabi_attribute 26, 1
  10              		.eabi_attribute 30, 2
  11              		.eabi_attribute 18, 4
  12              		.thumb
  13              		.file	"chlists.c"
  14              		.section	.debug_abbrev,"",%progbits
  15              	.Ldebug_abbrev0:
  16              		.section	.debug_info,"",%progbits
  17              	.Ldebug_info0:
  18              		.section	.debug_line,"",%progbits
  19              	.Ldebug_line0:
  20 0000 F6010000 		.text
  20      02005201 
  20      00000201 
  20      FB0E0D00 
  20      01010101 
  21              	.Ltext0:
  22              		.cfi_sections	.debug_frame
  23              		.section	.text.prio_insert,"ax",%progbits
  24              		.align	2
  25              		.p2align 4,,15
  26              		.global	prio_insert
  27              		.thumb
  28              		.thumb_func
  29              		.type	prio_insert, %function
  30              	prio_insert:
  31              	.LFB0:
  32              		.file 1 "../../../ChibiOS/os/kernel/src/chlists.c"
  33              		.loc 1 51 0
  34              		.cfi_startproc
  35              		@ args = 0, pretend = 0, frame = 0
  36              		@ frame_needed = 0, uses_anonymous_args = 0
  37              		@ link register save eliminated.
  38              	.LVL0:
  39 0000 10B4     		push	{r4}
  40              	.LCFI0:
  41              		.cfi_def_cfa_offset 4
  42              		.loc 1 54 0
  43 0002 0B46     		mov	r3, r1
  44 0004 03E0     		b	.L3
  45              		.cfi_offset 4, -4
  46              	.LVL1:
  47              	.L7:
  48              		.loc 1 59 0 discriminator 1
  49 0006 9C68     		ldr	r4, [r3, #8]
  50 0008 8268     		ldr	r2, [r0, #8]
  51 000a 9442     		cmp	r4, r2
  52 000c 09D3     		bcc	.L6
  53              	.L3:
ARM GAS  C:\Users\DNIEL~1\AppData\Local\Temp\cc8k9BYW.s 			page 2


  54              		.loc 1 57 0 discriminator 1
  55 000e 1B68     		ldr	r3, [r3, #0]
  56              	.LVL2:
  57              		.loc 1 59 0 discriminator 1
  58 0010 9942     		cmp	r1, r3
  59 0012 F8D1     		bne	.L7
  60              	.LVL3:
  61              	.L2:
  62              		.loc 1 62 0
  63 0014 4B68     		ldr	r3, [r1, #4]
  64              	.LVL4:
  65              		.loc 1 61 0
  66 0016 0160     		str	r1, [r0, #0]
  67              		.loc 1 62 0
  68 0018 4360     		str	r3, [r0, #4]
  69              		.loc 1 63 0
  70 001a 1860     		str	r0, [r3, #0]
  71 001c 4860     		str	r0, [r1, #4]
  72              		.loc 1 64 0
  73 001e 10BC     		pop	{r4}
  74 0020 7047     		bx	lr
  75              	.LVL5:
  76              	.L6:
  77              		.loc 1 57 0
  78 0022 1946     		mov	r1, r3
  79              	.LVL6:
  80 0024 F6E7     		b	.L2
  81              		.cfi_endproc
  82              	.LFE0:
  83              		.size	prio_insert, .-prio_insert
  84 0026 00BFAFF3 		.section	.text.queue_insert,"ax",%progbits
  84      0080AFF3 
  84      0080
  85              		.align	2
  86              		.p2align 4,,15
  87              		.global	queue_insert
  88              		.thumb
  89              		.thumb_func
  90              		.type	queue_insert, %function
  91              	queue_insert:
  92              	.LFB1:
  93              		.loc 1 74 0
  94              		.cfi_startproc
  95              		@ args = 0, pretend = 0, frame = 0
  96              		@ frame_needed = 0, uses_anonymous_args = 0
  97              		@ link register save eliminated.
  98              	.LVL7:
  99              		.loc 1 77 0
 100 0000 4B68     		ldr	r3, [r1, #4]
 101              		.loc 1 76 0
 102 0002 0160     		str	r1, [r0, #0]
 103              		.loc 1 77 0
 104 0004 4360     		str	r3, [r0, #4]
 105              		.loc 1 78 0
 106 0006 4860     		str	r0, [r1, #4]
 107 0008 1860     		str	r0, [r3, #0]
 108              		.loc 1 79 0
ARM GAS  C:\Users\DNIEL~1\AppData\Local\Temp\cc8k9BYW.s 			page 3


 109 000a 7047     		bx	lr
 110              		.cfi_endproc
 111              	.LFE1:
 112              		.size	queue_insert, .-queue_insert
 113 000c AFF30080 		.section	.text.fifo_remove,"ax",%progbits
 114              		.align	2
 115              		.p2align 4,,15
 116              		.global	fifo_remove
 117              		.thumb
 118              		.thumb_func
 119              		.type	fifo_remove, %function
 120              	fifo_remove:
 121              	.LFB2:
 122              		.loc 1 91 0
 123              		.cfi_startproc
 124              		@ args = 0, pretend = 0, frame = 0
 125              		@ frame_needed = 0, uses_anonymous_args = 0
 126              		@ link register save eliminated.
 127              	.LVL8:
 128              		.loc 1 91 0
 129 0000 0346     		mov	r3, r0
 130              		.loc 1 92 0
 131 0002 0068     		ldr	r0, [r0, #0]
 132              	.LVL9:
 133              		.loc 1 94 0
 134 0004 0268     		ldr	r2, [r0, #0]
 135 0006 1A60     		str	r2, [r3, #0]
 136 0008 5360     		str	r3, [r2, #4]
 137              		.loc 1 96 0
 138 000a 7047     		bx	lr
 139              		.cfi_endproc
 140              	.LFE2:
 141              		.size	fifo_remove, .-fifo_remove
 142 000c AFF30080 		.section	.text.lifo_remove,"ax",%progbits
 143              		.align	2
 144              		.p2align 4,,15
 145              		.global	lifo_remove
 146              		.thumb
 147              		.thumb_func
 148              		.type	lifo_remove, %function
 149              	lifo_remove:
 150              	.LFB3:
 151              		.loc 1 108 0
 152              		.cfi_startproc
 153              		@ args = 0, pretend = 0, frame = 0
 154              		@ frame_needed = 0, uses_anonymous_args = 0
 155              		@ link register save eliminated.
 156              	.LVL10:
 157              		.loc 1 108 0
 158 0000 0346     		mov	r3, r0
 159              		.loc 1 109 0
 160 0002 4068     		ldr	r0, [r0, #4]
 161              	.LVL11:
 162              		.loc 1 111 0
 163 0004 4268     		ldr	r2, [r0, #4]
 164 0006 5A60     		str	r2, [r3, #4]
 165 0008 1360     		str	r3, [r2, #0]
ARM GAS  C:\Users\DNIEL~1\AppData\Local\Temp\cc8k9BYW.s 			page 4


 166              		.loc 1 113 0
 167 000a 7047     		bx	lr
 168              		.cfi_endproc
 169              	.LFE3:
 170              		.size	lifo_remove, .-lifo_remove
 171 000c AFF30080 		.section	.text.dequeue,"ax",%progbits
 172              		.align	2
 173              		.p2align 4,,15
 174              		.global	dequeue
 175              		.thumb
 176              		.thumb_func
 177              		.type	dequeue, %function
 178              	dequeue:
 179              	.LFB4:
 180              		.loc 1 125 0
 181              		.cfi_startproc
 182              		@ args = 0, pretend = 0, frame = 0
 183              		@ frame_needed = 0, uses_anonymous_args = 0
 184              		@ link register save eliminated.
 185              	.LVL12:
 186              		.loc 1 127 0
 187 0000 4268     		ldr	r2, [r0, #4]
 188 0002 0168     		ldr	r1, [r0, #0]
 189 0004 1160     		str	r1, [r2, #0]
 190              		.loc 1 128 0
 191 0006 0368     		ldr	r3, [r0, #0]
 192 0008 5A60     		str	r2, [r3, #4]
 193              		.loc 1 130 0
 194 000a 7047     		bx	lr
 195              		.cfi_endproc
 196              	.LFE4:
 197              		.size	dequeue, .-dequeue
 198 000c AFF30080 		.section	.text.list_insert,"ax",%progbits
 199              		.align	2
 200              		.p2align 4,,15
 201              		.global	list_insert
 202              		.thumb
 203              		.thumb_func
 204              		.type	list_insert, %function
 205              	list_insert:
 206              	.LFB5:
 207              		.loc 1 140 0
 208              		.cfi_startproc
 209              		@ args = 0, pretend = 0, frame = 0
 210              		@ frame_needed = 0, uses_anonymous_args = 0
 211              		@ link register save eliminated.
 212              	.LVL13:
 213              		.loc 1 142 0
 214 0000 0B68     		ldr	r3, [r1, #0]
 215 0002 0360     		str	r3, [r0, #0]
 216              		.loc 1 143 0
 217 0004 0860     		str	r0, [r1, #0]
 218              		.loc 1 144 0
 219 0006 7047     		bx	lr
 220              		.cfi_endproc
 221              	.LFE5:
 222              		.size	list_insert, .-list_insert
ARM GAS  C:\Users\DNIEL~1\AppData\Local\Temp\cc8k9BYW.s 			page 5


 223 0008 AFF30080 		.section	.text.list_remove,"ax",%progbits
 223      AFF30080 
 224              		.align	2
 225              		.p2align 4,,15
 226              		.global	list_remove
 227              		.thumb
 228              		.thumb_func
 229              		.type	list_remove, %function
 230              	list_remove:
 231              	.LFB6:
 232              		.loc 1 155 0
 233              		.cfi_startproc
 234              		@ args = 0, pretend = 0, frame = 0
 235              		@ frame_needed = 0, uses_anonymous_args = 0
 236              		@ link register save eliminated.
 237              	.LVL14:
 238              		.loc 1 155 0
 239 0000 0346     		mov	r3, r0
 240              		.loc 1 157 0
 241 0002 0068     		ldr	r0, [r0, #0]
 242              	.LVL15:
 243              		.loc 1 158 0
 244 0004 0268     		ldr	r2, [r0, #0]
 245 0006 1A60     		str	r2, [r3, #0]
 246              		.loc 1 160 0
 247 0008 7047     		bx	lr
 248              		.cfi_endproc
 249              	.LFE6:
 250              		.size	list_remove, .-list_remove
 251 000a 00BFAFF3 		.text
 251      0080
 252              	.Letext0:
 253              		.section	.debug_loc,"",%progbits
 254              	.Ldebug_loc0:
 255              	.LLST0:
 256 0000 00000000 		.4byte	.LFB0
 257 0004 02000000 		.4byte	.LCFI0
 258 0008 0200     		.2byte	0x2
 259 000a 7D       		.byte	0x7d
 260 000b 00       		.sleb128 0
 261 000c 02000000 		.4byte	.LCFI0
 262 0010 26000000 		.4byte	.LFE0
 263 0014 0200     		.2byte	0x2
 264 0016 7D       		.byte	0x7d
 265 0017 04       		.sleb128 4
 266 0018 00000000 		.4byte	0x0
 267 001c 00000000 		.4byte	0x0
 268              	.LLST1:
 269 0020 00000000 		.4byte	.LVL0
 270 0024 14000000 		.4byte	.LVL3
 271 0028 0100     		.2byte	0x1
 272 002a 51       		.byte	0x51
 273 002b 22000000 		.4byte	.LVL5
 274 002f 24000000 		.4byte	.LVL6
 275 0033 0100     		.2byte	0x1
 276 0035 51       		.byte	0x51
 277 0036 00000000 		.4byte	0x0
ARM GAS  C:\Users\DNIEL~1\AppData\Local\Temp\cc8k9BYW.s 			page 6


 278 003a 00000000 		.4byte	0x0
 279              	.LLST2:
 280 003e 00000000 		.4byte	.LVL0
 281 0042 06000000 		.4byte	.LVL1
 282 0046 0100     		.2byte	0x1
 283 0048 51       		.byte	0x51
 284 0049 06000000 		.4byte	.LVL1
 285 004d 10000000 		.4byte	.LVL2
 286 0051 0100     		.2byte	0x1
 287 0053 53       		.byte	0x53
 288 0054 10000000 		.4byte	.LVL2
 289 0058 16000000 		.4byte	.LVL4
 290 005c 0100     		.2byte	0x1
 291 005e 53       		.byte	0x53
 292 005f 22000000 		.4byte	.LVL5
 293 0063 26000000 		.4byte	.LFE0
 294 0067 0100     		.2byte	0x1
 295 0069 53       		.byte	0x53
 296 006a 00000000 		.4byte	0x0
 297 006e 00000000 		.4byte	0x0
 298              	.LLST3:
 299 0072 00000000 		.4byte	.LVL8
 300 0076 04000000 		.4byte	.LVL9
 301 007a 0100     		.2byte	0x1
 302 007c 50       		.byte	0x50
 303 007d 04000000 		.4byte	.LVL9
 304 0081 0C000000 		.4byte	.LFE2
 305 0085 0100     		.2byte	0x1
 306 0087 53       		.byte	0x53
 307 0088 00000000 		.4byte	0x0
 308 008c 00000000 		.4byte	0x0
 309              	.LLST4:
 310 0090 00000000 		.4byte	.LVL10
 311 0094 04000000 		.4byte	.LVL11
 312 0098 0100     		.2byte	0x1
 313 009a 50       		.byte	0x50
 314 009b 04000000 		.4byte	.LVL11
 315 009f 0C000000 		.4byte	.LFE3
 316 00a3 0100     		.2byte	0x1
 317 00a5 53       		.byte	0x53
 318 00a6 00000000 		.4byte	0x0
 319 00aa 00000000 		.4byte	0x0
 320              	.LLST5:
 321 00ae 00000000 		.4byte	.LVL14
 322 00b2 04000000 		.4byte	.LVL15
 323 00b6 0100     		.2byte	0x1
 324 00b8 50       		.byte	0x50
 325 00b9 04000000 		.4byte	.LVL15
 326 00bd 0A000000 		.4byte	.LFE6
 327 00c1 0100     		.2byte	0x1
 328 00c3 53       		.byte	0x53
 329 00c4 00000000 		.4byte	0x0
 330 00c8 00000000 		.4byte	0x0
 331              		.file 2 "c:\\program files (x86)\\codesourcery\\sourcery g++ lite\\bin\\../lib/gcc/arm-none-eabi/4
 332              		.file 3 "../../../ChibiOS/os/ports/GCC/ARMCMx/chtypes.h"
 333              		.file 4 "../../../ChibiOS/os/kernel/include/chlists.h"
 334              		.file 5 "../../../ChibiOS/os/kernel/include/chthreads.h"
ARM GAS  C:\Users\DNIEL~1\AppData\Local\Temp\cc8k9BYW.s 			page 7


 335              		.file 6 "../../../ChibiOS/os/ports/GCC/ARMCMx/chcore_v7m.h"
 336              		.file 7 "../../../ChibiOS/os/kernel/include/chmtx.h"
 337              		.section	.debug_info
 338 0000 4F050000 		.4byte	0x54f
 339 0004 0200     		.2byte	0x2
 340 0006 00000000 		.4byte	.Ldebug_abbrev0
 341 000a 04       		.byte	0x4
 342 000b 01       		.uleb128 0x1
 343 000c 99020000 		.4byte	.LASF62
 344 0010 01       		.byte	0x1
 345 0011 69020000 		.4byte	.LASF63
 346 0015 C3000000 		.4byte	.LASF64
 347 0019 00000000 		.4byte	0x0
 348 001d 00000000 		.4byte	0x0
 349 0021 00000000 		.4byte	.Ldebug_ranges0+0x0
 350 0025 00000000 		.4byte	.Ldebug_line0
 351 0029 02       		.uleb128 0x2
 352 002a 04       		.byte	0x4
 353 002b 05       		.byte	0x5
 354 002c 696E7400 		.ascii	"int\000"
 355 0030 03       		.uleb128 0x3
 356 0031 04       		.byte	0x4
 357 0032 07       		.byte	0x7
 358 0033 B6000000 		.4byte	.LASF0
 359 0037 03       		.uleb128 0x3
 360 0038 01       		.byte	0x1
 361 0039 06       		.byte	0x6
 362 003a 4F000000 		.4byte	.LASF1
 363 003e 04       		.uleb128 0x4
 364 003f 61020000 		.4byte	.LASF5
 365 0043 02       		.byte	0x2
 366 0044 2A       		.byte	0x2a
 367 0045 49000000 		.4byte	0x49
 368 0049 03       		.uleb128 0x3
 369 004a 01       		.byte	0x1
 370 004b 08       		.byte	0x8
 371 004c A3010000 		.4byte	.LASF2
 372 0050 03       		.uleb128 0x3
 373 0051 02       		.byte	0x2
 374 0052 05       		.byte	0x5
 375 0053 BB010000 		.4byte	.LASF3
 376 0057 03       		.uleb128 0x3
 377 0058 02       		.byte	0x2
 378 0059 07       		.byte	0x7
 379 005a 0A010000 		.4byte	.LASF4
 380 005e 04       		.uleb128 0x4
 381 005f 9B010000 		.4byte	.LASF6
 382 0063 02       		.byte	0x2
 383 0064 4F       		.byte	0x4f
 384 0065 69000000 		.4byte	0x69
 385 0069 03       		.uleb128 0x3
 386 006a 04       		.byte	0x4
 387 006b 05       		.byte	0x5
 388 006c 87000000 		.4byte	.LASF7
 389 0070 04       		.uleb128 0x4
 390 0071 FF010000 		.4byte	.LASF8
 391 0075 02       		.byte	0x2
ARM GAS  C:\Users\DNIEL~1\AppData\Local\Temp\cc8k9BYW.s 			page 8


 392 0076 50       		.byte	0x50
 393 0077 7B000000 		.4byte	0x7b
 394 007b 03       		.uleb128 0x3
 395 007c 04       		.byte	0x4
 396 007d 07       		.byte	0x7
 397 007e 5B000000 		.4byte	.LASF9
 398 0082 03       		.uleb128 0x3
 399 0083 08       		.byte	0x8
 400 0084 05       		.byte	0x5
 401 0085 41000000 		.4byte	.LASF10
 402 0089 03       		.uleb128 0x3
 403 008a 08       		.byte	0x8
 404 008b 07       		.byte	0x7
 405 008c 1A000000 		.4byte	.LASF11
 406 0090 03       		.uleb128 0x3
 407 0091 01       		.byte	0x1
 408 0092 02       		.byte	0x2
 409 0093 95010000 		.4byte	.LASF12
 410 0097 04       		.uleb128 0x4
 411 0098 2F010000 		.4byte	.LASF13
 412 009c 03       		.byte	0x3
 413 009d 2C       		.byte	0x2c
 414 009e 3E000000 		.4byte	0x3e
 415 00a2 04       		.uleb128 0x4
 416 00a3 90000000 		.4byte	.LASF14
 417 00a7 03       		.byte	0x3
 418 00a8 2D       		.byte	0x2d
 419 00a9 3E000000 		.4byte	0x3e
 420 00ad 04       		.uleb128 0x4
 421 00ae 7E010000 		.4byte	.LASF15
 422 00b2 03       		.byte	0x3
 423 00b3 2E       		.byte	0x2e
 424 00b4 3E000000 		.4byte	0x3e
 425 00b8 04       		.uleb128 0x4
 426 00b9 7D000000 		.4byte	.LASF16
 427 00bd 03       		.byte	0x3
 428 00be 2F       		.byte	0x2f
 429 00bf 3E000000 		.4byte	0x3e
 430 00c3 04       		.uleb128 0x4
 431 00c4 8D010000 		.4byte	.LASF17
 432 00c8 03       		.byte	0x3
 433 00c9 30       		.byte	0x30
 434 00ca 70000000 		.4byte	0x70
 435 00ce 04       		.uleb128 0x4
 436 00cf 1D010000 		.4byte	.LASF18
 437 00d3 03       		.byte	0x3
 438 00d4 31       		.byte	0x31
 439 00d5 5E000000 		.4byte	0x5e
 440 00d9 04       		.uleb128 0x4
 441 00da 43010000 		.4byte	.LASF19
 442 00de 03       		.byte	0x3
 443 00df 33       		.byte	0x33
 444 00e0 70000000 		.4byte	0x70
 445 00e4 04       		.uleb128 0x4
 446 00e5 20020000 		.4byte	.LASF20
 447 00e9 03       		.byte	0x3
 448 00ea 35       		.byte	0x35
ARM GAS  C:\Users\DNIEL~1\AppData\Local\Temp\cc8k9BYW.s 			page 9


 449 00eb 70000000 		.4byte	0x70
 450 00ef 04       		.uleb128 0x4
 451 00f0 ED010000 		.4byte	.LASF21
 452 00f4 04       		.byte	0x4
 453 00f5 2A       		.byte	0x2a
 454 00f6 FA000000 		.4byte	0xfa
 455 00fa 05       		.uleb128 0x5
 456 00fb ED010000 		.4byte	.LASF21
 457 00ff 48       		.byte	0x48
 458 0100 05       		.byte	0x5
 459 0101 5E       		.byte	0x5e
 460 0102 1F020000 		.4byte	0x21f
 461 0106 06       		.uleb128 0x6
 462 0107 DE010000 		.4byte	.LASF22
 463 010b 05       		.byte	0x5
 464 010c 5F       		.byte	0x5f
 465 010d 44020000 		.4byte	0x244
 466 0111 02       		.byte	0x2
 467 0112 23       		.byte	0x23
 468 0113 00       		.uleb128 0x0
 469 0114 06       		.uleb128 0x6
 470 0115 86010000 		.4byte	.LASF23
 471 0119 05       		.byte	0x5
 472 011a 61       		.byte	0x61
 473 011b 44020000 		.4byte	0x244
 474 011f 02       		.byte	0x2
 475 0120 23       		.byte	0x23
 476 0121 04       		.uleb128 0x4
 477 0122 06       		.uleb128 0x6
 478 0123 3A000000 		.4byte	.LASF24
 479 0127 05       		.byte	0x5
 480 0128 63       		.byte	0x63
 481 0129 C3000000 		.4byte	0xc3
 482 012d 02       		.byte	0x2
 483 012e 23       		.byte	0x23
 484 012f 08       		.uleb128 0x8
 485 0130 06       		.uleb128 0x6
 486 0131 B4020000 		.4byte	.LASF25
 487 0135 05       		.byte	0x5
 488 0136 64       		.byte	0x64
 489 0137 12030000 		.4byte	0x312
 490 013b 02       		.byte	0x2
 491 013c 23       		.byte	0x23
 492 013d 0C       		.uleb128 0xc
 493 013e 06       		.uleb128 0x6
 494 013f 99000000 		.4byte	.LASF26
 495 0143 05       		.byte	0x5
 496 0144 66       		.byte	0x66
 497 0145 44020000 		.4byte	0x244
 498 0149 02       		.byte	0x2
 499 014a 23       		.byte	0x23
 500 014b 10       		.uleb128 0x10
 501 014c 06       		.uleb128 0x6
 502 014d 55010000 		.4byte	.LASF27
 503 0151 05       		.byte	0x5
 504 0152 67       		.byte	0x67
 505 0153 44020000 		.4byte	0x244
ARM GAS  C:\Users\DNIEL~1\AppData\Local\Temp\cc8k9BYW.s 			page 10


 506 0157 02       		.byte	0x2
 507 0158 23       		.byte	0x23
 508 0159 14       		.uleb128 0x14
 509 015a 06       		.uleb128 0x6
 510 015b A5020000 		.4byte	.LASF28
 511 015f 05       		.byte	0x5
 512 0160 6E       		.byte	0x6e
 513 0161 B7030000 		.4byte	0x3b7
 514 0165 02       		.byte	0x2
 515 0166 23       		.byte	0x23
 516 0167 18       		.uleb128 0x18
 517 0168 06       		.uleb128 0x6
 518 0169 C5010000 		.4byte	.LASF29
 519 016d 05       		.byte	0x5
 520 016e 79       		.byte	0x79
 521 016f A2000000 		.4byte	0xa2
 522 0173 02       		.byte	0x2
 523 0174 23       		.byte	0x23
 524 0175 1C       		.uleb128 0x1c
 525 0176 06       		.uleb128 0x6
 526 0177 E5010000 		.4byte	.LASF30
 527 017b 05       		.byte	0x5
 528 017c 7D       		.byte	0x7d
 529 017d 97000000 		.4byte	0x97
 530 0181 02       		.byte	0x2
 531 0182 23       		.byte	0x23
 532 0183 1D       		.uleb128 0x1d
 533 0184 06       		.uleb128 0x6
 534 0185 5A020000 		.4byte	.LASF31
 535 0189 05       		.byte	0x5
 536 018a 82       		.byte	0x82
 537 018b AD000000 		.4byte	0xad
 538 018f 02       		.byte	0x2
 539 0190 23       		.byte	0x23
 540 0191 1E       		.uleb128 0x1e
 541 0192 06       		.uleb128 0x6
 542 0193 CD010000 		.4byte	.LASF32
 543 0197 05       		.byte	0x5
 544 0198 88       		.byte	0x88
 545 0199 B8000000 		.4byte	0xb8
 546 019d 02       		.byte	0x2
 547 019e 23       		.byte	0x23
 548 019f 1F       		.uleb128 0x1f
 549 01a0 06       		.uleb128 0x6
 550 01a1 35020000 		.4byte	.LASF33
 551 01a5 05       		.byte	0x5
 552 01a6 8F       		.byte	0x8f
 553 01a7 35030000 		.4byte	0x335
 554 01ab 02       		.byte	0x2
 555 01ac 23       		.byte	0x23
 556 01ad 20       		.uleb128 0x20
 557 01ae 07       		.uleb128 0x7
 558 01af 705F7500 		.ascii	"p_u\000"
 559 01b3 05       		.byte	0x5
 560 01b4 B4       		.byte	0xb4
 561 01b5 82030000 		.4byte	0x382
 562 01b9 02       		.byte	0x2
ARM GAS  C:\Users\DNIEL~1\AppData\Local\Temp\cc8k9BYW.s 			page 11


 563 01ba 23       		.byte	0x23
 564 01bb 24       		.uleb128 0x24
 565 01bc 06       		.uleb128 0x6
 566 01bd BA020000 		.4byte	.LASF34
 567 01c1 05       		.byte	0x5
 568 01c2 B9       		.byte	0xb9
 569 01c3 6C020000 		.4byte	0x26c
 570 01c7 02       		.byte	0x2
 571 01c8 23       		.byte	0x23
 572 01c9 28       		.uleb128 0x28
 573 01ca 06       		.uleb128 0x6
 574 01cb 4F020000 		.4byte	.LASF35
 575 01cf 05       		.byte	0x5
 576 01d0 BF       		.byte	0xbf
 577 01d1 4A020000 		.4byte	0x24a
 578 01d5 02       		.byte	0x2
 579 01d6 23       		.byte	0x23
 580 01d7 2C       		.uleb128 0x2c
 581 01d8 06       		.uleb128 0x6
 582 01d9 00000000 		.4byte	.LASF36
 583 01dd 05       		.byte	0x5
 584 01de C3       		.byte	0xc3
 585 01df CE000000 		.4byte	0xce
 586 01e3 02       		.byte	0x2
 587 01e4 23       		.byte	0x23
 588 01e5 34       		.uleb128 0x34
 589 01e6 06       		.uleb128 0x6
 590 01e7 F4010000 		.4byte	.LASF37
 591 01eb 05       		.byte	0x5
 592 01ec C9       		.byte	0xc9
 593 01ed D9000000 		.4byte	0xd9
 594 01f1 02       		.byte	0x2
 595 01f2 23       		.byte	0x23
 596 01f3 38       		.uleb128 0x38
 597 01f4 06       		.uleb128 0x6
 598 01f5 B1010000 		.4byte	.LASF38
 599 01f9 05       		.byte	0x5
 600 01fa D0       		.byte	0xd0
 601 01fb C9030000 		.4byte	0x3c9
 602 01ff 02       		.byte	0x2
 603 0200 23       		.byte	0x23
 604 0201 3C       		.uleb128 0x3c
 605 0202 06       		.uleb128 0x6
 606 0203 2A020000 		.4byte	.LASF39
 607 0207 05       		.byte	0x5
 608 0208 D4       		.byte	0xd4
 609 0209 C3000000 		.4byte	0xc3
 610 020d 02       		.byte	0x2
 611 020e 23       		.byte	0x23
 612 020f 40       		.uleb128 0x40
 613 0210 06       		.uleb128 0x6
 614 0211 6D000000 		.4byte	.LASF40
 615 0215 05       		.byte	0x5
 616 0216 DA       		.byte	0xda
 617 0217 82020000 		.4byte	0x282
 618 021b 02       		.byte	0x2
 619 021c 23       		.byte	0x23
ARM GAS  C:\Users\DNIEL~1\AppData\Local\Temp\cc8k9BYW.s 			page 12


 620 021d 44       		.uleb128 0x44
 621 021e 00       		.byte	0x0
 622 021f 08       		.uleb128 0x8
 623 0220 08       		.byte	0x8
 624 0221 04       		.byte	0x4
 625 0222 61       		.byte	0x61
 626 0223 44020000 		.4byte	0x244
 627 0227 06       		.uleb128 0x6
 628 0228 DE010000 		.4byte	.LASF22
 629 022c 04       		.byte	0x4
 630 022d 62       		.byte	0x62
 631 022e 44020000 		.4byte	0x244
 632 0232 02       		.byte	0x2
 633 0233 23       		.byte	0x23
 634 0234 00       		.uleb128 0x0
 635 0235 06       		.uleb128 0x6
 636 0236 86010000 		.4byte	.LASF23
 637 023a 04       		.byte	0x4
 638 023b 64       		.byte	0x64
 639 023c 44020000 		.4byte	0x244
 640 0240 02       		.byte	0x2
 641 0241 23       		.byte	0x23
 642 0242 04       		.uleb128 0x4
 643 0243 00       		.byte	0x0
 644 0244 09       		.uleb128 0x9
 645 0245 04       		.byte	0x4
 646 0246 EF000000 		.4byte	0xef
 647 024a 04       		.uleb128 0x4
 648 024b 5D010000 		.4byte	.LASF41
 649 024f 04       		.byte	0x4
 650 0250 66       		.byte	0x66
 651 0251 1F020000 		.4byte	0x21f
 652 0255 08       		.uleb128 0x8
 653 0256 04       		.byte	0x4
 654 0257 04       		.byte	0x4
 655 0258 6B       		.byte	0x6b
 656 0259 6C020000 		.4byte	0x26c
 657 025d 06       		.uleb128 0x6
 658 025e DE010000 		.4byte	.LASF22
 659 0262 04       		.byte	0x4
 660 0263 6D       		.byte	0x6d
 661 0264 44020000 		.4byte	0x244
 662 0268 02       		.byte	0x2
 663 0269 23       		.byte	0x23
 664 026a 00       		.uleb128 0x0
 665 026b 00       		.byte	0x0
 666 026c 04       		.uleb128 0x4
 667 026d 37010000 		.4byte	.LASF42
 668 0271 04       		.byte	0x4
 669 0272 70       		.byte	0x70
 670 0273 55020000 		.4byte	0x255
 671 0277 04       		.uleb128 0x4
 672 0278 AD000000 		.4byte	.LASF43
 673 027c 06       		.byte	0x6
 674 027d E5       		.byte	0xe5
 675 027e 82020000 		.4byte	0x282
 676 0282 0A       		.uleb128 0xa
ARM GAS  C:\Users\DNIEL~1\AppData\Local\Temp\cc8k9BYW.s 			page 13


 677 0283 04       		.byte	0x4
 678 0284 0B       		.uleb128 0xb
 679 0285 48020000 		.4byte	.LASF44
 680 0289 24       		.byte	0x24
 681 028a 06       		.byte	0x6
 682 028b 0C01     		.2byte	0x10c
 683 028d 12030000 		.4byte	0x312
 684 0291 0C       		.uleb128 0xc
 685 0292 723400   		.ascii	"r4\000"
 686 0295 06       		.byte	0x6
 687 0296 1F01     		.2byte	0x11f
 688 0298 77020000 		.4byte	0x277
 689 029c 02       		.byte	0x2
 690 029d 23       		.byte	0x23
 691 029e 00       		.uleb128 0x0
 692 029f 0C       		.uleb128 0xc
 693 02a0 723500   		.ascii	"r5\000"
 694 02a3 06       		.byte	0x6
 695 02a4 2001     		.2byte	0x120
 696 02a6 77020000 		.4byte	0x277
 697 02aa 02       		.byte	0x2
 698 02ab 23       		.byte	0x23
 699 02ac 04       		.uleb128 0x4
 700 02ad 0C       		.uleb128 0xc
 701 02ae 723600   		.ascii	"r6\000"
 702 02b1 06       		.byte	0x6
 703 02b2 2101     		.2byte	0x121
 704 02b4 77020000 		.4byte	0x277
 705 02b8 02       		.byte	0x2
 706 02b9 23       		.byte	0x23
 707 02ba 08       		.uleb128 0x8
 708 02bb 0C       		.uleb128 0xc
 709 02bc 723700   		.ascii	"r7\000"
 710 02bf 06       		.byte	0x6
 711 02c0 2201     		.2byte	0x122
 712 02c2 77020000 		.4byte	0x277
 713 02c6 02       		.byte	0x2
 714 02c7 23       		.byte	0x23
 715 02c8 0C       		.uleb128 0xc
 716 02c9 0C       		.uleb128 0xc
 717 02ca 723800   		.ascii	"r8\000"
 718 02cd 06       		.byte	0x6
 719 02ce 2301     		.2byte	0x123
 720 02d0 77020000 		.4byte	0x277
 721 02d4 02       		.byte	0x2
 722 02d5 23       		.byte	0x23
 723 02d6 10       		.uleb128 0x10
 724 02d7 0C       		.uleb128 0xc
 725 02d8 723900   		.ascii	"r9\000"
 726 02db 06       		.byte	0x6
 727 02dc 2401     		.2byte	0x124
 728 02de 77020000 		.4byte	0x277
 729 02e2 02       		.byte	0x2
 730 02e3 23       		.byte	0x23
 731 02e4 14       		.uleb128 0x14
 732 02e5 0C       		.uleb128 0xc
 733 02e6 72313000 		.ascii	"r10\000"
ARM GAS  C:\Users\DNIEL~1\AppData\Local\Temp\cc8k9BYW.s 			page 14


 734 02ea 06       		.byte	0x6
 735 02eb 2501     		.2byte	0x125
 736 02ed 77020000 		.4byte	0x277
 737 02f1 02       		.byte	0x2
 738 02f2 23       		.byte	0x23
 739 02f3 18       		.uleb128 0x18
 740 02f4 0C       		.uleb128 0xc
 741 02f5 72313100 		.ascii	"r11\000"
 742 02f9 06       		.byte	0x6
 743 02fa 2601     		.2byte	0x126
 744 02fc 77020000 		.4byte	0x277
 745 0300 02       		.byte	0x2
 746 0301 23       		.byte	0x23
 747 0302 1C       		.uleb128 0x1c
 748 0303 0C       		.uleb128 0xc
 749 0304 6C7200   		.ascii	"lr\000"
 750 0307 06       		.byte	0x6
 751 0308 2701     		.2byte	0x127
 752 030a 77020000 		.4byte	0x277
 753 030e 02       		.byte	0x2
 754 030f 23       		.byte	0x23
 755 0310 20       		.uleb128 0x20
 756 0311 00       		.byte	0x0
 757 0312 0B       		.uleb128 0xb
 758 0313 02010000 		.4byte	.LASF45
 759 0317 04       		.byte	0x4
 760 0318 06       		.byte	0x6
 761 0319 3101     		.2byte	0x131
 762 031b 2F030000 		.4byte	0x32f
 763 031f 0C       		.uleb128 0xc
 764 0320 72313300 		.ascii	"r13\000"
 765 0324 06       		.byte	0x6
 766 0325 3201     		.2byte	0x132
 767 0327 2F030000 		.4byte	0x32f
 768 032b 02       		.byte	0x2
 769 032c 23       		.byte	0x23
 770 032d 00       		.uleb128 0x0
 771 032e 00       		.byte	0x0
 772 032f 09       		.uleb128 0x9
 773 0330 04       		.byte	0x4
 774 0331 84020000 		.4byte	0x284
 775 0335 0D       		.uleb128 0xd
 776 0336 E4000000 		.4byte	0xe4
 777 033a 05       		.uleb128 0x5
 778 033b 4F010000 		.4byte	.LASF46
 779 033f 10       		.byte	0x10
 780 0340 07       		.byte	0x7
 781 0341 2C       		.byte	0x2c
 782 0342 71030000 		.4byte	0x371
 783 0346 06       		.uleb128 0x6
 784 0347 75000000 		.4byte	.LASF47
 785 034b 07       		.byte	0x7
 786 034c 2D       		.byte	0x2d
 787 034d 4A020000 		.4byte	0x24a
 788 0351 02       		.byte	0x2
 789 0352 23       		.byte	0x23
 790 0353 00       		.uleb128 0x0
ARM GAS  C:\Users\DNIEL~1\AppData\Local\Temp\cc8k9BYW.s 			page 15


 791 0354 06       		.uleb128 0x6
 792 0355 AC020000 		.4byte	.LASF48
 793 0359 07       		.byte	0x7
 794 035a 2F       		.byte	0x2f
 795 035b 44020000 		.4byte	0x244
 796 035f 02       		.byte	0x2
 797 0360 23       		.byte	0x23
 798 0361 08       		.uleb128 0x8
 799 0362 06       		.uleb128 0x6
 800 0363 19020000 		.4byte	.LASF49
 801 0367 07       		.byte	0x7
 802 0368 31       		.byte	0x31
 803 0369 71030000 		.4byte	0x371
 804 036d 02       		.byte	0x2
 805 036e 23       		.byte	0x23
 806 036f 0C       		.uleb128 0xc
 807 0370 00       		.byte	0x0
 808 0371 09       		.uleb128 0x9
 809 0372 04       		.byte	0x4
 810 0373 3A030000 		.4byte	0x33a
 811 0377 04       		.uleb128 0x4
 812 0378 4F010000 		.4byte	.LASF46
 813 037c 07       		.byte	0x7
 814 037d 33       		.byte	0x33
 815 037e 3A030000 		.4byte	0x33a
 816 0382 0E       		.uleb128 0xe
 817 0383 04       		.byte	0x4
 818 0384 05       		.byte	0x5
 819 0385 96       		.byte	0x96
 820 0386 B7030000 		.4byte	0x3b7
 821 038a 0F       		.uleb128 0xf
 822 038b 13000000 		.4byte	.LASF50
 823 038f 05       		.byte	0x5
 824 0390 9D       		.byte	0x9d
 825 0391 CE000000 		.4byte	0xce
 826 0395 0F       		.uleb128 0xf
 827 0396 31000000 		.4byte	.LASF51
 828 039a 05       		.byte	0x5
 829 039b A4       		.byte	0xa4
 830 039c CE000000 		.4byte	0xce
 831 03a0 0F       		.uleb128 0xf
 832 03a1 92020000 		.4byte	.LASF52
 833 03a5 05       		.byte	0x5
 834 03a6 AB       		.byte	0xab
 835 03a7 82020000 		.4byte	0x282
 836 03ab 0F       		.uleb128 0xf
 837 03ac D7010000 		.4byte	.LASF53
 838 03b0 05       		.byte	0x5
 839 03b1 B2       		.byte	0xb2
 840 03b2 D9000000 		.4byte	0xd9
 841 03b6 00       		.byte	0x0
 842 03b7 09       		.uleb128 0x9
 843 03b8 04       		.byte	0x4
 844 03b9 BD030000 		.4byte	0x3bd
 845 03bd 10       		.uleb128 0x10
 846 03be C2030000 		.4byte	0x3c2
 847 03c2 03       		.uleb128 0x3
ARM GAS  C:\Users\DNIEL~1\AppData\Local\Temp\cc8k9BYW.s 			page 16


 848 03c3 01       		.byte	0x1
 849 03c4 08       		.byte	0x8
 850 03c5 08020000 		.4byte	.LASF54
 851 03c9 09       		.uleb128 0x9
 852 03ca 04       		.byte	0x4
 853 03cb 77030000 		.4byte	0x377
 854 03cf 11       		.uleb128 0x11
 855 03d0 01       		.byte	0x1
 856 03d1 23010000 		.4byte	.LASF55
 857 03d5 01       		.byte	0x1
 858 03d6 33       		.byte	0x33
 859 03d7 01       		.byte	0x1
 860 03d8 00000000 		.4byte	.LFB0
 861 03dc 26000000 		.4byte	.LFE0
 862 03e0 00000000 		.4byte	.LLST0
 863 03e4 12040000 		.4byte	0x412
 864 03e8 12       		.uleb128 0x12
 865 03e9 747000   		.ascii	"tp\000"
 866 03ec 01       		.byte	0x1
 867 03ed 33       		.byte	0x33
 868 03ee 44020000 		.4byte	0x244
 869 03f2 01       		.byte	0x1
 870 03f3 50       		.byte	0x50
 871 03f4 13       		.uleb128 0x13
 872 03f5 74717000 		.ascii	"tqp\000"
 873 03f9 01       		.byte	0x1
 874 03fa 33       		.byte	0x33
 875 03fb 12040000 		.4byte	0x412
 876 03ff 20000000 		.4byte	.LLST1
 877 0403 14       		.uleb128 0x14
 878 0404 637000   		.ascii	"cp\000"
 879 0407 01       		.byte	0x1
 880 0408 36       		.byte	0x36
 881 0409 44020000 		.4byte	0x244
 882 040d 3E000000 		.4byte	.LLST2
 883 0411 00       		.byte	0x0
 884 0412 09       		.uleb128 0x9
 885 0413 04       		.byte	0x4
 886 0414 4A020000 		.4byte	0x24a
 887 0418 15       		.uleb128 0x15
 888 0419 01       		.byte	0x1
 889 041a 06000000 		.4byte	.LASF56
 890 041e 01       		.byte	0x1
 891 041f 4A       		.byte	0x4a
 892 0420 01       		.byte	0x1
 893 0421 00000000 		.4byte	.LFB1
 894 0425 0C000000 		.4byte	.LFE1
 895 0429 02       		.byte	0x2
 896 042a 7D       		.byte	0x7d
 897 042b 00       		.sleb128 0
 898 042c 4A040000 		.4byte	0x44a
 899 0430 12       		.uleb128 0x12
 900 0431 747000   		.ascii	"tp\000"
 901 0434 01       		.byte	0x1
 902 0435 4A       		.byte	0x4a
 903 0436 44020000 		.4byte	0x244
 904 043a 01       		.byte	0x1
ARM GAS  C:\Users\DNIEL~1\AppData\Local\Temp\cc8k9BYW.s 			page 17


 905 043b 50       		.byte	0x50
 906 043c 12       		.uleb128 0x12
 907 043d 74717000 		.ascii	"tqp\000"
 908 0441 01       		.byte	0x1
 909 0442 4A       		.byte	0x4a
 910 0443 12040000 		.4byte	0x412
 911 0447 01       		.byte	0x1
 912 0448 51       		.byte	0x51
 913 0449 00       		.byte	0x0
 914 044a 16       		.uleb128 0x16
 915 044b 01       		.byte	0x1
 916 044c 0D020000 		.4byte	.LASF57
 917 0450 01       		.byte	0x1
 918 0451 5B       		.byte	0x5b
 919 0452 01       		.byte	0x1
 920 0453 44020000 		.4byte	0x244
 921 0457 00000000 		.4byte	.LFB2
 922 045b 0C000000 		.4byte	.LFE2
 923 045f 02       		.byte	0x2
 924 0460 7D       		.byte	0x7d
 925 0461 00       		.sleb128 0
 926 0462 83040000 		.4byte	0x483
 927 0466 13       		.uleb128 0x13
 928 0467 74717000 		.ascii	"tqp\000"
 929 046b 01       		.byte	0x1
 930 046c 5B       		.byte	0x5b
 931 046d 12040000 		.4byte	0x412
 932 0471 72000000 		.4byte	.LLST3
 933 0475 17       		.uleb128 0x17
 934 0476 747000   		.ascii	"tp\000"
 935 0479 01       		.byte	0x1
 936 047a 5C       		.byte	0x5c
 937 047b 44020000 		.4byte	0x244
 938 047f 02       		.byte	0x2
 939 0480 73       		.byte	0x73
 940 0481 00       		.sleb128 0
 941 0482 00       		.byte	0x0
 942 0483 16       		.uleb128 0x16
 943 0484 01       		.byte	0x1
 944 0485 3C020000 		.4byte	.LASF58
 945 0489 01       		.byte	0x1
 946 048a 6C       		.byte	0x6c
 947 048b 01       		.byte	0x1
 948 048c 44020000 		.4byte	0x244
 949 0490 00000000 		.4byte	.LFB3
 950 0494 0C000000 		.4byte	.LFE3
 951 0498 02       		.byte	0x2
 952 0499 7D       		.byte	0x7d
 953 049a 00       		.sleb128 0
 954 049b BC040000 		.4byte	0x4bc
 955 049f 13       		.uleb128 0x13
 956 04a0 74717000 		.ascii	"tqp\000"
 957 04a4 01       		.byte	0x1
 958 04a5 6C       		.byte	0x6c
 959 04a6 12040000 		.4byte	0x412
 960 04aa 90000000 		.4byte	.LLST4
 961 04ae 17       		.uleb128 0x17
ARM GAS  C:\Users\DNIEL~1\AppData\Local\Temp\cc8k9BYW.s 			page 18


 962 04af 747000   		.ascii	"tp\000"
 963 04b2 01       		.byte	0x1
 964 04b3 6D       		.byte	0x6d
 965 04b4 44020000 		.4byte	0x244
 966 04b8 02       		.byte	0x2
 967 04b9 73       		.byte	0x73
 968 04ba 04       		.sleb128 4
 969 04bb 00       		.byte	0x0
 970 04bc 16       		.uleb128 0x16
 971 04bd 01       		.byte	0x1
 972 04be 6A010000 		.4byte	.LASF59
 973 04c2 01       		.byte	0x1
 974 04c3 7D       		.byte	0x7d
 975 04c4 01       		.byte	0x1
 976 04c5 44020000 		.4byte	0x244
 977 04c9 00000000 		.4byte	.LFB4
 978 04cd 0C000000 		.4byte	.LFE4
 979 04d1 02       		.byte	0x2
 980 04d2 7D       		.byte	0x7d
 981 04d3 00       		.sleb128 0
 982 04d4 E5040000 		.4byte	0x4e5
 983 04d8 12       		.uleb128 0x12
 984 04d9 747000   		.ascii	"tp\000"
 985 04dc 01       		.byte	0x1
 986 04dd 7D       		.byte	0x7d
 987 04de 44020000 		.4byte	0x244
 988 04e2 01       		.byte	0x1
 989 04e3 50       		.byte	0x50
 990 04e4 00       		.byte	0x0
 991 04e5 15       		.uleb128 0x15
 992 04e6 01       		.byte	0x1
 993 04e7 72010000 		.4byte	.LASF60
 994 04eb 01       		.byte	0x1
 995 04ec 8C       		.byte	0x8c
 996 04ed 01       		.byte	0x1
 997 04ee 00000000 		.4byte	.LFB5
 998 04f2 08000000 		.4byte	.LFE5
 999 04f6 02       		.byte	0x2
 1000 04f7 7D       		.byte	0x7d
 1001 04f8 00       		.sleb128 0
 1002 04f9 17050000 		.4byte	0x517
 1003 04fd 12       		.uleb128 0x12
 1004 04fe 747000   		.ascii	"tp\000"
 1005 0501 01       		.byte	0x1
 1006 0502 8C       		.byte	0x8c
 1007 0503 44020000 		.4byte	0x244
 1008 0507 01       		.byte	0x1
 1009 0508 50       		.byte	0x50
 1010 0509 12       		.uleb128 0x12
 1011 050a 746C7000 		.ascii	"tlp\000"
 1012 050e 01       		.byte	0x1
 1013 050f 8C       		.byte	0x8c
 1014 0510 17050000 		.4byte	0x517
 1015 0514 01       		.byte	0x1
 1016 0515 51       		.byte	0x51
 1017 0516 00       		.byte	0x0
 1018 0517 09       		.uleb128 0x9
ARM GAS  C:\Users\DNIEL~1\AppData\Local\Temp\cc8k9BYW.s 			page 19


 1019 0518 04       		.byte	0x4
 1020 0519 6C020000 		.4byte	0x26c
 1021 051d 18       		.uleb128 0x18
 1022 051e 01       		.byte	0x1
 1023 051f A1000000 		.4byte	.LASF61
 1024 0523 01       		.byte	0x1
 1025 0524 9B       		.byte	0x9b
 1026 0525 01       		.byte	0x1
 1027 0526 44020000 		.4byte	0x244
 1028 052a 00000000 		.4byte	.LFB6
 1029 052e 0A000000 		.4byte	.LFE6
 1030 0532 02       		.byte	0x2
 1031 0533 7D       		.byte	0x7d
 1032 0534 00       		.sleb128 0
 1033 0535 13       		.uleb128 0x13
 1034 0536 746C7000 		.ascii	"tlp\000"
 1035 053a 01       		.byte	0x1
 1036 053b 9B       		.byte	0x9b
 1037 053c 17050000 		.4byte	0x517
 1038 0540 AE000000 		.4byte	.LLST5
 1039 0544 17       		.uleb128 0x17
 1040 0545 747000   		.ascii	"tp\000"
 1041 0548 01       		.byte	0x1
 1042 0549 9D       		.byte	0x9d
 1043 054a 44020000 		.4byte	0x244
 1044 054e 02       		.byte	0x2
 1045 054f 73       		.byte	0x73
 1046 0550 00       		.sleb128 0
 1047 0551 00       		.byte	0x0
 1048 0552 00       		.byte	0x0
 1049              		.section	.debug_abbrev
 1050 0000 01       		.uleb128 0x1
 1051 0001 11       		.uleb128 0x11
 1052 0002 01       		.byte	0x1
 1053 0003 25       		.uleb128 0x25
 1054 0004 0E       		.uleb128 0xe
 1055 0005 13       		.uleb128 0x13
 1056 0006 0B       		.uleb128 0xb
 1057 0007 03       		.uleb128 0x3
 1058 0008 0E       		.uleb128 0xe
 1059 0009 1B       		.uleb128 0x1b
 1060 000a 0E       		.uleb128 0xe
 1061 000b 11       		.uleb128 0x11
 1062 000c 01       		.uleb128 0x1
 1063 000d 52       		.uleb128 0x52
 1064 000e 01       		.uleb128 0x1
 1065 000f 55       		.uleb128 0x55
 1066 0010 06       		.uleb128 0x6
 1067 0011 10       		.uleb128 0x10
 1068 0012 06       		.uleb128 0x6
 1069 0013 00       		.byte	0x0
 1070 0014 00       		.byte	0x0
 1071 0015 02       		.uleb128 0x2
 1072 0016 24       		.uleb128 0x24
 1073 0017 00       		.byte	0x0
 1074 0018 0B       		.uleb128 0xb
 1075 0019 0B       		.uleb128 0xb
ARM GAS  C:\Users\DNIEL~1\AppData\Local\Temp\cc8k9BYW.s 			page 20


 1076 001a 3E       		.uleb128 0x3e
 1077 001b 0B       		.uleb128 0xb
 1078 001c 03       		.uleb128 0x3
 1079 001d 08       		.uleb128 0x8
 1080 001e 00       		.byte	0x0
 1081 001f 00       		.byte	0x0
 1082 0020 03       		.uleb128 0x3
 1083 0021 24       		.uleb128 0x24
 1084 0022 00       		.byte	0x0
 1085 0023 0B       		.uleb128 0xb
 1086 0024 0B       		.uleb128 0xb
 1087 0025 3E       		.uleb128 0x3e
 1088 0026 0B       		.uleb128 0xb
 1089 0027 03       		.uleb128 0x3
 1090 0028 0E       		.uleb128 0xe
 1091 0029 00       		.byte	0x0
 1092 002a 00       		.byte	0x0
 1093 002b 04       		.uleb128 0x4
 1094 002c 16       		.uleb128 0x16
 1095 002d 00       		.byte	0x0
 1096 002e 03       		.uleb128 0x3
 1097 002f 0E       		.uleb128 0xe
 1098 0030 3A       		.uleb128 0x3a
 1099 0031 0B       		.uleb128 0xb
 1100 0032 3B       		.uleb128 0x3b
 1101 0033 0B       		.uleb128 0xb
 1102 0034 49       		.uleb128 0x49
 1103 0035 13       		.uleb128 0x13
 1104 0036 00       		.byte	0x0
 1105 0037 00       		.byte	0x0
 1106 0038 05       		.uleb128 0x5
 1107 0039 13       		.uleb128 0x13
 1108 003a 01       		.byte	0x1
 1109 003b 03       		.uleb128 0x3
 1110 003c 0E       		.uleb128 0xe
 1111 003d 0B       		.uleb128 0xb
 1112 003e 0B       		.uleb128 0xb
 1113 003f 3A       		.uleb128 0x3a
 1114 0040 0B       		.uleb128 0xb
 1115 0041 3B       		.uleb128 0x3b
 1116 0042 0B       		.uleb128 0xb
 1117 0043 01       		.uleb128 0x1
 1118 0044 13       		.uleb128 0x13
 1119 0045 00       		.byte	0x0
 1120 0046 00       		.byte	0x0
 1121 0047 06       		.uleb128 0x6
 1122 0048 0D       		.uleb128 0xd
 1123 0049 00       		.byte	0x0
 1124 004a 03       		.uleb128 0x3
 1125 004b 0E       		.uleb128 0xe
 1126 004c 3A       		.uleb128 0x3a
 1127 004d 0B       		.uleb128 0xb
 1128 004e 3B       		.uleb128 0x3b
 1129 004f 0B       		.uleb128 0xb
 1130 0050 49       		.uleb128 0x49
 1131 0051 13       		.uleb128 0x13
 1132 0052 38       		.uleb128 0x38
ARM GAS  C:\Users\DNIEL~1\AppData\Local\Temp\cc8k9BYW.s 			page 21


 1133 0053 0A       		.uleb128 0xa
 1134 0054 00       		.byte	0x0
 1135 0055 00       		.byte	0x0
 1136 0056 07       		.uleb128 0x7
 1137 0057 0D       		.uleb128 0xd
 1138 0058 00       		.byte	0x0
 1139 0059 03       		.uleb128 0x3
 1140 005a 08       		.uleb128 0x8
 1141 005b 3A       		.uleb128 0x3a
 1142 005c 0B       		.uleb128 0xb
 1143 005d 3B       		.uleb128 0x3b
 1144 005e 0B       		.uleb128 0xb
 1145 005f 49       		.uleb128 0x49
 1146 0060 13       		.uleb128 0x13
 1147 0061 38       		.uleb128 0x38
 1148 0062 0A       		.uleb128 0xa
 1149 0063 00       		.byte	0x0
 1150 0064 00       		.byte	0x0
 1151 0065 08       		.uleb128 0x8
 1152 0066 13       		.uleb128 0x13
 1153 0067 01       		.byte	0x1
 1154 0068 0B       		.uleb128 0xb
 1155 0069 0B       		.uleb128 0xb
 1156 006a 3A       		.uleb128 0x3a
 1157 006b 0B       		.uleb128 0xb
 1158 006c 3B       		.uleb128 0x3b
 1159 006d 0B       		.uleb128 0xb
 1160 006e 01       		.uleb128 0x1
 1161 006f 13       		.uleb128 0x13
 1162 0070 00       		.byte	0x0
 1163 0071 00       		.byte	0x0
 1164 0072 09       		.uleb128 0x9
 1165 0073 0F       		.uleb128 0xf
 1166 0074 00       		.byte	0x0
 1167 0075 0B       		.uleb128 0xb
 1168 0076 0B       		.uleb128 0xb
 1169 0077 49       		.uleb128 0x49
 1170 0078 13       		.uleb128 0x13
 1171 0079 00       		.byte	0x0
 1172 007a 00       		.byte	0x0
 1173 007b 0A       		.uleb128 0xa
 1174 007c 0F       		.uleb128 0xf
 1175 007d 00       		.byte	0x0
 1176 007e 0B       		.uleb128 0xb
 1177 007f 0B       		.uleb128 0xb
 1178 0080 00       		.byte	0x0
 1179 0081 00       		.byte	0x0
 1180 0082 0B       		.uleb128 0xb
 1181 0083 13       		.uleb128 0x13
 1182 0084 01       		.byte	0x1
 1183 0085 03       		.uleb128 0x3
 1184 0086 0E       		.uleb128 0xe
 1185 0087 0B       		.uleb128 0xb
 1186 0088 0B       		.uleb128 0xb
 1187 0089 3A       		.uleb128 0x3a
 1188 008a 0B       		.uleb128 0xb
 1189 008b 3B       		.uleb128 0x3b
ARM GAS  C:\Users\DNIEL~1\AppData\Local\Temp\cc8k9BYW.s 			page 22


 1190 008c 05       		.uleb128 0x5
 1191 008d 01       		.uleb128 0x1
 1192 008e 13       		.uleb128 0x13
 1193 008f 00       		.byte	0x0
 1194 0090 00       		.byte	0x0
 1195 0091 0C       		.uleb128 0xc
 1196 0092 0D       		.uleb128 0xd
 1197 0093 00       		.byte	0x0
 1198 0094 03       		.uleb128 0x3
 1199 0095 08       		.uleb128 0x8
 1200 0096 3A       		.uleb128 0x3a
 1201 0097 0B       		.uleb128 0xb
 1202 0098 3B       		.uleb128 0x3b
 1203 0099 05       		.uleb128 0x5
 1204 009a 49       		.uleb128 0x49
 1205 009b 13       		.uleb128 0x13
 1206 009c 38       		.uleb128 0x38
 1207 009d 0A       		.uleb128 0xa
 1208 009e 00       		.byte	0x0
 1209 009f 00       		.byte	0x0
 1210 00a0 0D       		.uleb128 0xd
 1211 00a1 35       		.uleb128 0x35
 1212 00a2 00       		.byte	0x0
 1213 00a3 49       		.uleb128 0x49
 1214 00a4 13       		.uleb128 0x13
 1215 00a5 00       		.byte	0x0
 1216 00a6 00       		.byte	0x0
 1217 00a7 0E       		.uleb128 0xe
 1218 00a8 17       		.uleb128 0x17
 1219 00a9 01       		.byte	0x1
 1220 00aa 0B       		.uleb128 0xb
 1221 00ab 0B       		.uleb128 0xb
 1222 00ac 3A       		.uleb128 0x3a
 1223 00ad 0B       		.uleb128 0xb
 1224 00ae 3B       		.uleb128 0x3b
 1225 00af 0B       		.uleb128 0xb
 1226 00b0 01       		.uleb128 0x1
 1227 00b1 13       		.uleb128 0x13
 1228 00b2 00       		.byte	0x0
 1229 00b3 00       		.byte	0x0
 1230 00b4 0F       		.uleb128 0xf
 1231 00b5 0D       		.uleb128 0xd
 1232 00b6 00       		.byte	0x0
 1233 00b7 03       		.uleb128 0x3
 1234 00b8 0E       		.uleb128 0xe
 1235 00b9 3A       		.uleb128 0x3a
 1236 00ba 0B       		.uleb128 0xb
 1237 00bb 3B       		.uleb128 0x3b
 1238 00bc 0B       		.uleb128 0xb
 1239 00bd 49       		.uleb128 0x49
 1240 00be 13       		.uleb128 0x13
 1241 00bf 00       		.byte	0x0
 1242 00c0 00       		.byte	0x0
 1243 00c1 10       		.uleb128 0x10
 1244 00c2 26       		.uleb128 0x26
 1245 00c3 00       		.byte	0x0
 1246 00c4 49       		.uleb128 0x49
ARM GAS  C:\Users\DNIEL~1\AppData\Local\Temp\cc8k9BYW.s 			page 23


 1247 00c5 13       		.uleb128 0x13
 1248 00c6 00       		.byte	0x0
 1249 00c7 00       		.byte	0x0
 1250 00c8 11       		.uleb128 0x11
 1251 00c9 2E       		.uleb128 0x2e
 1252 00ca 01       		.byte	0x1
 1253 00cb 3F       		.uleb128 0x3f
 1254 00cc 0C       		.uleb128 0xc
 1255 00cd 03       		.uleb128 0x3
 1256 00ce 0E       		.uleb128 0xe
 1257 00cf 3A       		.uleb128 0x3a
 1258 00d0 0B       		.uleb128 0xb
 1259 00d1 3B       		.uleb128 0x3b
 1260 00d2 0B       		.uleb128 0xb
 1261 00d3 27       		.uleb128 0x27
 1262 00d4 0C       		.uleb128 0xc
 1263 00d5 11       		.uleb128 0x11
 1264 00d6 01       		.uleb128 0x1
 1265 00d7 12       		.uleb128 0x12
 1266 00d8 01       		.uleb128 0x1
 1267 00d9 40       		.uleb128 0x40
 1268 00da 06       		.uleb128 0x6
 1269 00db 01       		.uleb128 0x1
 1270 00dc 13       		.uleb128 0x13
 1271 00dd 00       		.byte	0x0
 1272 00de 00       		.byte	0x0
 1273 00df 12       		.uleb128 0x12
 1274 00e0 05       		.uleb128 0x5
 1275 00e1 00       		.byte	0x0
 1276 00e2 03       		.uleb128 0x3
 1277 00e3 08       		.uleb128 0x8
 1278 00e4 3A       		.uleb128 0x3a
 1279 00e5 0B       		.uleb128 0xb
 1280 00e6 3B       		.uleb128 0x3b
 1281 00e7 0B       		.uleb128 0xb
 1282 00e8 49       		.uleb128 0x49
 1283 00e9 13       		.uleb128 0x13
 1284 00ea 02       		.uleb128 0x2
 1285 00eb 0A       		.uleb128 0xa
 1286 00ec 00       		.byte	0x0
 1287 00ed 00       		.byte	0x0
 1288 00ee 13       		.uleb128 0x13
 1289 00ef 05       		.uleb128 0x5
 1290 00f0 00       		.byte	0x0
 1291 00f1 03       		.uleb128 0x3
 1292 00f2 08       		.uleb128 0x8
 1293 00f3 3A       		.uleb128 0x3a
 1294 00f4 0B       		.uleb128 0xb
 1295 00f5 3B       		.uleb128 0x3b
 1296 00f6 0B       		.uleb128 0xb
 1297 00f7 49       		.uleb128 0x49
 1298 00f8 13       		.uleb128 0x13
 1299 00f9 02       		.uleb128 0x2
 1300 00fa 06       		.uleb128 0x6
 1301 00fb 00       		.byte	0x0
 1302 00fc 00       		.byte	0x0
 1303 00fd 14       		.uleb128 0x14
ARM GAS  C:\Users\DNIEL~1\AppData\Local\Temp\cc8k9BYW.s 			page 24


 1304 00fe 34       		.uleb128 0x34
 1305 00ff 00       		.byte	0x0
 1306 0100 03       		.uleb128 0x3
 1307 0101 08       		.uleb128 0x8
 1308 0102 3A       		.uleb128 0x3a
 1309 0103 0B       		.uleb128 0xb
 1310 0104 3B       		.uleb128 0x3b
 1311 0105 0B       		.uleb128 0xb
 1312 0106 49       		.uleb128 0x49
 1313 0107 13       		.uleb128 0x13
 1314 0108 02       		.uleb128 0x2
 1315 0109 06       		.uleb128 0x6
 1316 010a 00       		.byte	0x0
 1317 010b 00       		.byte	0x0
 1318 010c 15       		.uleb128 0x15
 1319 010d 2E       		.uleb128 0x2e
 1320 010e 01       		.byte	0x1
 1321 010f 3F       		.uleb128 0x3f
 1322 0110 0C       		.uleb128 0xc
 1323 0111 03       		.uleb128 0x3
 1324 0112 0E       		.uleb128 0xe
 1325 0113 3A       		.uleb128 0x3a
 1326 0114 0B       		.uleb128 0xb
 1327 0115 3B       		.uleb128 0x3b
 1328 0116 0B       		.uleb128 0xb
 1329 0117 27       		.uleb128 0x27
 1330 0118 0C       		.uleb128 0xc
 1331 0119 11       		.uleb128 0x11
 1332 011a 01       		.uleb128 0x1
 1333 011b 12       		.uleb128 0x12
 1334 011c 01       		.uleb128 0x1
 1335 011d 40       		.uleb128 0x40
 1336 011e 0A       		.uleb128 0xa
 1337 011f 01       		.uleb128 0x1
 1338 0120 13       		.uleb128 0x13
 1339 0121 00       		.byte	0x0
 1340 0122 00       		.byte	0x0
 1341 0123 16       		.uleb128 0x16
 1342 0124 2E       		.uleb128 0x2e
 1343 0125 01       		.byte	0x1
 1344 0126 3F       		.uleb128 0x3f
 1345 0127 0C       		.uleb128 0xc
 1346 0128 03       		.uleb128 0x3
 1347 0129 0E       		.uleb128 0xe
 1348 012a 3A       		.uleb128 0x3a
 1349 012b 0B       		.uleb128 0xb
 1350 012c 3B       		.uleb128 0x3b
 1351 012d 0B       		.uleb128 0xb
 1352 012e 27       		.uleb128 0x27
 1353 012f 0C       		.uleb128 0xc
 1354 0130 49       		.uleb128 0x49
 1355 0131 13       		.uleb128 0x13
 1356 0132 11       		.uleb128 0x11
 1357 0133 01       		.uleb128 0x1
 1358 0134 12       		.uleb128 0x12
 1359 0135 01       		.uleb128 0x1
 1360 0136 40       		.uleb128 0x40
ARM GAS  C:\Users\DNIEL~1\AppData\Local\Temp\cc8k9BYW.s 			page 25


 1361 0137 0A       		.uleb128 0xa
 1362 0138 01       		.uleb128 0x1
 1363 0139 13       		.uleb128 0x13
 1364 013a 00       		.byte	0x0
 1365 013b 00       		.byte	0x0
 1366 013c 17       		.uleb128 0x17
 1367 013d 34       		.uleb128 0x34
 1368 013e 00       		.byte	0x0
 1369 013f 03       		.uleb128 0x3
 1370 0140 08       		.uleb128 0x8
 1371 0141 3A       		.uleb128 0x3a
 1372 0142 0B       		.uleb128 0xb
 1373 0143 3B       		.uleb128 0x3b
 1374 0144 0B       		.uleb128 0xb
 1375 0145 49       		.uleb128 0x49
 1376 0146 13       		.uleb128 0x13
 1377 0147 02       		.uleb128 0x2
 1378 0148 0A       		.uleb128 0xa
 1379 0149 00       		.byte	0x0
 1380 014a 00       		.byte	0x0
 1381 014b 18       		.uleb128 0x18
 1382 014c 2E       		.uleb128 0x2e
 1383 014d 01       		.byte	0x1
 1384 014e 3F       		.uleb128 0x3f
 1385 014f 0C       		.uleb128 0xc
 1386 0150 03       		.uleb128 0x3
 1387 0151 0E       		.uleb128 0xe
 1388 0152 3A       		.uleb128 0x3a
 1389 0153 0B       		.uleb128 0xb
 1390 0154 3B       		.uleb128 0x3b
 1391 0155 0B       		.uleb128 0xb
 1392 0156 27       		.uleb128 0x27
 1393 0157 0C       		.uleb128 0xc
 1394 0158 49       		.uleb128 0x49
 1395 0159 13       		.uleb128 0x13
 1396 015a 11       		.uleb128 0x11
 1397 015b 01       		.uleb128 0x1
 1398 015c 12       		.uleb128 0x12
 1399 015d 01       		.uleb128 0x1
 1400 015e 40       		.uleb128 0x40
 1401 015f 0A       		.uleb128 0xa
 1402 0160 00       		.byte	0x0
 1403 0161 00       		.byte	0x0
 1404 0162 00       		.byte	0x0
 1405              		.section	.debug_pubnames,"",%progbits
 1406 0000 7B000000 		.4byte	0x7b
 1407 0004 0200     		.2byte	0x2
 1408 0006 00000000 		.4byte	.Ldebug_info0
 1409 000a 53050000 		.4byte	0x553
 1410 000e CF030000 		.4byte	0x3cf
 1411 0012 7072696F 		.ascii	"prio_insert\000"
 1411      5F696E73 
 1411      65727400 
 1412 001e 18040000 		.4byte	0x418
 1413 0022 71756575 		.ascii	"queue_insert\000"
 1413      655F696E 
 1413      73657274 
ARM GAS  C:\Users\DNIEL~1\AppData\Local\Temp\cc8k9BYW.s 			page 26


 1413      00
 1414 002f 4A040000 		.4byte	0x44a
 1415 0033 6669666F 		.ascii	"fifo_remove\000"
 1415      5F72656D 
 1415      6F766500 
 1416 003f 83040000 		.4byte	0x483
 1417 0043 6C69666F 		.ascii	"lifo_remove\000"
 1417      5F72656D 
 1417      6F766500 
 1418 004f BC040000 		.4byte	0x4bc
 1419 0053 64657175 		.ascii	"dequeue\000"
 1419      65756500 
 1420 005b E5040000 		.4byte	0x4e5
 1421 005f 6C697374 		.ascii	"list_insert\000"
 1421      5F696E73 
 1421      65727400 
 1422 006b 1D050000 		.4byte	0x51d
 1423 006f 6C697374 		.ascii	"list_remove\000"
 1423      5F72656D 
 1423      6F766500 
 1424 007b 00000000 		.4byte	0x0
 1425              		.section	.debug_pubtypes,"",%progbits
 1426 0000 09010000 		.4byte	0x109
 1427 0004 0200     		.2byte	0x2
 1428 0006 00000000 		.4byte	.Ldebug_info0
 1429 000a 53050000 		.4byte	0x553
 1430 000e 3E000000 		.4byte	0x3e
 1431 0012 75696E74 		.ascii	"uint8_t\000"
 1431      385F7400 
 1432 001a 5E000000 		.4byte	0x5e
 1433 001e 696E7433 		.ascii	"int32_t\000"
 1433      325F7400 
 1434 0026 70000000 		.4byte	0x70
 1435 002a 75696E74 		.ascii	"uint32_t\000"
 1435      33325F74 
 1435      00
 1436 0033 97000000 		.4byte	0x97
 1437 0037 746D6F64 		.ascii	"tmode_t\000"
 1437      655F7400 
 1438 003f A2000000 		.4byte	0xa2
 1439 0043 74737461 		.ascii	"tstate_t\000"
 1439      74655F74 
 1439      00
 1440 004c AD000000 		.4byte	0xad
 1441 0050 74726566 		.ascii	"trefs_t\000"
 1441      735F7400 
 1442 0058 B8000000 		.4byte	0xb8
 1443 005c 74736C69 		.ascii	"tslices_t\000"
 1443      6365735F 
 1443      7400
 1444 0066 C3000000 		.4byte	0xc3
 1445 006a 74707269 		.ascii	"tprio_t\000"
 1445      6F5F7400 
 1446 0072 CE000000 		.4byte	0xce
 1447 0076 6D73675F 		.ascii	"msg_t\000"
 1447      7400
 1448 007c D9000000 		.4byte	0xd9
ARM GAS  C:\Users\DNIEL~1\AppData\Local\Temp\cc8k9BYW.s 			page 27


 1449 0080 6576656E 		.ascii	"eventmask_t\000"
 1449      746D6173 
 1449      6B5F7400 
 1450 008c E4000000 		.4byte	0xe4
 1451 0090 73797374 		.ascii	"systime_t\000"
 1451      696D655F 
 1451      7400
 1452 009a EF000000 		.4byte	0xef
 1453 009e 54687265 		.ascii	"Thread\000"
 1453      616400
 1454 00a5 4A020000 		.4byte	0x24a
 1455 00a9 54687265 		.ascii	"ThreadsQueue\000"
 1455      61647351 
 1455      75657565 
 1455      00
 1456 00b6 6C020000 		.4byte	0x26c
 1457 00ba 54687265 		.ascii	"ThreadsList\000"
 1457      6164734C 
 1457      69737400 
 1458 00c6 77020000 		.4byte	0x277
 1459 00ca 72656761 		.ascii	"regarm_t\000"
 1459      726D5F74 
 1459      00
 1460 00d3 84020000 		.4byte	0x284
 1461 00d7 696E7463 		.ascii	"intctx\000"
 1461      747800
 1462 00de 12030000 		.4byte	0x312
 1463 00e2 636F6E74 		.ascii	"context\000"
 1463      65787400 
 1464 00ea 3A030000 		.4byte	0x33a
 1465 00ee 4D757465 		.ascii	"Mutex\000"
 1465      7800
 1466 00f4 77030000 		.4byte	0x377
 1467 00f8 4D757465 		.ascii	"Mutex\000"
 1467      7800
 1468 00fe FA000000 		.4byte	0xfa
 1469 0102 54687265 		.ascii	"Thread\000"
 1469      616400
 1470 0109 00000000 		.4byte	0x0
 1471              		.section	.debug_aranges,"",%progbits
 1472 0000 4C000000 		.4byte	0x4c
 1473 0004 0200     		.2byte	0x2
 1474 0006 00000000 		.4byte	.Ldebug_info0
 1475 000a 04       		.byte	0x4
 1476 000b 00       		.byte	0x0
 1477 000c 0000     		.2byte	0x0
 1478 000e 0000     		.2byte	0x0
 1479 0010 00000000 		.4byte	.LFB0
 1480 0014 26000000 		.4byte	.LFE0-.LFB0
 1481 0018 00000000 		.4byte	.LFB1
 1482 001c 0C000000 		.4byte	.LFE1-.LFB1
 1483 0020 00000000 		.4byte	.LFB2
 1484 0024 0C000000 		.4byte	.LFE2-.LFB2
 1485 0028 00000000 		.4byte	.LFB3
 1486 002c 0C000000 		.4byte	.LFE3-.LFB3
 1487 0030 00000000 		.4byte	.LFB4
 1488 0034 0C000000 		.4byte	.LFE4-.LFB4
ARM GAS  C:\Users\DNIEL~1\AppData\Local\Temp\cc8k9BYW.s 			page 28


 1489 0038 00000000 		.4byte	.LFB5
 1490 003c 08000000 		.4byte	.LFE5-.LFB5
 1491 0040 00000000 		.4byte	.LFB6
 1492 0044 0A000000 		.4byte	.LFE6-.LFB6
 1493 0048 00000000 		.4byte	0x0
 1494 004c 00000000 		.4byte	0x0
 1495              		.section	.debug_ranges,"",%progbits
 1496              	.Ldebug_ranges0:
 1497 0000 00000000 		.4byte	.LFB0
 1498 0004 26000000 		.4byte	.LFE0
 1499 0008 00000000 		.4byte	.LFB1
 1500 000c 0C000000 		.4byte	.LFE1
 1501 0010 00000000 		.4byte	.LFB2
 1502 0014 0C000000 		.4byte	.LFE2
 1503 0018 00000000 		.4byte	.LFB3
 1504 001c 0C000000 		.4byte	.LFE3
 1505 0020 00000000 		.4byte	.LFB4
 1506 0024 0C000000 		.4byte	.LFE4
 1507 0028 00000000 		.4byte	.LFB5
 1508 002c 08000000 		.4byte	.LFE5
 1509 0030 00000000 		.4byte	.LFB6
 1510 0034 0A000000 		.4byte	.LFE6
 1511 0038 00000000 		.4byte	0x0
 1512 003c 00000000 		.4byte	0x0
 1513              		.section	.debug_str,"MS",%progbits,1
 1514              	.LASF36:
 1515 0000 705F6D73 		.ascii	"p_msg\000"
 1515      6700
 1516              	.LASF56:
 1517 0006 71756575 		.ascii	"queue_insert\000"
 1517      655F696E 
 1517      73657274 
 1517      00
 1518              	.LASF50:
 1519 0013 7264796D 		.ascii	"rdymsg\000"
 1519      736700
 1520              	.LASF11:
 1521 001a 6C6F6E67 		.ascii	"long long unsigned int\000"
 1521      206C6F6E 
 1521      6720756E 
 1521      7369676E 
 1521      65642069 
 1522              	.LASF51:
 1523 0031 65786974 		.ascii	"exitcode\000"
 1523      636F6465 
 1523      00
 1524              	.LASF24:
 1525 003a 705F7072 		.ascii	"p_prio\000"
 1525      696F00
 1526              	.LASF10:
 1527 0041 6C6F6E67 		.ascii	"long long int\000"
 1527      206C6F6E 
 1527      6720696E 
 1527      7400
 1528              	.LASF1:
 1529 004f 7369676E 		.ascii	"signed char\000"
 1529      65642063 
ARM GAS  C:\Users\DNIEL~1\AppData\Local\Temp\cc8k9BYW.s 			page 29


 1529      68617200 
 1530              	.LASF9:
 1531 005b 6C6F6E67 		.ascii	"long unsigned int\000"
 1531      20756E73 
 1531      69676E65 
 1531      6420696E 
 1531      7400
 1532              	.LASF40:
 1533 006d 705F6D70 		.ascii	"p_mpool\000"
 1533      6F6F6C00 
 1534              	.LASF47:
 1535 0075 6D5F7175 		.ascii	"m_queue\000"
 1535      65756500 
 1536              	.LASF16:
 1537 007d 74736C69 		.ascii	"tslices_t\000"
 1537      6365735F 
 1537      7400
 1538              	.LASF7:
 1539 0087 6C6F6E67 		.ascii	"long int\000"
 1539      20696E74 
 1539      00
 1540              	.LASF14:
 1541 0090 74737461 		.ascii	"tstate_t\000"
 1541      74655F74 
 1541      00
 1542              	.LASF26:
 1543 0099 705F6E65 		.ascii	"p_newer\000"
 1543      77657200 
 1544              	.LASF61:
 1545 00a1 6C697374 		.ascii	"list_remove\000"
 1545      5F72656D 
 1545      6F766500 
 1546              	.LASF43:
 1547 00ad 72656761 		.ascii	"regarm_t\000"
 1547      726D5F74 
 1547      00
 1548              	.LASF0:
 1549 00b6 756E7369 		.ascii	"unsigned int\000"
 1549      676E6564 
 1549      20696E74 
 1549      00
 1550              	.LASF64:
 1551 00c3 433A5C44 		.ascii	"C:\\Dani\\MegaLux\\Repo\\LuxControl\\LuxControl\\lu"
 1551      616E695C 
 1551      4D656761 
 1551      4C75785C 
 1551      5265706F 
 1552 00f0 78636F6E 		.ascii	"xcontrol\\firmware\000"
 1552      74726F6C 
 1552      5C666972 
 1552      6D776172 
 1552      6500
 1553              	.LASF45:
 1554 0102 636F6E74 		.ascii	"context\000"
 1554      65787400 
 1555              	.LASF4:
 1556 010a 73686F72 		.ascii	"short unsigned int\000"
ARM GAS  C:\Users\DNIEL~1\AppData\Local\Temp\cc8k9BYW.s 			page 30


 1556      7420756E 
 1556      7369676E 
 1556      65642069 
 1556      6E7400
 1557              	.LASF18:
 1558 011d 6D73675F 		.ascii	"msg_t\000"
 1558      7400
 1559              	.LASF55:
 1560 0123 7072696F 		.ascii	"prio_insert\000"
 1560      5F696E73 
 1560      65727400 
 1561              	.LASF13:
 1562 012f 746D6F64 		.ascii	"tmode_t\000"
 1562      655F7400 
 1563              	.LASF42:
 1564 0137 54687265 		.ascii	"ThreadsList\000"
 1564      6164734C 
 1564      69737400 
 1565              	.LASF19:
 1566 0143 6576656E 		.ascii	"eventmask_t\000"
 1566      746D6173 
 1566      6B5F7400 
 1567              	.LASF46:
 1568 014f 4D757465 		.ascii	"Mutex\000"
 1568      7800
 1569              	.LASF27:
 1570 0155 705F6F6C 		.ascii	"p_older\000"
 1570      64657200 
 1571              	.LASF41:
 1572 015d 54687265 		.ascii	"ThreadsQueue\000"
 1572      61647351 
 1572      75657565 
 1572      00
 1573              	.LASF59:
 1574 016a 64657175 		.ascii	"dequeue\000"
 1574      65756500 
 1575              	.LASF60:
 1576 0172 6C697374 		.ascii	"list_insert\000"
 1576      5F696E73 
 1576      65727400 
 1577              	.LASF15:
 1578 017e 74726566 		.ascii	"trefs_t\000"
 1578      735F7400 
 1579              	.LASF23:
 1580 0186 705F7072 		.ascii	"p_prev\000"
 1580      657600
 1581              	.LASF17:
 1582 018d 74707269 		.ascii	"tprio_t\000"
 1582      6F5F7400 
 1583              	.LASF12:
 1584 0195 5F426F6F 		.ascii	"_Bool\000"
 1584      6C00
 1585              	.LASF6:
 1586 019b 696E7433 		.ascii	"int32_t\000"
 1586      325F7400 
 1587              	.LASF2:
 1588 01a3 756E7369 		.ascii	"unsigned char\000"
ARM GAS  C:\Users\DNIEL~1\AppData\Local\Temp\cc8k9BYW.s 			page 31


 1588      676E6564 
 1588      20636861 
 1588      7200
 1589              	.LASF38:
 1590 01b1 705F6D74 		.ascii	"p_mtxlist\000"
 1590      786C6973 
 1590      7400
 1591              	.LASF3:
 1592 01bb 73686F72 		.ascii	"short int\000"
 1592      7420696E 
 1592      7400
 1593              	.LASF29:
 1594 01c5 705F7374 		.ascii	"p_state\000"
 1594      61746500 
 1595              	.LASF32:
 1596 01cd 705F7072 		.ascii	"p_preempt\000"
 1596      65656D70 
 1596      7400
 1597              	.LASF53:
 1598 01d7 65776D61 		.ascii	"ewmask\000"
 1598      736B00
 1599              	.LASF22:
 1600 01de 705F6E65 		.ascii	"p_next\000"
 1600      787400
 1601              	.LASF30:
 1602 01e5 705F666C 		.ascii	"p_flags\000"
 1602      61677300 
 1603              	.LASF21:
 1604 01ed 54687265 		.ascii	"Thread\000"
 1604      616400
 1605              	.LASF37:
 1606 01f4 705F6570 		.ascii	"p_epending\000"
 1606      656E6469 
 1606      6E6700
 1607              	.LASF8:
 1608 01ff 75696E74 		.ascii	"uint32_t\000"
 1608      33325F74 
 1608      00
 1609              	.LASF54:
 1610 0208 63686172 		.ascii	"char\000"
 1610      00
 1611              	.LASF57:
 1612 020d 6669666F 		.ascii	"fifo_remove\000"
 1612      5F72656D 
 1612      6F766500 
 1613              	.LASF49:
 1614 0219 6D5F6E65 		.ascii	"m_next\000"
 1614      787400
 1615              	.LASF20:
 1616 0220 73797374 		.ascii	"systime_t\000"
 1616      696D655F 
 1616      7400
 1617              	.LASF39:
 1618 022a 705F7265 		.ascii	"p_realprio\000"
 1618      616C7072 
 1618      696F00
 1619              	.LASF33:
ARM GAS  C:\Users\DNIEL~1\AppData\Local\Temp\cc8k9BYW.s 			page 32


 1620 0235 705F7469 		.ascii	"p_time\000"
 1620      6D6500
 1621              	.LASF58:
 1622 023c 6C69666F 		.ascii	"lifo_remove\000"
 1622      5F72656D 
 1622      6F766500 
 1623              	.LASF44:
 1624 0248 696E7463 		.ascii	"intctx\000"
 1624      747800
 1625              	.LASF35:
 1626 024f 705F6D73 		.ascii	"p_msgqueue\000"
 1626      67717565 
 1626      756500
 1627              	.LASF31:
 1628 025a 705F7265 		.ascii	"p_refs\000"
 1628      667300
 1629              	.LASF5:
 1630 0261 75696E74 		.ascii	"uint8_t\000"
 1630      385F7400 
 1631              	.LASF63:
 1632 0269 2E2E2F2E 		.ascii	"../../../ChibiOS/os/kernel/src/chlists.c\000"
 1632      2E2F2E2E 
 1632      2F436869 
 1632      62694F53 
 1632      2F6F732F 
 1633              	.LASF52:
 1634 0292 77746F62 		.ascii	"wtobjp\000"
 1634      6A7000
 1635              	.LASF62:
 1636 0299 474E5520 		.ascii	"GNU C 4.5.2\000"
 1636      4320342E 
 1636      352E3200 
 1637              	.LASF28:
 1638 02a5 705F6E61 		.ascii	"p_name\000"
 1638      6D6500
 1639              	.LASF48:
 1640 02ac 6D5F6F77 		.ascii	"m_owner\000"
 1640      6E657200 
 1641              	.LASF25:
 1642 02b4 705F6374 		.ascii	"p_ctx\000"
 1642      7800
 1643              	.LASF34:
 1644 02ba 705F7761 		.ascii	"p_waiting\000"
 1644      6974696E 
 1644      6700
 1645              		.ident	"GCC: (Sourcery G++ Lite 2011.03-42) 4.5.2"
ARM GAS  C:\Users\DNIEL~1\AppData\Local\Temp\cc8k9BYW.s 			page 33


DEFINED SYMBOLS
                            *ABS*:00000000 chlists.c
C:\Users\DNIEL~1\AppData\Local\Temp\cc8k9BYW.s:24     .text.prio_insert:00000000 $t
C:\Users\DNIEL~1\AppData\Local\Temp\cc8k9BYW.s:30     .text.prio_insert:00000000 prio_insert
C:\Users\DNIEL~1\AppData\Local\Temp\cc8k9BYW.s:85     .text.queue_insert:00000000 $t
C:\Users\DNIEL~1\AppData\Local\Temp\cc8k9BYW.s:91     .text.queue_insert:00000000 queue_insert
C:\Users\DNIEL~1\AppData\Local\Temp\cc8k9BYW.s:114    .text.fifo_remove:00000000 $t
C:\Users\DNIEL~1\AppData\Local\Temp\cc8k9BYW.s:120    .text.fifo_remove:00000000 fifo_remove
C:\Users\DNIEL~1\AppData\Local\Temp\cc8k9BYW.s:143    .text.lifo_remove:00000000 $t
C:\Users\DNIEL~1\AppData\Local\Temp\cc8k9BYW.s:149    .text.lifo_remove:00000000 lifo_remove
C:\Users\DNIEL~1\AppData\Local\Temp\cc8k9BYW.s:172    .text.dequeue:00000000 $t
C:\Users\DNIEL~1\AppData\Local\Temp\cc8k9BYW.s:178    .text.dequeue:00000000 dequeue
C:\Users\DNIEL~1\AppData\Local\Temp\cc8k9BYW.s:199    .text.list_insert:00000000 $t
C:\Users\DNIEL~1\AppData\Local\Temp\cc8k9BYW.s:205    .text.list_insert:00000000 list_insert
C:\Users\DNIEL~1\AppData\Local\Temp\cc8k9BYW.s:224    .text.list_remove:00000000 $t
C:\Users\DNIEL~1\AppData\Local\Temp\cc8k9BYW.s:230    .text.list_remove:00000000 list_remove
                     .debug_frame:00000010 $d

NO UNDEFINED SYMBOLS
