ARM GAS  C:\Users\DNIEL~1\AppData\Local\Temp\cczPCJ6X.s 			page 1


   1              		.syntax unified
   2              		.cpu cortex-m3
   3              		.fpu softvfp
   4              		.eabi_attribute 20, 1
   5              		.eabi_attribute 21, 1
   6              		.eabi_attribute 23, 3
   7              		.eabi_attribute 24, 1
   8              		.eabi_attribute 25, 1
   9              		.eabi_attribute 26, 1
  10              		.eabi_attribute 30, 2
  11              		.eabi_attribute 18, 4
  12              		.thumb
  13              		.file	"chmboxes.c"
  20 0000 9E020000 		.text
  20      02006C01 
  20      00000201 
  20      FB0E0D00 
  20      01010101 
  21              	.Ltext0:
  22              		.cfi_sections	.debug_frame
  23              		.section	.text.chMBInit,"ax",%progbits
  24              		.align	2
  25              		.p2align 4,,15
  26              		.global	chMBInit
  27              		.thumb
  28              		.thumb_func
  29              		.type	chMBInit, %function
  30              	chMBInit:
  31              	.LFB0:
  32              		.file 1 "../../../ChibiOS/os/kernel/src/chmboxes.c"
  33              		.loc 1 72 0
  34              		.cfi_startproc
  35              		@ args = 0, pretend = 0, frame = 0
  36              		@ frame_needed = 0, uses_anonymous_args = 0
  37              	.LVL0:
  38 0000 70B5     		push	{r4, r5, r6, lr}
  39              	.LCFI0:
  40              		.cfi_def_cfa_offset 16
  41              		.loc 1 72 0
  42 0002 0B46     		mov	r3, r1
  43 0004 0446     		mov	r4, r0
  44              		.cfi_offset 14, -4
  45              		.cfi_offset 6, -8
  46              		.cfi_offset 5, -12
  47              		.cfi_offset 4, -16
  48              		.loc 1 77 0
  49 0006 01EB8205 		add	r5, r1, r2, lsl #2
  50              		.loc 1 78 0
  51 000a 1C30     		adds	r0, r0, #28
  52              	.LVL1:
  53 000c 1146     		mov	r1, r2
ARM GAS  C:\Users\DNIEL~1\AppData\Local\Temp\cczPCJ6X.s 			page 2


  54              	.LVL2:
  55              		.loc 1 76 0
  56 000e E360     		str	r3, [r4, #12]
  57 0010 A360     		str	r3, [r4, #8]
  58 0012 2360     		str	r3, [r4, #0]
  59              		.loc 1 77 0
  60 0014 6560     		str	r5, [r4, #4]
  61              		.loc 1 78 0
  62 0016 FFF7FEFF 		bl	chSemInit
  63              	.LVL3:
  64              		.loc 1 79 0
  65 001a 04F11000 		add	r0, r4, #16
  66 001e 0021     		movs	r1, #0
  67              		.loc 1 80 0
  68 0020 BDE87040 		pop	{r4, r5, r6, lr}
  69              		.loc 1 79 0
  70 0024 FFF7FEBF 		b	chSemInit
  71              		.cfi_endproc
  72              	.LFE0:
  73              		.size	chMBInit, .-chMBInit
  74 0028 AFF30080 		.section	.text.chMBReset,"ax",%progbits
  74      AFF30080 
  75              		.align	2
  76              		.p2align 4,,15
  77              		.global	chMBReset
  78              		.thumb
  79              		.thumb_func
  80              		.type	chMBReset, %function
  81              	chMBReset:
  82              	.LFB1:
  83              		.loc 1 91 0
  84              		.cfi_startproc
  85              		@ args = 0, pretend = 0, frame = 0
  86              		@ frame_needed = 0, uses_anonymous_args = 0
  87              	.LVL4:
  88 0000 10B5     		push	{r4, lr}
  89              	.LCFI1:
  90              		.cfi_def_cfa_offset 8
  91              		.loc 1 91 0
  92 0002 0446     		mov	r4, r0
  93              		.cfi_offset 14, -4
  94              		.cfi_offset 4, -8
  95              		.loc 1 95 0
  96              	@ 95 "../../../ChibiOS/os/kernel/src/chmboxes.c" 1
  97 0004 FFF7FEFF 		bl      _port_lock
  98              	@ 0 "" 2
  99              		.loc 1 96 0
 100              		.thumb
 101 0008 0368     		ldr	r3, [r0, #0]
 102              		.loc 1 97 0
 103 000a 4268     		ldr	r2, [r0, #4]
 104              		.loc 1 96 0
 105 000c E360     		str	r3, [r4, #12]
 106              		.loc 1 97 0
 107 000e D11A     		subs	r1, r2, r3
 108              		.loc 1 96 0
 109 0010 A360     		str	r3, [r4, #8]
ARM GAS  C:\Users\DNIEL~1\AppData\Local\Temp\cczPCJ6X.s 			page 3


 110              		.loc 1 97 0
 111 0012 1C30     		adds	r0, r0, #28
 112              	.LVL5:
 113 0014 8910     		asrs	r1, r1, #2
 114 0016 FFF7FEFF 		bl	chSemResetI
 115              		.loc 1 98 0
 116 001a 04F11000 		add	r0, r4, #16
 117 001e 0021     		movs	r1, #0
 118 0020 FFF7FEFF 		bl	chSemResetI
 119              		.loc 1 99 0
 120 0024 FFF7FEFF 		bl	chSchRescheduleS
 121              		.loc 1 100 0
 122              	@ 100 "../../../ChibiOS/os/kernel/src/chmboxes.c" 1
 123 0028 FFF7FEFF 		bl      _port_unlock
 124              	@ 0 "" 2
 125              		.loc 1 101 0
 126              		.thumb
 127 002c 10BD     		pop	{r4, pc}
 128              		.cfi_endproc
 129              	.LFE1:
 130              		.size	chMBReset, .-chMBReset
 131 002e 00BF     		.section	.text.chMBPostS,"ax",%progbits
 132              		.align	2
 133              		.p2align 4,,15
 134              		.global	chMBPostS
 135              		.thumb
 136              		.thumb_func
 137              		.type	chMBPostS, %function
 138              	chMBPostS:
 139              	.LFB3:
 140              		.loc 1 150 0
 141              		.cfi_startproc
 142              		@ args = 0, pretend = 0, frame = 0
 143              		@ frame_needed = 0, uses_anonymous_args = 0
 144              	.LVL6:
 145 0000 70B5     		push	{r4, r5, r6, lr}
 146              	.LCFI2:
 147              		.cfi_def_cfa_offset 16
 148              		.loc 1 150 0
 149 0002 0446     		mov	r4, r0
 150              		.cfi_offset 14, -4
 151              		.cfi_offset 6, -8
 152              		.cfi_offset 5, -12
 153              		.cfi_offset 4, -16
 154 0004 0D46     		mov	r5, r1
 155              		.loc 1 156 0
 156 0006 1C30     		adds	r0, r0, #28
 157              	.LVL7:
 158 0008 1146     		mov	r1, r2
 159              	.LVL8:
 160 000a FFF7FEFF 		bl	chSemWaitTimeoutS
 161              	.LVL9:
 162              		.loc 1 157 0
 163 000e 0646     		mov	r6, r0
 164 0010 78B9     		cbnz	r0, .L4
 165              		.loc 1 158 0
 166 0012 A368     		ldr	r3, [r4, #8]
ARM GAS  C:\Users\DNIEL~1\AppData\Local\Temp\cczPCJ6X.s 			page 4


 167              		.loc 1 159 0
 168 0014 6268     		ldr	r2, [r4, #4]
 169              		.loc 1 158 0
 170 0016 43F8045B 		str	r5, [r3], #4
 171              		.loc 1 159 0
 172 001a 9342     		cmp	r3, r2
 173              		.loc 1 158 0
 174 001c A360     		str	r3, [r4, #8]
 175              		.loc 1 160 0
 176 001e 28BF     		it	cs
 177 0020 2368     		ldrcs	r3, [r4, #0]
 178              		.loc 1 161 0
 179 0022 04F11000 		add	r0, r4, #16
 180              	.LVL10:
 181              		.loc 1 160 0
 182 0026 28BF     		it	cs
 183 0028 A360     		strcs	r3, [r4, #8]
 184              		.loc 1 161 0
 185 002a FFF7FEFF 		bl	chSemSignalI
 186              		.loc 1 162 0
 187 002e FFF7FEFF 		bl	chSchRescheduleS
 188              	.L4:
 189              		.loc 1 165 0
 190 0032 3046     		mov	r0, r6
 191 0034 70BD     		pop	{r4, r5, r6, pc}
 192              		.cfi_endproc
 193              	.LFE3:
 194              		.size	chMBPostS, .-chMBPostS
 195 0036 00BFAFF3 		.section	.text.chMBPost,"ax",%progbits
 195      0080AFF3 
 195      0080
 196              		.align	2
 197              		.p2align 4,,15
 198              		.global	chMBPost
 199              		.thumb
 200              		.thumb_func
 201              		.type	chMBPost, %function
 202              	chMBPost:
 203              	.LFB2:
 204              		.loc 1 122 0
 205              		.cfi_startproc
 206              		@ args = 0, pretend = 0, frame = 0
 207              		@ frame_needed = 0, uses_anonymous_args = 0
 208              	.LVL11:
 209 0000 08B5     		push	{r3, lr}
 210              	.LCFI3:
 211              		.cfi_def_cfa_offset 8
 212              		.loc 1 125 0
 213              	@ 125 "../../../ChibiOS/os/kernel/src/chmboxes.c" 1
 214 0002 FFF7FEFF 		bl      _port_lock
 215              	@ 0 "" 2
 216              		.loc 1 126 0
 217              		.thumb
 218              		.cfi_offset 14, -4
 219              		.cfi_offset 3, -8
 220 0006 FFF7FEFF 		bl	chMBPostS
 221              	.LVL12:
ARM GAS  C:\Users\DNIEL~1\AppData\Local\Temp\cczPCJ6X.s 			page 5


 222              		.loc 1 127 0
 223              	@ 127 "../../../ChibiOS/os/kernel/src/chmboxes.c" 1
 224 000a FFF7FEFF 		bl      _port_unlock
 225              	@ 0 "" 2
 226              		.loc 1 129 0
 227              		.thumb
 228 000e 08BD     		pop	{r3, pc}
 229              		.cfi_endproc
 230              	.LFE2:
 231              		.size	chMBPost, .-chMBPost
 232              		.section	.text.chMBPostI,"ax",%progbits
 233              		.align	2
 234              		.p2align 4,,15
 235              		.global	chMBPostI
 236              		.thumb
 237              		.thumb_func
 238              		.type	chMBPostI, %function
 239              	chMBPostI:
 240              	.LFB4:
 241              		.loc 1 181 0
 242              		.cfi_startproc
 243              		@ args = 0, pretend = 0, frame = 0
 244              		@ frame_needed = 0, uses_anonymous_args = 0
 245              	.LVL13:
 246              		.loc 1 186 0
 247 0000 436A     		ldr	r3, [r0, #36]
 248              		.loc 1 181 0
 249 0002 10B5     		push	{r4, lr}
 250              	.LCFI4:
 251              		.cfi_def_cfa_offset 8
 252              		.loc 1 186 0
 253 0004 002B     		cmp	r3, #0
 254 0006 10DD     		ble	.L11
 255              		.cfi_offset 14, -4
 256              		.cfi_offset 4, -8
 257              		.loc 1 189 0
 258 0008 8268     		ldr	r2, [r0, #8]
 259              		.loc 1 188 0
 260 000a 013B     		subs	r3, r3, #1
 261              		.loc 1 190 0
 262 000c 4468     		ldr	r4, [r0, #4]
 263              		.loc 1 188 0
 264 000e 4362     		str	r3, [r0, #36]
 265              		.loc 1 189 0
 266 0010 42F8041B 		str	r1, [r2], #4
 267              		.loc 1 190 0
 268 0014 A242     		cmp	r2, r4
 269              		.loc 1 191 0
 270 0016 28BF     		it	cs
 271 0018 0368     		ldrcs	r3, [r0, #0]
 272              		.loc 1 189 0
 273 001a 8260     		str	r2, [r0, #8]
 274              		.loc 1 191 0
 275 001c 28BF     		it	cs
 276 001e 8360     		strcs	r3, [r0, #8]
 277              		.loc 1 192 0
 278 0020 1030     		adds	r0, r0, #16
ARM GAS  C:\Users\DNIEL~1\AppData\Local\Temp\cczPCJ6X.s 			page 6


 279              	.LVL14:
 280 0022 FFF7FEFF 		bl	chSemSignalI
 281              	.LVL15:
 282              		.loc 1 193 0
 283 0026 0020     		movs	r0, #0
 284 0028 10BD     		pop	{r4, pc}
 285              	.LVL16:
 286              	.L11:
 287              		.loc 1 187 0
 288 002a 4FF0FF30 		mov	r0, #-1
 289              	.LVL17:
 290              		.loc 1 194 0
 291 002e 10BD     		pop	{r4, pc}
 292              		.cfi_endproc
 293              	.LFE4:
 294              		.size	chMBPostI, .-chMBPostI
 295              		.section	.text.chMBPostAheadS,"ax",%progbits
 296              		.align	2
 297              		.p2align 4,,15
 298              		.global	chMBPostAheadS
 299              		.thumb
 300              		.thumb_func
 301              		.type	chMBPostAheadS, %function
 302              	chMBPostAheadS:
 303              	.LFB6:
 304              		.loc 1 243 0
 305              		.cfi_startproc
 306              		@ args = 0, pretend = 0, frame = 0
 307              		@ frame_needed = 0, uses_anonymous_args = 0
 308              	.LVL18:
 309 0000 70B5     		push	{r4, r5, r6, lr}
 310              	.LCFI5:
 311              		.cfi_def_cfa_offset 16
 312              		.loc 1 243 0
 313 0002 0446     		mov	r4, r0
 314              		.cfi_offset 14, -4
 315              		.cfi_offset 6, -8
 316              		.cfi_offset 5, -12
 317              		.cfi_offset 4, -16
 318 0004 0D46     		mov	r5, r1
 319              		.loc 1 249 0
 320 0006 1C30     		adds	r0, r0, #28
 321              	.LVL19:
 322 0008 1146     		mov	r1, r2
 323              	.LVL20:
 324 000a FFF7FEFF 		bl	chSemWaitTimeoutS
 325              	.LVL21:
 326              		.loc 1 250 0
 327 000e 0646     		mov	r6, r0
 328 0010 60B9     		cbnz	r0, .L13
 329              		.loc 1 251 0
 330 0012 E368     		ldr	r3, [r4, #12]
 331 0014 2268     		ldr	r2, [r4, #0]
 332 0016 043B     		subs	r3, r3, #4
 333 0018 9342     		cmp	r3, r2
 334 001a E360     		str	r3, [r4, #12]
 335 001c 08D3     		bcc	.L15
ARM GAS  C:\Users\DNIEL~1\AppData\Local\Temp\cczPCJ6X.s 			page 7


 336              	.LVL22:
 337              	.L14:
 338              		.loc 1 254 0
 339 001e 04F11000 		add	r0, r4, #16
 340              		.loc 1 253 0
 341 0022 1D60     		str	r5, [r3, #0]
 342              		.loc 1 254 0
 343 0024 FFF7FEFF 		bl	chSemSignalI
 344              		.loc 1 255 0
 345 0028 FFF7FEFF 		bl	chSchRescheduleS
 346              	.L13:
 347              		.loc 1 258 0
 348 002c 3046     		mov	r0, r6
 349 002e 70BD     		pop	{r4, r5, r6, pc}
 350              	.L15:
 351              		.loc 1 252 0
 352 0030 6068     		ldr	r0, [r4, #4]
 353 0032 031F     		subs	r3, r0, #4
 354 0034 E360     		str	r3, [r4, #12]
 355 0036 F2E7     		b	.L14
 356              		.cfi_endproc
 357              	.LFE6:
 358              		.size	chMBPostAheadS, .-chMBPostAheadS
 359 0038 AFF30080 		.section	.text.chMBPostAhead,"ax",%progbits
 359      AFF30080 
 360              		.align	2
 361              		.p2align 4,,15
 362              		.global	chMBPostAhead
 363              		.thumb
 364              		.thumb_func
 365              		.type	chMBPostAhead, %function
 366              	chMBPostAhead:
 367              	.LFB5:
 368              		.loc 1 215 0
 369              		.cfi_startproc
 370              		@ args = 0, pretend = 0, frame = 0
 371              		@ frame_needed = 0, uses_anonymous_args = 0
 372              	.LVL23:
 373 0000 08B5     		push	{r3, lr}
 374              	.LCFI6:
 375              		.cfi_def_cfa_offset 8
 376              		.loc 1 218 0
 377              	@ 218 "../../../ChibiOS/os/kernel/src/chmboxes.c" 1
 378 0002 FFF7FEFF 		bl      _port_lock
 379              	@ 0 "" 2
 380              		.loc 1 219 0
 381              		.thumb
 382              		.cfi_offset 14, -4
 383              		.cfi_offset 3, -8
 384 0006 FFF7FEFF 		bl	chMBPostAheadS
 385              	.LVL24:
 386              		.loc 1 220 0
 387              	@ 220 "../../../ChibiOS/os/kernel/src/chmboxes.c" 1
 388 000a FFF7FEFF 		bl      _port_unlock
 389              	@ 0 "" 2
 390              		.loc 1 222 0
 391              		.thumb
ARM GAS  C:\Users\DNIEL~1\AppData\Local\Temp\cczPCJ6X.s 			page 8


 392 000e 08BD     		pop	{r3, pc}
 393              		.cfi_endproc
 394              	.LFE5:
 395              		.size	chMBPostAhead, .-chMBPostAhead
 396              		.section	.text.chMBPostAheadI,"ax",%progbits
 397              		.align	2
 398              		.p2align 4,,15
 399              		.global	chMBPostAheadI
 400              		.thumb
 401              		.thumb_func
 402              		.type	chMBPostAheadI, %function
 403              	chMBPostAheadI:
 404              	.LFB7:
 405              		.loc 1 274 0
 406              		.cfi_startproc
 407              		@ args = 0, pretend = 0, frame = 0
 408              		@ frame_needed = 0, uses_anonymous_args = 0
 409              	.LVL25:
 410              		.loc 1 279 0
 411 0000 436A     		ldr	r3, [r0, #36]
 412              		.loc 1 274 0
 413 0002 10B5     		push	{r4, lr}
 414              	.LCFI7:
 415              		.cfi_def_cfa_offset 8
 416              		.loc 1 279 0
 417 0004 002B     		cmp	r3, #0
 418 0006 10DD     		ble	.L20
 419              		.cfi_offset 14, -4
 420              		.cfi_offset 4, -8
 421              		.loc 1 282 0
 422 0008 C268     		ldr	r2, [r0, #12]
 423 000a 0468     		ldr	r4, [r0, #0]
 424 000c 043A     		subs	r2, r2, #4
 425              		.loc 1 281 0
 426 000e 013B     		subs	r3, r3, #1
 427              		.loc 1 282 0
 428 0010 A242     		cmp	r2, r4
 429              		.loc 1 281 0
 430 0012 4362     		str	r3, [r0, #36]
 431              		.loc 1 282 0
 432 0014 C260     		str	r2, [r0, #12]
 433 0016 02D2     		bcs	.L19
 434              		.loc 1 283 0
 435 0018 4368     		ldr	r3, [r0, #4]
 436 001a 1A1F     		subs	r2, r3, #4
 437 001c C260     		str	r2, [r0, #12]
 438              	.L19:
 439              		.loc 1 285 0
 440 001e 1030     		adds	r0, r0, #16
 441              	.LVL26:
 442              		.loc 1 284 0
 443 0020 1160     		str	r1, [r2, #0]
 444              		.loc 1 285 0
 445 0022 FFF7FEFF 		bl	chSemSignalI
 446              	.LVL27:
 447              		.loc 1 286 0
 448 0026 0020     		movs	r0, #0
ARM GAS  C:\Users\DNIEL~1\AppData\Local\Temp\cczPCJ6X.s 			page 9


 449 0028 10BD     		pop	{r4, pc}
 450              	.LVL28:
 451              	.L20:
 452              		.loc 1 280 0
 453 002a 4FF0FF30 		mov	r0, #-1
 454              	.LVL29:
 455              		.loc 1 287 0
 456 002e 10BD     		pop	{r4, pc}
 457              		.cfi_endproc
 458              	.LFE7:
 459              		.size	chMBPostAheadI, .-chMBPostAheadI
 460              		.section	.text.chMBFetchS,"ax",%progbits
 461              		.align	2
 462              		.p2align 4,,15
 463              		.global	chMBFetchS
 464              		.thumb
 465              		.thumb_func
 466              		.type	chMBFetchS, %function
 467              	chMBFetchS:
 468              	.LFB9:
 469              		.loc 1 336 0
 470              		.cfi_startproc
 471              		@ args = 0, pretend = 0, frame = 0
 472              		@ frame_needed = 0, uses_anonymous_args = 0
 473              	.LVL30:
 474 0000 70B5     		push	{r4, r5, r6, lr}
 475              	.LCFI8:
 476              		.cfi_def_cfa_offset 16
 477              		.loc 1 336 0
 478 0002 0446     		mov	r4, r0
 479              		.cfi_offset 14, -4
 480              		.cfi_offset 6, -8
 481              		.cfi_offset 5, -12
 482              		.cfi_offset 4, -16
 483 0004 0D46     		mov	r5, r1
 484              		.loc 1 342 0
 485 0006 1030     		adds	r0, r0, #16
 486              	.LVL31:
 487 0008 1146     		mov	r1, r2
 488              	.LVL32:
 489 000a FFF7FEFF 		bl	chSemWaitTimeoutS
 490              	.LVL33:
 491              		.loc 1 343 0
 492 000e 0646     		mov	r6, r0
 493 0010 78B9     		cbnz	r0, .L22
 494              		.loc 1 344 0
 495 0012 E368     		ldr	r3, [r4, #12]
 496              		.loc 1 345 0
 497 0014 6268     		ldr	r2, [r4, #4]
 498              		.loc 1 344 0
 499 0016 53F8041B 		ldr	r1, [r3], #4
 500              		.loc 1 347 0
 501 001a 04F11C00 		add	r0, r4, #28
 502              	.LVL34:
 503              		.loc 1 345 0
 504 001e 9342     		cmp	r3, r2
 505              		.loc 1 344 0
ARM GAS  C:\Users\DNIEL~1\AppData\Local\Temp\cczPCJ6X.s 			page 10


 506 0020 2960     		str	r1, [r5, #0]
 507 0022 E360     		str	r3, [r4, #12]
 508              		.loc 1 346 0
 509 0024 24BF     		itt	cs
 510 0026 2368     		ldrcs	r3, [r4, #0]
 511 0028 E360     		strcs	r3, [r4, #12]
 512              		.loc 1 347 0
 513 002a FFF7FEFF 		bl	chSemSignalI
 514              		.loc 1 348 0
 515 002e FFF7FEFF 		bl	chSchRescheduleS
 516              	.L22:
 517              		.loc 1 351 0
 518 0032 3046     		mov	r0, r6
 519 0034 70BD     		pop	{r4, r5, r6, pc}
 520              		.cfi_endproc
 521              	.LFE9:
 522              		.size	chMBFetchS, .-chMBFetchS
 523 0036 00BFAFF3 		.section	.text.chMBFetch,"ax",%progbits
 523      0080AFF3 
 523      0080
 524              		.align	2
 525              		.p2align 4,,15
 526              		.global	chMBFetch
 527              		.thumb
 528              		.thumb_func
 529              		.type	chMBFetch, %function
 530              	chMBFetch:
 531              	.LFB8:
 532              		.loc 1 308 0
 533              		.cfi_startproc
 534              		@ args = 0, pretend = 0, frame = 0
 535              		@ frame_needed = 0, uses_anonymous_args = 0
 536              	.LVL35:
 537 0000 08B5     		push	{r3, lr}
 538              	.LCFI9:
 539              		.cfi_def_cfa_offset 8
 540              		.loc 1 311 0
 541              	@ 311 "../../../ChibiOS/os/kernel/src/chmboxes.c" 1
 542 0002 FFF7FEFF 		bl      _port_lock
 543              	@ 0 "" 2
 544              		.loc 1 312 0
 545              		.thumb
 546              		.cfi_offset 14, -4
 547              		.cfi_offset 3, -8
 548 0006 FFF7FEFF 		bl	chMBFetchS
 549              	.LVL36:
 550              		.loc 1 313 0
 551              	@ 313 "../../../ChibiOS/os/kernel/src/chmboxes.c" 1
 552 000a FFF7FEFF 		bl      _port_unlock
 553              	@ 0 "" 2
 554              		.loc 1 315 0
 555              		.thumb
 556 000e 08BD     		pop	{r3, pc}
 557              		.cfi_endproc
 558              	.LFE8:
 559              		.size	chMBFetch, .-chMBFetch
 560              		.section	.text.chMBFetchI,"ax",%progbits
ARM GAS  C:\Users\DNIEL~1\AppData\Local\Temp\cczPCJ6X.s 			page 11


 561              		.align	2
 562              		.p2align 4,,15
 563              		.global	chMBFetchI
 564              		.thumb
 565              		.thumb_func
 566              		.type	chMBFetchI, %function
 567              	chMBFetchI:
 568              	.LFB10:
 569              		.loc 1 367 0
 570              		.cfi_startproc
 571              		@ args = 0, pretend = 0, frame = 0
 572              		@ frame_needed = 0, uses_anonymous_args = 0
 573              	.LVL37:
 574              		.loc 1 372 0
 575 0000 8369     		ldr	r3, [r0, #24]
 576              		.loc 1 367 0
 577 0002 10B5     		push	{r4, lr}
 578              	.LCFI10:
 579              		.cfi_def_cfa_offset 8
 580              		.loc 1 372 0
 581 0004 002B     		cmp	r3, #0
 582 0006 11DD     		ble	.L28
 583              		.cfi_offset 14, -4
 584              		.cfi_offset 4, -8
 585              		.loc 1 375 0
 586 0008 C268     		ldr	r2, [r0, #12]
 587              		.loc 1 374 0
 588 000a 5C1E     		subs	r4, r3, #1
 589 000c 8461     		str	r4, [r0, #24]
 590              		.loc 1 376 0
 591 000e 4368     		ldr	r3, [r0, #4]
 592              		.loc 1 375 0
 593 0010 52F8044B 		ldr	r4, [r2], #4
 594              		.loc 1 376 0
 595 0014 9A42     		cmp	r2, r3
 596              		.loc 1 377 0
 597 0016 28BF     		it	cs
 598 0018 0368     		ldrcs	r3, [r0, #0]
 599              		.loc 1 375 0
 600 001a 0C60     		str	r4, [r1, #0]
 601 001c C260     		str	r2, [r0, #12]
 602              		.loc 1 377 0
 603 001e 28BF     		it	cs
 604 0020 C360     		strcs	r3, [r0, #12]
 605              		.loc 1 378 0
 606 0022 1C30     		adds	r0, r0, #28
 607              	.LVL38:
 608 0024 FFF7FEFF 		bl	chSemSignalI
 609              	.LVL39:
 610              		.loc 1 379 0
 611 0028 0020     		movs	r0, #0
 612 002a 10BD     		pop	{r4, pc}
 613              	.LVL40:
 614              	.L28:
 615              		.loc 1 373 0
 616 002c 4FF0FF30 		mov	r0, #-1
 617              	.LVL41:
ARM GAS  C:\Users\DNIEL~1\AppData\Local\Temp\cczPCJ6X.s 			page 12


 618              		.loc 1 380 0
 619 0030 10BD     		pop	{r4, pc}
 620              		.cfi_endproc
 621              	.LFE10:
 622              		.size	chMBFetchI, .-chMBFetchI
 623 0032 00BFAFF3 		.text
 623      0080AFF3 
 623      0080AFF3 
 623      0080
 624              	.Letext0: