ARM GAS  C:\Users\DNIEL~1\AppData\Local\Temp\ccRd6ncZ.s 			page 1


   1              		.syntax unified
   2              		.cpu cortex-m3
   3              		.fpu softvfp
   4              		.eabi_attribute 20, 1
   5              		.eabi_attribute 21, 1
   6              		.eabi_attribute 23, 3
   7              		.eabi_attribute 24, 1
   8              		.eabi_attribute 25, 1
   9              		.eabi_attribute 26, 1
  10              		.eabi_attribute 30, 2
  11              		.eabi_attribute 18, 4
  12              		.thumb
  13              		.file	"chmemcore.c"
  20 0000 97010000 		.text
  20      02003501 
  20      00000201 
  20      FB0E0D00 
  20      01010101 
  21              	.Ltext0:
  22              		.cfi_sections	.debug_frame
  23              		.section	.text._core_init,"ax",%progbits
  24              		.align	2
  25              		.p2align 4,,15
  26              		.global	_core_init
  27              		.thumb
  28              		.thumb_func
  29              		.type	_core_init, %function
  30              	_core_init:
  31              	.LFB0:
  32              		.file 1 "../../../ChibiOS/os/kernel/src/chmemcore.c"
  33              		.loc 1 59 0
  34              		.cfi_startproc
  35              		@ args = 0, pretend = 0, frame = 0
  36              		@ frame_needed = 0, uses_anonymous_args = 0
  37              		@ link register save eliminated.
  38              		.loc 1 63 0
  39 0000 054B     		ldr	r3, .L2
  40 0002 064A     		ldr	r2, .L2+4
  41              		.loc 1 64 0
  42 0004 0648     		ldr	r0, .L2+8
  43              		.loc 1 63 0
  44 0006 23F00701 		bic	r1, r3, #7
  45              		.loc 1 64 0
  46 000a 064B     		ldr	r3, .L2+12
  47              		.loc 1 63 0
  48 000c 1160     		str	r1, [r2, #0]
  49              		.loc 1 64 0
  50 000e 20F00702 		bic	r2, r0, #7
  51 0012 1A60     		str	r2, [r3, #0]
  52              		.loc 1 70 0
  53 0014 7047     		bx	lr
ARM GAS  C:\Users\DNIEL~1\AppData\Local\Temp\ccRd6ncZ.s 			page 2


  54              	.L3:
  55 0016 00BF     		.align	2
  56              	.L2:
  57 0018 07000000 		.word	__heap_base__+7
  58 001c 00000000 		.word	.LANCHOR0
  59 0020 00000000 		.word	__heap_end__
  60 0024 00000000 		.word	.LANCHOR1
  61              		.cfi_endproc
  62              	.LFE0:
  63              		.size	_core_init, .-_core_init
  64 0028 AFF30080 		.section	.text.chCoreAlloc,"ax",%progbits
  64      AFF30080 
  65              		.align	2
  66              		.p2align 4,,15
  67              		.global	chCoreAlloc
  68              		.thumb
  69              		.thumb_func
  70              		.type	chCoreAlloc, %function
  71              	chCoreAlloc:
  72              	.LFB1:
  73              		.loc 1 84 0
  74              		.cfi_startproc
  75              		@ args = 0, pretend = 0, frame = 0
  76              		@ frame_needed = 0, uses_anonymous_args = 0
  77              	.LVL0:
  78 0000 00B5     		push	{lr}
  79              	.LCFI0:
  80              		.cfi_def_cfa_offset 4
  81              		.loc 1 87 0
  82              	@ 87 "../../../ChibiOS/os/kernel/src/chmemcore.c" 1
  83 0002 FFF7FEFF 		bl      _port_lock
  84              	@ 0 "" 2
  85              	.LVL1:
  86              		.thumb
  87              	.LBB4:
  88              	.LBB5:
  89              		.loc 1 111 0
  90 0006 094A     		ldr	r2, .L7
  91 0008 0949     		ldr	r1, .L7+4
  92 000a 1368     		ldr	r3, [r2, #0]
  93 000c 0968     		ldr	r1, [r1, #0]
  94              		.loc 1 110 0
  95 000e 0730     		adds	r0, r0, #7
  96              	.LVL2:
  97 0010 20F00700 		bic	r0, r0, #7
  98              	.LVL3:
  99              		.loc 1 111 0
 100 0014 C91A     		subs	r1, r1, r3
 101 0016 8842     		cmp	r0, r1
 102              	.LVL4:
 103              		.loc 1 114 0
 104 0018 9DBF     		ittte	ls
 105 001a 1818     		addls	r0, r3, r0
 106              	.LVL5:
 107 001c 1060     		strls	r0, [r2, #0]
 108              		.loc 1 115 0
 109 001e 1846     		movls	r0, r3
ARM GAS  C:\Users\DNIEL~1\AppData\Local\Temp\ccRd6ncZ.s 			page 3


 110              		.loc 1 112 0
 111 0020 0020     		movhi	r0, #0
 112              	.LBE5:
 113              	.LBE4:
 114              		.loc 1 89 0
 115              	@ 89 "../../../ChibiOS/os/kernel/src/chmemcore.c" 1
 116 0022 FFF7FEFF 		bl      _port_unlock
 117              	@ 0 "" 2
 118              		.loc 1 91 0
 119              		.thumb
 120 0026 5DF804FB 		ldr	pc, [sp], #4
 121              		.cfi_offset 14, -4
 122              	.L8:
 123 002a 00BF     		.align	2
 124              	.L7:
 125 002c 00000000 		.word	.LANCHOR0
 126 0030 00000000 		.word	.LANCHOR1
 127              		.cfi_endproc
 128              	.LFE1:
 129              		.size	chCoreAlloc, .-chCoreAlloc
 130 0034 AFF30080 		.section	.text.chCoreAllocI,"ax",%progbits
 130      AFF30080 
 130      AFF30080 
 131              		.align	2
 132              		.p2align 4,,15
 133              		.global	chCoreAllocI
 134              		.thumb
 135              		.thumb_func
 136              		.type	chCoreAllocI, %function
 137              	chCoreAllocI:
 138              	.LFB2:
 139              		.loc 1 105 0
 140              		.cfi_startproc
 141              		@ args = 0, pretend = 0, frame = 0
 142              		@ frame_needed = 0, uses_anonymous_args = 0
 143              		@ link register save eliminated.
 144              	.LVL6:
 145              		.loc 1 111 0
 146 0000 074A     		ldr	r2, .L13
 147 0002 0849     		ldr	r1, .L13+4
 148 0004 1368     		ldr	r3, [r2, #0]
 149 0006 0968     		ldr	r1, [r1, #0]
 150              		.loc 1 110 0
 151 0008 0730     		adds	r0, r0, #7
 152              	.LVL7:
 153 000a 20F00700 		bic	r0, r0, #7
 154              	.LVL8:
 155              		.loc 1 111 0
 156 000e C91A     		subs	r1, r1, r3
 157 0010 8842     		cmp	r0, r1
 158 0012 03D8     		bhi	.L11
 159              	.LVL9:
 160              		.loc 1 114 0
 161 0014 1818     		adds	r0, r3, r0
 162              	.LVL10:
 163 0016 1060     		str	r0, [r2, #0]
 164              		.loc 1 115 0
ARM GAS  C:\Users\DNIEL~1\AppData\Local\Temp\ccRd6ncZ.s 			page 4


 165 0018 1846     		mov	r0, r3
 166 001a 7047     		bx	lr
 167              	.LVL11:
 168              	.L11:
 169              		.loc 1 112 0
 170 001c 0020     		movs	r0, #0
 171              	.LVL12:
 172              		.loc 1 116 0
 173 001e 7047     		bx	lr
 174              	.L14:
 175              		.align	2
 176              	.L13:
 177 0020 00000000 		.word	.LANCHOR0
 178 0024 00000000 		.word	.LANCHOR1
 179              		.cfi_endproc
 180              	.LFE2:
 181              		.size	chCoreAllocI, .-chCoreAllocI
 182 0028 AFF30080 		.section	.text.chCoreStatus,"ax",%progbits
 182      AFF30080 
 183              		.align	2
 184              		.p2align 4,,15
 185              		.global	chCoreStatus
 186              		.thumb
 187              		.thumb_func
 188              		.type	chCoreStatus, %function
 189              	chCoreStatus:
 190              	.LFB3:
 191              		.loc 1 125 0
 192              		.cfi_startproc
 193              		@ args = 0, pretend = 0, frame = 0
 194              		@ frame_needed = 0, uses_anonymous_args = 0
 195              		@ link register save eliminated.
 196              		.loc 1 127 0
 197 0000 024A     		ldr	r2, .L16
 198 0002 0349     		ldr	r1, .L16+4
 199 0004 1068     		ldr	r0, [r2, #0]
 200 0006 0B68     		ldr	r3, [r1, #0]
 201              		.loc 1 128 0
 202 0008 C01A     		subs	r0, r0, r3
 203 000a 7047     		bx	lr
 204              	.L17:
 205              		.align	2
 206              	.L16:
 207 000c 00000000 		.word	.LANCHOR1
 208 0010 00000000 		.word	.LANCHOR0
 209              		.cfi_endproc
 210              	.LFE3:
 211              		.size	chCoreStatus, .-chCoreStatus
 212 0014 AFF30080 		.section	.bss.endmem,"aw",%nobits
 212      AFF30080 
 212      AFF30080 
 213              		.align	2
 214              		.set	.LANCHOR1,. + 0
 215              		.type	endmem, %object
 216              		.size	endmem, 4
 217              	endmem:
 218 0000 00000000 		.space	4
ARM GAS  C:\Users\DNIEL~1\AppData\Local\Temp\ccRd6ncZ.s 			page 5


 219              		.section	.bss.nextmem,"aw",%nobits
 220              		.align	2
 221              		.set	.LANCHOR0,. + 0
 222              		.type	nextmem, %object
 223              		.size	nextmem, 4
 224              	nextmem:
 225 0000 00000000 		.space	4
 226              		.text
 227              	.Letext0: