ARM GAS  C:\Users\DNIEL~1\AppData\Local\Temp\ccvJs2tk.s 			page 1


   1              		.syntax unified
   2              		.cpu cortex-m3
   3              		.fpu softvfp
   4              		.eabi_attribute 20, 1
   5              		.eabi_attribute 21, 1
   6              		.eabi_attribute 23, 3
   7              		.eabi_attribute 24, 1
   8              		.eabi_attribute 25, 1
   9              		.eabi_attribute 26, 1
  10              		.eabi_attribute 30, 2
  11              		.eabi_attribute 18, 4
  12              		.thumb
  13              		.file	"chqueues.c"
  20 0000 A3030000 		.text
  20      0200DA01 
  20      00000201 
  20      FB0E0D00 
  20      01010101 
  21              	.Ltext0:
  22              		.cfi_sections	.debug_frame
  23              		.section	.text.qwait,"ax",%progbits
  24              		.align	2
  25              		.p2align 4,,15
  26              		.thumb
  27              		.thumb_func
  28              		.type	qwait, %function
  29              	qwait:
  30              	.LFB0:
  31              		.file 1 "../../../ChibiOS/os/kernel/src/chqueues.c"
  32              		.loc 1 70 0
  33              		.cfi_startproc
  34              		@ args = 0, pretend = 0, frame = 0
  35              		@ frame_needed = 0, uses_anonymous_args = 0
  36              	.LVL0:
  37 0000 10B5     		push	{r4, lr}
  38              	.LCFI0:
  39              		.cfi_def_cfa_offset 8
  40              		.loc 1 70 0
  41 0002 0346     		mov	r3, r0
  42              		.loc 1 72 0
  43 0004 0C46     		mov	r4, r1
  44              		.cfi_offset 14, -4
  45              		.cfi_offset 4, -8
  46 0006 11B9     		cbnz	r1, .L4
  47              		.loc 1 77 0
  48 0008 4FF0FF30 		mov	r0, #-1
  49              	.LVL1:
  50 000c 10BD     		pop	{r4, pc}
  51              	.L4:
  52              		.loc 1 75 0
  53 000e 0146     		mov	r1, r0
ARM GAS  C:\Users\DNIEL~1\AppData\Local\Temp\ccvJs2tk.s 			page 2


  54              	.LVL2:
  55              		.loc 1 74 0
  56 0010 0548     		ldr	r0, .L5
  57 0012 8269     		ldr	r2, [r0, #24]
  58              		.loc 1 75 0
  59 0014 1046     		mov	r0, r2
  60              		.loc 1 74 0
  61 0016 5362     		str	r3, [r2, #36]
  62              		.loc 1 75 0
  63 0018 FFF7FEFF 		bl	queue_insert
  64              	.LVL3:
  65              		.loc 1 76 0
  66 001c 0D20     		movs	r0, #13
  67 001e 2146     		mov	r1, r4
  68              		.loc 1 77 0
  69 0020 BDE81040 		pop	{r4, lr}
  70              		.loc 1 76 0
  71 0024 FFF7FEBF 		b	chSchGoSleepTimeoutS
  72              	.L6:
  73              		.align	2
  74              	.L5:
  75 0028 00000000 		.word	rlist
  76              		.cfi_endproc
  77              	.LFE0:
  78              		.size	qwait, .-qwait
  79 002c AFF30080 		.section	.text.chIQInit,"ax",%progbits
  80              		.align	2
  81              		.p2align 4,,15
  82              		.global	chIQInit
  83              		.thumb
  84              		.thumb_func
  85              		.type	chIQInit, %function
  86              	chIQInit:
  87              	.LFB1:
  88              		.loc 1 96 0
  89              		.cfi_startproc
  90              		@ args = 4, pretend = 0, frame = 0
  91              		@ frame_needed = 0, uses_anonymous_args = 0
  92              		@ link register save eliminated.
  93              	.LVL4:
  94 0000 10B4     		push	{r4}
  95              	.LCFI1:
  96              		.cfi_def_cfa_offset 4
  97              		.loc 1 102 0
  98 0002 C361     		str	r3, [r0, #28]
  99              		.loc 1 103 0
 100 0004 019B     		ldr	r3, [sp, #4]
 101              	.LVL5:
 102              		.loc 1 101 0
 103 0006 8A18     		adds	r2, r1, r2
 104              	.LVL6:
 105              		.loc 1 99 0
 106 0008 0024     		movs	r4, #0
 107              		.cfi_offset 4, -4
 108              		.loc 1 98 0
 109 000a 4060     		str	r0, [r0, #4]
 110 000c 0060     		str	r0, [r0, #0]
ARM GAS  C:\Users\DNIEL~1\AppData\Local\Temp\ccvJs2tk.s 			page 3


 111              		.loc 1 99 0
 112 000e 8460     		str	r4, [r0, #8]
 113              		.loc 1 100 0
 114 0010 4161     		str	r1, [r0, #20]
 115 0012 8161     		str	r1, [r0, #24]
 116 0014 C160     		str	r1, [r0, #12]
 117              		.loc 1 101 0
 118 0016 0261     		str	r2, [r0, #16]
 119              		.loc 1 103 0
 120 0018 0362     		str	r3, [r0, #32]
 121              		.loc 1 104 0
 122 001a 10BC     		pop	{r4}
 123 001c 7047     		bx	lr
 124              		.cfi_endproc
 125              	.LFE1:
 126              		.size	chIQInit, .-chIQInit
 127 001e 00BF     		.section	.text.chIQResetI,"ax",%progbits
 128              		.align	2
 129              		.p2align 4,,15
 130              		.global	chIQResetI
 131              		.thumb
 132              		.thumb_func
 133              		.type	chIQResetI, %function
 134              	chIQResetI:
 135              	.LFB2:
 136              		.loc 1 117 0
 137              		.cfi_startproc
 138              		@ args = 0, pretend = 0, frame = 0
 139              		@ frame_needed = 0, uses_anonymous_args = 0
 140              	.LVL7:
 141              		.loc 1 123 0
 142 0000 0268     		ldr	r2, [r0, #0]
 143              		.loc 1 121 0
 144 0002 C168     		ldr	r1, [r0, #12]
 145              		.loc 1 117 0
 146 0004 38B5     		push	{r3, r4, r5, lr}
 147              	.LCFI2:
 148              		.cfi_def_cfa_offset 16
 149              		.loc 1 122 0
 150 0006 0023     		movs	r3, #0
 151              		.cfi_offset 14, -4
 152              		.cfi_offset 5, -8
 153              		.cfi_offset 4, -12
 154              		.cfi_offset 3, -16
 155              		.loc 1 123 0
 156 0008 8242     		cmp	r2, r0
 157              		.loc 1 117 0
 158 000a 0446     		mov	r4, r0
 159              		.loc 1 121 0
 160 000c 4161     		str	r1, [r0, #20]
 161 000e 8161     		str	r1, [r0, #24]
 162              		.loc 1 122 0
 163 0010 8360     		str	r3, [r0, #8]
 164              		.loc 1 123 0
 165 0012 0AD0     		beq	.L8
 166              		.loc 1 124 0
 167 0014 6FF00105 		mvn	r5, #1
ARM GAS  C:\Users\DNIEL~1\AppData\Local\Temp\ccvJs2tk.s 			page 4


 168              	.LVL8:
 169              	.L11:
 170 0018 2046     		mov	r0, r4
 171 001a FFF7FEFF 		bl	fifo_remove
 172 001e FFF7FEFF 		bl	chSchReadyI
 173 0022 4562     		str	r5, [r0, #36]
 174              		.loc 1 123 0
 175 0024 2068     		ldr	r0, [r4, #0]
 176 0026 A042     		cmp	r0, r4
 177 0028 F6D1     		bne	.L11
 178              	.L8:
 179 002a 38BD     		pop	{r3, r4, r5, pc}
 180              		.cfi_endproc
 181              	.LFE2:
 182              		.size	chIQResetI, .-chIQResetI
 183 002c AFF30080 		.section	.text.chIQPutI,"ax",%progbits
 184              		.align	2
 185              		.p2align 4,,15
 186              		.global	chIQPutI
 187              		.thumb
 188              		.thumb_func
 189              		.type	chIQPutI, %function
 190              	chIQPutI:
 191              	.LFB3:
 192              		.loc 1 140 0
 193              		.cfi_startproc
 194              		@ args = 0, pretend = 0, frame = 0
 195              		@ frame_needed = 0, uses_anonymous_args = 0
 196              	.LVL9:
 197 0000 08B5     		push	{r3, lr}
 198              	.LCFI3:
 199              		.cfi_def_cfa_offset 8
 200              		.loc 1 144 0
 201 0002 8269     		ldr	r2, [r0, #24]
 202 0004 4369     		ldr	r3, [r0, #20]
 203              		.cfi_offset 14, -4
 204              		.cfi_offset 3, -8
 205 0006 9342     		cmp	r3, r2
 206 0008 17D0     		beq	.L21
 207              		.loc 1 153 0
 208 000a 8268     		ldr	r2, [r0, #8]
 209              	.L16:
 210              		.loc 1 147 0
 211 000c 0132     		adds	r2, r2, #1
 212 000e 8260     		str	r2, [r0, #8]
 213              		.loc 1 148 0
 214 0010 03F8011B 		strb	r1, [r3], #1
 215              		.loc 1 149 0
 216 0014 0169     		ldr	r1, [r0, #16]
 217              	.LVL10:
 218              		.loc 1 148 0
 219 0016 4361     		str	r3, [r0, #20]
 220              		.loc 1 149 0
 221 0018 8B42     		cmp	r3, r1
 222 001a 01D3     		bcc	.L18
 223              		.loc 1 150 0
 224 001c C368     		ldr	r3, [r0, #12]
ARM GAS  C:\Users\DNIEL~1\AppData\Local\Temp\ccvJs2tk.s 			page 5


 225 001e 4361     		str	r3, [r0, #20]
 226              	.L18:
 227              		.loc 1 152 0
 228 0020 0168     		ldr	r1, [r0, #0]
 229 0022 8142     		cmp	r1, r0
 230 0024 07D0     		beq	.L20
 231              		.loc 1 153 0
 232 0026 FFF7FEFF 		bl	fifo_remove
 233              	.LVL11:
 234 002a FFF7FEFF 		bl	chSchReadyI
 235 002e 0022     		movs	r2, #0
 236 0030 4262     		str	r2, [r0, #36]
 237              		.loc 1 155 0
 238 0032 1046     		mov	r0, r2
 239 0034 08BD     		pop	{r3, pc}
 240              	.LVL12:
 241              	.L20:
 242 0036 0020     		movs	r0, #0
 243              	.LVL13:
 244              		.loc 1 156 0
 245 0038 08BD     		pop	{r3, pc}
 246              	.LVL14:
 247              	.L21:
 248              		.loc 1 144 0 discriminator 1
 249 003a 8268     		ldr	r2, [r0, #8]
 250 003c 002A     		cmp	r2, #0
 251 003e E5D0     		beq	.L16
 252              		.loc 1 145 0
 253 0040 6FF00300 		mvn	r0, #3
 254              	.LVL15:
 255 0044 08BD     		pop	{r3, pc}
 256              		.cfi_endproc
 257              	.LFE3:
 258              		.size	chIQPutI, .-chIQPutI
 259 0046 00BFAFF3 		.section	.text.chIQGetTimeout,"ax",%progbits
 259      0080AFF3 
 259      0080
 260              		.align	2
 261              		.p2align 4,,15
 262              		.global	chIQGetTimeout
 263              		.thumb
 264              		.thumb_func
 265              		.type	chIQGetTimeout, %function
 266              	chIQGetTimeout:
 267              	.LFB4:
 268              		.loc 1 178 0
 269              		.cfi_startproc
 270              		@ args = 0, pretend = 0, frame = 0
 271              		@ frame_needed = 0, uses_anonymous_args = 0
 272              	.LVL16:
 273 0000 38B5     		push	{r3, r4, r5, lr}
 274              	.LCFI4:
 275              		.cfi_def_cfa_offset 16
 276              		.loc 1 178 0
 277 0002 0446     		mov	r4, r0
 278              		.cfi_offset 14, -4
 279              		.cfi_offset 5, -8
ARM GAS  C:\Users\DNIEL~1\AppData\Local\Temp\ccvJs2tk.s 			page 6


 280              		.cfi_offset 4, -12
 281              		.cfi_offset 3, -16
 282 0004 0D46     		mov	r5, r1
 283              		.loc 1 181 0
 284              	@ 181 "../../../ChibiOS/os/kernel/src/chqueues.c" 1
 285 0006 FFF7FEFF 		bl      _port_lock
 286              	@ 0 "" 2
 287              		.loc 1 182 0
 288              		.thumb
 289 000a C369     		ldr	r3, [r0, #28]
 290 000c 03B1     		cbz	r3, .L28
 291              		.loc 1 183 0
 292 000e 9847     		blx	r3
 293              	.LVL17:
 294              	.L28:
 295              		.loc 1 185 0 discriminator 1
 296 0010 A368     		ldr	r3, [r4, #8]
 297              	.LBB2:
 298              		.loc 1 187 0 discriminator 1
 299 0012 2046     		mov	r0, r4
 300 0014 2946     		mov	r1, r5
 301              	.LBE2:
 302              		.loc 1 185 0 discriminator 1
 303 0016 33B9     		cbnz	r3, .L30
 304              	.LBB3:
 305              		.loc 1 187 0
 306 0018 FFF7FEFF 		bl	qwait
 307              	.LVL18:
 308 001c 0028     		cmp	r0, #0
 309 001e F7DA     		bge	.L28
 310              		.loc 1 188 0
 311              	@ 188 "../../../ChibiOS/os/kernel/src/chqueues.c" 1
 312 0020 FFF7FEFF 		bl      _port_unlock
 313              	@ 0 "" 2
 314              		.loc 1 189 0
 315              		.thumb
 316 0024 38BD     		pop	{r3, r4, r5, pc}
 317              	.LVL19:
 318              	.L30:
 319              	.LBE3:
 320              		.loc 1 194 0
 321 0026 A269     		ldr	r2, [r4, #24]
 322              		.loc 1 193 0
 323 0028 581E     		subs	r0, r3, #1
 324 002a A060     		str	r0, [r4, #8]
 325              		.loc 1 194 0
 326 002c 12F8010B 		ldrb	r0, [r2], #1	@ zero_extendqisi2
 327              	.LVL20:
 328              		.loc 1 195 0
 329 0030 2369     		ldr	r3, [r4, #16]
 330              		.loc 1 194 0
 331 0032 A261     		str	r2, [r4, #24]
 332              		.loc 1 195 0
 333 0034 9A42     		cmp	r2, r3
 334              		.loc 1 196 0
 335 0036 24BF     		itt	cs
 336 0038 E368     		ldrcs	r3, [r4, #12]
ARM GAS  C:\Users\DNIEL~1\AppData\Local\Temp\ccvJs2tk.s 			page 7


 337 003a A361     		strcs	r3, [r4, #24]
 338              		.loc 1 198 0
 339              	@ 198 "../../../ChibiOS/os/kernel/src/chqueues.c" 1
 340 003c FFF7FEFF 		bl      _port_unlock
 341              	@ 0 "" 2
 342              		.loc 1 200 0
 343              		.thumb
 344 0040 38BD     		pop	{r3, r4, r5, pc}
 345              		.cfi_endproc
 346              	.LFE4:
 347              		.size	chIQGetTimeout, .-chIQGetTimeout
 348 0042 00BFAFF3 		.section	.text.chIQReadTimeout,"ax",%progbits
 348      0080AFF3 
 348      0080AFF3 
 348      0080
 349              		.align	2
 350              		.p2align 4,,15
 351              		.global	chIQReadTimeout
 352              		.thumb
 353              		.thumb_func
 354              		.type	chIQReadTimeout, %function
 355              	chIQReadTimeout:
 356              	.LFB5:
 357              		.loc 1 227 0
 358              		.cfi_startproc
 359              		@ args = 0, pretend = 0, frame = 0
 360              		@ frame_needed = 0, uses_anonymous_args = 0
 361              	.LVL21:
 362 0000 2DE9F843 		push	{r3, r4, r5, r6, r7, r8, r9, lr}
 363              	.LCFI5:
 364              		.cfi_def_cfa_offset 32
 365              		.loc 1 227 0
 366 0004 0446     		mov	r4, r0
 367              		.cfi_offset 14, -4
 368              		.cfi_offset 9, -8
 369              		.cfi_offset 8, -12
 370              		.cfi_offset 7, -16
 371              		.cfi_offset 6, -20
 372              		.cfi_offset 5, -24
 373              		.cfi_offset 4, -28
 374              		.cfi_offset 3, -32
 375 0006 0D46     		mov	r5, r1
 376 0008 9146     		mov	r9, r2
 377 000a 1E46     		mov	r6, r3
 378              		.loc 1 228 0
 379 000c D0F81C80 		ldr	r8, [r0, #28]
 380              	.LVL22:
 381              		.loc 1 233 0
 382              	@ 233 "../../../ChibiOS/os/kernel/src/chqueues.c" 1
 383 0010 FFF7FEFF 		bl      _port_lock
 384              	@ 0 "" 2
 385              	.LVL23:
 386              		.loc 1 229 0
 387              		.thumb
 388 0014 0027     		movs	r7, #0
 389              	.LVL24:
 390              	.L37:
ARM GAS  C:\Users\DNIEL~1\AppData\Local\Temp\ccvJs2tk.s 			page 8


 391              		.loc 1 235 0
 392 0016 B8F1000F 		cmp	r8, #0
 393 001a 01D0     		beq	.L38
 394              		.loc 1 236 0
 395 001c 2046     		mov	r0, r4
 396 001e C047     		blx	r8
 397              	.L38:
 398              		.loc 1 238 0 discriminator 1
 399 0020 A368     		ldr	r3, [r4, #8]
 400              		.loc 1 239 0 discriminator 1
 401 0022 2046     		mov	r0, r4
 402 0024 3146     		mov	r1, r6
 403              		.loc 1 238 0 discriminator 1
 404 0026 43B9     		cbnz	r3, .L40
 405              		.loc 1 239 0
 406 0028 FFF7FEFF 		bl	qwait
 407 002c 0028     		cmp	r0, #0
 408 002e F7D0     		beq	.L38
 409              		.loc 1 240 0
 410              	@ 240 "../../../ChibiOS/os/kernel/src/chqueues.c" 1
 411 0030 FFF7FEFF 		bl      _port_unlock
 412              	@ 0 "" 2
 413              		.thumb
 414              	.L34:
 415              		.loc 1 257 0
 416 0034 3846     		mov	r0, r7
 417 0036 BDE8F883 		pop	{r3, r4, r5, r6, r7, r8, r9, pc}
 418              	.L40:
 419              		.loc 1 246 0
 420 003a A269     		ldr	r2, [r4, #24]
 421              		.loc 1 245 0
 422 003c 591E     		subs	r1, r3, #1
 423 003e A160     		str	r1, [r4, #8]
 424              		.loc 1 246 0
 425 0040 12F8010B 		ldrb	r0, [r2], #1	@ zero_extendqisi2
 426 0044 E855     		strb	r0, [r5, r7]
 427              		.loc 1 247 0
 428 0046 2369     		ldr	r3, [r4, #16]
 429              		.loc 1 246 0
 430 0048 A261     		str	r2, [r4, #24]
 431              		.loc 1 247 0
 432 004a 9A42     		cmp	r2, r3
 433              		.loc 1 248 0
 434 004c 24BF     		itt	cs
 435 004e E368     		ldrcs	r3, [r4, #12]
 436 0050 A361     		strcs	r3, [r4, #24]
 437              		.loc 1 250 0
 438              	@ 250 "../../../ChibiOS/os/kernel/src/chqueues.c" 1
 439 0052 FFF7FEFF 		bl      _port_unlock
 440              	@ 0 "" 2
 441              		.loc 1 251 0
 442              		.thumb
 443 0056 0137     		adds	r7, r7, #1
 444              	.LVL25:
 445              		.loc 1 252 0
 446 0058 4F45     		cmp	r7, r9
 447 005a EBD0     		beq	.L34
ARM GAS  C:\Users\DNIEL~1\AppData\Local\Temp\ccvJs2tk.s 			page 9


 448              		.loc 1 255 0
 449              	@ 255 "../../../ChibiOS/os/kernel/src/chqueues.c" 1
 450 005c FFF7FEFF 		bl      _port_lock
 451              	@ 0 "" 2
 452              		.loc 1 256 0
 453              		.thumb
 454 0060 D9E7     		b	.L37
 455              		.cfi_endproc
 456              	.LFE5:
 457              		.size	chIQReadTimeout, .-chIQReadTimeout
 458 0062 00BFAFF3 		.section	.text.chOQInit,"ax",%progbits
 458      0080AFF3 
 458      0080AFF3 
 458      0080
 459              		.align	2
 460              		.p2align 4,,15
 461              		.global	chOQInit
 462              		.thumb
 463              		.thumb_func
 464              		.type	chOQInit, %function
 465              	chOQInit:
 466              	.LFB6:
 467              		.loc 1 276 0
 468              		.cfi_startproc
 469              		@ args = 4, pretend = 0, frame = 0
 470              		@ frame_needed = 0, uses_anonymous_args = 0
 471              		@ link register save eliminated.
 472              	.LVL26:
 473 0000 10B4     		push	{r4}
 474              	.LCFI6:
 475              		.cfi_def_cfa_offset 4
 476              		.loc 1 282 0
 477 0002 C361     		str	r3, [r0, #28]
 478              		.loc 1 283 0
 479 0004 019B     		ldr	r3, [sp, #4]
 480              	.LVL27:
 481              		.loc 1 281 0
 482 0006 8C18     		adds	r4, r1, r2
 483              		.cfi_offset 4, -4
 484              		.loc 1 278 0
 485 0008 4060     		str	r0, [r0, #4]
 486 000a 0060     		str	r0, [r0, #0]
 487              		.loc 1 279 0
 488 000c 8260     		str	r2, [r0, #8]
 489              		.loc 1 280 0
 490 000e 4161     		str	r1, [r0, #20]
 491 0010 8161     		str	r1, [r0, #24]
 492 0012 C160     		str	r1, [r0, #12]
 493              		.loc 1 281 0
 494 0014 0461     		str	r4, [r0, #16]
 495              		.loc 1 283 0
 496 0016 0362     		str	r3, [r0, #32]
 497              		.loc 1 284 0
 498 0018 10BC     		pop	{r4}
 499 001a 7047     		bx	lr
 500              		.cfi_endproc
 501              	.LFE6:
ARM GAS  C:\Users\DNIEL~1\AppData\Local\Temp\ccvJs2tk.s 			page 10


 502              		.size	chOQInit, .-chOQInit
 503 001c AFF30080 		.section	.text.chOQResetI,"ax",%progbits
 504              		.align	2
 505              		.p2align 4,,15
 506              		.global	chOQResetI
 507              		.thumb
 508              		.thumb_func
 509              		.type	chOQResetI, %function
 510              	chOQResetI:
 511              	.LFB7:
 512              		.loc 1 297 0
 513              		.cfi_startproc
 514              		@ args = 0, pretend = 0, frame = 0
 515              		@ frame_needed = 0, uses_anonymous_args = 0
 516              	.LVL28:
 517 0000 38B5     		push	{r3, r4, r5, lr}
 518              	.LCFI7:
 519              		.cfi_def_cfa_offset 16
 520              		.loc 1 302 0
 521 0002 0169     		ldr	r1, [r0, #16]
 522              		.loc 1 301 0
 523 0004 C368     		ldr	r3, [r0, #12]
 524              		.cfi_offset 14, -4
 525              		.cfi_offset 5, -8
 526              		.cfi_offset 4, -12
 527              		.cfi_offset 3, -16
 528              		.loc 1 303 0
 529 0006 0268     		ldr	r2, [r0, #0]
 530              		.loc 1 302 0
 531 0008 C91A     		subs	r1, r1, r3
 532              		.loc 1 303 0
 533 000a 8242     		cmp	r2, r0
 534              		.loc 1 297 0
 535 000c 0446     		mov	r4, r0
 536              		.loc 1 301 0
 537 000e 4361     		str	r3, [r0, #20]
 538 0010 8361     		str	r3, [r0, #24]
 539              		.loc 1 302 0
 540 0012 8160     		str	r1, [r0, #8]
 541              		.loc 1 303 0
 542 0014 0AD0     		beq	.L42
 543              		.loc 1 304 0
 544 0016 6FF00105 		mvn	r5, #1
 545              	.LVL29:
 546              	.L45:
 547 001a 2046     		mov	r0, r4
 548 001c FFF7FEFF 		bl	fifo_remove
 549 0020 FFF7FEFF 		bl	chSchReadyI
 550 0024 4562     		str	r5, [r0, #36]
 551              		.loc 1 303 0
 552 0026 2068     		ldr	r0, [r4, #0]
 553 0028 A042     		cmp	r0, r4
 554 002a F6D1     		bne	.L45
 555              	.L42:
 556 002c 38BD     		pop	{r3, r4, r5, pc}
 557              		.cfi_endproc
 558              	.LFE7:
ARM GAS  C:\Users\DNIEL~1\AppData\Local\Temp\ccvJs2tk.s 			page 11


 559              		.size	chOQResetI, .-chOQResetI
 560 002e 00BF     		.section	.text.chOQPutTimeout,"ax",%progbits
 561              		.align	2
 562              		.p2align 4,,15
 563              		.global	chOQPutTimeout
 564              		.thumb
 565              		.thumb_func
 566              		.type	chOQPutTimeout, %function
 567              	chOQPutTimeout:
 568              	.LFB8:
 569              		.loc 1 329 0
 570              		.cfi_startproc
 571              		@ args = 0, pretend = 0, frame = 0
 572              		@ frame_needed = 0, uses_anonymous_args = 0
 573              	.LVL30:
 574 0000 70B5     		push	{r4, r5, r6, lr}
 575              	.LCFI8:
 576              		.cfi_def_cfa_offset 16
 577              		.loc 1 329 0
 578 0002 0446     		mov	r4, r0
 579              		.cfi_offset 14, -4
 580              		.cfi_offset 6, -8
 581              		.cfi_offset 5, -12
 582              		.cfi_offset 4, -16
 583 0004 0D46     		mov	r5, r1
 584 0006 1646     		mov	r6, r2
 585              		.loc 1 331 0
 586              	@ 331 "../../../ChibiOS/os/kernel/src/chqueues.c" 1
 587 0008 FFF7FEFF 		bl      _port_lock
 588              	@ 0 "" 2
 589              	.LVL31:
 590              		.thumb
 591              	.L48:
 592              		.loc 1 332 0 discriminator 1
 593 000c A368     		ldr	r3, [r4, #8]
 594              	.LBB4:
 595              		.loc 1 335 0 discriminator 1
 596 000e 2046     		mov	r0, r4
 597 0010 3146     		mov	r1, r6
 598              	.LBE4:
 599              		.loc 1 332 0 discriminator 1
 600 0012 33B9     		cbnz	r3, .L54
 601              	.LBB5:
 602              		.loc 1 335 0
 603 0014 FFF7FEFF 		bl	qwait
 604              	.LVL32:
 605 0018 0028     		cmp	r0, #0
 606 001a F7DA     		bge	.L48
 607              		.loc 1 336 0
 608              	@ 336 "../../../ChibiOS/os/kernel/src/chqueues.c" 1
 609 001c FFF7FEFF 		bl      _port_unlock
 610              	@ 0 "" 2
 611              		.loc 1 337 0
 612              		.thumb
 613 0020 70BD     		pop	{r4, r5, r6, pc}
 614              	.LVL33:
 615              	.L54:
ARM GAS  C:\Users\DNIEL~1\AppData\Local\Temp\ccvJs2tk.s 			page 12


 616              	.LBE5:
 617              		.loc 1 342 0
 618 0022 6269     		ldr	r2, [r4, #20]
 619              		.loc 1 341 0
 620 0024 581E     		subs	r0, r3, #1
 621 0026 A060     		str	r0, [r4, #8]
 622              		.loc 1 342 0
 623 0028 02F8015B 		strb	r5, [r2], #1
 624              		.loc 1 343 0
 625 002c 2369     		ldr	r3, [r4, #16]
 626              		.loc 1 342 0
 627 002e 6261     		str	r2, [r4, #20]
 628              		.loc 1 343 0
 629 0030 9A42     		cmp	r2, r3
 630              		.loc 1 344 0
 631 0032 24BF     		itt	cs
 632 0034 E368     		ldrcs	r3, [r4, #12]
 633 0036 6361     		strcs	r3, [r4, #20]
 634              		.loc 1 346 0
 635 0038 E369     		ldr	r3, [r4, #28]
 636 003a 0BB1     		cbz	r3, .L52
 637              		.loc 1 347 0
 638 003c 2046     		mov	r0, r4
 639 003e 9847     		blx	r3
 640              	.L52:
 641              		.loc 1 349 0
 642              	@ 349 "../../../ChibiOS/os/kernel/src/chqueues.c" 1
 643 0040 FFF7FEFF 		bl      _port_unlock
 644              	@ 0 "" 2
 645              		.loc 1 350 0
 646              		.thumb
 647 0044 0020     		movs	r0, #0
 648              		.loc 1 351 0
 649 0046 70BD     		pop	{r4, r5, r6, pc}
 650              		.cfi_endproc
 651              	.LFE8:
 652              		.size	chOQPutTimeout, .-chOQPutTimeout
 653 0048 AFF30080 		.section	.text.chOQGetI,"ax",%progbits
 653      AFF30080 
 654              		.align	2
 655              		.p2align 4,,15
 656              		.global	chOQGetI
 657              		.thumb
 658              		.thumb_func
 659              		.type	chOQGetI, %function
 660              	chOQGetI:
 661              	.LFB9:
 662              		.loc 1 363 0
 663              		.cfi_startproc
 664              		@ args = 0, pretend = 0, frame = 0
 665              		@ frame_needed = 0, uses_anonymous_args = 0
 666              	.LVL34:
 667              		.loc 1 368 0
 668 0000 8369     		ldr	r3, [r0, #24]
 669 0002 4269     		ldr	r2, [r0, #20]
 670              		.loc 1 363 0
 671 0004 10B5     		push	{r4, lr}
ARM GAS  C:\Users\DNIEL~1\AppData\Local\Temp\ccvJs2tk.s 			page 13


 672              	.LCFI9:
 673              		.cfi_def_cfa_offset 8
 674              		.loc 1 368 0
 675 0006 9A42     		cmp	r2, r3
 676 0008 15D0     		beq	.L63
 677              		.cfi_offset 14, -4
 678              		.cfi_offset 4, -8
 679              		.loc 1 379 0
 680 000a 8268     		ldr	r2, [r0, #8]
 681              	.L58:
 682              		.loc 1 371 0
 683 000c 541C     		adds	r4, r2, #1
 684 000e 8460     		str	r4, [r0, #8]
 685              		.loc 1 372 0
 686 0010 13F8014B 		ldrb	r4, [r3], #1	@ zero_extendqisi2
 687              	.LVL35:
 688              		.loc 1 373 0
 689 0014 0169     		ldr	r1, [r0, #16]
 690              		.loc 1 372 0
 691 0016 8361     		str	r3, [r0, #24]
 692              		.loc 1 373 0
 693 0018 8B42     		cmp	r3, r1
 694 001a 01D3     		bcc	.L61
 695              		.loc 1 374 0
 696 001c C368     		ldr	r3, [r0, #12]
 697 001e 8361     		str	r3, [r0, #24]
 698              	.L61:
 699              		.loc 1 376 0
 700 0020 0168     		ldr	r1, [r0, #0]
 701 0022 8142     		cmp	r1, r0
 702 0024 05D0     		beq	.L59
 703              		.loc 1 377 0
 704 0026 FFF7FEFF 		bl	fifo_remove
 705              	.LVL36:
 706 002a FFF7FEFF 		bl	chSchReadyI
 707 002e 0022     		movs	r2, #0
 708 0030 4262     		str	r2, [r0, #36]
 709              	.L59:
 710              		.loc 1 379 0
 711 0032 2046     		mov	r0, r4
 712 0034 10BD     		pop	{r4, pc}
 713              	.LVL37:
 714              	.L63:
 715              		.loc 1 368 0 discriminator 1
 716 0036 8268     		ldr	r2, [r0, #8]
 717 0038 002A     		cmp	r2, #0
 718 003a E7D0     		beq	.L58
 719              		.loc 1 369 0
 720 003c 6FF00200 		mvn	r0, #2
 721              	.LVL38:
 722              		.loc 1 380 0
 723 0040 10BD     		pop	{r4, pc}
 724              		.cfi_endproc
 725              	.LFE9:
 726              		.size	chOQGetI, .-chOQGetI
 727 0042 00BFAFF3 		.section	.text.chOQWriteTimeout,"ax",%progbits
 727      0080AFF3 
ARM GAS  C:\Users\DNIEL~1\AppData\Local\Temp\ccvJs2tk.s 			page 14


 727      0080AFF3 
 727      0080
 728              		.align	2
 729              		.p2align 4,,15
 730              		.global	chOQWriteTimeout
 731              		.thumb
 732              		.thumb_func
 733              		.type	chOQWriteTimeout, %function
 734              	chOQWriteTimeout:
 735              	.LFB10:
 736              		.loc 1 407 0
 737              		.cfi_startproc
 738              		@ args = 0, pretend = 0, frame = 0
 739              		@ frame_needed = 0, uses_anonymous_args = 0
 740              	.LVL39:
 741 0000 2DE9F843 		push	{r3, r4, r5, r6, r7, r8, r9, lr}
 742              	.LCFI10:
 743              		.cfi_def_cfa_offset 32
 744              		.loc 1 407 0
 745 0004 0446     		mov	r4, r0
 746              		.cfi_offset 14, -4
 747              		.cfi_offset 9, -8
 748              		.cfi_offset 8, -12
 749              		.cfi_offset 7, -16
 750              		.cfi_offset 6, -20
 751              		.cfi_offset 5, -24
 752              		.cfi_offset 4, -28
 753              		.cfi_offset 3, -32
 754 0006 0D46     		mov	r5, r1
 755 0008 1646     		mov	r6, r2
 756 000a 9946     		mov	r9, r3
 757              		.loc 1 408 0
 758 000c D0F81C80 		ldr	r8, [r0, #28]
 759              	.LVL40:
 760              		.loc 1 413 0
 761              	@ 413 "../../../ChibiOS/os/kernel/src/chqueues.c" 1
 762 0010 FFF7FEFF 		bl      _port_lock
 763              	@ 0 "" 2
 764              	.LVL41:
 765              		.loc 1 409 0
 766              		.thumb
 767 0014 0027     		movs	r7, #0
 768              	.LVL42:
 769              	.L73:
 770              		.loc 1 415 0 discriminator 1
 771 0016 A368     		ldr	r3, [r4, #8]
 772              		.loc 1 427 0 discriminator 1
 773 0018 2046     		mov	r0, r4
 774              		.loc 1 421 0 discriminator 1
 775 001a 5A1E     		subs	r2, r3, #1
 776              		.loc 1 415 0 discriminator 1
 777 001c E3B1     		cbz	r3, .L68
 778              	.L74:
 779              		.loc 1 421 0
 780 001e A260     		str	r2, [r4, #8]
 781              		.loc 1 422 0
 782 0020 6169     		ldr	r1, [r4, #20]
ARM GAS  C:\Users\DNIEL~1\AppData\Local\Temp\ccvJs2tk.s 			page 15


 783 0022 95F800C0 		ldrb	ip, [r5, #0]	@ zero_extendqisi2
 784 0026 01F801CB 		strb	ip, [r1], #1
 785              		.loc 1 423 0
 786 002a 2269     		ldr	r2, [r4, #16]
 787              		.loc 1 422 0
 788 002c 6161     		str	r1, [r4, #20]
 789              	.LVL43:
 790              		.loc 1 423 0
 791 002e 9142     		cmp	r1, r2
 792              		.loc 1 424 0
 793 0030 24BF     		itt	cs
 794 0032 E168     		ldrcs	r1, [r4, #12]
 795 0034 6161     		strcs	r1, [r4, #20]
 796              		.loc 1 426 0
 797 0036 B8F1000F 		cmp	r8, #0
 798 003a 00D0     		beq	.L70
 799              		.loc 1 427 0
 800 003c C047     		blx	r8
 801              	.L70:
 802              		.loc 1 429 0
 803              	@ 429 "../../../ChibiOS/os/kernel/src/chqueues.c" 1
 804 003e FFF7FEFF 		bl      _port_unlock
 805              	@ 0 "" 2
 806              		.loc 1 430 0
 807              		.thumb
 808 0042 0137     		adds	r7, r7, #1
 809              	.LVL44:
 810              		.loc 1 431 0
 811 0044 013E     		subs	r6, r6, #1
 812              	.LVL45:
 813 0046 0FD0     		beq	.L67
 814              		.loc 1 422 0
 815 0048 0135     		adds	r5, r5, #1
 816              	.LVL46:
 817              		.loc 1 433 0
 818              	@ 433 "../../../ChibiOS/os/kernel/src/chqueues.c" 1
 819 004a FFF7FEFF 		bl      _port_lock
 820              	@ 0 "" 2
 821              		.loc 1 415 0
 822              		.thumb
 823 004e A368     		ldr	r3, [r4, #8]
 824              		.loc 1 427 0
 825 0050 2046     		mov	r0, r4
 826              		.loc 1 421 0
 827 0052 5A1E     		subs	r2, r3, #1
 828              		.loc 1 415 0
 829 0054 002B     		cmp	r3, #0
 830 0056 E2D1     		bne	.L74
 831              	.L68:
 832              		.loc 1 416 0
 833 0058 2046     		mov	r0, r4
 834 005a 4946     		mov	r1, r9
 835 005c FFF7FEFF 		bl	qwait
 836 0060 0028     		cmp	r0, #0
 837 0062 D8D0     		beq	.L73
 838              		.loc 1 417 0
 839              	@ 417 "../../../ChibiOS/os/kernel/src/chqueues.c" 1
ARM GAS  C:\Users\DNIEL~1\AppData\Local\Temp\ccvJs2tk.s 			page 16


 840 0064 FFF7FEFF 		bl      _port_unlock
 841              	@ 0 "" 2
 842              	.LVL47:
 843              		.thumb
 844              	.L67:
 845              		.loc 1 435 0
 846 0068 3846     		mov	r0, r7
 847 006a BDE8F883 		pop	{r3, r4, r5, r6, r7, r8, r9, pc}
 848              		.cfi_endproc
 849              	.LFE10:
 850              		.size	chOQWriteTimeout, .-chOQWriteTimeout
 851 006e 00BF     		.text
 852              	.Letext0: