ARM GAS  C:\Users\DNIEL~1\AppData\Local\Temp\cctTnr9j.s 			page 1


   1              		.syntax unified
   2              		.cpu cortex-m3
   3              		.fpu softvfp
   4              		.eabi_attribute 20, 1
   5              		.eabi_attribute 21, 1
   6              		.eabi_attribute 23, 3
   7              		.eabi_attribute 24, 1
   8              		.eabi_attribute 25, 1
   9              		.eabi_attribute 26, 1
  10              		.eabi_attribute 30, 2
  11              		.eabi_attribute 18, 4
  12              		.thumb
  13              		.file	"chschd.c"
  20 0000 EF020000 		.text
  20      02007201 
  20      00000201 
  20      FB0E0D00 
  20      01010101 
  21              	.Ltext0:
  22              		.cfi_sections	.debug_frame
  23              		.section	.text.wakeup,"ax",%progbits
  24              		.align	2
  25              		.p2align 4,,15
  26              		.thumb
  27              		.thumb_func
  28              		.type	wakeup, %function
  29              	wakeup:
  30              	.LFB3:
  31              		.file 1 "../../../ChibiOS/os/kernel/src/chschd.c"
  32              		.loc 1 136 0
  33              		.cfi_startproc
  34              		@ args = 0, pretend = 0, frame = 0
  35              		@ frame_needed = 0, uses_anonymous_args = 0
  36              	.LVL0:
  37 0000 10B5     		push	{r4, lr}
  38              	.LCFI0:
  39              		.cfi_def_cfa_offset 8
  40              		.loc 1 136 0
  41 0002 0446     		mov	r4, r0
  42              		.cfi_offset 14, -4
  43              		.cfi_offset 4, -8
  44              	.LVL1:
  45              		.loc 1 139 0
  46              	@ 139 "../../../ChibiOS/os/kernel/src/chschd.c" 1
  47 0004 FFF7FEFF 		bl      _port_lock
  48              	@ 0 "" 2
  49              		.loc 1 140 0
  50              		.thumb
  51 0008 037F     		ldrb	r3, [r0, #28]	@ zero_extendqisi2
  52 000a 0D2B     		cmp	r3, #13
  53 000c 0FD8     		bhi	.L2
ARM GAS  C:\Users\DNIEL~1\AppData\Local\Temp\cctTnr9j.s 			page 2


  54 000e DFE803F0 		tbb	[pc, r3]
  55              	.L6:
  56 0012 21       		.byte	(.L3-.L6)/2
  57 0013 0E       		.byte	(.L2-.L6)/2
  58 0014 0E       		.byte	(.L2-.L6)/2
  59 0015 07       		.byte	(.L4-.L6)/2
  60 0016 0E       		.byte	(.L2-.L6)/2
  61 0017 0B       		.byte	(.L5-.L6)/2
  62 0018 0E       		.byte	(.L2-.L6)/2
  63 0019 0E       		.byte	(.L2-.L6)/2
  64 001a 0E       		.byte	(.L2-.L6)/2
  65 001b 0E       		.byte	(.L2-.L6)/2
  66 001c 0E       		.byte	(.L2-.L6)/2
  67 001d 0E       		.byte	(.L2-.L6)/2
  68 001e 0E       		.byte	(.L2-.L6)/2
  69 001f 0B       		.byte	(.L5-.L6)/2
  70              		.align	1
  71              	.L4:
  72              		.loc 1 150 0
  73 0020 406A     		ldr	r0, [r0, #36]
  74              	.LVL2:
  75 0022 8168     		ldr	r1, [r0, #8]
  76 0024 4A1C     		adds	r2, r1, #1
  77 0026 8260     		str	r2, [r0, #8]
  78              	.L5:
  79              		.loc 1 160 0
  80 0028 2046     		mov	r0, r4
  81 002a FFF7FEFF 		bl	dequeue
  82              	.L2:
  83              		.loc 1 163 0
  84 002e 4FF0FF30 		mov	r0, #-1
  85              	.LBB11:
  86              	.LBB12:
  87              		.loc 1 92 0
  88 0032 0022     		movs	r2, #0
  89              		.loc 1 93 0
  90 0034 094B     		ldr	r3, .L11
  91 0036 A168     		ldr	r1, [r4, #8]
  92              	.LBE12:
  93              	.LBE11:
  94              		.loc 1 163 0
  95 0038 6062     		str	r0, [r4, #36]
  96              	.LVL3:
  97              	.LBB14:
  98              	.LBB13:
  99              		.loc 1 92 0
 100 003a 2277     		strb	r2, [r4, #28]
 101              	.LVL4:
 102              	.L8:
 103              		.loc 1 95 0
 104 003c 1B68     		ldr	r3, [r3, #0]
 105              	.LVL5:
 106              		.loc 1 96 0
 107 003e 9A68     		ldr	r2, [r3, #8]
 108 0040 8A42     		cmp	r2, r1
 109 0042 FBD2     		bcs	.L8
 110              		.loc 1 99 0
ARM GAS  C:\Users\DNIEL~1\AppData\Local\Temp\cctTnr9j.s 			page 3


 111 0044 5968     		ldr	r1, [r3, #4]
 112              		.loc 1 98 0
 113 0046 2360     		str	r3, [r4, #0]
 114              		.loc 1 99 0
 115 0048 6160     		str	r1, [r4, #4]
 116              		.loc 1 100 0
 117 004a 0C60     		str	r4, [r1, #0]
 118 004c 5C60     		str	r4, [r3, #4]
 119              	.LBE13:
 120              	.LBE14:
 121              		.loc 1 165 0
 122              	@ 165 "../../../ChibiOS/os/kernel/src/chschd.c" 1
 123 004e FFF7FEFF 		bl      _port_unlock
 124              	@ 0 "" 2
 125              	.LVL6:
 126              		.thumb
 127 0052 10BD     		pop	{r4, pc}
 128              	.LVL7:
 129              	.L3:
 130              		.loc 1 144 0
 131              	@ 144 "../../../ChibiOS/os/kernel/src/chschd.c" 1
 132 0054 FFF7FEFF 		bl      _port_unlock
 133              	@ 0 "" 2
 134              		.loc 1 145 0
 135              		.thumb
 136 0058 10BD     		pop	{r4, pc}
 137              	.L12:
 138 005a 00BF     		.align	2
 139              	.L11:
 140 005c 00000000 		.word	.LANCHOR0
 141              		.cfi_endproc
 142              	.LFE3:
 143              		.size	wakeup, .-wakeup
 144              		.section	.text._scheduler_init,"ax",%progbits
 145              		.align	2
 146              		.p2align 4,,15
 147              		.global	_scheduler_init
 148              		.thumb
 149              		.thumb_func
 150              		.type	_scheduler_init, %function
 151              	_scheduler_init:
 152              	.LFB0:
 153              		.loc 1 55 0
 154              		.cfi_startproc
 155              		@ args = 0, pretend = 0, frame = 0
 156              		@ frame_needed = 0, uses_anonymous_args = 0
 157              		@ link register save eliminated.
 158              		.loc 1 57 0
 159 0000 034B     		ldr	r3, .L14
 160              		.loc 1 58 0
 161 0002 0022     		movs	r2, #0
 162              		.loc 1 57 0
 163 0004 5B60     		str	r3, [r3, #4]
 164 0006 1B60     		str	r3, [r3, #0]
 165              		.loc 1 58 0
 166 0008 9A60     		str	r2, [r3, #8]
 167              		.loc 1 60 0
ARM GAS  C:\Users\DNIEL~1\AppData\Local\Temp\cctTnr9j.s 			page 4


 168 000a 5B61     		str	r3, [r3, #20]
 169 000c 1B61     		str	r3, [r3, #16]
 170              		.loc 1 62 0
 171 000e 7047     		bx	lr
 172              	.L15:
 173              		.align	2
 174              	.L14:
 175 0010 00000000 		.word	.LANCHOR0
 176              		.cfi_endproc
 177              	.LFE0:
 178              		.size	_scheduler_init, .-_scheduler_init
 179 0014 AFF30080 		.section	.text.chSchReadyI,"ax",%progbits
 179      AFF30080 
 179      AFF30080 
 180              		.align	2
 181              		.p2align 4,,15
 182              		.global	chSchReadyI
 183              		.thumb
 184              		.thumb_func
 185              		.type	chSchReadyI, %function
 186              	chSchReadyI:
 187              	.LFB1:
 188              		.loc 1 81 0
 189              		.cfi_startproc
 190              		@ args = 0, pretend = 0, frame = 0
 191              		@ frame_needed = 0, uses_anonymous_args = 0
 192              		@ link register save eliminated.
 193              	.LVL8:
 194              		.loc 1 92 0
 195 0000 0022     		movs	r2, #0
 196              		.loc 1 93 0
 197 0002 064B     		ldr	r3, .L19
 198              	.LVL9:
 199 0004 8168     		ldr	r1, [r0, #8]
 200              		.loc 1 92 0
 201 0006 0277     		strb	r2, [r0, #28]
 202              	.LVL10:
 203              	.L17:
 204              		.loc 1 95 0 discriminator 1
 205 0008 1B68     		ldr	r3, [r3, #0]
 206              	.LVL11:
 207              		.loc 1 96 0 discriminator 1
 208 000a 9A68     		ldr	r2, [r3, #8]
 209 000c 8A42     		cmp	r2, r1
 210 000e FBD2     		bcs	.L17
 211              		.loc 1 99 0
 212 0010 5968     		ldr	r1, [r3, #4]
 213              		.loc 1 98 0
 214 0012 0360     		str	r3, [r0, #0]
 215              		.loc 1 99 0
 216 0014 4160     		str	r1, [r0, #4]
 217              		.loc 1 100 0
 218 0016 0860     		str	r0, [r1, #0]
 219 0018 5860     		str	r0, [r3, #4]
 220              		.loc 1 102 0
 221 001a 7047     		bx	lr
 222              	.L20:
ARM GAS  C:\Users\DNIEL~1\AppData\Local\Temp\cctTnr9j.s 			page 5


 223              		.align	2
 224              	.L19:
 225 001c 00000000 		.word	.LANCHOR0
 226              		.cfi_endproc
 227              	.LFE1:
 228              		.size	chSchReadyI, .-chSchReadyI
 229              		.section	.text.chSchGoSleepS,"ax",%progbits
 230              		.align	2
 231              		.p2align 4,,15
 232              		.global	chSchGoSleepS
 233              		.thumb
 234              		.thumb_func
 235              		.type	chSchGoSleepS, %function
 236              	chSchGoSleepS:
 237              	.LFB2:
 238              		.loc 1 115 0
 239              		.cfi_startproc
 240              		@ args = 0, pretend = 0, frame = 0
 241              		@ frame_needed = 0, uses_anonymous_args = 0
 242              	.LVL12:
 243 0000 70B5     		push	{r4, r5, r6, lr}
 244              	.LCFI1:
 245              		.cfi_def_cfa_offset 16
 246              		.loc 1 120 0
 247 0002 084C     		ldr	r4, .L22
 248              		.cfi_offset 14, -4
 249              		.cfi_offset 6, -8
 250              		.cfi_offset 5, -12
 251              		.cfi_offset 4, -16
 252              		.loc 1 124 0
 253 0004 1423     		movs	r3, #20
 254              		.loc 1 120 0
 255 0006 A569     		ldr	r5, [r4, #24]
 256              	.LVL13:
 257 0008 2877     		strb	r0, [r5, #28]
 258              		.loc 1 124 0
 259 000a EB77     		strb	r3, [r5, #31]
 260              		.loc 1 126 0
 261 000c 2046     		mov	r0, r4
 262              	.LVL14:
 263 000e FFF7FEFF 		bl	fifo_remove
 264              	.LVL15:
 265              		.loc 1 127 0
 266 0012 0122     		movs	r2, #1
 267              		.loc 1 128 0
 268 0014 2946     		mov	r1, r5
 269              		.loc 1 127 0
 270 0016 0277     		strb	r2, [r0, #28]
 271              		.loc 1 126 0
 272 0018 A061     		str	r0, [r4, #24]
 273              		.loc 1 129 0
 274 001a BDE87040 		pop	{r4, r5, r6, lr}
 275              		.loc 1 128 0
 276 001e FFF7FEBF 		b	_port_switch
 277              	.L23:
 278 0022 00BF     		.align	2
 279              	.L22:
ARM GAS  C:\Users\DNIEL~1\AppData\Local\Temp\cctTnr9j.s 			page 6


 280 0024 00000000 		.word	.LANCHOR0
 281              		.cfi_endproc
 282              	.LFE2:
 283              		.size	chSchGoSleepS, .-chSchGoSleepS
 284 0028 AFF30080 		.section	.text.chSchGoSleepTimeoutS,"ax",%progbits
 284      AFF30080 
 285              		.align	2
 286              		.p2align 4,,15
 287              		.global	chSchGoSleepTimeoutS
 288              		.thumb
 289              		.thumb_func
 290              		.type	chSchGoSleepTimeoutS, %function
 291              	chSchGoSleepTimeoutS:
 292              	.LFB4:
 293              		.loc 1 189 0
 294              		.cfi_startproc
 295              		@ args = 0, pretend = 0, frame = 24
 296              		@ frame_needed = 0, uses_anonymous_args = 0
 297              	.LVL16:
 298 0000 30B5     		push	{r4, r5, lr}
 299              	.LCFI2:
 300              		.cfi_def_cfa_offset 12
 301              		.loc 1 193 0
 302 0002 B1F1FF3F 		cmp	r1, #-1
 303              		.loc 1 189 0
 304 0006 87B0     		sub	sp, sp, #28
 305              	.LCFI3:
 306              		.cfi_def_cfa_offset 40
 307              		.loc 1 189 0
 308 0008 0546     		mov	r5, r0
 309              		.cfi_offset 14, -4
 310              		.cfi_offset 5, -8
 311              		.cfi_offset 4, -12
 312              		.loc 1 193 0
 313 000a 11D0     		beq	.L25
 314              	.LBB15:
 315              		.loc 1 196 0
 316 000c 0A4C     		ldr	r4, .L27
 317 000e 0B4A     		ldr	r2, .L27+4
 318 0010 A369     		ldr	r3, [r4, #24]
 319 0012 01A8     		add	r0, sp, #4
 320              	.LVL17:
 321 0014 FFF7FEFF 		bl	chVTSetI
 322              	.LVL18:
 323              		.loc 1 197 0
 324 0018 2846     		mov	r0, r5
 325 001a FFF7FEFF 		bl	chSchGoSleepS
 326              		.loc 1 198 0
 327 001e 049B     		ldr	r3, [sp, #16]
 328 0020 13B1     		cbz	r3, .L26
 329              		.loc 1 199 0
 330 0022 01A8     		add	r0, sp, #4
 331 0024 FFF7FEFF 		bl	chVTResetI
 332              	.L26:
 333              	.LBE15:
 334              		.loc 1 203 0
 335 0028 A069     		ldr	r0, [r4, #24]
ARM GAS  C:\Users\DNIEL~1\AppData\Local\Temp\cctTnr9j.s 			page 7


 336              		.loc 1 204 0
 337 002a 406A     		ldr	r0, [r0, #36]
 338 002c 07B0     		add	sp, sp, #28
 339 002e 30BD     		pop	{r4, r5, pc}
 340              	.LVL19:
 341              	.L25:
 342              		.loc 1 202 0
 343 0030 FFF7FEFF 		bl	chSchGoSleepS
 344              	.LVL20:
 345 0034 004C     		ldr	r4, .L27
 346 0036 F7E7     		b	.L26
 347              	.L28:
 348              		.align	2
 349              	.L27:
 350 0038 00000000 		.word	.LANCHOR0
 351 003c 00000000 		.word	wakeup
 352              		.cfi_endproc
 353              	.LFE4:
 354              		.size	chSchGoSleepTimeoutS, .-chSchGoSleepTimeoutS
 355              		.section	.text.chSchWakeupS,"ax",%progbits
 356              		.align	2
 357              		.p2align 4,,15
 358              		.global	chSchWakeupS
 359              		.thumb
 360              		.thumb_func
 361              		.type	chSchWakeupS, %function
 362              	chSchWakeupS:
 363              	.LFB5:
 364              		.loc 1 225 0
 365              		.cfi_startproc
 366              		@ args = 0, pretend = 0, frame = 0
 367              		@ frame_needed = 0, uses_anonymous_args = 0
 368              		@ link register save eliminated.
 369              	.LVL21:
 370 0000 30B4     		push	{r4, r5}
 371              	.LCFI4:
 372              		.cfi_def_cfa_offset 8
 373              		.loc 1 234 0
 374 0002 144C     		ldr	r4, .L36
 375              		.cfi_offset 5, -4
 376              		.cfi_offset 4, -8
 377              		.loc 1 225 0
 378 0004 0346     		mov	r3, r0
 379              		.loc 1 234 0
 380 0006 A269     		ldr	r2, [r4, #24]
 381 0008 8568     		ldr	r5, [r0, #8]
 382 000a 9068     		ldr	r0, [r2, #8]
 383              	.LVL22:
 384              		.loc 1 229 0
 385 000c 5962     		str	r1, [r3, #36]
 386              		.loc 1 234 0
 387 000e 8542     		cmp	r5, r0
 388 0010 0CD8     		bhi	.L30
 389              	.LVL23:
 390              	.LBB16:
 391              	.LBB17:
 392              		.loc 1 92 0
ARM GAS  C:\Users\DNIEL~1\AppData\Local\Temp\cctTnr9j.s 			page 8


 393 0012 0022     		movs	r2, #0
 394 0014 1A77     		strb	r2, [r3, #28]
 395              	.LVL24:
 396              	.L31:
 397              		.loc 1 95 0
 398 0016 2468     		ldr	r4, [r4, #0]
 399              	.LVL25:
 400              		.loc 1 96 0
 401 0018 A068     		ldr	r0, [r4, #8]
 402 001a 8542     		cmp	r5, r0
 403 001c FBD9     		bls	.L31
 404              		.loc 1 99 0
 405 001e 6168     		ldr	r1, [r4, #4]
 406              	.LVL26:
 407              		.loc 1 98 0
 408 0020 1C60     		str	r4, [r3, #0]
 409              		.loc 1 99 0
 410 0022 5960     		str	r1, [r3, #4]
 411              		.loc 1 100 0
 412 0024 0B60     		str	r3, [r1, #0]
 413 0026 6360     		str	r3, [r4, #4]
 414              	.LBE17:
 415              	.LBE16:
 416              		.loc 1 242 0
 417 0028 30BC     		pop	{r4, r5}
 418 002a 7047     		bx	lr
 419              	.LVL27:
 420              	.L30:
 421              	.LBB18:
 422              	.LBB20:
 423              	.LBB21:
 424              		.loc 1 92 0
 425 002c 0025     		movs	r5, #0
 426 002e 1577     		strb	r5, [r2, #28]
 427              		.loc 1 93 0
 428 0030 2146     		mov	r1, r4
 429              	.LVL28:
 430              	.L33:
 431              		.loc 1 95 0
 432 0032 0968     		ldr	r1, [r1, #0]
 433              	.LVL29:
 434              		.loc 1 96 0
 435 0034 8D68     		ldr	r5, [r1, #8]
 436 0036 A842     		cmp	r0, r5
 437 0038 FBD9     		bls	.L33
 438              		.loc 1 99 0
 439 003a 4868     		ldr	r0, [r1, #4]
 440              		.loc 1 98 0
 441 003c 1160     		str	r1, [r2, #0]
 442              		.loc 1 99 0
 443 003e 5060     		str	r0, [r2, #4]
 444              		.loc 1 100 0
 445 0040 0260     		str	r2, [r0, #0]
 446              	.LBE21:
 447              	.LBE20:
 448              		.loc 1 239 0
 449 0042 0120     		movs	r0, #1
ARM GAS  C:\Users\DNIEL~1\AppData\Local\Temp\cctTnr9j.s 			page 9


 450              	.LBB19:
 451              	.LBB22:
 452              		.loc 1 100 0
 453 0044 4A60     		str	r2, [r1, #4]
 454              	.LBE22:
 455              	.LBE19:
 456              		.loc 1 239 0
 457 0046 1877     		strb	r0, [r3, #28]
 458              		.loc 1 240 0
 459 0048 1146     		mov	r1, r2
 460              	.LVL30:
 461 004a 1846     		mov	r0, r3
 462              		.loc 1 238 0
 463 004c A361     		str	r3, [r4, #24]
 464              	.LBE18:
 465              		.loc 1 242 0
 466 004e 30BC     		pop	{r4, r5}
 467              	.LBB23:
 468              		.loc 1 240 0
 469 0050 FFF7FEBF 		b	_port_switch
 470              	.LVL31:
 471              	.L37:
 472              		.align	2
 473              	.L36:
 474 0054 00000000 		.word	.LANCHOR0
 475              	.LBE23:
 476              		.cfi_endproc
 477              	.LFE5:
 478              		.size	chSchWakeupS, .-chSchWakeupS
 479 0058 AFF30080 		.section	.text.chSchDoRescheduleBehind,"ax",%progbits
 479      AFF30080 
 480              		.align	2
 481              		.p2align 4,,15
 482              		.global	chSchDoRescheduleBehind
 483              		.thumb
 484              		.thumb_func
 485              		.type	chSchDoRescheduleBehind, %function
 486              	chSchDoRescheduleBehind:
 487              	.LFB7:
 488              		.loc 1 304 0
 489              		.cfi_startproc
 490              		@ args = 0, pretend = 0, frame = 0
 491              		@ frame_needed = 0, uses_anonymous_args = 0
 492 0000 70B5     		push	{r4, r5, r6, lr}
 493              	.LCFI5:
 494              		.cfi_def_cfa_offset 16
 495              		.loc 1 307 0
 496 0002 0D4D     		ldr	r5, .L41
 497              		.cfi_offset 14, -4
 498              		.cfi_offset 6, -8
 499              		.cfi_offset 5, -12
 500              		.cfi_offset 4, -16
 501              		.loc 1 309 0
 502 0004 2846     		mov	r0, r5
 503              		.loc 1 307 0
 504 0006 AC69     		ldr	r4, [r5, #24]
 505              	.LVL32:
ARM GAS  C:\Users\DNIEL~1\AppData\Local\Temp\cctTnr9j.s 			page 10


 506              		.loc 1 309 0
 507 0008 FFF7FEFF 		bl	fifo_remove
 508              	.LVL33:
 509              		.loc 1 310 0
 510 000c 0123     		movs	r3, #1
 511 000e 0377     		strb	r3, [r0, #28]
 512              		.loc 1 312 0
 513 0010 1421     		movs	r1, #20
 514              	.LBB24:
 515              	.LBB26:
 516              		.loc 1 92 0
 517 0012 0023     		movs	r3, #0
 518              		.loc 1 93 0
 519 0014 A268     		ldr	r2, [r4, #8]
 520              	.LBE26:
 521              	.LBE24:
 522              		.loc 1 312 0
 523 0016 E177     		strb	r1, [r4, #31]
 524              	.LVL34:
 525              		.loc 1 309 0
 526 0018 A861     		str	r0, [r5, #24]
 527              	.LBB28:
 528              	.LBB25:
 529              		.loc 1 92 0
 530 001a 2377     		strb	r3, [r4, #28]
 531              	.LVL35:
 532              	.L39:
 533              		.loc 1 95 0
 534 001c 2D68     		ldr	r5, [r5, #0]
 535              	.LVL36:
 536              		.loc 1 96 0
 537 001e A968     		ldr	r1, [r5, #8]
 538 0020 8A42     		cmp	r2, r1
 539 0022 FBD9     		bls	.L39
 540              		.loc 1 99 0
 541 0024 6A68     		ldr	r2, [r5, #4]
 542              	.LBE25:
 543              	.LBE28:
 544              		.loc 1 315 0
 545 0026 2146     		mov	r1, r4
 546              	.LBB29:
 547              	.LBB27:
 548              		.loc 1 98 0
 549 0028 2560     		str	r5, [r4, #0]
 550              		.loc 1 99 0
 551 002a 6260     		str	r2, [r4, #4]
 552              		.loc 1 100 0
 553 002c 1460     		str	r4, [r2, #0]
 554 002e 6C60     		str	r4, [r5, #4]
 555              	.LBE27:
 556              	.LBE29:
 557              		.loc 1 316 0
 558 0030 BDE87040 		pop	{r4, r5, r6, lr}
 559              		.loc 1 315 0
 560 0034 FFF7FEBF 		b	_port_switch
 561              	.L42:
 562              		.align	2
ARM GAS  C:\Users\DNIEL~1\AppData\Local\Temp\cctTnr9j.s 			page 11


 563              	.L41:
 564 0038 00000000 		.word	.LANCHOR0
 565              		.cfi_endproc
 566              	.LFE7:
 567              		.size	chSchDoRescheduleBehind, .-chSchDoRescheduleBehind
 568 003c AFF30080 		.section	.text.chSchDoRescheduleAhead,"ax",%progbits
 569              		.align	2
 570              		.p2align 4,,15
 571              		.global	chSchDoRescheduleAhead
 572              		.thumb
 573              		.thumb_func
 574              		.type	chSchDoRescheduleAhead, %function
 575              	chSchDoRescheduleAhead:
 576              	.LFB8:
 577              		.loc 1 329 0
 578              		.cfi_startproc
 579              		@ args = 0, pretend = 0, frame = 0
 580              		@ frame_needed = 0, uses_anonymous_args = 0
 581 0000 70B5     		push	{r4, r5, r6, lr}
 582              	.LCFI6:
 583              		.cfi_def_cfa_offset 16
 584              		.loc 1 332 0
 585 0002 0C4D     		ldr	r5, .L46
 586              		.cfi_offset 14, -4
 587              		.cfi_offset 6, -8
 588              		.cfi_offset 5, -12
 589              		.cfi_offset 4, -16
 590              		.loc 1 334 0
 591 0004 2846     		mov	r0, r5
 592              		.loc 1 332 0
 593 0006 AC69     		ldr	r4, [r5, #24]
 594              	.LVL37:
 595              		.loc 1 334 0
 596 0008 FFF7FEFF 		bl	fifo_remove
 597              	.LVL38:
 598              		.loc 1 335 0
 599 000c 0121     		movs	r1, #1
 600              		.loc 1 337 0
 601 000e 0023     		movs	r3, #0
 602              		.loc 1 338 0
 603 0010 A268     		ldr	r2, [r4, #8]
 604              		.loc 1 335 0
 605 0012 0177     		strb	r1, [r0, #28]
 606              		.loc 1 334 0
 607 0014 A861     		str	r0, [r5, #24]
 608              		.loc 1 337 0
 609 0016 2377     		strb	r3, [r4, #28]
 610              	.LVL39:
 611              	.L44:
 612              		.loc 1 340 0 discriminator 1
 613 0018 2D68     		ldr	r5, [r5, #0]
 614              	.LVL40:
 615              		.loc 1 341 0 discriminator 1
 616 001a AB68     		ldr	r3, [r5, #8]
 617 001c 9A42     		cmp	r2, r3
 618 001e FBD3     		bcc	.L44
 619              		.loc 1 344 0
ARM GAS  C:\Users\DNIEL~1\AppData\Local\Temp\cctTnr9j.s 			page 12


 620 0020 6A68     		ldr	r2, [r5, #4]
 621              		.loc 1 347 0
 622 0022 2146     		mov	r1, r4
 623              		.loc 1 343 0
 624 0024 2560     		str	r5, [r4, #0]
 625              		.loc 1 344 0
 626 0026 6260     		str	r2, [r4, #4]
 627              		.loc 1 345 0
 628 0028 1460     		str	r4, [r2, #0]
 629 002a 6C60     		str	r4, [r5, #4]
 630              		.loc 1 348 0
 631 002c BDE87040 		pop	{r4, r5, r6, lr}
 632              		.loc 1 347 0
 633 0030 FFF7FEBF 		b	_port_switch
 634              	.L47:
 635              		.align	2
 636              	.L46:
 637 0034 00000000 		.word	.LANCHOR0
 638              		.cfi_endproc
 639              	.LFE8:
 640              		.size	chSchDoRescheduleAhead, .-chSchDoRescheduleAhead
 641 0038 AFF30080 		.section	.text.chSchRescheduleS,"ax",%progbits
 641      AFF30080 
 642              		.align	2
 643              		.p2align 4,,15
 644              		.global	chSchRescheduleS
 645              		.thumb
 646              		.thumb_func
 647              		.type	chSchRescheduleS, %function
 648              	chSchRescheduleS:
 649              	.LFB6:
 650              		.loc 1 253 0
 651              		.cfi_startproc
 652              		@ args = 0, pretend = 0, frame = 0
 653              		@ frame_needed = 0, uses_anonymous_args = 0
 654              		@ link register save eliminated.
 655              		.loc 1 257 0
 656 0000 044A     		ldr	r2, .L51
 657 0002 9069     		ldr	r0, [r2, #24]
 658 0004 1168     		ldr	r1, [r2, #0]
 659 0006 8368     		ldr	r3, [r0, #8]
 660 0008 8A68     		ldr	r2, [r1, #8]
 661 000a 9A42     		cmp	r2, r3
 662 000c 00D8     		bhi	.L50
 663 000e 7047     		bx	lr
 664              	.L50:
 665              		.loc 1 259 0
 666              		.loc 1 258 0
 667 0010 FFF7FEBF 		b	chSchDoRescheduleAhead
 668              	.L52:
 669              		.align	2
 670              	.L51:
 671 0014 00000000 		.word	.LANCHOR0
 672              		.cfi_endproc
 673              	.LFE6:
 674              		.size	chSchRescheduleS, .-chSchRescheduleS
 675 0018 AFF30080 		.section	.text.chSchDoReschedule,"ax",%progbits
ARM GAS  C:\Users\DNIEL~1\AppData\Local\Temp\cctTnr9j.s 			page 13


 675      AFF30080 
 676              		.align	2
 677              		.p2align 4,,15
 678              		.global	chSchDoReschedule
 679              		.thumb
 680              		.thumb_func
 681              		.type	chSchDoReschedule, %function
 682              	chSchDoReschedule:
 683              	.LFB9:
 684              		.loc 1 362 0
 685              		.cfi_startproc
 686              		@ args = 0, pretend = 0, frame = 0
 687              		@ frame_needed = 0, uses_anonymous_args = 0
 688              		@ link register save eliminated.
 689              		.loc 1 367 0
 690 0000 0349     		ldr	r1, .L56
 691 0002 8869     		ldr	r0, [r1, #24]
 692 0004 C37F     		ldrb	r3, [r0, #31]	@ zero_extendqisi2
 693 0006 0BB1     		cbz	r3, .L55
 694              		.loc 1 382 0
 695              		.loc 1 375 0
 696 0008 FFF7FEBF 		b	chSchDoRescheduleAhead
 697              	.L55:
 698              		.loc 1 382 0
 699              		.loc 1 370 0
 700 000c FFF7FEBF 		b	chSchDoRescheduleBehind
 701              	.L57:
 702              		.align	2
 703              	.L56:
 704 0010 00000000 		.word	.LANCHOR0
 705              		.cfi_endproc
 706              	.LFE9:
 707              		.size	chSchDoReschedule, .-chSchDoReschedule
 708              		.global	rlist
 709 0014 AFF30080 		.section	.bss.rlist,"aw",%nobits
 709      AFF30080 
 709      AFF30080 
 710              		.align	2
 711              		.set	.LANCHOR0,. + 0
 712              		.type	rlist, %object
 713              		.size	rlist, 28
 714              	rlist:
 715 0000 00000000 		.space	28
 715      00000000 
 715      00000000 
 715      00000000 
 715      00000000 
 716              		.text
 717              	.Letext0: