ARM GAS  C:\Users\DNIEL~1\AppData\Local\Temp\ccxp2FFG.s 			page 1


   1              		.syntax unified
   2              		.cpu cortex-m3
   3              		.fpu softvfp
   4              		.eabi_attribute 20, 1
   5              		.eabi_attribute 21, 1
   6              		.eabi_attribute 23, 3
   7              		.eabi_attribute 24, 1
   8              		.eabi_attribute 25, 1
   9              		.eabi_attribute 26, 1
  10              		.eabi_attribute 30, 2
  11              		.eabi_attribute 18, 4
  12              		.thumb
  13              		.file	"chthreads.c"
  20 0000 59030000 		.text
  20      0200D701 
  20      00000201 
  20      FB0E0D00 
  20      01010101 
  21              	.Ltext0:
  22              		.cfi_sections	.debug_frame
  23              		.section	.text._thread_init,"ax",%progbits
  24              		.align	2
  25              		.p2align 4,,15
  26              		.global	_thread_init
  27              		.thumb
  28              		.thumb_func
  29              		.type	_thread_init, %function
  30              	_thread_init:
  31              	.LFB0:
  32              		.file 1 "../../../ChibiOS/os/kernel/src/chthreads.c"
  33              		.loc 1 76 0
  34              		.cfi_startproc
  35              		@ args = 0, pretend = 0, frame = 0
  36              		@ frame_needed = 0, uses_anonymous_args = 0
  37              		@ link register save eliminated.
  38              	.LVL0:
  39 0000 F0B4     		push	{r4, r5, r6, r7}
  40              	.LCFI0:
  41              		.cfi_def_cfa_offset 16
  42              		.loc 1 80 0
  43 0002 0022     		movs	r2, #0
  44              		.loc 1 99 0
  45 0004 0D4C     		ldr	r4, .L2
  46              		.cfi_offset 7, -4
  47              		.cfi_offset 6, -8
  48              		.cfi_offset 5, -12
  49              		.cfi_offset 4, -16
  50              		.loc 1 79 0
  51 0006 0226     		movs	r6, #2
  52              		.loc 1 95 0
  53 0008 0125     		movs	r5, #1
ARM GAS  C:\Users\DNIEL~1\AppData\Local\Temp\ccxp2FFG.s 			page 2


  54              		.loc 1 82 0
  55 000a 1423     		movs	r3, #20
  56              		.loc 1 79 0
  57 000c 0677     		strb	r6, [r0, #28]
  58              		.loc 1 80 0
  59 000e 4277     		strb	r2, [r0, #29]
  60              		.loc 1 82 0
  61 0010 C377     		strb	r3, [r0, #31]
  62              		.loc 1 95 0
  63 0012 8577     		strb	r5, [r0, #30]
  64              		.loc 1 99 0
  65 0014 6569     		ldr	r5, [r4, #20]
  66              		.loc 1 105 0
  67 0016 00F12C06 		add	r6, r0, #44
  68              		.loc 1 102 0
  69 001a 00F12807 		add	r7, r0, #40
  70              		.loc 1 99 0
  71 001e 0461     		str	r4, [r0, #16]
  72              		.loc 1 78 0
  73 0020 8160     		str	r1, [r0, #8]
  74              		.loc 1 99 0
  75 0022 4561     		str	r5, [r0, #20]
  76              		.loc 1 85 0
  77 0024 0164     		str	r1, [r0, #64]
  78              		.loc 1 99 0
  79 0026 6061     		str	r0, [r4, #20]
  80              		.loc 1 86 0
  81 0028 C263     		str	r2, [r0, #60]
  82              		.loc 1 89 0
  83 002a 8263     		str	r2, [r0, #56]
  84              		.loc 1 92 0
  85 002c 0262     		str	r2, [r0, #32]
  86              		.loc 1 98 0
  87 002e 8261     		str	r2, [r0, #24]
  88              		.loc 1 99 0
  89 0030 2861     		str	r0, [r5, #16]
  90              		.loc 1 102 0
  91 0032 8762     		str	r7, [r0, #40]
  92              		.loc 1 105 0
  93 0034 0663     		str	r6, [r0, #48]
  94 0036 C662     		str	r6, [r0, #44]
  95              		.loc 1 114 0
  96 0038 F0BC     		pop	{r4, r5, r6, r7}
  97 003a 7047     		bx	lr
  98              	.L3:
  99              		.align	2
 100              	.L2:
 101 003c 00000000 		.word	rlist
 102              		.cfi_endproc
 103              	.LFE0:
 104              		.size	_thread_init, .-_thread_init
 105              		.section	.text.chThdCreateI,"ax",%progbits
 106              		.align	2
 107              		.p2align 4,,15
 108              		.global	chThdCreateI
 109              		.thumb
 110              		.thumb_func
ARM GAS  C:\Users\DNIEL~1\AppData\Local\Temp\ccxp2FFG.s 			page 3


 111              		.type	chThdCreateI, %function
 112              	chThdCreateI:
 113              	.LFB1:
 114              		.loc 1 158 0
 115              		.cfi_startproc
 116              		@ args = 4, pretend = 0, frame = 0
 117              		@ frame_needed = 0, uses_anonymous_args = 0
 118              		@ link register save eliminated.
 119              	.LVL1:
 120              		.loc 1 167 0
 121 0000 2439     		subs	r1, r1, #36
 122              	.LVL2:
 123              		.loc 1 158 0
 124 0002 F0B4     		push	{r4, r5, r6, r7}
 125              	.LCFI1:
 126              		.cfi_def_cfa_offset 16
 127              		.loc 1 167 0
 128 0004 4718     		adds	r7, r0, r1
 129              		.cfi_offset 7, -4
 130              		.cfi_offset 6, -8
 131              		.cfi_offset 5, -12
 132              		.cfi_offset 4, -16
 133 0006 C760     		str	r7, [r0, #12]
 134 0008 4350     		str	r3, [r0, r1]
 135 000a 049B     		ldr	r3, [sp, #16]
 136              	.LVL3:
 137 000c 0F49     		ldr	r1, .L5
 138              	.LVL4:
 139 000e 7B60     		str	r3, [r7, #4]
 140 0010 3962     		str	r1, [r7, #32]
 141              	.LVL5:
 142              	.LBB4:
 143              	.LBB5:
 144              		.loc 1 80 0
 145 0012 0025     		movs	r5, #0
 146              		.loc 1 99 0
 147 0014 0E4E     		ldr	r6, .L5+4
 148              		.loc 1 79 0
 149 0016 0223     		movs	r3, #2
 150              		.loc 1 82 0
 151 0018 1421     		movs	r1, #20
 152              		.loc 1 95 0
 153 001a 0127     		movs	r7, #1
 154              	.LVL6:
 155              		.loc 1 82 0
 156 001c C177     		strb	r1, [r0, #31]
 157              		.loc 1 95 0
 158 001e 8777     		strb	r7, [r0, #30]
 159              		.loc 1 79 0
 160 0020 0377     		strb	r3, [r0, #28]
 161              		.loc 1 80 0
 162 0022 4577     		strb	r5, [r0, #29]
 163              		.loc 1 99 0
 164 0024 7369     		ldr	r3, [r6, #20]
 165              	.LVL7:
 166              		.loc 1 105 0
 167 0026 00F12C01 		add	r1, r0, #44
ARM GAS  C:\Users\DNIEL~1\AppData\Local\Temp\ccxp2FFG.s 			page 4


 168              		.loc 1 102 0
 169 002a 00F12807 		add	r7, r0, #40
 170              		.loc 1 99 0
 171 002e 0661     		str	r6, [r0, #16]
 172              		.loc 1 78 0
 173 0030 8260     		str	r2, [r0, #8]
 174              		.loc 1 99 0
 175 0032 4361     		str	r3, [r0, #20]
 176              		.loc 1 85 0
 177 0034 0264     		str	r2, [r0, #64]
 178              		.loc 1 99 0
 179 0036 7061     		str	r0, [r6, #20]
 180              		.loc 1 86 0
 181 0038 C563     		str	r5, [r0, #60]
 182              		.loc 1 89 0
 183 003a 8563     		str	r5, [r0, #56]
 184              		.loc 1 92 0
 185 003c 0562     		str	r5, [r0, #32]
 186              		.loc 1 98 0
 187 003e 8561     		str	r5, [r0, #24]
 188              		.loc 1 99 0
 189 0040 1861     		str	r0, [r3, #16]
 190              		.loc 1 102 0
 191 0042 8762     		str	r7, [r0, #40]
 192              		.loc 1 105 0
 193 0044 0163     		str	r1, [r0, #48]
 194 0046 C162     		str	r1, [r0, #44]
 195              	.LBE5:
 196              	.LBE4:
 197              		.loc 1 169 0
 198 0048 F0BC     		pop	{r4, r5, r6, r7}
 199 004a 7047     		bx	lr
 200              	.L6:
 201              		.align	2
 202              	.L5:
 203 004c 00000000 		.word	_port_thread_start
 204 0050 00000000 		.word	rlist
 205              		.cfi_endproc
 206              	.LFE1:
 207              		.size	chThdCreateI, .-chThdCreateI
 208 0054 AFF30080 		.section	.text.chThdCreateStatic,"ax",%progbits
 208      AFF30080 
 208      AFF30080 
 209              		.align	2
 210              		.p2align 4,,15
 211              		.global	chThdCreateStatic
 212              		.thumb
 213              		.thumb_func
 214              		.type	chThdCreateStatic, %function
 215              	chThdCreateStatic:
 216              	.LFB2:
 217              		.loc 1 188 0
 218              		.cfi_startproc
 219              		@ args = 4, pretend = 0, frame = 0
 220              		@ frame_needed = 0, uses_anonymous_args = 0
 221              	.LVL8:
 222 0000 10B5     		push	{r4, lr}
ARM GAS  C:\Users\DNIEL~1\AppData\Local\Temp\ccxp2FFG.s 			page 5


 223              	.LCFI2:
 224              		.cfi_def_cfa_offset 8
 225 0002 9C46     		mov	ip, r3
 226 0004 82B0     		sub	sp, sp, #8
 227              	.LCFI3:
 228              		.cfi_def_cfa_offset 16
 229              		.loc 1 199 0
 230              	@ 199 "../../../ChibiOS/os/kernel/src/chthreads.c" 1
 231 0006 FFF7FEFF 		bl      _port_lock
 232              	@ 0 "" 2
 233              	.LVL9:
 234              		.loc 1 200 0
 235              		.thumb
 236 000a 049C     		ldr	r4, [sp, #16]
 237              		.cfi_offset 14, -4
 238              		.cfi_offset 4, -8
 239 000c 6346     		mov	r3, ip
 240 000e 0094     		str	r4, [sp, #0]
 241 0010 FFF7FEFF 		bl	chThdCreateI
 242              	.LVL10:
 243 0014 0021     		movs	r1, #0
 244 0016 0446     		mov	r4, r0
 245              	.LVL11:
 246 0018 FFF7FEFF 		bl	chSchWakeupS
 247              	.LVL12:
 248              		.loc 1 201 0
 249              	@ 201 "../../../ChibiOS/os/kernel/src/chthreads.c" 1
 250 001c FFF7FEFF 		bl      _port_unlock
 251              	@ 0 "" 2
 252              		.loc 1 203 0
 253              		.thumb
 254 0020 2046     		mov	r0, r4
 255 0022 02B0     		add	sp, sp, #8
 256 0024 10BD     		pop	{r4, pc}
 257              		.cfi_endproc
 258              	.LFE2:
 259              		.size	chThdCreateStatic, .-chThdCreateStatic
 260 0026 00BFAFF3 		.section	.text.chThdSetPriority,"ax",%progbits
 260      0080AFF3 
 260      0080
 261              		.align	2
 262              		.p2align 4,,15
 263              		.global	chThdSetPriority
 264              		.thumb
 265              		.thumb_func
 266              		.type	chThdSetPriority, %function
 267              	chThdSetPriority:
 268              	.LFB3:
 269              		.loc 1 217 0
 270              		.cfi_startproc
 271              		@ args = 0, pretend = 0, frame = 0
 272              		@ frame_needed = 0, uses_anonymous_args = 0
 273              	.LVL13:
 274 0000 10B5     		push	{r4, lr}
 275              	.LCFI4:
 276              		.cfi_def_cfa_offset 8
 277              		.loc 1 217 0
ARM GAS  C:\Users\DNIEL~1\AppData\Local\Temp\ccxp2FFG.s 			page 6


 278 0002 0246     		mov	r2, r0
 279              		.loc 1 222 0
 280              	@ 222 "../../../ChibiOS/os/kernel/src/chthreads.c" 1
 281 0004 FFF7FEFF 		bl      _port_lock
 282              	@ 0 "" 2
 283              		.loc 1 224 0
 284              		.thumb
 285 0008 074B     		ldr	r3, .L12
 286 000a 9B69     		ldr	r3, [r3, #24]
 287 000c 1C6C     		ldr	r4, [r3, #64]
 288              		.cfi_offset 14, -4
 289              		.cfi_offset 4, -8
 290              	.LVL14:
 291              		.loc 1 225 0
 292 000e 9968     		ldr	r1, [r3, #8]
 293 0010 8C42     		cmp	r4, r1
 294 0012 01D0     		beq	.L9
 295              		.loc 1 225 0 is_stmt 0 discriminator 1
 296 0014 8142     		cmp	r1, r0
 297 0016 00D2     		bcs	.L10
 298              	.L9:
 299              		.loc 1 226 0 is_stmt 1
 300 0018 9A60     		str	r2, [r3, #8]
 301              	.L10:
 302              		.loc 1 227 0
 303 001a 1A64     		str	r2, [r3, #64]
 304              		.loc 1 232 0
 305 001c FFF7FEFF 		bl	chSchRescheduleS
 306              	.LVL15:
 307              		.loc 1 233 0
 308              	@ 233 "../../../ChibiOS/os/kernel/src/chthreads.c" 1
 309 0020 FFF7FEFF 		bl      _port_unlock
 310              	@ 0 "" 2
 311              		.loc 1 235 0
 312              		.thumb
 313 0024 2046     		mov	r0, r4
 314 0026 10BD     		pop	{r4, pc}
 315              	.L13:
 316              		.align	2
 317              	.L12:
 318 0028 00000000 		.word	rlist
 319              		.cfi_endproc
 320              	.LFE3:
 321              		.size	chThdSetPriority, .-chThdSetPriority
 322 002c AFF30080 		.section	.text.chThdResume,"ax",%progbits
 323              		.align	2
 324              		.p2align 4,,15
 325              		.global	chThdResume
 326              		.thumb
 327              		.thumb_func
 328              		.type	chThdResume, %function
 329              	chThdResume:
 330              	.LFB4:
 331              		.loc 1 250 0
 332              		.cfi_startproc
 333              		@ args = 0, pretend = 0, frame = 0
 334              		@ frame_needed = 0, uses_anonymous_args = 0
ARM GAS  C:\Users\DNIEL~1\AppData\Local\Temp\ccxp2FFG.s 			page 7


 335              	.LVL16:
 336 0000 10B5     		push	{r4, lr}
 337              	.LCFI5:
 338              		.cfi_def_cfa_offset 8
 339              		.loc 1 250 0
 340 0002 0446     		mov	r4, r0
 341              		.cfi_offset 14, -4
 342              		.cfi_offset 4, -8
 343              		.loc 1 252 0
 344              	@ 252 "../../../ChibiOS/os/kernel/src/chthreads.c" 1
 345 0004 FFF7FEFF 		bl      _port_lock
 346              	@ 0 "" 2
 347              		.loc 1 256 0
 348              		.thumb
 349 0008 0021     		movs	r1, #0
 350 000a FFF7FEFF 		bl	chSchWakeupS
 351              	.LVL17:
 352              		.loc 1 257 0
 353              	@ 257 "../../../ChibiOS/os/kernel/src/chthreads.c" 1
 354 000e FFF7FEFF 		bl      _port_unlock
 355              	@ 0 "" 2
 356              		.loc 1 259 0
 357              		.thumb
 358 0012 2046     		mov	r0, r4
 359 0014 10BD     		pop	{r4, pc}
 360              		.cfi_endproc
 361              	.LFE4:
 362              		.size	chThdResume, .-chThdResume
 363 0016 00BFAFF3 		.section	.text.chThdTerminate,"ax",%progbits
 363      0080AFF3 
 363      0080
 364              		.align	2
 365              		.p2align 4,,15
 366              		.global	chThdTerminate
 367              		.thumb
 368              		.thumb_func
 369              		.type	chThdTerminate, %function
 370              	chThdTerminate:
 371              	.LFB5:
 372              		.loc 1 273 0
 373              		.cfi_startproc
 374              		@ args = 0, pretend = 0, frame = 0
 375              		@ frame_needed = 0, uses_anonymous_args = 0
 376              	.LVL18:
 377 0000 00B5     		push	{lr}
 378              	.LCFI6:
 379              		.cfi_def_cfa_offset 4
 380              		.loc 1 275 0
 381              	@ 275 "../../../ChibiOS/os/kernel/src/chthreads.c" 1
 382 0002 FFF7FEFF 		bl      _port_lock
 383              	@ 0 "" 2
 384              		.loc 1 276 0
 385              		.thumb
 386 0006 417F     		ldrb	r1, [r0, #29]	@ zero_extendqisi2
 387 0008 41F00403 		orr	r3, r1, #4
 388 000c 4377     		strb	r3, [r0, #29]
 389              		.loc 1 277 0
ARM GAS  C:\Users\DNIEL~1\AppData\Local\Temp\ccxp2FFG.s 			page 8


 390              	@ 277 "../../../ChibiOS/os/kernel/src/chthreads.c" 1
 391 000e FFF7FEFF 		bl      _port_unlock
 392              	@ 0 "" 2
 393              		.loc 1 278 0
 394              		.thumb
 395 0012 5DF804FB 		ldr	pc, [sp], #4
 396              		.cfi_offset 14, -4
 397              		.cfi_endproc
 398              	.LFE5:
 399              		.size	chThdTerminate, .-chThdTerminate
 400 0016 00BFAFF3 		.section	.text.chThdSleep,"ax",%progbits
 400      0080AFF3 
 400      0080
 401              		.align	2
 402              		.p2align 4,,15
 403              		.global	chThdSleep
 404              		.thumb
 405              		.thumb_func
 406              		.type	chThdSleep, %function
 407              	chThdSleep:
 408              	.LFB6:
 409              		.loc 1 292 0
 410              		.cfi_startproc
 411              		@ args = 0, pretend = 0, frame = 0
 412              		@ frame_needed = 0, uses_anonymous_args = 0
 413              	.LVL19:
 414 0000 08B5     		push	{r3, lr}
 415              	.LCFI7:
 416              		.cfi_def_cfa_offset 8
 417              		.loc 1 292 0
 418 0002 0146     		mov	r1, r0
 419              		.loc 1 296 0
 420              	@ 296 "../../../ChibiOS/os/kernel/src/chthreads.c" 1
 421 0004 FFF7FEFF 		bl      _port_lock
 422              	@ 0 "" 2
 423              		.loc 1 297 0
 424              		.thumb
 425 0008 0620     		movs	r0, #6
 426              	.LVL20:
 427              		.cfi_offset 14, -4
 428              		.cfi_offset 3, -8
 429 000a FFF7FEFF 		bl	chSchGoSleepTimeoutS
 430              	.LVL21:
 431              		.loc 1 298 0
 432              	@ 298 "../../../ChibiOS/os/kernel/src/chthreads.c" 1
 433 000e FFF7FEFF 		bl      _port_unlock
 434              	@ 0 "" 2
 435              		.loc 1 299 0
 436              		.thumb
 437 0012 08BD     		pop	{r3, pc}
 438              		.cfi_endproc
 439              	.LFE6:
 440              		.size	chThdSleep, .-chThdSleep
 441 0014 AFF30080 		.section	.text.chThdSleepUntil,"ax",%progbits
 441      AFF30080 
 441      AFF30080 
 442              		.align	2
ARM GAS  C:\Users\DNIEL~1\AppData\Local\Temp\ccxp2FFG.s 			page 9


 443              		.p2align 4,,15
 444              		.global	chThdSleepUntil
 445              		.thumb
 446              		.thumb_func
 447              		.type	chThdSleepUntil, %function
 448              	chThdSleepUntil:
 449              	.LFB7:
 450              		.loc 1 309 0
 451              		.cfi_startproc
 452              		@ args = 0, pretend = 0, frame = 0
 453              		@ frame_needed = 0, uses_anonymous_args = 0
 454              	.LVL22:
 455 0000 08B5     		push	{r3, lr}
 456              	.LCFI8:
 457              		.cfi_def_cfa_offset 8
 458              		.loc 1 311 0
 459              	@ 311 "../../../ChibiOS/os/kernel/src/chthreads.c" 1
 460 0002 FFF7FEFF 		bl      _port_lock
 461              	@ 0 "" 2
 462              		.loc 1 312 0
 463              		.thumb
 464 0006 054B     		ldr	r3, .L19
 465              		.cfi_offset 14, -4
 466              		.cfi_offset 3, -8
 467 0008 D968     		ldr	r1, [r3, #12]
 468              	.LVL23:
 469 000a 411A     		subs	r1, r0, r1
 470              	.LVL24:
 471 000c 02D0     		beq	.L18
 472              		.loc 1 313 0
 473 000e 0620     		movs	r0, #6
 474 0010 FFF7FEFF 		bl	chSchGoSleepTimeoutS
 475              	.LVL25:
 476              	.L18:
 477              		.loc 1 314 0
 478              	@ 314 "../../../ChibiOS/os/kernel/src/chthreads.c" 1
 479 0014 FFF7FEFF 		bl      _port_unlock
 480              	@ 0 "" 2
 481              		.loc 1 315 0
 482              		.thumb
 483 0018 08BD     		pop	{r3, pc}
 484              	.L20:
 485 001a 00BF     		.align	2
 486              	.L19:
 487 001c 00000000 		.word	vtlist
 488              		.cfi_endproc
 489              	.LFE7:
 490              		.size	chThdSleepUntil, .-chThdSleepUntil
 491              		.section	.text.chThdYield,"ax",%progbits
 492              		.align	2
 493              		.p2align 4,,15
 494              		.global	chThdYield
 495              		.thumb
 496              		.thumb_func
 497              		.type	chThdYield, %function
 498              	chThdYield:
 499              	.LFB8:
ARM GAS  C:\Users\DNIEL~1\AppData\Local\Temp\ccxp2FFG.s 			page 10


 500              		.loc 1 324 0
 501              		.cfi_startproc
 502              		@ args = 0, pretend = 0, frame = 0
 503              		@ frame_needed = 0, uses_anonymous_args = 0
 504 0000 08B5     		push	{r3, lr}
 505              	.LCFI9:
 506              		.cfi_def_cfa_offset 8
 507              		.loc 1 326 0
 508              	@ 326 "../../../ChibiOS/os/kernel/src/chthreads.c" 1
 509 0002 FFF7FEFF 		bl      _port_lock
 510              	@ 0 "" 2
 511              		.loc 1 327 0
 512              		.thumb
 513 0006 064A     		ldr	r2, .L23
 514 0008 9069     		ldr	r0, [r2, #24]
 515 000a 1168     		ldr	r1, [r2, #0]
 516 000c 8368     		ldr	r3, [r0, #8]
 517              		.cfi_offset 14, -4
 518              		.cfi_offset 3, -8
 519 000e 8A68     		ldr	r2, [r1, #8]
 520 0010 9A42     		cmp	r2, r3
 521 0012 01D3     		bcc	.L22
 522              		.loc 1 327 0 is_stmt 0 discriminator 1
 523 0014 FFF7FEFF 		bl	chSchDoRescheduleBehind
 524              	.L22:
 525              		.loc 1 328 0 is_stmt 1
 526              	@ 328 "../../../ChibiOS/os/kernel/src/chthreads.c" 1
 527 0018 FFF7FEFF 		bl      _port_unlock
 528              	@ 0 "" 2
 529              		.loc 1 329 0
 530              		.thumb
 531 001c 08BD     		pop	{r3, pc}
 532              	.L24:
 533 001e 00BF     		.align	2
 534              	.L23:
 535 0020 00000000 		.word	rlist
 536              		.cfi_endproc
 537              	.LFE8:
 538              		.size	chThdYield, .-chThdYield
 539 0024 AFF30080 		.section	.text.chThdExitS,"ax",%progbits
 539      AFF30080 
 539      AFF30080 
 540              		.align	2
 541              		.p2align 4,,15
 542              		.global	chThdExitS
 543              		.thumb
 544              		.thumb_func
 545              		.type	chThdExitS, %function
 546              	chThdExitS:
 547              	.LFB10:
 548              		.loc 1 366 0
 549              		.cfi_startproc
 550              		@ args = 0, pretend = 0, frame = 0
 551              		@ frame_needed = 0, uses_anonymous_args = 0
 552              	.LVL26:
 553              		.loc 1 367 0
 554 0000 0F49     		ldr	r1, .L31
ARM GAS  C:\Users\DNIEL~1\AppData\Local\Temp\ccxp2FFG.s 			page 11


 555              		.loc 1 366 0
 556 0002 70B5     		push	{r4, r5, r6, lr}
 557              	.LCFI10:
 558              		.cfi_def_cfa_offset 16
 559              		.loc 1 367 0
 560 0004 8D69     		ldr	r5, [r1, #24]
 561              		.cfi_offset 14, -4
 562              		.cfi_offset 6, -8
 563              		.cfi_offset 5, -12
 564              		.cfi_offset 4, -16
 565              	.LVL27:
 566              		.loc 1 374 0
 567 0006 AB6A     		ldr	r3, [r5, #40]
 568 0008 05F12804 		add	r4, r5, #40
 569 000c A342     		cmp	r3, r4
 570              		.loc 1 369 0
 571 000e 6862     		str	r0, [r5, #36]
 572              		.loc 1 374 0
 573 0010 07D0     		beq	.L26
 574              	.LVL28:
 575              	.L29:
 576              		.loc 1 375 0
 577 0012 2046     		mov	r0, r4
 578 0014 FFF7FEFF 		bl	list_remove
 579 0018 FFF7FEFF 		bl	chSchReadyI
 580              		.loc 1 374 0
 581 001c A86A     		ldr	r0, [r5, #40]
 582 001e A042     		cmp	r0, r4
 583 0020 F7D1     		bne	.L29
 584              	.L26:
 585              		.loc 1 380 0
 586 0022 6A7F     		ldrb	r2, [r5, #29]	@ zero_extendqisi2
 587 0024 12F0030F 		tst	r2, #3
 588 0028 04D1     		bne	.L28
 589              		.loc 1 381 0
 590 002a 6B69     		ldr	r3, [r5, #20]
 591 002c 2869     		ldr	r0, [r5, #16]
 592 002e 1861     		str	r0, [r3, #16]
 593 0030 2969     		ldr	r1, [r5, #16]
 594 0032 4B61     		str	r3, [r1, #20]
 595              	.L28:
 596              		.loc 1 383 0
 597 0034 0E20     		movs	r0, #14
 598              		.loc 1 386 0
 599 0036 BDE87040 		pop	{r4, r5, r6, lr}
 600              		.loc 1 383 0
 601 003a FFF7FEBF 		b	chSchGoSleepS
 602              	.L32:
 603 003e 00BF     		.align	2
 604              	.L31:
 605 0040 00000000 		.word	rlist
 606              		.cfi_endproc
 607              	.LFE10:
 608              		.size	chThdExitS, .-chThdExitS
 609 0044 AFF30080 		.section	.text.chThdExit,"ax",%progbits
 609      AFF30080 
 609      AFF30080 
ARM GAS  C:\Users\DNIEL~1\AppData\Local\Temp\ccxp2FFG.s 			page 12


 610              		.align	2
 611              		.p2align 4,,15
 612              		.global	chThdExit
 613              		.thumb
 614              		.thumb_func
 615              		.type	chThdExit, %function
 616              	chThdExit:
 617              	.LFB9:
 618              		.loc 1 345 0
 619              		.cfi_startproc
 620              		@ args = 0, pretend = 0, frame = 0
 621              		@ frame_needed = 0, uses_anonymous_args = 0
 622              	.LVL29:
 623 0000 00B5     		push	{lr}
 624              	.LCFI11:
 625              		.cfi_def_cfa_offset 4
 626              		.loc 1 347 0
 627              	@ 347 "../../../ChibiOS/os/kernel/src/chthreads.c" 1
 628 0002 FFF7FEFF 		bl      _port_lock
 629              	@ 0 "" 2
 630              		.loc 1 350 0
 631              		.thumb
 632 0006 5DF804EB 		ldr	lr, [sp], #4
 633              		.loc 1 348 0
 634              		.cfi_offset 14, -4
 635 000a FFF7FEBF 		b	chThdExitS
 636              		.cfi_endproc
 637              	.LFE9:
 638              		.size	chThdExit, .-chThdExit
 639 000e 00BF     		.section	.text.chThdWait,"ax",%progbits
 640              		.align	2
 641              		.p2align 4,,15
 642              		.global	chThdWait
 643              		.thumb
 644              		.thumb_func
 645              		.type	chThdWait, %function
 646              	chThdWait:
 647              	.LFB11:
 648              		.loc 1 420 0
 649              		.cfi_startproc
 650              		@ args = 0, pretend = 0, frame = 0
 651              		@ frame_needed = 0, uses_anonymous_args = 0
 652              	.LVL30:
 653 0000 38B5     		push	{r3, r4, r5, lr}
 654              	.LCFI12:
 655              		.cfi_def_cfa_offset 16
 656              		.loc 1 420 0
 657 0002 0446     		mov	r4, r0
 658              		.cfi_offset 14, -4
 659              		.cfi_offset 5, -8
 660              		.cfi_offset 4, -12
 661              		.cfi_offset 3, -16
 662              		.loc 1 425 0
 663              	@ 425 "../../../ChibiOS/os/kernel/src/chthreads.c" 1
 664 0004 FFF7FEFF 		bl      _port_lock
 665              	@ 0 "" 2
 666              		.loc 1 430 0
ARM GAS  C:\Users\DNIEL~1\AppData\Local\Temp\ccxp2FFG.s 			page 13


 667              		.thumb
 668 0008 037F     		ldrb	r3, [r0, #28]	@ zero_extendqisi2
 669 000a 0E2B     		cmp	r3, #14
 670 000c 08D0     		beq	.L35
 671              		.loc 1 431 0
 672 000e 00F12801 		add	r1, r0, #40
 673 0012 0748     		ldr	r0, .L36
 674              	.LVL31:
 675 0014 8069     		ldr	r0, [r0, #24]
 676 0016 FFF7FEFF 		bl	list_insert
 677              		.loc 1 432 0
 678 001a 0720     		movs	r0, #7
 679 001c FFF7FEFF 		bl	chSchGoSleepS
 680              	.L35:
 681              		.loc 1 434 0
 682 0020 656A     		ldr	r5, [r4, #36]
 683              	.LVL32:
 684              		.loc 1 435 0
 685              	@ 435 "../../../ChibiOS/os/kernel/src/chthreads.c" 1
 686 0022 FFF7FEFF 		bl      _port_unlock
 687              	@ 0 "" 2
 688              		.loc 1 437 0
 689              		.thumb
 690 0026 2046     		mov	r0, r4
 691 0028 FFF7FEFF 		bl	chThdRelease
 692              	.LVL33:
 693              		.loc 1 440 0
 694 002c 2846     		mov	r0, r5
 695 002e 38BD     		pop	{r3, r4, r5, pc}
 696              	.L37:
 697              		.align	2
 698              	.L36:
 699 0030 00000000 		.word	rlist
 700              		.cfi_endproc
 701              	.LFE11:
 702              		.size	chThdWait, .-chThdWait
 703 0034 AFF30080 		.text
 703      AFF30080 
 703      AFF30080 
 704              	.Letext0: