ARM GAS  C:\Users\DNIEL~1\AppData\Local\Temp\ccxp2FFG.s 			page 1


   1              		.syntax unified
   2              		.cpu cortex-m3
   3              		.fpu softvfp
   4              		.eabi_attribute 20, 1
   5              		.eabi_attribute 21, 1
   6              		.eabi_attribute 23, 3
   7              		.eabi_attribute 24, 1
   8              		.eabi_attribute 25, 1
   9              		.eabi_attribute 26, 1
  10              		.eabi_attribute 30, 2
  11              		.eabi_attribute 18, 4
  12              		.thumb
  13              		.file	"chthreads.c"
  14              		.section	.debug_abbrev,"",%progbits
  15              	.Ldebug_abbrev0:
  16              		.section	.debug_info,"",%progbits
  17              	.Ldebug_info0:
  18              		.section	.debug_line,"",%progbits
  19              	.Ldebug_line0:
  20 0000 59030000 		.text
  20      0200D701 
  20      00000201 
  20      FB0E0D00 
  20      01010101 
  21              	.Ltext0:
  22              		.cfi_sections	.debug_frame
  23              		.section	.text._thread_init,"ax",%progbits
  24              		.align	2
  25              		.p2align 4,,15
  26              		.global	_thread_init
  27              		.thumb
  28              		.thumb_func
  29              		.type	_thread_init, %function
  30              	_thread_init:
  31              	.LFB0:
  32              		.file 1 "../../../ChibiOS/os/kernel/src/chthreads.c"
  33              		.loc 1 76 0
  34              		.cfi_startproc
  35              		@ args = 0, pretend = 0, frame = 0
  36              		@ frame_needed = 0, uses_anonymous_args = 0
  37              		@ link register save eliminated.
  38              	.LVL0:
  39 0000 F0B4     		push	{r4, r5, r6, r7}
  40              	.LCFI0:
  41              		.cfi_def_cfa_offset 16
  42              		.loc 1 80 0
  43 0002 0022     		movs	r2, #0
  44              		.loc 1 99 0
  45 0004 0D4C     		ldr	r4, .L2
  46              		.cfi_offset 7, -4
  47              		.cfi_offset 6, -8
  48              		.cfi_offset 5, -12
  49              		.cfi_offset 4, -16
  50              		.loc 1 79 0
  51 0006 0226     		movs	r6, #2
  52              		.loc 1 95 0
  53 0008 0125     		movs	r5, #1
ARM GAS  C:\Users\DNIEL~1\AppData\Local\Temp\ccxp2FFG.s 			page 2


  54              		.loc 1 82 0
  55 000a 1423     		movs	r3, #20
  56              		.loc 1 79 0
  57 000c 0677     		strb	r6, [r0, #28]
  58              		.loc 1 80 0
  59 000e 4277     		strb	r2, [r0, #29]
  60              		.loc 1 82 0
  61 0010 C377     		strb	r3, [r0, #31]
  62              		.loc 1 95 0
  63 0012 8577     		strb	r5, [r0, #30]
  64              		.loc 1 99 0
  65 0014 6569     		ldr	r5, [r4, #20]
  66              		.loc 1 105 0
  67 0016 00F12C06 		add	r6, r0, #44
  68              		.loc 1 102 0
  69 001a 00F12807 		add	r7, r0, #40
  70              		.loc 1 99 0
  71 001e 0461     		str	r4, [r0, #16]
  72              		.loc 1 78 0
  73 0020 8160     		str	r1, [r0, #8]
  74              		.loc 1 99 0
  75 0022 4561     		str	r5, [r0, #20]
  76              		.loc 1 85 0
  77 0024 0164     		str	r1, [r0, #64]
  78              		.loc 1 99 0
  79 0026 6061     		str	r0, [r4, #20]
  80              		.loc 1 86 0
  81 0028 C263     		str	r2, [r0, #60]
  82              		.loc 1 89 0
  83 002a 8263     		str	r2, [r0, #56]
  84              		.loc 1 92 0
  85 002c 0262     		str	r2, [r0, #32]
  86              		.loc 1 98 0
  87 002e 8261     		str	r2, [r0, #24]
  88              		.loc 1 99 0
  89 0030 2861     		str	r0, [r5, #16]
  90              		.loc 1 102 0
  91 0032 8762     		str	r7, [r0, #40]
  92              		.loc 1 105 0
  93 0034 0663     		str	r6, [r0, #48]
  94 0036 C662     		str	r6, [r0, #44]
  95              		.loc 1 114 0
  96 0038 F0BC     		pop	{r4, r5, r6, r7}
  97 003a 7047     		bx	lr
  98              	.L3:
  99              		.align	2
 100              	.L2:
 101 003c 00000000 		.word	rlist
 102              		.cfi_endproc
 103              	.LFE0:
 104              		.size	_thread_init, .-_thread_init
 105              		.section	.text.chThdCreateI,"ax",%progbits
 106              		.align	2
 107              		.p2align 4,,15
 108              		.global	chThdCreateI
 109              		.thumb
 110              		.thumb_func
ARM GAS  C:\Users\DNIEL~1\AppData\Local\Temp\ccxp2FFG.s 			page 3


 111              		.type	chThdCreateI, %function
 112              	chThdCreateI:
 113              	.LFB1:
 114              		.loc 1 158 0
 115              		.cfi_startproc
 116              		@ args = 4, pretend = 0, frame = 0
 117              		@ frame_needed = 0, uses_anonymous_args = 0
 118              		@ link register save eliminated.
 119              	.LVL1:
 120              		.loc 1 167 0
 121 0000 2439     		subs	r1, r1, #36
 122              	.LVL2:
 123              		.loc 1 158 0
 124 0002 F0B4     		push	{r4, r5, r6, r7}
 125              	.LCFI1:
 126              		.cfi_def_cfa_offset 16
 127              		.loc 1 167 0
 128 0004 4718     		adds	r7, r0, r1
 129              		.cfi_offset 7, -4
 130              		.cfi_offset 6, -8
 131              		.cfi_offset 5, -12
 132              		.cfi_offset 4, -16
 133 0006 C760     		str	r7, [r0, #12]
 134 0008 4350     		str	r3, [r0, r1]
 135 000a 049B     		ldr	r3, [sp, #16]
 136              	.LVL3:
 137 000c 0F49     		ldr	r1, .L5
 138              	.LVL4:
 139 000e 7B60     		str	r3, [r7, #4]
 140 0010 3962     		str	r1, [r7, #32]
 141              	.LVL5:
 142              	.LBB4:
 143              	.LBB5:
 144              		.loc 1 80 0
 145 0012 0025     		movs	r5, #0
 146              		.loc 1 99 0
 147 0014 0E4E     		ldr	r6, .L5+4
 148              		.loc 1 79 0
 149 0016 0223     		movs	r3, #2
 150              		.loc 1 82 0
 151 0018 1421     		movs	r1, #20
 152              		.loc 1 95 0
 153 001a 0127     		movs	r7, #1
 154              	.LVL6:
 155              		.loc 1 82 0
 156 001c C177     		strb	r1, [r0, #31]
 157              		.loc 1 95 0
 158 001e 8777     		strb	r7, [r0, #30]
 159              		.loc 1 79 0
 160 0020 0377     		strb	r3, [r0, #28]
 161              		.loc 1 80 0
 162 0022 4577     		strb	r5, [r0, #29]
 163              		.loc 1 99 0
 164 0024 7369     		ldr	r3, [r6, #20]
 165              	.LVL7:
 166              		.loc 1 105 0
 167 0026 00F12C01 		add	r1, r0, #44
ARM GAS  C:\Users\DNIEL~1\AppData\Local\Temp\ccxp2FFG.s 			page 4


 168              		.loc 1 102 0
 169 002a 00F12807 		add	r7, r0, #40
 170              		.loc 1 99 0
 171 002e 0661     		str	r6, [r0, #16]
 172              		.loc 1 78 0
 173 0030 8260     		str	r2, [r0, #8]
 174              		.loc 1 99 0
 175 0032 4361     		str	r3, [r0, #20]
 176              		.loc 1 85 0
 177 0034 0264     		str	r2, [r0, #64]
 178              		.loc 1 99 0
 179 0036 7061     		str	r0, [r6, #20]
 180              		.loc 1 86 0
 181 0038 C563     		str	r5, [r0, #60]
 182              		.loc 1 89 0
 183 003a 8563     		str	r5, [r0, #56]
 184              		.loc 1 92 0
 185 003c 0562     		str	r5, [r0, #32]
 186              		.loc 1 98 0
 187 003e 8561     		str	r5, [r0, #24]
 188              		.loc 1 99 0
 189 0040 1861     		str	r0, [r3, #16]
 190              		.loc 1 102 0
 191 0042 8762     		str	r7, [r0, #40]
 192              		.loc 1 105 0
 193 0044 0163     		str	r1, [r0, #48]
 194 0046 C162     		str	r1, [r0, #44]
 195              	.LBE5:
 196              	.LBE4:
 197              		.loc 1 169 0
 198 0048 F0BC     		pop	{r4, r5, r6, r7}
 199 004a 7047     		bx	lr
 200              	.L6:
 201              		.align	2
 202              	.L5:
 203 004c 00000000 		.word	_port_thread_start
 204 0050 00000000 		.word	rlist
 205              		.cfi_endproc
 206              	.LFE1:
 207              		.size	chThdCreateI, .-chThdCreateI
 208 0054 AFF30080 		.section	.text.chThdCreateStatic,"ax",%progbits
 208      AFF30080 
 208      AFF30080 
 209              		.align	2
 210              		.p2align 4,,15
 211              		.global	chThdCreateStatic
 212              		.thumb
 213              		.thumb_func
 214              		.type	chThdCreateStatic, %function
 215              	chThdCreateStatic:
 216              	.LFB2:
 217              		.loc 1 188 0
 218              		.cfi_startproc
 219              		@ args = 4, pretend = 0, frame = 0
 220              		@ frame_needed = 0, uses_anonymous_args = 0
 221              	.LVL8:
 222 0000 10B5     		push	{r4, lr}
ARM GAS  C:\Users\DNIEL~1\AppData\Local\Temp\ccxp2FFG.s 			page 5


 223              	.LCFI2:
 224              		.cfi_def_cfa_offset 8
 225 0002 9C46     		mov	ip, r3
 226 0004 82B0     		sub	sp, sp, #8
 227              	.LCFI3:
 228              		.cfi_def_cfa_offset 16
 229              		.loc 1 199 0
 230              	@ 199 "../../../ChibiOS/os/kernel/src/chthreads.c" 1
 231 0006 FFF7FEFF 		bl      _port_lock
 232              	@ 0 "" 2
 233              	.LVL9:
 234              		.loc 1 200 0
 235              		.thumb
 236 000a 049C     		ldr	r4, [sp, #16]
 237              		.cfi_offset 14, -4
 238              		.cfi_offset 4, -8
 239 000c 6346     		mov	r3, ip
 240 000e 0094     		str	r4, [sp, #0]
 241 0010 FFF7FEFF 		bl	chThdCreateI
 242              	.LVL10:
 243 0014 0021     		movs	r1, #0
 244 0016 0446     		mov	r4, r0
 245              	.LVL11:
 246 0018 FFF7FEFF 		bl	chSchWakeupS
 247              	.LVL12:
 248              		.loc 1 201 0
 249              	@ 201 "../../../ChibiOS/os/kernel/src/chthreads.c" 1
 250 001c FFF7FEFF 		bl      _port_unlock
 251              	@ 0 "" 2
 252              		.loc 1 203 0
 253              		.thumb
 254 0020 2046     		mov	r0, r4
 255 0022 02B0     		add	sp, sp, #8
 256 0024 10BD     		pop	{r4, pc}
 257              		.cfi_endproc
 258              	.LFE2:
 259              		.size	chThdCreateStatic, .-chThdCreateStatic
 260 0026 00BFAFF3 		.section	.text.chThdSetPriority,"ax",%progbits
 260      0080AFF3 
 260      0080
 261              		.align	2
 262              		.p2align 4,,15
 263              		.global	chThdSetPriority
 264              		.thumb
 265              		.thumb_func
 266              		.type	chThdSetPriority, %function
 267              	chThdSetPriority:
 268              	.LFB3:
 269              		.loc 1 217 0
 270              		.cfi_startproc
 271              		@ args = 0, pretend = 0, frame = 0
 272              		@ frame_needed = 0, uses_anonymous_args = 0
 273              	.LVL13:
 274 0000 10B5     		push	{r4, lr}
 275              	.LCFI4:
 276              		.cfi_def_cfa_offset 8
 277              		.loc 1 217 0
ARM GAS  C:\Users\DNIEL~1\AppData\Local\Temp\ccxp2FFG.s 			page 6


 278 0002 0246     		mov	r2, r0
 279              		.loc 1 222 0
 280              	@ 222 "../../../ChibiOS/os/kernel/src/chthreads.c" 1
 281 0004 FFF7FEFF 		bl      _port_lock
 282              	@ 0 "" 2
 283              		.loc 1 224 0
 284              		.thumb
 285 0008 074B     		ldr	r3, .L12
 286 000a 9B69     		ldr	r3, [r3, #24]
 287 000c 1C6C     		ldr	r4, [r3, #64]
 288              		.cfi_offset 14, -4
 289              		.cfi_offset 4, -8
 290              	.LVL14:
 291              		.loc 1 225 0
 292 000e 9968     		ldr	r1, [r3, #8]
 293 0010 8C42     		cmp	r4, r1
 294 0012 01D0     		beq	.L9
 295              		.loc 1 225 0 is_stmt 0 discriminator 1
 296 0014 8142     		cmp	r1, r0
 297 0016 00D2     		bcs	.L10
 298              	.L9:
 299              		.loc 1 226 0 is_stmt 1
 300 0018 9A60     		str	r2, [r3, #8]
 301              	.L10:
 302              		.loc 1 227 0
 303 001a 1A64     		str	r2, [r3, #64]
 304              		.loc 1 232 0
 305 001c FFF7FEFF 		bl	chSchRescheduleS
 306              	.LVL15:
 307              		.loc 1 233 0
 308              	@ 233 "../../../ChibiOS/os/kernel/src/chthreads.c" 1
 309 0020 FFF7FEFF 		bl      _port_unlock
 310              	@ 0 "" 2
 311              		.loc 1 235 0
 312              		.thumb
 313 0024 2046     		mov	r0, r4
 314 0026 10BD     		pop	{r4, pc}
 315              	.L13:
 316              		.align	2
 317              	.L12:
 318 0028 00000000 		.word	rlist
 319              		.cfi_endproc
 320              	.LFE3:
 321              		.size	chThdSetPriority, .-chThdSetPriority
 322 002c AFF30080 		.section	.text.chThdResume,"ax",%progbits
 323              		.align	2
 324              		.p2align 4,,15
 325              		.global	chThdResume
 326              		.thumb
 327              		.thumb_func
 328              		.type	chThdResume, %function
 329              	chThdResume:
 330              	.LFB4:
 331              		.loc 1 250 0
 332              		.cfi_startproc
 333              		@ args = 0, pretend = 0, frame = 0
 334              		@ frame_needed = 0, uses_anonymous_args = 0
ARM GAS  C:\Users\DNIEL~1\AppData\Local\Temp\ccxp2FFG.s 			page 7


 335              	.LVL16:
 336 0000 10B5     		push	{r4, lr}
 337              	.LCFI5:
 338              		.cfi_def_cfa_offset 8
 339              		.loc 1 250 0
 340 0002 0446     		mov	r4, r0
 341              		.cfi_offset 14, -4
 342              		.cfi_offset 4, -8
 343              		.loc 1 252 0
 344              	@ 252 "../../../ChibiOS/os/kernel/src/chthreads.c" 1
 345 0004 FFF7FEFF 		bl      _port_lock
 346              	@ 0 "" 2
 347              		.loc 1 256 0
 348              		.thumb
 349 0008 0021     		movs	r1, #0
 350 000a FFF7FEFF 		bl	chSchWakeupS
 351              	.LVL17:
 352              		.loc 1 257 0
 353              	@ 257 "../../../ChibiOS/os/kernel/src/chthreads.c" 1
 354 000e FFF7FEFF 		bl      _port_unlock
 355              	@ 0 "" 2
 356              		.loc 1 259 0
 357              		.thumb
 358 0012 2046     		mov	r0, r4
 359 0014 10BD     		pop	{r4, pc}
 360              		.cfi_endproc
 361              	.LFE4:
 362              		.size	chThdResume, .-chThdResume
 363 0016 00BFAFF3 		.section	.text.chThdTerminate,"ax",%progbits
 363      0080AFF3 
 363      0080
 364              		.align	2
 365              		.p2align 4,,15
 366              		.global	chThdTerminate
 367              		.thumb
 368              		.thumb_func
 369              		.type	chThdTerminate, %function
 370              	chThdTerminate:
 371              	.LFB5:
 372              		.loc 1 273 0
 373              		.cfi_startproc
 374              		@ args = 0, pretend = 0, frame = 0
 375              		@ frame_needed = 0, uses_anonymous_args = 0
 376              	.LVL18:
 377 0000 00B5     		push	{lr}
 378              	.LCFI6:
 379              		.cfi_def_cfa_offset 4
 380              		.loc 1 275 0
 381              	@ 275 "../../../ChibiOS/os/kernel/src/chthreads.c" 1
 382 0002 FFF7FEFF 		bl      _port_lock
 383              	@ 0 "" 2
 384              		.loc 1 276 0
 385              		.thumb
 386 0006 417F     		ldrb	r1, [r0, #29]	@ zero_extendqisi2
 387 0008 41F00403 		orr	r3, r1, #4
 388 000c 4377     		strb	r3, [r0, #29]
 389              		.loc 1 277 0
ARM GAS  C:\Users\DNIEL~1\AppData\Local\Temp\ccxp2FFG.s 			page 8


 390              	@ 277 "../../../ChibiOS/os/kernel/src/chthreads.c" 1
 391 000e FFF7FEFF 		bl      _port_unlock
 392              	@ 0 "" 2
 393              		.loc 1 278 0
 394              		.thumb
 395 0012 5DF804FB 		ldr	pc, [sp], #4
 396              		.cfi_offset 14, -4
 397              		.cfi_endproc
 398              	.LFE5:
 399              		.size	chThdTerminate, .-chThdTerminate
 400 0016 00BFAFF3 		.section	.text.chThdSleep,"ax",%progbits
 400      0080AFF3 
 400      0080
 401              		.align	2
 402              		.p2align 4,,15
 403              		.global	chThdSleep
 404              		.thumb
 405              		.thumb_func
 406              		.type	chThdSleep, %function
 407              	chThdSleep:
 408              	.LFB6:
 409              		.loc 1 292 0
 410              		.cfi_startproc
 411              		@ args = 0, pretend = 0, frame = 0
 412              		@ frame_needed = 0, uses_anonymous_args = 0
 413              	.LVL19:
 414 0000 08B5     		push	{r3, lr}
 415              	.LCFI7:
 416              		.cfi_def_cfa_offset 8
 417              		.loc 1 292 0
 418 0002 0146     		mov	r1, r0
 419              		.loc 1 296 0
 420              	@ 296 "../../../ChibiOS/os/kernel/src/chthreads.c" 1
 421 0004 FFF7FEFF 		bl      _port_lock
 422              	@ 0 "" 2
 423              		.loc 1 297 0
 424              		.thumb
 425 0008 0620     		movs	r0, #6
 426              	.LVL20:
 427              		.cfi_offset 14, -4
 428              		.cfi_offset 3, -8
 429 000a FFF7FEFF 		bl	chSchGoSleepTimeoutS
 430              	.LVL21:
 431              		.loc 1 298 0
 432              	@ 298 "../../../ChibiOS/os/kernel/src/chthreads.c" 1
 433 000e FFF7FEFF 		bl      _port_unlock
 434              	@ 0 "" 2
 435              		.loc 1 299 0
 436              		.thumb
 437 0012 08BD     		pop	{r3, pc}
 438              		.cfi_endproc
 439              	.LFE6:
 440              		.size	chThdSleep, .-chThdSleep
 441 0014 AFF30080 		.section	.text.chThdSleepUntil,"ax",%progbits
 441      AFF30080 
 441      AFF30080 
 442              		.align	2
ARM GAS  C:\Users\DNIEL~1\AppData\Local\Temp\ccxp2FFG.s 			page 9


 443              		.p2align 4,,15
 444              		.global	chThdSleepUntil
 445              		.thumb
 446              		.thumb_func
 447              		.type	chThdSleepUntil, %function
 448              	chThdSleepUntil:
 449              	.LFB7:
 450              		.loc 1 309 0
 451              		.cfi_startproc
 452              		@ args = 0, pretend = 0, frame = 0
 453              		@ frame_needed = 0, uses_anonymous_args = 0
 454              	.LVL22:
 455 0000 08B5     		push	{r3, lr}
 456              	.LCFI8:
 457              		.cfi_def_cfa_offset 8
 458              		.loc 1 311 0
 459              	@ 311 "../../../ChibiOS/os/kernel/src/chthreads.c" 1
 460 0002 FFF7FEFF 		bl      _port_lock
 461              	@ 0 "" 2
 462              		.loc 1 312 0
 463              		.thumb
 464 0006 054B     		ldr	r3, .L19
 465              		.cfi_offset 14, -4
 466              		.cfi_offset 3, -8
 467 0008 D968     		ldr	r1, [r3, #12]
 468              	.LVL23:
 469 000a 411A     		subs	r1, r0, r1
 470              	.LVL24:
 471 000c 02D0     		beq	.L18
 472              		.loc 1 313 0
 473 000e 0620     		movs	r0, #6
 474 0010 FFF7FEFF 		bl	chSchGoSleepTimeoutS
 475              	.LVL25:
 476              	.L18:
 477              		.loc 1 314 0
 478              	@ 314 "../../../ChibiOS/os/kernel/src/chthreads.c" 1
 479 0014 FFF7FEFF 		bl      _port_unlock
 480              	@ 0 "" 2
 481              		.loc 1 315 0
 482              		.thumb
 483 0018 08BD     		pop	{r3, pc}
 484              	.L20:
 485 001a 00BF     		.align	2
 486              	.L19:
 487 001c 00000000 		.word	vtlist
 488              		.cfi_endproc
 489              	.LFE7:
 490              		.size	chThdSleepUntil, .-chThdSleepUntil
 491              		.section	.text.chThdYield,"ax",%progbits
 492              		.align	2
 493              		.p2align 4,,15
 494              		.global	chThdYield
 495              		.thumb
 496              		.thumb_func
 497              		.type	chThdYield, %function
 498              	chThdYield:
 499              	.LFB8:
ARM GAS  C:\Users\DNIEL~1\AppData\Local\Temp\ccxp2FFG.s 			page 10


 500              		.loc 1 324 0
 501              		.cfi_startproc
 502              		@ args = 0, pretend = 0, frame = 0
 503              		@ frame_needed = 0, uses_anonymous_args = 0
 504 0000 08B5     		push	{r3, lr}
 505              	.LCFI9:
 506              		.cfi_def_cfa_offset 8
 507              		.loc 1 326 0
 508              	@ 326 "../../../ChibiOS/os/kernel/src/chthreads.c" 1
 509 0002 FFF7FEFF 		bl      _port_lock
 510              	@ 0 "" 2
 511              		.loc 1 327 0
 512              		.thumb
 513 0006 064A     		ldr	r2, .L23
 514 0008 9069     		ldr	r0, [r2, #24]
 515 000a 1168     		ldr	r1, [r2, #0]
 516 000c 8368     		ldr	r3, [r0, #8]
 517              		.cfi_offset 14, -4
 518              		.cfi_offset 3, -8
 519 000e 8A68     		ldr	r2, [r1, #8]
 520 0010 9A42     		cmp	r2, r3
 521 0012 01D3     		bcc	.L22
 522              		.loc 1 327 0 is_stmt 0 discriminator 1
 523 0014 FFF7FEFF 		bl	chSchDoRescheduleBehind
 524              	.L22:
 525              		.loc 1 328 0 is_stmt 1
 526              	@ 328 "../../../ChibiOS/os/kernel/src/chthreads.c" 1
 527 0018 FFF7FEFF 		bl      _port_unlock
 528              	@ 0 "" 2
 529              		.loc 1 329 0
 530              		.thumb
 531 001c 08BD     		pop	{r3, pc}
 532              	.L24:
 533 001e 00BF     		.align	2
 534              	.L23:
 535 0020 00000000 		.word	rlist
 536              		.cfi_endproc
 537              	.LFE8:
 538              		.size	chThdYield, .-chThdYield
 539 0024 AFF30080 		.section	.text.chThdExitS,"ax",%progbits
 539      AFF30080 
 539      AFF30080 
 540              		.align	2
 541              		.p2align 4,,15
 542              		.global	chThdExitS
 543              		.thumb
 544              		.thumb_func
 545              		.type	chThdExitS, %function
 546              	chThdExitS:
 547              	.LFB10:
 548              		.loc 1 366 0
 549              		.cfi_startproc
 550              		@ args = 0, pretend = 0, frame = 0
 551              		@ frame_needed = 0, uses_anonymous_args = 0
 552              	.LVL26:
 553              		.loc 1 367 0
 554 0000 0F49     		ldr	r1, .L31
ARM GAS  C:\Users\DNIEL~1\AppData\Local\Temp\ccxp2FFG.s 			page 11


 555              		.loc 1 366 0
 556 0002 70B5     		push	{r4, r5, r6, lr}
 557              	.LCFI10:
 558              		.cfi_def_cfa_offset 16
 559              		.loc 1 367 0
 560 0004 8D69     		ldr	r5, [r1, #24]
 561              		.cfi_offset 14, -4
 562              		.cfi_offset 6, -8
 563              		.cfi_offset 5, -12
 564              		.cfi_offset 4, -16
 565              	.LVL27:
 566              		.loc 1 374 0
 567 0006 AB6A     		ldr	r3, [r5, #40]
 568 0008 05F12804 		add	r4, r5, #40
 569 000c A342     		cmp	r3, r4
 570              		.loc 1 369 0
 571 000e 6862     		str	r0, [r5, #36]
 572              		.loc 1 374 0
 573 0010 07D0     		beq	.L26
 574              	.LVL28:
 575              	.L29:
 576              		.loc 1 375 0
 577 0012 2046     		mov	r0, r4
 578 0014 FFF7FEFF 		bl	list_remove
 579 0018 FFF7FEFF 		bl	chSchReadyI
 580              		.loc 1 374 0
 581 001c A86A     		ldr	r0, [r5, #40]
 582 001e A042     		cmp	r0, r4
 583 0020 F7D1     		bne	.L29
 584              	.L26:
 585              		.loc 1 380 0
 586 0022 6A7F     		ldrb	r2, [r5, #29]	@ zero_extendqisi2
 587 0024 12F0030F 		tst	r2, #3
 588 0028 04D1     		bne	.L28
 589              		.loc 1 381 0
 590 002a 6B69     		ldr	r3, [r5, #20]
 591 002c 2869     		ldr	r0, [r5, #16]
 592 002e 1861     		str	r0, [r3, #16]
 593 0030 2969     		ldr	r1, [r5, #16]
 594 0032 4B61     		str	r3, [r1, #20]
 595              	.L28:
 596              		.loc 1 383 0
 597 0034 0E20     		movs	r0, #14
 598              		.loc 1 386 0
 599 0036 BDE87040 		pop	{r4, r5, r6, lr}
 600              		.loc 1 383 0
 601 003a FFF7FEBF 		b	chSchGoSleepS
 602              	.L32:
 603 003e 00BF     		.align	2
 604              	.L31:
 605 0040 00000000 		.word	rlist
 606              		.cfi_endproc
 607              	.LFE10:
 608              		.size	chThdExitS, .-chThdExitS
 609 0044 AFF30080 		.section	.text.chThdExit,"ax",%progbits
 609      AFF30080 
 609      AFF30080 
ARM GAS  C:\Users\DNIEL~1\AppData\Local\Temp\ccxp2FFG.s 			page 12


 610              		.align	2
 611              		.p2align 4,,15
 612              		.global	chThdExit
 613              		.thumb
 614              		.thumb_func
 615              		.type	chThdExit, %function
 616              	chThdExit:
 617              	.LFB9:
 618              		.loc 1 345 0
 619              		.cfi_startproc
 620              		@ args = 0, pretend = 0, frame = 0
 621              		@ frame_needed = 0, uses_anonymous_args = 0
 622              	.LVL29:
 623 0000 00B5     		push	{lr}
 624              	.LCFI11:
 625              		.cfi_def_cfa_offset 4
 626              		.loc 1 347 0
 627              	@ 347 "../../../ChibiOS/os/kernel/src/chthreads.c" 1
 628 0002 FFF7FEFF 		bl      _port_lock
 629              	@ 0 "" 2
 630              		.loc 1 350 0
 631              		.thumb
 632 0006 5DF804EB 		ldr	lr, [sp], #4
 633              		.loc 1 348 0
 634              		.cfi_offset 14, -4
 635 000a FFF7FEBF 		b	chThdExitS
 636              		.cfi_endproc
 637              	.LFE9:
 638              		.size	chThdExit, .-chThdExit
 639 000e 00BF     		.section	.text.chThdWait,"ax",%progbits
 640              		.align	2
 641              		.p2align 4,,15
 642              		.global	chThdWait
 643              		.thumb
 644              		.thumb_func
 645              		.type	chThdWait, %function
 646              	chThdWait:
 647              	.LFB11:
 648              		.loc 1 420 0
 649              		.cfi_startproc
 650              		@ args = 0, pretend = 0, frame = 0
 651              		@ frame_needed = 0, uses_anonymous_args = 0
 652              	.LVL30:
 653 0000 38B5     		push	{r3, r4, r5, lr}
 654              	.LCFI12:
 655              		.cfi_def_cfa_offset 16
 656              		.loc 1 420 0
 657 0002 0446     		mov	r4, r0
 658              		.cfi_offset 14, -4
 659              		.cfi_offset 5, -8
 660              		.cfi_offset 4, -12
 661              		.cfi_offset 3, -16
 662              		.loc 1 425 0
 663              	@ 425 "../../../ChibiOS/os/kernel/src/chthreads.c" 1
 664 0004 FFF7FEFF 		bl      _port_lock
 665              	@ 0 "" 2
 666              		.loc 1 430 0
ARM GAS  C:\Users\DNIEL~1\AppData\Local\Temp\ccxp2FFG.s 			page 13


 667              		.thumb
 668 0008 037F     		ldrb	r3, [r0, #28]	@ zero_extendqisi2
 669 000a 0E2B     		cmp	r3, #14
 670 000c 08D0     		beq	.L35
 671              		.loc 1 431 0
 672 000e 00F12801 		add	r1, r0, #40
 673 0012 0748     		ldr	r0, .L36
 674              	.LVL31:
 675 0014 8069     		ldr	r0, [r0, #24]
 676 0016 FFF7FEFF 		bl	list_insert
 677              		.loc 1 432 0
 678 001a 0720     		movs	r0, #7
 679 001c FFF7FEFF 		bl	chSchGoSleepS
 680              	.L35:
 681              		.loc 1 434 0
 682 0020 656A     		ldr	r5, [r4, #36]
 683              	.LVL32:
 684              		.loc 1 435 0
 685              	@ 435 "../../../ChibiOS/os/kernel/src/chthreads.c" 1
 686 0022 FFF7FEFF 		bl      _port_unlock
 687              	@ 0 "" 2
 688              		.loc 1 437 0
 689              		.thumb
 690 0026 2046     		mov	r0, r4
 691 0028 FFF7FEFF 		bl	chThdRelease
 692              	.LVL33:
 693              		.loc 1 440 0
 694 002c 2846     		mov	r0, r5
 695 002e 38BD     		pop	{r3, r4, r5, pc}
 696              	.L37:
 697              		.align	2
 698              	.L36:
 699 0030 00000000 		.word	rlist
 700              		.cfi_endproc
 701              	.LFE11:
 702              		.size	chThdWait, .-chThdWait
 703 0034 AFF30080 		.text
 703      AFF30080 
 703      AFF30080 
 704              	.Letext0:
 705              		.section	.debug_loc,"",%progbits
 706              	.Ldebug_loc0:
 707              	.LLST0:
 708 0000 00000000 		.4byte	.LFB0
 709 0004 02000000 		.4byte	.LCFI0
 710 0008 0200     		.2byte	0x2
 711 000a 7D       		.byte	0x7d
 712 000b 00       		.sleb128 0
 713 000c 02000000 		.4byte	.LCFI0
 714 0010 40000000 		.4byte	.LFE0
 715 0014 0200     		.2byte	0x2
 716 0016 7D       		.byte	0x7d
 717 0017 10       		.sleb128 16
 718 0018 00000000 		.4byte	0x0
 719 001c 00000000 		.4byte	0x0
 720              	.LLST1:
 721 0020 00000000 		.4byte	.LFB1
ARM GAS  C:\Users\DNIEL~1\AppData\Local\Temp\ccxp2FFG.s 			page 14


 722 0024 04000000 		.4byte	.LCFI1
 723 0028 0200     		.2byte	0x2
 724 002a 7D       		.byte	0x7d
 725 002b 00       		.sleb128 0
 726 002c 04000000 		.4byte	.LCFI1
 727 0030 54000000 		.4byte	.LFE1
 728 0034 0200     		.2byte	0x2
 729 0036 7D       		.byte	0x7d
 730 0037 10       		.sleb128 16
 731 0038 00000000 		.4byte	0x0
 732 003c 00000000 		.4byte	0x0
 733              	.LLST2:
 734 0040 00000000 		.4byte	.LVL1
 735 0044 02000000 		.4byte	.LVL2
 736 0048 0100     		.2byte	0x1
 737 004a 51       		.byte	0x51
 738 004b 02000000 		.4byte	.LVL2
 739 004f 0E000000 		.4byte	.LVL4
 740 0053 0300     		.2byte	0x3
 741 0055 71       		.byte	0x71
 742 0056 24       		.sleb128 36
 743 0057 9F       		.byte	0x9f
 744 0058 00000000 		.4byte	0x0
 745 005c 00000000 		.4byte	0x0
 746              	.LLST3:
 747 0060 00000000 		.4byte	.LVL1
 748 0064 0C000000 		.4byte	.LVL3
 749 0068 0100     		.2byte	0x1
 750 006a 53       		.byte	0x53
 751 006b 0C000000 		.4byte	.LVL3
 752 006f 1C000000 		.4byte	.LVL6
 753 0073 0200     		.2byte	0x2
 754 0075 77       		.byte	0x77
 755 0076 00       		.sleb128 0
 756 0077 1C000000 		.4byte	.LVL6
 757 007b 54000000 		.4byte	.LFE1
 758 007f 0300     		.2byte	0x3
 759 0081 70       		.byte	0x70
 760 0082 0C       		.sleb128 12
 761 0083 06       		.byte	0x6
 762 0084 00000000 		.4byte	0x0
 763 0088 00000000 		.4byte	0x0
 764              	.LLST4:
 765 008c 00000000 		.4byte	.LFB2
 766 0090 02000000 		.4byte	.LCFI2
 767 0094 0200     		.2byte	0x2
 768 0096 7D       		.byte	0x7d
 769 0097 00       		.sleb128 0
 770 0098 02000000 		.4byte	.LCFI2
 771 009c 06000000 		.4byte	.LCFI3
 772 00a0 0200     		.2byte	0x2
 773 00a2 7D       		.byte	0x7d
 774 00a3 08       		.sleb128 8
 775 00a4 06000000 		.4byte	.LCFI3
 776 00a8 26000000 		.4byte	.LFE2
 777 00ac 0200     		.2byte	0x2
 778 00ae 7D       		.byte	0x7d
ARM GAS  C:\Users\DNIEL~1\AppData\Local\Temp\ccxp2FFG.s 			page 15


 779 00af 10       		.sleb128 16
 780 00b0 00000000 		.4byte	0x0
 781 00b4 00000000 		.4byte	0x0
 782              	.LLST5:
 783 00b8 00000000 		.4byte	.LVL8
 784 00bc 13000000 		.4byte	.LVL10-1
 785 00c0 0100     		.2byte	0x1
 786 00c2 50       		.byte	0x50
 787 00c3 00000000 		.4byte	0x0
 788 00c7 00000000 		.4byte	0x0
 789              	.LLST6:
 790 00cb 00000000 		.4byte	.LVL8
 791 00cf 13000000 		.4byte	.LVL10-1
 792 00d3 0100     		.2byte	0x1
 793 00d5 51       		.byte	0x51
 794 00d6 00000000 		.4byte	0x0
 795 00da 00000000 		.4byte	0x0
 796              	.LLST7:
 797 00de 00000000 		.4byte	.LVL8
 798 00e2 13000000 		.4byte	.LVL10-1
 799 00e6 0100     		.2byte	0x1
 800 00e8 52       		.byte	0x52
 801 00e9 00000000 		.4byte	0x0
 802 00ed 00000000 		.4byte	0x0
 803              	.LLST8:
 804 00f1 00000000 		.4byte	.LVL8
 805 00f5 0A000000 		.4byte	.LVL9
 806 00f9 0100     		.2byte	0x1
 807 00fb 53       		.byte	0x53
 808 00fc 0A000000 		.4byte	.LVL9
 809 0100 13000000 		.4byte	.LVL10-1
 810 0104 0100     		.2byte	0x1
 811 0106 5C       		.byte	0x5c
 812 0107 00000000 		.4byte	0x0
 813 010b 00000000 		.4byte	0x0
 814              	.LLST9:
 815 010f 18000000 		.4byte	.LVL11
 816 0113 1B000000 		.4byte	.LVL12-1
 817 0117 0100     		.2byte	0x1
 818 0119 50       		.byte	0x50
 819 011a 1B000000 		.4byte	.LVL12-1
 820 011e 26000000 		.4byte	.LFE2
 821 0122 0100     		.2byte	0x1
 822 0124 54       		.byte	0x54
 823 0125 00000000 		.4byte	0x0
 824 0129 00000000 		.4byte	0x0
 825              	.LLST10:
 826 012d 00000000 		.4byte	.LFB3
 827 0131 02000000 		.4byte	.LCFI4
 828 0135 0200     		.2byte	0x2
 829 0137 7D       		.byte	0x7d
 830 0138 00       		.sleb128 0
 831 0139 02000000 		.4byte	.LCFI4
 832 013d 2C000000 		.4byte	.LFE3
 833 0141 0200     		.2byte	0x2
 834 0143 7D       		.byte	0x7d
 835 0144 08       		.sleb128 8
ARM GAS  C:\Users\DNIEL~1\AppData\Local\Temp\ccxp2FFG.s 			page 16


 836 0145 00000000 		.4byte	0x0
 837 0149 00000000 		.4byte	0x0
 838              	.LLST11:
 839 014d 00000000 		.4byte	.LVL13
 840 0151 1F000000 		.4byte	.LVL15-1
 841 0155 0100     		.2byte	0x1
 842 0157 50       		.byte	0x50
 843 0158 00000000 		.4byte	0x0
 844 015c 00000000 		.4byte	0x0
 845              	.LLST12:
 846 0160 00000000 		.4byte	.LFB4
 847 0164 02000000 		.4byte	.LCFI5
 848 0168 0200     		.2byte	0x2
 849 016a 7D       		.byte	0x7d
 850 016b 00       		.sleb128 0
 851 016c 02000000 		.4byte	.LCFI5
 852 0170 16000000 		.4byte	.LFE4
 853 0174 0200     		.2byte	0x2
 854 0176 7D       		.byte	0x7d
 855 0177 08       		.sleb128 8
 856 0178 00000000 		.4byte	0x0
 857 017c 00000000 		.4byte	0x0
 858              	.LLST13:
 859 0180 00000000 		.4byte	.LVL16
 860 0184 0D000000 		.4byte	.LVL17-1
 861 0188 0100     		.2byte	0x1
 862 018a 50       		.byte	0x50
 863 018b 0D000000 		.4byte	.LVL17-1
 864 018f 16000000 		.4byte	.LFE4
 865 0193 0100     		.2byte	0x1
 866 0195 54       		.byte	0x54
 867 0196 00000000 		.4byte	0x0
 868 019a 00000000 		.4byte	0x0
 869              	.LLST14:
 870 019e 00000000 		.4byte	.LFB5
 871 01a2 02000000 		.4byte	.LCFI6
 872 01a6 0200     		.2byte	0x2
 873 01a8 7D       		.byte	0x7d
 874 01a9 00       		.sleb128 0
 875 01aa 02000000 		.4byte	.LCFI6
 876 01ae 16000000 		.4byte	.LFE5
 877 01b2 0200     		.2byte	0x2
 878 01b4 7D       		.byte	0x7d
 879 01b5 04       		.sleb128 4
 880 01b6 00000000 		.4byte	0x0
 881 01ba 00000000 		.4byte	0x0
 882              	.LLST15:
 883 01be 00000000 		.4byte	.LFB6
 884 01c2 02000000 		.4byte	.LCFI7
 885 01c6 0200     		.2byte	0x2
 886 01c8 7D       		.byte	0x7d
 887 01c9 00       		.sleb128 0
 888 01ca 02000000 		.4byte	.LCFI7
 889 01ce 14000000 		.4byte	.LFE6
 890 01d2 0200     		.2byte	0x2
 891 01d4 7D       		.byte	0x7d
 892 01d5 08       		.sleb128 8
ARM GAS  C:\Users\DNIEL~1\AppData\Local\Temp\ccxp2FFG.s 			page 17


 893 01d6 00000000 		.4byte	0x0
 894 01da 00000000 		.4byte	0x0
 895              	.LLST16:
 896 01de 00000000 		.4byte	.LVL19
 897 01e2 0A000000 		.4byte	.LVL20
 898 01e6 0100     		.2byte	0x1
 899 01e8 50       		.byte	0x50
 900 01e9 0A000000 		.4byte	.LVL20
 901 01ed 0D000000 		.4byte	.LVL21-1
 902 01f1 0100     		.2byte	0x1
 903 01f3 51       		.byte	0x51
 904 01f4 00000000 		.4byte	0x0
 905 01f8 00000000 		.4byte	0x0
 906              	.LLST17:
 907 01fc 00000000 		.4byte	.LFB7
 908 0200 02000000 		.4byte	.LCFI8
 909 0204 0200     		.2byte	0x2
 910 0206 7D       		.byte	0x7d
 911 0207 00       		.sleb128 0
 912 0208 02000000 		.4byte	.LCFI8
 913 020c 20000000 		.4byte	.LFE7
 914 0210 0200     		.2byte	0x2
 915 0212 7D       		.byte	0x7d
 916 0213 08       		.sleb128 8
 917 0214 00000000 		.4byte	0x0
 918 0218 00000000 		.4byte	0x0
 919              	.LLST18:
 920 021c 00000000 		.4byte	.LVL22
 921 0220 0A000000 		.4byte	.LVL23
 922 0224 0100     		.2byte	0x1
 923 0226 50       		.byte	0x50
 924 0227 0A000000 		.4byte	.LVL23
 925 022b 0C000000 		.4byte	.LVL24
 926 022f 0600     		.2byte	0x6
 927 0231 70       		.byte	0x70
 928 0232 00       		.sleb128 0
 929 0233 71       		.byte	0x71
 930 0234 00       		.sleb128 0
 931 0235 1C       		.byte	0x1c
 932 0236 9F       		.byte	0x9f
 933 0237 0C000000 		.4byte	.LVL24
 934 023b 13000000 		.4byte	.LVL25-1
 935 023f 0100     		.2byte	0x1
 936 0241 51       		.byte	0x51
 937 0242 00000000 		.4byte	0x0
 938 0246 00000000 		.4byte	0x0
 939              	.LLST19:
 940 024a 00000000 		.4byte	.LFB8
 941 024e 02000000 		.4byte	.LCFI9
 942 0252 0200     		.2byte	0x2
 943 0254 7D       		.byte	0x7d
 944 0255 00       		.sleb128 0
 945 0256 02000000 		.4byte	.LCFI9
 946 025a 24000000 		.4byte	.LFE8
 947 025e 0200     		.2byte	0x2
 948 0260 7D       		.byte	0x7d
 949 0261 08       		.sleb128 8
ARM GAS  C:\Users\DNIEL~1\AppData\Local\Temp\ccxp2FFG.s 			page 18


 950 0262 00000000 		.4byte	0x0
 951 0266 00000000 		.4byte	0x0
 952              	.LLST20:
 953 026a 00000000 		.4byte	.LFB10
 954 026e 04000000 		.4byte	.LCFI10
 955 0272 0200     		.2byte	0x2
 956 0274 7D       		.byte	0x7d
 957 0275 00       		.sleb128 0
 958 0276 04000000 		.4byte	.LCFI10
 959 027a 44000000 		.4byte	.LFE10
 960 027e 0200     		.2byte	0x2
 961 0280 7D       		.byte	0x7d
 962 0281 10       		.sleb128 16
 963 0282 00000000 		.4byte	0x0
 964 0286 00000000 		.4byte	0x0
 965              	.LLST21:
 966 028a 00000000 		.4byte	.LVL26
 967 028e 12000000 		.4byte	.LVL28
 968 0292 0100     		.2byte	0x1
 969 0294 50       		.byte	0x50
 970 0295 00000000 		.4byte	0x0
 971 0299 00000000 		.4byte	0x0
 972              	.LLST22:
 973 029d 06000000 		.4byte	.LVL27
 974 02a1 12000000 		.4byte	.LVL28
 975 02a5 0200     		.2byte	0x2
 976 02a7 71       		.byte	0x71
 977 02a8 18       		.sleb128 24
 978 02a9 12000000 		.4byte	.LVL28
 979 02ad 44000000 		.4byte	.LFE10
 980 02b1 0100     		.2byte	0x1
 981 02b3 55       		.byte	0x55
 982 02b4 00000000 		.4byte	0x0
 983 02b8 00000000 		.4byte	0x0
 984              	.LLST23:
 985 02bc 00000000 		.4byte	.LFB9
 986 02c0 02000000 		.4byte	.LCFI11
 987 02c4 0200     		.2byte	0x2
 988 02c6 7D       		.byte	0x7d
 989 02c7 00       		.sleb128 0
 990 02c8 02000000 		.4byte	.LCFI11
 991 02cc 0E000000 		.4byte	.LFE9
 992 02d0 0200     		.2byte	0x2
 993 02d2 7D       		.byte	0x7d
 994 02d3 04       		.sleb128 4
 995 02d4 00000000 		.4byte	0x0
 996 02d8 00000000 		.4byte	0x0
 997              	.LLST24:
 998 02dc 00000000 		.4byte	.LFB11
 999 02e0 02000000 		.4byte	.LCFI12
 1000 02e4 0200     		.2byte	0x2
 1001 02e6 7D       		.byte	0x7d
 1002 02e7 00       		.sleb128 0
 1003 02e8 02000000 		.4byte	.LCFI12
 1004 02ec 34000000 		.4byte	.LFE11
 1005 02f0 0200     		.2byte	0x2
 1006 02f2 7D       		.byte	0x7d
ARM GAS  C:\Users\DNIEL~1\AppData\Local\Temp\ccxp2FFG.s 			page 19


 1007 02f3 10       		.sleb128 16
 1008 02f4 00000000 		.4byte	0x0
 1009 02f8 00000000 		.4byte	0x0
 1010              	.LLST25:
 1011 02fc 00000000 		.4byte	.LVL30
 1012 0300 14000000 		.4byte	.LVL31
 1013 0304 0100     		.2byte	0x1
 1014 0306 50       		.byte	0x50
 1015 0307 14000000 		.4byte	.LVL31
 1016 030b 34000000 		.4byte	.LFE11
 1017 030f 0100     		.2byte	0x1
 1018 0311 54       		.byte	0x54
 1019 0312 00000000 		.4byte	0x0
 1020 0316 00000000 		.4byte	0x0
 1021              	.LLST26:
 1022 031a 22000000 		.4byte	.LVL32
 1023 031e 2B000000 		.4byte	.LVL33-1
 1024 0322 0200     		.2byte	0x2
 1025 0324 74       		.byte	0x74
 1026 0325 24       		.sleb128 36
 1027 0326 2B000000 		.4byte	.LVL33-1
 1028 032a 34000000 		.4byte	.LFE11
 1029 032e 0100     		.2byte	0x1
 1030 0330 55       		.byte	0x55
 1031 0331 00000000 		.4byte	0x0
 1032 0335 00000000 		.4byte	0x0
 1033              		.file 2 "c:\\program files (x86)\\codesourcery\\sourcery g++ lite\\bin\\../lib/gcc/arm-none-eabi/4
 1034              		.file 3 "c:\\program files (x86)\\codesourcery\\sourcery g++ lite\\bin\\../lib/gcc/arm-none-eabi/4
 1035              		.file 4 "../../../ChibiOS/os/ports/GCC/ARMCMx/chtypes.h"
 1036              		.file 5 "../../../ChibiOS/os/kernel/include/chlists.h"
 1037              		.file 6 "../../../ChibiOS/os/kernel/include/chthreads.h"
 1038              		.file 7 "../../../ChibiOS/os/ports/GCC/ARMCMx/chcore_v7m.h"
 1039              		.file 8 "../../../ChibiOS/os/kernel/include/chvt.h"
 1040              		.file 9 "../../../ChibiOS/os/kernel/include/chschd.h"
 1041              		.file 10 "../../../ChibiOS/os/kernel/include/chmtx.h"
 1042              		.section	.debug_info
 1043 0000 4A080000 		.4byte	0x84a
 1044 0004 0200     		.2byte	0x2
 1045 0006 00000000 		.4byte	.Ldebug_abbrev0
 1046 000a 04       		.byte	0x4
 1047 000b 01       		.uleb128 0x1
 1048 000c 98030000 		.4byte	.LASF90
 1049 0010 01       		.byte	0x1
 1050 0011 D1000000 		.4byte	.LASF91
 1051 0015 3B010000 		.4byte	.LASF92
 1052 0019 00000000 		.4byte	0x0
 1053 001d 00000000 		.4byte	0x0
 1054 0021 00000000 		.4byte	.Ldebug_ranges0+0x0
 1055 0025 00000000 		.4byte	.Ldebug_line0
 1056 0029 02       		.uleb128 0x2
 1057 002a 04       		.byte	0x4
 1058 002b 05       		.byte	0x5
 1059 002c 696E7400 		.ascii	"int\000"
 1060 0030 03       		.uleb128 0x3
 1061 0031 0E000000 		.4byte	.LASF2
 1062 0035 02       		.byte	0x2
 1063 0036 D3       		.byte	0xd3
ARM GAS  C:\Users\DNIEL~1\AppData\Local\Temp\ccxp2FFG.s 			page 20


 1064 0037 3B000000 		.4byte	0x3b
 1065 003b 04       		.uleb128 0x4
 1066 003c 04       		.byte	0x4
 1067 003d 07       		.byte	0x7
 1068 003e 26010000 		.4byte	.LASF0
 1069 0042 04       		.uleb128 0x4
 1070 0043 01       		.byte	0x1
 1071 0044 06       		.byte	0x6
 1072 0045 68000000 		.4byte	.LASF1
 1073 0049 03       		.uleb128 0x3
 1074 004a 7E030000 		.4byte	.LASF3
 1075 004e 03       		.byte	0x3
 1076 004f 2A       		.byte	0x2a
 1077 0050 54000000 		.4byte	0x54
 1078 0054 04       		.uleb128 0x4
 1079 0055 01       		.byte	0x1
 1080 0056 08       		.byte	0x8
 1081 0057 7A020000 		.4byte	.LASF4
 1082 005b 04       		.uleb128 0x4
 1083 005c 02       		.byte	0x2
 1084 005d 05       		.byte	0x5
 1085 005e 92020000 		.4byte	.LASF5
 1086 0062 04       		.uleb128 0x4
 1087 0063 02       		.byte	0x2
 1088 0064 07       		.byte	0x7
 1089 0065 87010000 		.4byte	.LASF6
 1090 0069 03       		.uleb128 0x3
 1091 006a 72020000 		.4byte	.LASF7
 1092 006e 03       		.byte	0x3
 1093 006f 4F       		.byte	0x4f
 1094 0070 74000000 		.4byte	0x74
 1095 0074 04       		.uleb128 0x4
 1096 0075 04       		.byte	0x4
 1097 0076 05       		.byte	0x5
 1098 0077 B7000000 		.4byte	.LASF8
 1099 007b 03       		.uleb128 0x3
 1100 007c DD020000 		.4byte	.LASF9
 1101 0080 03       		.byte	0x3
 1102 0081 50       		.byte	0x50
 1103 0082 86000000 		.4byte	0x86
 1104 0086 04       		.uleb128 0x4
 1105 0087 04       		.byte	0x4
 1106 0088 07       		.byte	0x7
 1107 0089 7E000000 		.4byte	.LASF10
 1108 008d 04       		.uleb128 0x4
 1109 008e 08       		.byte	0x8
 1110 008f 05       		.byte	0x5
 1111 0090 5A000000 		.4byte	.LASF11
 1112 0094 04       		.uleb128 0x4
 1113 0095 08       		.byte	0x8
 1114 0096 07       		.byte	0x7
 1115 0097 33000000 		.4byte	.LASF12
 1116 009b 04       		.uleb128 0x4
 1117 009c 01       		.byte	0x1
 1118 009d 02       		.byte	0x2
 1119 009e 6C020000 		.4byte	.LASF13
 1120 00a2 03       		.uleb128 0x3
ARM GAS  C:\Users\DNIEL~1\AppData\Local\Temp\ccxp2FFG.s 			page 21


 1121 00a3 A8010000 		.4byte	.LASF14
 1122 00a7 04       		.byte	0x4
 1123 00a8 2C       		.byte	0x2c
 1124 00a9 49000000 		.4byte	0x49
 1125 00ad 03       		.uleb128 0x3
 1126 00ae C0000000 		.4byte	.LASF15
 1127 00b2 04       		.byte	0x4
 1128 00b3 2D       		.byte	0x2d
 1129 00b4 49000000 		.4byte	0x49
 1130 00b8 03       		.uleb128 0x3
 1131 00b9 55020000 		.4byte	.LASF16
 1132 00bd 04       		.byte	0x4
 1133 00be 2E       		.byte	0x2e
 1134 00bf 49000000 		.4byte	0x49
 1135 00c3 03       		.uleb128 0x3
 1136 00c4 A0000000 		.4byte	.LASF17
 1137 00c8 04       		.byte	0x4
 1138 00c9 2F       		.byte	0x2f
 1139 00ca 49000000 		.4byte	0x49
 1140 00ce 03       		.uleb128 0x3
 1141 00cf 64020000 		.4byte	.LASF18
 1142 00d3 04       		.byte	0x4
 1143 00d4 30       		.byte	0x30
 1144 00d5 7B000000 		.4byte	0x7b
 1145 00d9 03       		.uleb128 0x3
 1146 00da 9A010000 		.4byte	.LASF19
 1147 00de 04       		.byte	0x4
 1148 00df 31       		.byte	0x31
 1149 00e0 69000000 		.4byte	0x69
 1150 00e4 03       		.uleb128 0x3
 1151 00e5 CB010000 		.4byte	.LASF20
 1152 00e9 04       		.byte	0x4
 1153 00ea 33       		.byte	0x33
 1154 00eb 7B000000 		.4byte	0x7b
 1155 00ef 03       		.uleb128 0x3
 1156 00f0 14030000 		.4byte	.LASF21
 1157 00f4 04       		.byte	0x4
 1158 00f5 35       		.byte	0x35
 1159 00f6 7B000000 		.4byte	0x7b
 1160 00fa 03       		.uleb128 0x3
 1161 00fb CB020000 		.4byte	.LASF22
 1162 00ff 05       		.byte	0x5
 1163 0100 2A       		.byte	0x2a
 1164 0101 05010000 		.4byte	0x105
 1165 0105 05       		.uleb128 0x5
 1166 0106 CB020000 		.4byte	.LASF22
 1167 010a 48       		.byte	0x48
 1168 010b 06       		.byte	0x6
 1169 010c 5E       		.byte	0x5e
 1170 010d 2A020000 		.4byte	0x22a
 1171 0111 06       		.uleb128 0x6
 1172 0112 BC020000 		.4byte	.LASF23
 1173 0116 06       		.byte	0x6
 1174 0117 5F       		.byte	0x5f
 1175 0118 4F020000 		.4byte	0x24f
 1176 011c 02       		.byte	0x2
 1177 011d 23       		.byte	0x23
ARM GAS  C:\Users\DNIEL~1\AppData\Local\Temp\ccxp2FFG.s 			page 22


 1178 011e 00       		.uleb128 0x0
 1179 011f 06       		.uleb128 0x6
 1180 0120 5D020000 		.4byte	.LASF24
 1181 0124 06       		.byte	0x6
 1182 0125 61       		.byte	0x61
 1183 0126 4F020000 		.4byte	0x24f
 1184 012a 02       		.byte	0x2
 1185 012b 23       		.byte	0x23
 1186 012c 04       		.uleb128 0x4
 1187 012d 06       		.uleb128 0x6
 1188 012e 53000000 		.4byte	.LASF25
 1189 0132 06       		.byte	0x6
 1190 0133 63       		.byte	0x63
 1191 0134 CE000000 		.4byte	0xce
 1192 0138 02       		.byte	0x2
 1193 0139 23       		.byte	0x23
 1194 013a 08       		.uleb128 0x8
 1195 013b 06       		.uleb128 0x6
 1196 013c C5030000 		.4byte	.LASF26
 1197 0140 06       		.byte	0x6
 1198 0141 64       		.byte	0x64
 1199 0142 1D030000 		.4byte	0x31d
 1200 0146 02       		.byte	0x2
 1201 0147 23       		.byte	0x23
 1202 0148 0C       		.uleb128 0xc
 1203 0149 06       		.uleb128 0x6
 1204 014a C9000000 		.4byte	.LASF27
 1205 014e 06       		.byte	0x6
 1206 014f 66       		.byte	0x66
 1207 0150 4F020000 		.4byte	0x24f
 1208 0154 02       		.byte	0x2
 1209 0155 23       		.byte	0x23
 1210 0156 10       		.uleb128 0x10
 1211 0157 06       		.uleb128 0x6
 1212 0158 13020000 		.4byte	.LASF28
 1213 015c 06       		.byte	0x6
 1214 015d 67       		.byte	0x67
 1215 015e 4F020000 		.4byte	0x24f
 1216 0162 02       		.byte	0x2
 1217 0163 23       		.byte	0x23
 1218 0164 14       		.uleb128 0x14
 1219 0165 06       		.uleb128 0x6
 1220 0166 A4030000 		.4byte	.LASF29
 1221 016a 06       		.byte	0x6
 1222 016b 6E       		.byte	0x6e
 1223 016c F7040000 		.4byte	0x4f7
 1224 0170 02       		.byte	0x2
 1225 0171 23       		.byte	0x23
 1226 0172 18       		.uleb128 0x18
 1227 0173 06       		.uleb128 0x6
 1228 0174 9C020000 		.4byte	.LASF30
 1229 0178 06       		.byte	0x6
 1230 0179 79       		.byte	0x79
 1231 017a AD000000 		.4byte	0xad
 1232 017e 02       		.byte	0x2
 1233 017f 23       		.byte	0x23
 1234 0180 1C       		.uleb128 0x1c
ARM GAS  C:\Users\DNIEL~1\AppData\Local\Temp\ccxp2FFG.s 			page 23


 1235 0181 06       		.uleb128 0x6
 1236 0182 C3020000 		.4byte	.LASF31
 1237 0186 06       		.byte	0x6
 1238 0187 7D       		.byte	0x7d
 1239 0188 A2000000 		.4byte	0xa2
 1240 018c 02       		.byte	0x2
 1241 018d 23       		.byte	0x23
 1242 018e 1D       		.uleb128 0x1d
 1243 018f 06       		.uleb128 0x6
 1244 0190 67030000 		.4byte	.LASF32
 1245 0194 06       		.byte	0x6
 1246 0195 82       		.byte	0x82
 1247 0196 B8000000 		.4byte	0xb8
 1248 019a 02       		.byte	0x2
 1249 019b 23       		.byte	0x23
 1250 019c 1E       		.uleb128 0x1e
 1251 019d 06       		.uleb128 0x6
 1252 019e A4020000 		.4byte	.LASF33
 1253 01a2 06       		.byte	0x6
 1254 01a3 88       		.byte	0x88
 1255 01a4 C3000000 		.4byte	0xc3
 1256 01a8 02       		.byte	0x2
 1257 01a9 23       		.byte	0x23
 1258 01aa 1F       		.uleb128 0x1f
 1259 01ab 06       		.uleb128 0x6
 1260 01ac 32030000 		.4byte	.LASF34
 1261 01b0 06       		.byte	0x6
 1262 01b1 8F       		.byte	0x8f
 1263 01b2 02040000 		.4byte	0x402
 1264 01b6 02       		.byte	0x2
 1265 01b7 23       		.byte	0x23
 1266 01b8 20       		.uleb128 0x20
 1267 01b9 07       		.uleb128 0x7
 1268 01ba 705F7500 		.ascii	"p_u\000"
 1269 01be 06       		.byte	0x6
 1270 01bf B4       		.byte	0xb4
 1271 01c0 C2040000 		.4byte	0x4c2
 1272 01c4 02       		.byte	0x2
 1273 01c5 23       		.byte	0x23
 1274 01c6 24       		.uleb128 0x24
 1275 01c7 06       		.uleb128 0x6
 1276 01c8 CB030000 		.4byte	.LASF35
 1277 01cc 06       		.byte	0x6
 1278 01cd B9       		.byte	0xb9
 1279 01ce 77020000 		.4byte	0x277
 1280 01d2 02       		.byte	0x2
 1281 01d3 23       		.byte	0x23
 1282 01d4 28       		.uleb128 0x28
 1283 01d5 06       		.uleb128 0x6
 1284 01d6 40030000 		.4byte	.LASF36
 1285 01da 06       		.byte	0x6
 1286 01db BF       		.byte	0xbf
 1287 01dc 55020000 		.4byte	0x255
 1288 01e0 02       		.byte	0x2
 1289 01e1 23       		.byte	0x23
 1290 01e2 2C       		.uleb128 0x2c
 1291 01e3 06       		.uleb128 0x6
ARM GAS  C:\Users\DNIEL~1\AppData\Local\Temp\ccxp2FFG.s 			page 24


 1292 01e4 08000000 		.4byte	.LASF37
 1293 01e8 06       		.byte	0x6
 1294 01e9 C3       		.byte	0xc3
 1295 01ea D9000000 		.4byte	0xd9
 1296 01ee 02       		.byte	0x2
 1297 01ef 23       		.byte	0x23
 1298 01f0 34       		.uleb128 0x34
 1299 01f1 06       		.uleb128 0x6
 1300 01f2 D2020000 		.4byte	.LASF38
 1301 01f6 06       		.byte	0x6
 1302 01f7 C9       		.byte	0xc9
 1303 01f8 E4000000 		.4byte	0xe4
 1304 01fc 02       		.byte	0x2
 1305 01fd 23       		.byte	0x23
 1306 01fe 38       		.uleb128 0x38
 1307 01ff 06       		.uleb128 0x6
 1308 0200 88020000 		.4byte	.LASF39
 1309 0204 06       		.byte	0x6
 1310 0205 D0       		.byte	0xd0
 1311 0206 09050000 		.4byte	0x509
 1312 020a 02       		.byte	0x2
 1313 020b 23       		.byte	0x23
 1314 020c 3C       		.uleb128 0x3c
 1315 020d 06       		.uleb128 0x6
 1316 020e 1E030000 		.4byte	.LASF40
 1317 0212 06       		.byte	0x6
 1318 0213 D4       		.byte	0xd4
 1319 0214 CE000000 		.4byte	0xce
 1320 0218 02       		.byte	0x2
 1321 0219 23       		.byte	0x23
 1322 021a 40       		.uleb128 0x40
 1323 021b 06       		.uleb128 0x6
 1324 021c 90000000 		.4byte	.LASF41
 1325 0220 06       		.byte	0x6
 1326 0221 DA       		.byte	0xda
 1327 0222 8D020000 		.4byte	0x28d
 1328 0226 02       		.byte	0x2
 1329 0227 23       		.byte	0x23
 1330 0228 44       		.uleb128 0x44
 1331 0229 00       		.byte	0x0
 1332 022a 08       		.uleb128 0x8
 1333 022b 08       		.byte	0x8
 1334 022c 05       		.byte	0x5
 1335 022d 61       		.byte	0x61
 1336 022e 4F020000 		.4byte	0x24f
 1337 0232 06       		.uleb128 0x6
 1338 0233 BC020000 		.4byte	.LASF23
 1339 0237 05       		.byte	0x5
 1340 0238 62       		.byte	0x62
 1341 0239 4F020000 		.4byte	0x24f
 1342 023d 02       		.byte	0x2
 1343 023e 23       		.byte	0x23
 1344 023f 00       		.uleb128 0x0
 1345 0240 06       		.uleb128 0x6
 1346 0241 5D020000 		.4byte	.LASF24
 1347 0245 05       		.byte	0x5
 1348 0246 64       		.byte	0x64
ARM GAS  C:\Users\DNIEL~1\AppData\Local\Temp\ccxp2FFG.s 			page 25


 1349 0247 4F020000 		.4byte	0x24f
 1350 024b 02       		.byte	0x2
 1351 024c 23       		.byte	0x23
 1352 024d 04       		.uleb128 0x4
 1353 024e 00       		.byte	0x0
 1354 024f 09       		.uleb128 0x9
 1355 0250 04       		.byte	0x4
 1356 0251 FA000000 		.4byte	0xfa
 1357 0255 03       		.uleb128 0x3
 1358 0256 21020000 		.4byte	.LASF42
 1359 025a 05       		.byte	0x5
 1360 025b 66       		.byte	0x66
 1361 025c 2A020000 		.4byte	0x22a
 1362 0260 08       		.uleb128 0x8
 1363 0261 04       		.byte	0x4
 1364 0262 05       		.byte	0x5
 1365 0263 6B       		.byte	0x6b
 1366 0264 77020000 		.4byte	0x277
 1367 0268 06       		.uleb128 0x6
 1368 0269 BC020000 		.4byte	.LASF23
 1369 026d 05       		.byte	0x5
 1370 026e 6D       		.byte	0x6d
 1371 026f 4F020000 		.4byte	0x24f
 1372 0273 02       		.byte	0x2
 1373 0274 23       		.byte	0x23
 1374 0275 00       		.uleb128 0x0
 1375 0276 00       		.byte	0x0
 1376 0277 03       		.uleb128 0x3
 1377 0278 BF010000 		.4byte	.LASF43
 1378 027c 05       		.byte	0x5
 1379 027d 70       		.byte	0x70
 1380 027e 60020000 		.4byte	0x260
 1381 0282 03       		.uleb128 0x3
 1382 0283 04010000 		.4byte	.LASF44
 1383 0287 07       		.byte	0x7
 1384 0288 E5       		.byte	0xe5
 1385 0289 8D020000 		.4byte	0x28d
 1386 028d 0A       		.uleb128 0xa
 1387 028e 04       		.byte	0x4
 1388 028f 0B       		.uleb128 0xb
 1389 0290 39030000 		.4byte	.LASF45
 1390 0294 24       		.byte	0x24
 1391 0295 07       		.byte	0x7
 1392 0296 0C01     		.2byte	0x10c
 1393 0298 1D030000 		.4byte	0x31d
 1394 029c 0C       		.uleb128 0xc
 1395 029d 723400   		.ascii	"r4\000"
 1396 02a0 07       		.byte	0x7
 1397 02a1 1F01     		.2byte	0x11f
 1398 02a3 82020000 		.4byte	0x282
 1399 02a7 02       		.byte	0x2
 1400 02a8 23       		.byte	0x23
 1401 02a9 00       		.uleb128 0x0
 1402 02aa 0C       		.uleb128 0xc
 1403 02ab 723500   		.ascii	"r5\000"
 1404 02ae 07       		.byte	0x7
 1405 02af 2001     		.2byte	0x120
ARM GAS  C:\Users\DNIEL~1\AppData\Local\Temp\ccxp2FFG.s 			page 26


 1406 02b1 82020000 		.4byte	0x282
 1407 02b5 02       		.byte	0x2
 1408 02b6 23       		.byte	0x23
 1409 02b7 04       		.uleb128 0x4
 1410 02b8 0C       		.uleb128 0xc
 1411 02b9 723600   		.ascii	"r6\000"
 1412 02bc 07       		.byte	0x7
 1413 02bd 2101     		.2byte	0x121
 1414 02bf 82020000 		.4byte	0x282
 1415 02c3 02       		.byte	0x2
 1416 02c4 23       		.byte	0x23
 1417 02c5 08       		.uleb128 0x8
 1418 02c6 0C       		.uleb128 0xc
 1419 02c7 723700   		.ascii	"r7\000"
 1420 02ca 07       		.byte	0x7
 1421 02cb 2201     		.2byte	0x122
 1422 02cd 82020000 		.4byte	0x282
 1423 02d1 02       		.byte	0x2
 1424 02d2 23       		.byte	0x23
 1425 02d3 0C       		.uleb128 0xc
 1426 02d4 0C       		.uleb128 0xc
 1427 02d5 723800   		.ascii	"r8\000"
 1428 02d8 07       		.byte	0x7
 1429 02d9 2301     		.2byte	0x123
 1430 02db 82020000 		.4byte	0x282
 1431 02df 02       		.byte	0x2
 1432 02e0 23       		.byte	0x23
 1433 02e1 10       		.uleb128 0x10
 1434 02e2 0C       		.uleb128 0xc
 1435 02e3 723900   		.ascii	"r9\000"
 1436 02e6 07       		.byte	0x7
 1437 02e7 2401     		.2byte	0x124
 1438 02e9 82020000 		.4byte	0x282
 1439 02ed 02       		.byte	0x2
 1440 02ee 23       		.byte	0x23
 1441 02ef 14       		.uleb128 0x14
 1442 02f0 0C       		.uleb128 0xc
 1443 02f1 72313000 		.ascii	"r10\000"
 1444 02f5 07       		.byte	0x7
 1445 02f6 2501     		.2byte	0x125
 1446 02f8 82020000 		.4byte	0x282
 1447 02fc 02       		.byte	0x2
 1448 02fd 23       		.byte	0x23
 1449 02fe 18       		.uleb128 0x18
 1450 02ff 0C       		.uleb128 0xc
 1451 0300 72313100 		.ascii	"r11\000"
 1452 0304 07       		.byte	0x7
 1453 0305 2601     		.2byte	0x126
 1454 0307 82020000 		.4byte	0x282
 1455 030b 02       		.byte	0x2
 1456 030c 23       		.byte	0x23
 1457 030d 1C       		.uleb128 0x1c
 1458 030e 0C       		.uleb128 0xc
 1459 030f 6C7200   		.ascii	"lr\000"
 1460 0312 07       		.byte	0x7
 1461 0313 2701     		.2byte	0x127
 1462 0315 82020000 		.4byte	0x282
ARM GAS  C:\Users\DNIEL~1\AppData\Local\Temp\ccxp2FFG.s 			page 27


 1463 0319 02       		.byte	0x2
 1464 031a 23       		.byte	0x23
 1465 031b 20       		.uleb128 0x20
 1466 031c 00       		.byte	0x0
 1467 031d 0B       		.uleb128 0xb
 1468 031e 7A010000 		.4byte	.LASF46
 1469 0322 04       		.byte	0x4
 1470 0323 07       		.byte	0x7
 1471 0324 3101     		.2byte	0x131
 1472 0326 3A030000 		.4byte	0x33a
 1473 032a 0C       		.uleb128 0xc
 1474 032b 72313300 		.ascii	"r13\000"
 1475 032f 07       		.byte	0x7
 1476 0330 3201     		.2byte	0x132
 1477 0332 3A030000 		.4byte	0x33a
 1478 0336 02       		.byte	0x2
 1479 0337 23       		.byte	0x23
 1480 0338 00       		.uleb128 0x0
 1481 0339 00       		.byte	0x0
 1482 033a 09       		.uleb128 0x9
 1483 033b 04       		.byte	0x4
 1484 033c 8F020000 		.4byte	0x28f
 1485 0340 03       		.uleb128 0x3
 1486 0341 29030000 		.4byte	.LASF47
 1487 0345 08       		.byte	0x8
 1488 0346 58       		.byte	0x58
 1489 0347 4B030000 		.4byte	0x34b
 1490 034b 09       		.uleb128 0x9
 1491 034c 04       		.byte	0x4
 1492 034d 51030000 		.4byte	0x351
 1493 0351 0D       		.uleb128 0xd
 1494 0352 01       		.byte	0x1
 1495 0353 5D030000 		.4byte	0x35d
 1496 0357 0E       		.uleb128 0xe
 1497 0358 8D020000 		.4byte	0x28d
 1498 035c 00       		.byte	0x0
 1499 035d 03       		.uleb128 0x3
 1500 035e FB020000 		.4byte	.LASF48
 1501 0362 08       		.byte	0x8
 1502 0363 5D       		.byte	0x5d
 1503 0364 68030000 		.4byte	0x368
 1504 0368 05       		.uleb128 0x5
 1505 0369 FB020000 		.4byte	.LASF48
 1506 036d 14       		.byte	0x14
 1507 036e 08       		.byte	0x8
 1508 036f 64       		.byte	0x64
 1509 0370 BB030000 		.4byte	0x3bb
 1510 0374 06       		.uleb128 0x6
 1511 0375 33010000 		.4byte	.LASF49
 1512 0379 08       		.byte	0x8
 1513 037a 65       		.byte	0x65
 1514 037b BB030000 		.4byte	0x3bb
 1515 037f 02       		.byte	0x2
 1516 0380 23       		.byte	0x23
 1517 0381 00       		.uleb128 0x0
 1518 0382 06       		.uleb128 0x6
 1519 0383 0D010000 		.4byte	.LASF50
ARM GAS  C:\Users\DNIEL~1\AppData\Local\Temp\ccxp2FFG.s 			page 28


 1520 0387 08       		.byte	0x8
 1521 0388 67       		.byte	0x67
 1522 0389 BB030000 		.4byte	0x3bb
 1523 038d 02       		.byte	0x2
 1524 038e 23       		.byte	0x23
 1525 038f 04       		.uleb128 0x4
 1526 0390 06       		.uleb128 0x6
 1527 0391 F7010000 		.4byte	.LASF51
 1528 0395 08       		.byte	0x8
 1529 0396 69       		.byte	0x69
 1530 0397 EF000000 		.4byte	0xef
 1531 039b 02       		.byte	0x2
 1532 039c 23       		.byte	0x23
 1533 039d 08       		.uleb128 0x8
 1534 039e 06       		.uleb128 0x6
 1535 039f FF010000 		.4byte	.LASF52
 1536 03a3 08       		.byte	0x8
 1537 03a4 6A       		.byte	0x6a
 1538 03a5 40030000 		.4byte	0x340
 1539 03a9 02       		.byte	0x2
 1540 03aa 23       		.byte	0x23
 1541 03ab 0C       		.uleb128 0xc
 1542 03ac 06       		.uleb128 0x6
 1543 03ad 55030000 		.4byte	.LASF53
 1544 03b1 08       		.byte	0x8
 1545 03b2 6C       		.byte	0x6c
 1546 03b3 8D020000 		.4byte	0x28d
 1547 03b7 02       		.byte	0x2
 1548 03b8 23       		.byte	0x23
 1549 03b9 10       		.uleb128 0x10
 1550 03ba 00       		.byte	0x0
 1551 03bb 09       		.uleb128 0x9
 1552 03bc 04       		.byte	0x4
 1553 03bd 5D030000 		.4byte	0x35d
 1554 03c1 08       		.uleb128 0x8
 1555 03c2 10       		.byte	0x10
 1556 03c3 08       		.byte	0x8
 1557 03c4 76       		.byte	0x76
 1558 03c5 02040000 		.4byte	0x402
 1559 03c9 06       		.uleb128 0x6
 1560 03ca 33010000 		.4byte	.LASF49
 1561 03ce 08       		.byte	0x8
 1562 03cf 77       		.byte	0x77
 1563 03d0 BB030000 		.4byte	0x3bb
 1564 03d4 02       		.byte	0x2
 1565 03d5 23       		.byte	0x23
 1566 03d6 00       		.uleb128 0x0
 1567 03d7 06       		.uleb128 0x6
 1568 03d8 0D010000 		.4byte	.LASF50
 1569 03dc 08       		.byte	0x8
 1570 03dd 79       		.byte	0x79
 1571 03de BB030000 		.4byte	0x3bb
 1572 03e2 02       		.byte	0x2
 1573 03e3 23       		.byte	0x23
 1574 03e4 04       		.uleb128 0x4
 1575 03e5 06       		.uleb128 0x6
 1576 03e6 F7010000 		.4byte	.LASF51
ARM GAS  C:\Users\DNIEL~1\AppData\Local\Temp\ccxp2FFG.s 			page 29


 1577 03ea 08       		.byte	0x8
 1578 03eb 7B       		.byte	0x7b
 1579 03ec EF000000 		.4byte	0xef
 1580 03f0 02       		.byte	0x2
 1581 03f1 23       		.byte	0x23
 1582 03f2 08       		.uleb128 0x8
 1583 03f3 06       		.uleb128 0x6
 1584 03f4 AB030000 		.4byte	.LASF54
 1585 03f8 08       		.byte	0x8
 1586 03f9 7C       		.byte	0x7c
 1587 03fa 02040000 		.4byte	0x402
 1588 03fe 02       		.byte	0x2
 1589 03ff 23       		.byte	0x23
 1590 0400 0C       		.uleb128 0xc
 1591 0401 00       		.byte	0x0
 1592 0402 0F       		.uleb128 0xf
 1593 0403 EF000000 		.4byte	0xef
 1594 0407 03       		.uleb128 0x3
 1595 0408 B6030000 		.4byte	.LASF55
 1596 040c 08       		.byte	0x8
 1597 040d 7D       		.byte	0x7d
 1598 040e C1030000 		.4byte	0x3c1
 1599 0412 08       		.uleb128 0x8
 1600 0413 1C       		.byte	0x1c
 1601 0414 09       		.byte	0x9
 1602 0415 5E       		.byte	0x5e
 1603 0416 6F040000 		.4byte	0x46f
 1604 041a 06       		.uleb128 0x6
 1605 041b F3020000 		.4byte	.LASF56
 1606 041f 09       		.byte	0x9
 1607 0420 5F       		.byte	0x5f
 1608 0421 55020000 		.4byte	0x255
 1609 0425 02       		.byte	0x2
 1610 0426 23       		.byte	0x23
 1611 0427 00       		.uleb128 0x0
 1612 0428 06       		.uleb128 0x6
 1613 0429 AE020000 		.4byte	.LASF57
 1614 042d 09       		.byte	0x9
 1615 042e 60       		.byte	0x60
 1616 042f CE000000 		.4byte	0xce
 1617 0433 02       		.byte	0x2
 1618 0434 23       		.byte	0x23
 1619 0435 08       		.uleb128 0x8
 1620 0436 06       		.uleb128 0x6
 1621 0437 1B020000 		.4byte	.LASF58
 1622 043b 09       		.byte	0x9
 1623 043c 62       		.byte	0x62
 1624 043d 1D030000 		.4byte	0x31d
 1625 0441 02       		.byte	0x2
 1626 0442 23       		.byte	0x23
 1627 0443 0C       		.uleb128 0xc
 1628 0444 06       		.uleb128 0x6
 1629 0445 FC000000 		.4byte	.LASF59
 1630 0449 09       		.byte	0x9
 1631 044a 65       		.byte	0x65
 1632 044b 4F020000 		.4byte	0x24f
 1633 044f 02       		.byte	0x2
ARM GAS  C:\Users\DNIEL~1\AppData\Local\Temp\ccxp2FFG.s 			page 30


 1634 0450 23       		.byte	0x23
 1635 0451 10       		.uleb128 0x10
 1636 0452 06       		.uleb128 0x6
 1637 0453 3D020000 		.4byte	.LASF60
 1638 0457 09       		.byte	0x9
 1639 0458 66       		.byte	0x66
 1640 0459 4F020000 		.4byte	0x24f
 1641 045d 02       		.byte	0x2
 1642 045e 23       		.byte	0x23
 1643 045f 14       		.uleb128 0x14
 1644 0460 06       		.uleb128 0x6
 1645 0461 33020000 		.4byte	.LASF61
 1646 0465 09       		.byte	0x9
 1647 0466 69       		.byte	0x69
 1648 0467 4F020000 		.4byte	0x24f
 1649 046b 02       		.byte	0x2
 1650 046c 23       		.byte	0x23
 1651 046d 18       		.uleb128 0x18
 1652 046e 00       		.byte	0x0
 1653 046f 03       		.uleb128 0x3
 1654 0470 6E030000 		.4byte	.LASF62
 1655 0474 09       		.byte	0x9
 1656 0475 6B       		.byte	0x6b
 1657 0476 12040000 		.4byte	0x412
 1658 047a 05       		.uleb128 0x5
 1659 047b D7010000 		.4byte	.LASF63
 1660 047f 10       		.byte	0x10
 1661 0480 0A       		.byte	0xa
 1662 0481 2C       		.byte	0x2c
 1663 0482 B1040000 		.4byte	0x4b1
 1664 0486 06       		.uleb128 0x6
 1665 0487 98000000 		.4byte	.LASF64
 1666 048b 0A       		.byte	0xa
 1667 048c 2D       		.byte	0x2d
 1668 048d 55020000 		.4byte	0x255
 1669 0491 02       		.byte	0x2
 1670 0492 23       		.byte	0x23
 1671 0493 00       		.uleb128 0x0
 1672 0494 06       		.uleb128 0x6
 1673 0495 BD030000 		.4byte	.LASF65
 1674 0499 0A       		.byte	0xa
 1675 049a 2F       		.byte	0x2f
 1676 049b 4F020000 		.4byte	0x24f
 1677 049f 02       		.byte	0x2
 1678 04a0 23       		.byte	0x23
 1679 04a1 08       		.uleb128 0x8
 1680 04a2 06       		.uleb128 0x6
 1681 04a3 0D030000 		.4byte	.LASF66
 1682 04a7 0A       		.byte	0xa
 1683 04a8 31       		.byte	0x31
 1684 04a9 B1040000 		.4byte	0x4b1
 1685 04ad 02       		.byte	0x2
 1686 04ae 23       		.byte	0x23
 1687 04af 0C       		.uleb128 0xc
 1688 04b0 00       		.byte	0x0
 1689 04b1 09       		.uleb128 0x9
 1690 04b2 04       		.byte	0x4
ARM GAS  C:\Users\DNIEL~1\AppData\Local\Temp\ccxp2FFG.s 			page 31


 1691 04b3 7A040000 		.4byte	0x47a
 1692 04b7 03       		.uleb128 0x3
 1693 04b8 D7010000 		.4byte	.LASF63
 1694 04bc 0A       		.byte	0xa
 1695 04bd 33       		.byte	0x33
 1696 04be 7A040000 		.4byte	0x47a
 1697 04c2 10       		.uleb128 0x10
 1698 04c3 04       		.byte	0x4
 1699 04c4 06       		.byte	0x6
 1700 04c5 96       		.byte	0x96
 1701 04c6 F7040000 		.4byte	0x4f7
 1702 04ca 11       		.uleb128 0x11
 1703 04cb 1A000000 		.4byte	.LASF67
 1704 04cf 06       		.byte	0x6
 1705 04d0 9D       		.byte	0x9d
 1706 04d1 D9000000 		.4byte	0xd9
 1707 04d5 11       		.uleb128 0x11
 1708 04d6 4A000000 		.4byte	.LASF68
 1709 04da 06       		.byte	0x6
 1710 04db A4       		.byte	0xa4
 1711 04dc D9000000 		.4byte	0xd9
 1712 04e0 11       		.uleb128 0x11
 1713 04e1 91030000 		.4byte	.LASF69
 1714 04e5 06       		.byte	0x6
 1715 04e6 AB       		.byte	0xab
 1716 04e7 8D020000 		.4byte	0x28d
 1717 04eb 11       		.uleb128 0x11
 1718 04ec B5020000 		.4byte	.LASF70
 1719 04f0 06       		.byte	0x6
 1720 04f1 B2       		.byte	0xb2
 1721 04f2 E4000000 		.4byte	0xe4
 1722 04f6 00       		.byte	0x0
 1723 04f7 09       		.uleb128 0x9
 1724 04f8 04       		.byte	0x4
 1725 04f9 FD040000 		.4byte	0x4fd
 1726 04fd 12       		.uleb128 0x12
 1727 04fe 02050000 		.4byte	0x502
 1728 0502 04       		.uleb128 0x4
 1729 0503 01       		.byte	0x1
 1730 0504 08       		.byte	0x8
 1731 0505 08030000 		.4byte	.LASF71
 1732 0509 09       		.uleb128 0x9
 1733 050a 04       		.byte	0x4
 1734 050b B7040000 		.4byte	0x4b7
 1735 050f 03       		.uleb128 0x3
 1736 0510 00000000 		.4byte	.LASF72
 1737 0514 06       		.byte	0x6
 1738 0515 E5       		.byte	0xe5
 1739 0516 1A050000 		.4byte	0x51a
 1740 051a 09       		.uleb128 0x9
 1741 051b 04       		.byte	0x4
 1742 051c 20050000 		.4byte	0x520
 1743 0520 13       		.uleb128 0x13
 1744 0521 01       		.byte	0x1
 1745 0522 D9000000 		.4byte	0xd9
 1746 0526 30050000 		.4byte	0x530
 1747 052a 0E       		.uleb128 0xe
ARM GAS  C:\Users\DNIEL~1\AppData\Local\Temp\ccxp2FFG.s 			page 32


 1748 052b 8D020000 		.4byte	0x28d
 1749 052f 00       		.byte	0x0
 1750 0530 14       		.uleb128 0x14
 1751 0531 01       		.byte	0x1
 1752 0532 E6020000 		.4byte	.LASF93
 1753 0536 01       		.byte	0x1
 1754 0537 4C       		.byte	0x4c
 1755 0538 01       		.byte	0x1
 1756 0539 4F020000 		.4byte	0x24f
 1757 053d 01       		.byte	0x1
 1758 053e 58050000 		.4byte	0x558
 1759 0542 15       		.uleb128 0x15
 1760 0543 747000   		.ascii	"tp\000"
 1761 0546 01       		.byte	0x1
 1762 0547 4C       		.byte	0x4c
 1763 0548 4F020000 		.4byte	0x24f
 1764 054c 16       		.uleb128 0x16
 1765 054d 15000000 		.4byte	.LASF73
 1766 0551 01       		.byte	0x1
 1767 0552 4C       		.byte	0x4c
 1768 0553 CE000000 		.4byte	0xce
 1769 0557 00       		.byte	0x0
 1770 0558 17       		.uleb128 0x17
 1771 0559 30050000 		.4byte	0x530
 1772 055d 00000000 		.4byte	.LFB0
 1773 0561 40000000 		.4byte	.LFE0
 1774 0565 00000000 		.4byte	.LLST0
 1775 0569 7C050000 		.4byte	0x57c
 1776 056d 18       		.uleb128 0x18
 1777 056e 42050000 		.4byte	0x542
 1778 0572 01       		.byte	0x1
 1779 0573 50       		.byte	0x50
 1780 0574 18       		.uleb128 0x18
 1781 0575 4C050000 		.4byte	0x54c
 1782 0579 01       		.byte	0x1
 1783 057a 51       		.byte	0x51
 1784 057b 00       		.byte	0x0
 1785 057c 19       		.uleb128 0x19
 1786 057d 01       		.byte	0x1
 1787 057e AA000000 		.4byte	.LASF75
 1788 0582 01       		.byte	0x1
 1789 0583 9D       		.byte	0x9d
 1790 0584 01       		.byte	0x1
 1791 0585 4F020000 		.4byte	0x24f
 1792 0589 00000000 		.4byte	.LFB1
 1793 058d 54000000 		.4byte	.LFE1
 1794 0591 20000000 		.4byte	.LLST1
 1795 0595 09060000 		.4byte	0x609
 1796 0599 1A       		.uleb128 0x1a
 1797 059a 77737000 		.ascii	"wsp\000"
 1798 059e 01       		.byte	0x1
 1799 059f 9D       		.byte	0x9d
 1800 05a0 8D020000 		.4byte	0x28d
 1801 05a4 01       		.byte	0x1
 1802 05a5 50       		.byte	0x50
 1803 05a6 1B       		.uleb128 0x1b
 1804 05a7 82010000 		.4byte	.LASF74
ARM GAS  C:\Users\DNIEL~1\AppData\Local\Temp\ccxp2FFG.s 			page 33


 1805 05ab 01       		.byte	0x1
 1806 05ac 9D       		.byte	0x9d
 1807 05ad 30000000 		.4byte	0x30
 1808 05b1 40000000 		.4byte	.LLST2
 1809 05b5 1C       		.uleb128 0x1c
 1810 05b6 15000000 		.4byte	.LASF73
 1811 05ba 01       		.byte	0x1
 1812 05bb 9E       		.byte	0x9e
 1813 05bc CE000000 		.4byte	0xce
 1814 05c0 01       		.byte	0x1
 1815 05c1 52       		.byte	0x52
 1816 05c2 1D       		.uleb128 0x1d
 1817 05c3 706600   		.ascii	"pf\000"
 1818 05c6 01       		.byte	0x1
 1819 05c7 9E       		.byte	0x9e
 1820 05c8 0F050000 		.4byte	0x50f
 1821 05cc 60000000 		.4byte	.LLST3
 1822 05d0 1A       		.uleb128 0x1a
 1823 05d1 61726700 		.ascii	"arg\000"
 1824 05d5 01       		.byte	0x1
 1825 05d6 9E       		.byte	0x9e
 1826 05d7 8D020000 		.4byte	0x28d
 1827 05db 02       		.byte	0x2
 1828 05dc 91       		.byte	0x91
 1829 05dd 00       		.sleb128 0
 1830 05de 1E       		.uleb128 0x1e
 1831 05df 747000   		.ascii	"tp\000"
 1832 05e2 01       		.byte	0x1
 1833 05e3 A0       		.byte	0xa0
 1834 05e4 4F020000 		.4byte	0x24f
 1835 05e8 01       		.byte	0x1
 1836 05e9 50       		.byte	0x50
 1837 05ea 1F       		.uleb128 0x1f
 1838 05eb 30050000 		.4byte	0x530
 1839 05ef 12000000 		.4byte	.LBB4
 1840 05f3 48000000 		.4byte	.LBE4
 1841 05f7 01       		.byte	0x1
 1842 05f8 A8       		.byte	0xa8
 1843 05f9 18       		.uleb128 0x18
 1844 05fa 4C050000 		.4byte	0x54c
 1845 05fe 01       		.byte	0x1
 1846 05ff 52       		.byte	0x52
 1847 0600 18       		.uleb128 0x18
 1848 0601 42050000 		.4byte	0x542
 1849 0605 01       		.byte	0x1
 1850 0606 50       		.byte	0x50
 1851 0607 00       		.byte	0x0
 1852 0608 00       		.byte	0x0
 1853 0609 19       		.uleb128 0x19
 1854 060a 01       		.byte	0x1
 1855 060b E5010000 		.4byte	.LASF76
 1856 060f 01       		.byte	0x1
 1857 0610 BB       		.byte	0xbb
 1858 0611 01       		.byte	0x1
 1859 0612 4F020000 		.4byte	0x24f
 1860 0616 00000000 		.4byte	.LFB2
 1861 061a 26000000 		.4byte	.LFE2
ARM GAS  C:\Users\DNIEL~1\AppData\Local\Temp\ccxp2FFG.s 			page 34


 1862 061e 8C000000 		.4byte	.LLST4
 1863 0622 7E060000 		.4byte	0x67e
 1864 0626 1D       		.uleb128 0x1d
 1865 0627 77737000 		.ascii	"wsp\000"
 1866 062b 01       		.byte	0x1
 1867 062c BB       		.byte	0xbb
 1868 062d 8D020000 		.4byte	0x28d
 1869 0631 B8000000 		.4byte	.LLST5
 1870 0635 1B       		.uleb128 0x1b
 1871 0636 82010000 		.4byte	.LASF74
 1872 063a 01       		.byte	0x1
 1873 063b BB       		.byte	0xbb
 1874 063c 30000000 		.4byte	0x30
 1875 0640 CB000000 		.4byte	.LLST6
 1876 0644 1B       		.uleb128 0x1b
 1877 0645 15000000 		.4byte	.LASF73
 1878 0649 01       		.byte	0x1
 1879 064a BC       		.byte	0xbc
 1880 064b CE000000 		.4byte	0xce
 1881 064f DE000000 		.4byte	.LLST7
 1882 0653 1D       		.uleb128 0x1d
 1883 0654 706600   		.ascii	"pf\000"
 1884 0657 01       		.byte	0x1
 1885 0658 BC       		.byte	0xbc
 1886 0659 0F050000 		.4byte	0x50f
 1887 065d F1000000 		.4byte	.LLST8
 1888 0661 1A       		.uleb128 0x1a
 1889 0662 61726700 		.ascii	"arg\000"
 1890 0666 01       		.byte	0x1
 1891 0667 BC       		.byte	0xbc
 1892 0668 8D020000 		.4byte	0x28d
 1893 066c 02       		.byte	0x2
 1894 066d 91       		.byte	0x91
 1895 066e 00       		.sleb128 0
 1896 066f 20       		.uleb128 0x20
 1897 0670 747000   		.ascii	"tp\000"
 1898 0673 01       		.byte	0x1
 1899 0674 BD       		.byte	0xbd
 1900 0675 4F020000 		.4byte	0x24f
 1901 0679 0F010000 		.4byte	.LLST9
 1902 067d 00       		.byte	0x0
 1903 067e 19       		.uleb128 0x19
 1904 067f 01       		.byte	0x1
 1905 0680 15010000 		.4byte	.LASF77
 1906 0684 01       		.byte	0x1
 1907 0685 D9       		.byte	0xd9
 1908 0686 01       		.byte	0x1
 1909 0687 CE000000 		.4byte	0xce
 1910 068b 00000000 		.4byte	.LFB3
 1911 068f 2C000000 		.4byte	.LFE3
 1912 0693 2D010000 		.4byte	.LLST10
 1913 0697 B8060000 		.4byte	0x6b8
 1914 069b 1B       		.uleb128 0x1b
 1915 069c A0010000 		.4byte	.LASF78
 1916 06a0 01       		.byte	0x1
 1917 06a1 D9       		.byte	0xd9
 1918 06a2 CE000000 		.4byte	0xce
ARM GAS  C:\Users\DNIEL~1\AppData\Local\Temp\ccxp2FFG.s 			page 35


 1919 06a6 4D010000 		.4byte	.LLST11
 1920 06aa 21       		.uleb128 0x21
 1921 06ab DD010000 		.4byte	.LASF79
 1922 06af 01       		.byte	0x1
 1923 06b0 DA       		.byte	0xda
 1924 06b1 CE000000 		.4byte	0xce
 1925 06b5 01       		.byte	0x1
 1926 06b6 54       		.byte	0x54
 1927 06b7 00       		.byte	0x0
 1928 06b8 19       		.uleb128 0x19
 1929 06b9 01       		.byte	0x1
 1930 06ba 07020000 		.4byte	.LASF80
 1931 06be 01       		.byte	0x1
 1932 06bf FA       		.byte	0xfa
 1933 06c0 01       		.byte	0x1
 1934 06c1 4F020000 		.4byte	0x24f
 1935 06c5 00000000 		.4byte	.LFB4
 1936 06c9 16000000 		.4byte	.LFE4
 1937 06cd 60010000 		.4byte	.LLST12
 1938 06d1 E4060000 		.4byte	0x6e4
 1939 06d5 1D       		.uleb128 0x1d
 1940 06d6 747000   		.ascii	"tp\000"
 1941 06d9 01       		.byte	0x1
 1942 06da FA       		.byte	0xfa
 1943 06db 4F020000 		.4byte	0x24f
 1944 06df 80010000 		.4byte	.LLST13
 1945 06e3 00       		.byte	0x0
 1946 06e4 22       		.uleb128 0x22
 1947 06e5 01       		.byte	0x1
 1948 06e6 B0010000 		.4byte	.LASF81
 1949 06ea 01       		.byte	0x1
 1950 06eb 1101     		.2byte	0x111
 1951 06ed 01       		.byte	0x1
 1952 06ee 00000000 		.4byte	.LFB5
 1953 06f2 16000000 		.4byte	.LFE5
 1954 06f6 9E010000 		.4byte	.LLST14
 1955 06fa 0C070000 		.4byte	0x70c
 1956 06fe 23       		.uleb128 0x23
 1957 06ff 747000   		.ascii	"tp\000"
 1958 0702 01       		.byte	0x1
 1959 0703 1101     		.2byte	0x111
 1960 0705 4F020000 		.4byte	0x24f
 1961 0709 01       		.byte	0x1
 1962 070a 50       		.byte	0x50
 1963 070b 00       		.byte	0x0
 1964 070c 22       		.uleb128 0x22
 1965 070d 01       		.byte	0x1
 1966 070e 5C030000 		.4byte	.LASF82
 1967 0712 01       		.byte	0x1
 1968 0713 2401     		.2byte	0x124
 1969 0715 01       		.byte	0x1
 1970 0716 00000000 		.4byte	.LFB6
 1971 071a 14000000 		.4byte	.LFE6
 1972 071e BE010000 		.4byte	.LLST15
 1973 0722 37070000 		.4byte	0x737
 1974 0726 24       		.uleb128 0x24
 1975 0727 2E020000 		.4byte	.LASF83
ARM GAS  C:\Users\DNIEL~1\AppData\Local\Temp\ccxp2FFG.s 			page 36


 1976 072b 01       		.byte	0x1
 1977 072c 2401     		.2byte	0x124
 1978 072e EF000000 		.4byte	0xef
 1979 0732 DE010000 		.4byte	.LLST16
 1980 0736 00       		.byte	0x0
 1981 0737 22       		.uleb128 0x22
 1982 0738 01       		.byte	0x1
 1983 0739 45020000 		.4byte	.LASF84
 1984 073d 01       		.byte	0x1
 1985 073e 3501     		.2byte	0x135
 1986 0740 01       		.byte	0x1
 1987 0741 00000000 		.4byte	.LFB7
 1988 0745 20000000 		.4byte	.LFE7
 1989 0749 FC010000 		.4byte	.LLST17
 1990 074d 62070000 		.4byte	0x762
 1991 0751 24       		.uleb128 0x24
 1992 0752 2E020000 		.4byte	.LASF83
 1993 0756 01       		.byte	0x1
 1994 0757 3501     		.2byte	0x135
 1995 0759 EF000000 		.4byte	0xef
 1996 075d 1C020000 		.4byte	.LLST18
 1997 0761 00       		.byte	0x0
 1998 0762 25       		.uleb128 0x25
 1999 0763 01       		.byte	0x1
 2000 0764 86030000 		.4byte	.LASF94
 2001 0768 01       		.byte	0x1
 2002 0769 4401     		.2byte	0x144
 2003 076b 01       		.byte	0x1
 2004 076c 00000000 		.4byte	.LFB8
 2005 0770 24000000 		.4byte	.LFE8
 2006 0774 4A020000 		.4byte	.LLST19
 2007 0778 22       		.uleb128 0x22
 2008 0779 01       		.byte	0x1
 2009 077a 28000000 		.4byte	.LASF85
 2010 077e 01       		.byte	0x1
 2011 077f 6E01     		.2byte	0x16e
 2012 0781 01       		.byte	0x1
 2013 0782 00000000 		.4byte	.LFB10
 2014 0786 44000000 		.4byte	.LFE10
 2015 078a 6A020000 		.4byte	.LLST20
 2016 078e B2070000 		.4byte	0x7b2
 2017 0792 26       		.uleb128 0x26
 2018 0793 6D736700 		.ascii	"msg\000"
 2019 0797 01       		.byte	0x1
 2020 0798 6E01     		.2byte	0x16e
 2021 079a D9000000 		.4byte	0xd9
 2022 079e 8A020000 		.4byte	.LLST21
 2023 07a2 27       		.uleb128 0x27
 2024 07a3 747000   		.ascii	"tp\000"
 2025 07a6 01       		.byte	0x1
 2026 07a7 6F01     		.2byte	0x16f
 2027 07a9 4F020000 		.4byte	0x24f
 2028 07ad 9D020000 		.4byte	.LLST22
 2029 07b1 00       		.byte	0x0
 2030 07b2 22       		.uleb128 0x22
 2031 07b3 01       		.byte	0x1
 2032 07b4 74000000 		.4byte	.LASF86
ARM GAS  C:\Users\DNIEL~1\AppData\Local\Temp\ccxp2FFG.s 			page 37


 2033 07b8 01       		.byte	0x1
 2034 07b9 5901     		.2byte	0x159
 2035 07bb 01       		.byte	0x1
 2036 07bc 00000000 		.4byte	.LFB9
 2037 07c0 0E000000 		.4byte	.LFE9
 2038 07c4 BC020000 		.4byte	.LLST23
 2039 07c8 DB070000 		.4byte	0x7db
 2040 07cc 23       		.uleb128 0x23
 2041 07cd 6D736700 		.ascii	"msg\000"
 2042 07d1 01       		.byte	0x1
 2043 07d2 5901     		.2byte	0x159
 2044 07d4 D9000000 		.4byte	0xd9
 2045 07d8 01       		.byte	0x1
 2046 07d9 50       		.byte	0x50
 2047 07da 00       		.byte	0x0
 2048 07db 28       		.uleb128 0x28
 2049 07dc 01       		.byte	0x1
 2050 07dd 4B030000 		.4byte	.LASF87
 2051 07e1 01       		.byte	0x1
 2052 07e2 A401     		.2byte	0x1a4
 2053 07e4 01       		.byte	0x1
 2054 07e5 D9000000 		.4byte	0xd9
 2055 07e9 00000000 		.4byte	.LFB11
 2056 07ed 34000000 		.4byte	.LFE11
 2057 07f1 DC020000 		.4byte	.LLST24
 2058 07f5 19080000 		.4byte	0x819
 2059 07f9 26       		.uleb128 0x26
 2060 07fa 747000   		.ascii	"tp\000"
 2061 07fd 01       		.byte	0x1
 2062 07fe A401     		.2byte	0x1a4
 2063 0800 4F020000 		.4byte	0x24f
 2064 0804 FC020000 		.4byte	.LLST25
 2065 0808 27       		.uleb128 0x27
 2066 0809 6D736700 		.ascii	"msg\000"
 2067 080d 01       		.byte	0x1
 2068 080e A501     		.2byte	0x1a5
 2069 0810 D9000000 		.4byte	0xd9
 2070 0814 1A030000 		.4byte	.LLST26
 2071 0818 00       		.byte	0x0
 2072 0819 29       		.uleb128 0x29
 2073 081a 21000000 		.4byte	.LASF88
 2074 081e 08       		.byte	0x8
 2075 081f F5       		.byte	0xf5
 2076 0820 07040000 		.4byte	0x407
 2077 0824 01       		.byte	0x1
 2078 0825 01       		.byte	0x1
 2079 0826 29       		.uleb128 0x29
 2080 0827 78030000 		.4byte	.LASF89
 2081 082b 09       		.byte	0x9
 2082 082c 6F       		.byte	0x6f
 2083 082d 6F040000 		.4byte	0x46f
 2084 0831 01       		.byte	0x1
 2085 0832 01       		.byte	0x1
 2086 0833 29       		.uleb128 0x29
 2087 0834 21000000 		.4byte	.LASF88
 2088 0838 08       		.byte	0x8
 2089 0839 F5       		.byte	0xf5
ARM GAS  C:\Users\DNIEL~1\AppData\Local\Temp\ccxp2FFG.s 			page 38


 2090 083a 07040000 		.4byte	0x407
 2091 083e 01       		.byte	0x1
 2092 083f 01       		.byte	0x1
 2093 0840 29       		.uleb128 0x29
 2094 0841 78030000 		.4byte	.LASF89
 2095 0845 09       		.byte	0x9
 2096 0846 6F       		.byte	0x6f
 2097 0847 6F040000 		.4byte	0x46f
 2098 084b 01       		.byte	0x1
 2099 084c 01       		.byte	0x1
 2100 084d 00       		.byte	0x0
 2101              		.section	.debug_abbrev
 2102 0000 01       		.uleb128 0x1
 2103 0001 11       		.uleb128 0x11
 2104 0002 01       		.byte	0x1
 2105 0003 25       		.uleb128 0x25
 2106 0004 0E       		.uleb128 0xe
 2107 0005 13       		.uleb128 0x13
 2108 0006 0B       		.uleb128 0xb
 2109 0007 03       		.uleb128 0x3
 2110 0008 0E       		.uleb128 0xe
 2111 0009 1B       		.uleb128 0x1b
 2112 000a 0E       		.uleb128 0xe
 2113 000b 11       		.uleb128 0x11
 2114 000c 01       		.uleb128 0x1
 2115 000d 52       		.uleb128 0x52
 2116 000e 01       		.uleb128 0x1
 2117 000f 55       		.uleb128 0x55
 2118 0010 06       		.uleb128 0x6
 2119 0011 10       		.uleb128 0x10
 2120 0012 06       		.uleb128 0x6
 2121 0013 00       		.byte	0x0
 2122 0014 00       		.byte	0x0
 2123 0015 02       		.uleb128 0x2
 2124 0016 24       		.uleb128 0x24
 2125 0017 00       		.byte	0x0
 2126 0018 0B       		.uleb128 0xb
 2127 0019 0B       		.uleb128 0xb
 2128 001a 3E       		.uleb128 0x3e
 2129 001b 0B       		.uleb128 0xb
 2130 001c 03       		.uleb128 0x3
 2131 001d 08       		.uleb128 0x8
 2132 001e 00       		.byte	0x0
 2133 001f 00       		.byte	0x0
 2134 0020 03       		.uleb128 0x3
 2135 0021 16       		.uleb128 0x16
 2136 0022 00       		.byte	0x0
 2137 0023 03       		.uleb128 0x3
 2138 0024 0E       		.uleb128 0xe
 2139 0025 3A       		.uleb128 0x3a
 2140 0026 0B       		.uleb128 0xb
 2141 0027 3B       		.uleb128 0x3b
 2142 0028 0B       		.uleb128 0xb
 2143 0029 49       		.uleb128 0x49
 2144 002a 13       		.uleb128 0x13
 2145 002b 00       		.byte	0x0
 2146 002c 00       		.byte	0x0
ARM GAS  C:\Users\DNIEL~1\AppData\Local\Temp\ccxp2FFG.s 			page 39


 2147 002d 04       		.uleb128 0x4
 2148 002e 24       		.uleb128 0x24
 2149 002f 00       		.byte	0x0
 2150 0030 0B       		.uleb128 0xb
 2151 0031 0B       		.uleb128 0xb
 2152 0032 3E       		.uleb128 0x3e
 2153 0033 0B       		.uleb128 0xb
 2154 0034 03       		.uleb128 0x3
 2155 0035 0E       		.uleb128 0xe
 2156 0036 00       		.byte	0x0
 2157 0037 00       		.byte	0x0
 2158 0038 05       		.uleb128 0x5
 2159 0039 13       		.uleb128 0x13
 2160 003a 01       		.byte	0x1
 2161 003b 03       		.uleb128 0x3
 2162 003c 0E       		.uleb128 0xe
 2163 003d 0B       		.uleb128 0xb
 2164 003e 0B       		.uleb128 0xb
 2165 003f 3A       		.uleb128 0x3a
 2166 0040 0B       		.uleb128 0xb
 2167 0041 3B       		.uleb128 0x3b
 2168 0042 0B       		.uleb128 0xb
 2169 0043 01       		.uleb128 0x1
 2170 0044 13       		.uleb128 0x13
 2171 0045 00       		.byte	0x0
 2172 0046 00       		.byte	0x0
 2173 0047 06       		.uleb128 0x6
 2174 0048 0D       		.uleb128 0xd
 2175 0049 00       		.byte	0x0
 2176 004a 03       		.uleb128 0x3
 2177 004b 0E       		.uleb128 0xe
 2178 004c 3A       		.uleb128 0x3a
 2179 004d 0B       		.uleb128 0xb
 2180 004e 3B       		.uleb128 0x3b
 2181 004f 0B       		.uleb128 0xb
 2182 0050 49       		.uleb128 0x49
 2183 0051 13       		.uleb128 0x13
 2184 0052 38       		.uleb128 0x38
 2185 0053 0A       		.uleb128 0xa
 2186 0054 00       		.byte	0x0
 2187 0055 00       		.byte	0x0
 2188 0056 07       		.uleb128 0x7
 2189 0057 0D       		.uleb128 0xd
 2190 0058 00       		.byte	0x0
 2191 0059 03       		.uleb128 0x3
 2192 005a 08       		.uleb128 0x8
 2193 005b 3A       		.uleb128 0x3a
 2194 005c 0B       		.uleb128 0xb
 2195 005d 3B       		.uleb128 0x3b
 2196 005e 0B       		.uleb128 0xb
 2197 005f 49       		.uleb128 0x49
 2198 0060 13       		.uleb128 0x13
 2199 0061 38       		.uleb128 0x38
 2200 0062 0A       		.uleb128 0xa
 2201 0063 00       		.byte	0x0
 2202 0064 00       		.byte	0x0
 2203 0065 08       		.uleb128 0x8
ARM GAS  C:\Users\DNIEL~1\AppData\Local\Temp\ccxp2FFG.s 			page 40


 2204 0066 13       		.uleb128 0x13
 2205 0067 01       		.byte	0x1
 2206 0068 0B       		.uleb128 0xb
 2207 0069 0B       		.uleb128 0xb
 2208 006a 3A       		.uleb128 0x3a
 2209 006b 0B       		.uleb128 0xb
 2210 006c 3B       		.uleb128 0x3b
 2211 006d 0B       		.uleb128 0xb
 2212 006e 01       		.uleb128 0x1
 2213 006f 13       		.uleb128 0x13
 2214 0070 00       		.byte	0x0
 2215 0071 00       		.byte	0x0
 2216 0072 09       		.uleb128 0x9
 2217 0073 0F       		.uleb128 0xf
 2218 0074 00       		.byte	0x0
 2219 0075 0B       		.uleb128 0xb
 2220 0076 0B       		.uleb128 0xb
 2221 0077 49       		.uleb128 0x49
 2222 0078 13       		.uleb128 0x13
 2223 0079 00       		.byte	0x0
 2224 007a 00       		.byte	0x0
 2225 007b 0A       		.uleb128 0xa
 2226 007c 0F       		.uleb128 0xf
 2227 007d 00       		.byte	0x0
 2228 007e 0B       		.uleb128 0xb
 2229 007f 0B       		.uleb128 0xb
 2230 0080 00       		.byte	0x0
 2231 0081 00       		.byte	0x0
 2232 0082 0B       		.uleb128 0xb
 2233 0083 13       		.uleb128 0x13
 2234 0084 01       		.byte	0x1
 2235 0085 03       		.uleb128 0x3
 2236 0086 0E       		.uleb128 0xe
 2237 0087 0B       		.uleb128 0xb
 2238 0088 0B       		.uleb128 0xb
 2239 0089 3A       		.uleb128 0x3a
 2240 008a 0B       		.uleb128 0xb
 2241 008b 3B       		.uleb128 0x3b
 2242 008c 05       		.uleb128 0x5
 2243 008d 01       		.uleb128 0x1
 2244 008e 13       		.uleb128 0x13
 2245 008f 00       		.byte	0x0
 2246 0090 00       		.byte	0x0
 2247 0091 0C       		.uleb128 0xc
 2248 0092 0D       		.uleb128 0xd
 2249 0093 00       		.byte	0x0
 2250 0094 03       		.uleb128 0x3
 2251 0095 08       		.uleb128 0x8
 2252 0096 3A       		.uleb128 0x3a
 2253 0097 0B       		.uleb128 0xb
 2254 0098 3B       		.uleb128 0x3b
 2255 0099 05       		.uleb128 0x5
 2256 009a 49       		.uleb128 0x49
 2257 009b 13       		.uleb128 0x13
 2258 009c 38       		.uleb128 0x38
 2259 009d 0A       		.uleb128 0xa
 2260 009e 00       		.byte	0x0
ARM GAS  C:\Users\DNIEL~1\AppData\Local\Temp\ccxp2FFG.s 			page 41


 2261 009f 00       		.byte	0x0
 2262 00a0 0D       		.uleb128 0xd
 2263 00a1 15       		.uleb128 0x15
 2264 00a2 01       		.byte	0x1
 2265 00a3 27       		.uleb128 0x27
 2266 00a4 0C       		.uleb128 0xc
 2267 00a5 01       		.uleb128 0x1
 2268 00a6 13       		.uleb128 0x13
 2269 00a7 00       		.byte	0x0
 2270 00a8 00       		.byte	0x0
 2271 00a9 0E       		.uleb128 0xe
 2272 00aa 05       		.uleb128 0x5
 2273 00ab 00       		.byte	0x0
 2274 00ac 49       		.uleb128 0x49
 2275 00ad 13       		.uleb128 0x13
 2276 00ae 00       		.byte	0x0
 2277 00af 00       		.byte	0x0
 2278 00b0 0F       		.uleb128 0xf
 2279 00b1 35       		.uleb128 0x35
 2280 00b2 00       		.byte	0x0
 2281 00b3 49       		.uleb128 0x49
 2282 00b4 13       		.uleb128 0x13
 2283 00b5 00       		.byte	0x0
 2284 00b6 00       		.byte	0x0
 2285 00b7 10       		.uleb128 0x10
 2286 00b8 17       		.uleb128 0x17
 2287 00b9 01       		.byte	0x1
 2288 00ba 0B       		.uleb128 0xb
 2289 00bb 0B       		.uleb128 0xb
 2290 00bc 3A       		.uleb128 0x3a
 2291 00bd 0B       		.uleb128 0xb
 2292 00be 3B       		.uleb128 0x3b
 2293 00bf 0B       		.uleb128 0xb
 2294 00c0 01       		.uleb128 0x1
 2295 00c1 13       		.uleb128 0x13
 2296 00c2 00       		.byte	0x0
 2297 00c3 00       		.byte	0x0
 2298 00c4 11       		.uleb128 0x11
 2299 00c5 0D       		.uleb128 0xd
 2300 00c6 00       		.byte	0x0
 2301 00c7 03       		.uleb128 0x3
 2302 00c8 0E       		.uleb128 0xe
 2303 00c9 3A       		.uleb128 0x3a
 2304 00ca 0B       		.uleb128 0xb
 2305 00cb 3B       		.uleb128 0x3b
 2306 00cc 0B       		.uleb128 0xb
 2307 00cd 49       		.uleb128 0x49
 2308 00ce 13       		.uleb128 0x13
 2309 00cf 00       		.byte	0x0
 2310 00d0 00       		.byte	0x0
 2311 00d1 12       		.uleb128 0x12
 2312 00d2 26       		.uleb128 0x26
 2313 00d3 00       		.byte	0x0
 2314 00d4 49       		.uleb128 0x49
 2315 00d5 13       		.uleb128 0x13
 2316 00d6 00       		.byte	0x0
 2317 00d7 00       		.byte	0x0
ARM GAS  C:\Users\DNIEL~1\AppData\Local\Temp\ccxp2FFG.s 			page 42


 2318 00d8 13       		.uleb128 0x13
 2319 00d9 15       		.uleb128 0x15
 2320 00da 01       		.byte	0x1
 2321 00db 27       		.uleb128 0x27
 2322 00dc 0C       		.uleb128 0xc
 2323 00dd 49       		.uleb128 0x49
 2324 00de 13       		.uleb128 0x13
 2325 00df 01       		.uleb128 0x1
 2326 00e0 13       		.uleb128 0x13
 2327 00e1 00       		.byte	0x0
 2328 00e2 00       		.byte	0x0
 2329 00e3 14       		.uleb128 0x14
 2330 00e4 2E       		.uleb128 0x2e
 2331 00e5 01       		.byte	0x1
 2332 00e6 3F       		.uleb128 0x3f
 2333 00e7 0C       		.uleb128 0xc
 2334 00e8 03       		.uleb128 0x3
 2335 00e9 0E       		.uleb128 0xe
 2336 00ea 3A       		.uleb128 0x3a
 2337 00eb 0B       		.uleb128 0xb
 2338 00ec 3B       		.uleb128 0x3b
 2339 00ed 0B       		.uleb128 0xb
 2340 00ee 27       		.uleb128 0x27
 2341 00ef 0C       		.uleb128 0xc
 2342 00f0 49       		.uleb128 0x49
 2343 00f1 13       		.uleb128 0x13
 2344 00f2 20       		.uleb128 0x20
 2345 00f3 0B       		.uleb128 0xb
 2346 00f4 01       		.uleb128 0x1
 2347 00f5 13       		.uleb128 0x13
 2348 00f6 00       		.byte	0x0
 2349 00f7 00       		.byte	0x0
 2350 00f8 15       		.uleb128 0x15
 2351 00f9 05       		.uleb128 0x5
 2352 00fa 00       		.byte	0x0
 2353 00fb 03       		.uleb128 0x3
 2354 00fc 08       		.uleb128 0x8
 2355 00fd 3A       		.uleb128 0x3a
 2356 00fe 0B       		.uleb128 0xb
 2357 00ff 3B       		.uleb128 0x3b
 2358 0100 0B       		.uleb128 0xb
 2359 0101 49       		.uleb128 0x49
 2360 0102 13       		.uleb128 0x13
 2361 0103 00       		.byte	0x0
 2362 0104 00       		.byte	0x0
 2363 0105 16       		.uleb128 0x16
 2364 0106 05       		.uleb128 0x5
 2365 0107 00       		.byte	0x0
 2366 0108 03       		.uleb128 0x3
 2367 0109 0E       		.uleb128 0xe
 2368 010a 3A       		.uleb128 0x3a
 2369 010b 0B       		.uleb128 0xb
 2370 010c 3B       		.uleb128 0x3b
 2371 010d 0B       		.uleb128 0xb
 2372 010e 49       		.uleb128 0x49
 2373 010f 13       		.uleb128 0x13
 2374 0110 00       		.byte	0x0
ARM GAS  C:\Users\DNIEL~1\AppData\Local\Temp\ccxp2FFG.s 			page 43


 2375 0111 00       		.byte	0x0
 2376 0112 17       		.uleb128 0x17
 2377 0113 2E       		.uleb128 0x2e
 2378 0114 01       		.byte	0x1
 2379 0115 31       		.uleb128 0x31
 2380 0116 13       		.uleb128 0x13
 2381 0117 11       		.uleb128 0x11
 2382 0118 01       		.uleb128 0x1
 2383 0119 12       		.uleb128 0x12
 2384 011a 01       		.uleb128 0x1
 2385 011b 40       		.uleb128 0x40
 2386 011c 06       		.uleb128 0x6
 2387 011d 01       		.uleb128 0x1
 2388 011e 13       		.uleb128 0x13
 2389 011f 00       		.byte	0x0
 2390 0120 00       		.byte	0x0
 2391 0121 18       		.uleb128 0x18
 2392 0122 05       		.uleb128 0x5
 2393 0123 00       		.byte	0x0
 2394 0124 31       		.uleb128 0x31
 2395 0125 13       		.uleb128 0x13
 2396 0126 02       		.uleb128 0x2
 2397 0127 0A       		.uleb128 0xa
 2398 0128 00       		.byte	0x0
 2399 0129 00       		.byte	0x0
 2400 012a 19       		.uleb128 0x19
 2401 012b 2E       		.uleb128 0x2e
 2402 012c 01       		.byte	0x1
 2403 012d 3F       		.uleb128 0x3f
 2404 012e 0C       		.uleb128 0xc
 2405 012f 03       		.uleb128 0x3
 2406 0130 0E       		.uleb128 0xe
 2407 0131 3A       		.uleb128 0x3a
 2408 0132 0B       		.uleb128 0xb
 2409 0133 3B       		.uleb128 0x3b
 2410 0134 0B       		.uleb128 0xb
 2411 0135 27       		.uleb128 0x27
 2412 0136 0C       		.uleb128 0xc
 2413 0137 49       		.uleb128 0x49
 2414 0138 13       		.uleb128 0x13
 2415 0139 11       		.uleb128 0x11
 2416 013a 01       		.uleb128 0x1
 2417 013b 12       		.uleb128 0x12
 2418 013c 01       		.uleb128 0x1
 2419 013d 40       		.uleb128 0x40
 2420 013e 06       		.uleb128 0x6
 2421 013f 01       		.uleb128 0x1
 2422 0140 13       		.uleb128 0x13
 2423 0141 00       		.byte	0x0
 2424 0142 00       		.byte	0x0
 2425 0143 1A       		.uleb128 0x1a
 2426 0144 05       		.uleb128 0x5
 2427 0145 00       		.byte	0x0
 2428 0146 03       		.uleb128 0x3
 2429 0147 08       		.uleb128 0x8
 2430 0148 3A       		.uleb128 0x3a
 2431 0149 0B       		.uleb128 0xb
ARM GAS  C:\Users\DNIEL~1\AppData\Local\Temp\ccxp2FFG.s 			page 44


 2432 014a 3B       		.uleb128 0x3b
 2433 014b 0B       		.uleb128 0xb
 2434 014c 49       		.uleb128 0x49
 2435 014d 13       		.uleb128 0x13
 2436 014e 02       		.uleb128 0x2
 2437 014f 0A       		.uleb128 0xa
 2438 0150 00       		.byte	0x0
 2439 0151 00       		.byte	0x0
 2440 0152 1B       		.uleb128 0x1b
 2441 0153 05       		.uleb128 0x5
 2442 0154 00       		.byte	0x0
 2443 0155 03       		.uleb128 0x3
 2444 0156 0E       		.uleb128 0xe
 2445 0157 3A       		.uleb128 0x3a
 2446 0158 0B       		.uleb128 0xb
 2447 0159 3B       		.uleb128 0x3b
 2448 015a 0B       		.uleb128 0xb
 2449 015b 49       		.uleb128 0x49
 2450 015c 13       		.uleb128 0x13
 2451 015d 02       		.uleb128 0x2
 2452 015e 06       		.uleb128 0x6
 2453 015f 00       		.byte	0x0
 2454 0160 00       		.byte	0x0
 2455 0161 1C       		.uleb128 0x1c
 2456 0162 05       		.uleb128 0x5
 2457 0163 00       		.byte	0x0
 2458 0164 03       		.uleb128 0x3
 2459 0165 0E       		.uleb128 0xe
 2460 0166 3A       		.uleb128 0x3a
 2461 0167 0B       		.uleb128 0xb
 2462 0168 3B       		.uleb128 0x3b
 2463 0169 0B       		.uleb128 0xb
 2464 016a 49       		.uleb128 0x49
 2465 016b 13       		.uleb128 0x13
 2466 016c 02       		.uleb128 0x2
 2467 016d 0A       		.uleb128 0xa
 2468 016e 00       		.byte	0x0
 2469 016f 00       		.byte	0x0
 2470 0170 1D       		.uleb128 0x1d
 2471 0171 05       		.uleb128 0x5
 2472 0172 00       		.byte	0x0
 2473 0173 03       		.uleb128 0x3
 2474 0174 08       		.uleb128 0x8
 2475 0175 3A       		.uleb128 0x3a
 2476 0176 0B       		.uleb128 0xb
 2477 0177 3B       		.uleb128 0x3b
 2478 0178 0B       		.uleb128 0xb
 2479 0179 49       		.uleb128 0x49
 2480 017a 13       		.uleb128 0x13
 2481 017b 02       		.uleb128 0x2
 2482 017c 06       		.uleb128 0x6
 2483 017d 00       		.byte	0x0
 2484 017e 00       		.byte	0x0
 2485 017f 1E       		.uleb128 0x1e
 2486 0180 34       		.uleb128 0x34
 2487 0181 00       		.byte	0x0
 2488 0182 03       		.uleb128 0x3
ARM GAS  C:\Users\DNIEL~1\AppData\Local\Temp\ccxp2FFG.s 			page 45


 2489 0183 08       		.uleb128 0x8
 2490 0184 3A       		.uleb128 0x3a
 2491 0185 0B       		.uleb128 0xb
 2492 0186 3B       		.uleb128 0x3b
 2493 0187 0B       		.uleb128 0xb
 2494 0188 49       		.uleb128 0x49
 2495 0189 13       		.uleb128 0x13
 2496 018a 02       		.uleb128 0x2
 2497 018b 0A       		.uleb128 0xa
 2498 018c 00       		.byte	0x0
 2499 018d 00       		.byte	0x0
 2500 018e 1F       		.uleb128 0x1f
 2501 018f 1D       		.uleb128 0x1d
 2502 0190 01       		.byte	0x1
 2503 0191 31       		.uleb128 0x31
 2504 0192 13       		.uleb128 0x13
 2505 0193 11       		.uleb128 0x11
 2506 0194 01       		.uleb128 0x1
 2507 0195 12       		.uleb128 0x12
 2508 0196 01       		.uleb128 0x1
 2509 0197 58       		.uleb128 0x58
 2510 0198 0B       		.uleb128 0xb
 2511 0199 59       		.uleb128 0x59
 2512 019a 0B       		.uleb128 0xb
 2513 019b 00       		.byte	0x0
 2514 019c 00       		.byte	0x0
 2515 019d 20       		.uleb128 0x20
 2516 019e 34       		.uleb128 0x34
 2517 019f 00       		.byte	0x0
 2518 01a0 03       		.uleb128 0x3
 2519 01a1 08       		.uleb128 0x8
 2520 01a2 3A       		.uleb128 0x3a
 2521 01a3 0B       		.uleb128 0xb
 2522 01a4 3B       		.uleb128 0x3b
 2523 01a5 0B       		.uleb128 0xb
 2524 01a6 49       		.uleb128 0x49
 2525 01a7 13       		.uleb128 0x13
 2526 01a8 02       		.uleb128 0x2
 2527 01a9 06       		.uleb128 0x6
 2528 01aa 00       		.byte	0x0
 2529 01ab 00       		.byte	0x0
 2530 01ac 21       		.uleb128 0x21
 2531 01ad 34       		.uleb128 0x34
 2532 01ae 00       		.byte	0x0
 2533 01af 03       		.uleb128 0x3
 2534 01b0 0E       		.uleb128 0xe
 2535 01b1 3A       		.uleb128 0x3a
 2536 01b2 0B       		.uleb128 0xb
 2537 01b3 3B       		.uleb128 0x3b
 2538 01b4 0B       		.uleb128 0xb
 2539 01b5 49       		.uleb128 0x49
 2540 01b6 13       		.uleb128 0x13
 2541 01b7 02       		.uleb128 0x2
 2542 01b8 0A       		.uleb128 0xa
 2543 01b9 00       		.byte	0x0
 2544 01ba 00       		.byte	0x0
 2545 01bb 22       		.uleb128 0x22
ARM GAS  C:\Users\DNIEL~1\AppData\Local\Temp\ccxp2FFG.s 			page 46


 2546 01bc 2E       		.uleb128 0x2e
 2547 01bd 01       		.byte	0x1
 2548 01be 3F       		.uleb128 0x3f
 2549 01bf 0C       		.uleb128 0xc
 2550 01c0 03       		.uleb128 0x3
 2551 01c1 0E       		.uleb128 0xe
 2552 01c2 3A       		.uleb128 0x3a
 2553 01c3 0B       		.uleb128 0xb
 2554 01c4 3B       		.uleb128 0x3b
 2555 01c5 05       		.uleb128 0x5
 2556 01c6 27       		.uleb128 0x27
 2557 01c7 0C       		.uleb128 0xc
 2558 01c8 11       		.uleb128 0x11
 2559 01c9 01       		.uleb128 0x1
 2560 01ca 12       		.uleb128 0x12
 2561 01cb 01       		.uleb128 0x1
 2562 01cc 40       		.uleb128 0x40
 2563 01cd 06       		.uleb128 0x6
 2564 01ce 01       		.uleb128 0x1
 2565 01cf 13       		.uleb128 0x13
 2566 01d0 00       		.byte	0x0
 2567 01d1 00       		.byte	0x0
 2568 01d2 23       		.uleb128 0x23
 2569 01d3 05       		.uleb128 0x5
 2570 01d4 00       		.byte	0x0
 2571 01d5 03       		.uleb128 0x3
 2572 01d6 08       		.uleb128 0x8
 2573 01d7 3A       		.uleb128 0x3a
 2574 01d8 0B       		.uleb128 0xb
 2575 01d9 3B       		.uleb128 0x3b
 2576 01da 05       		.uleb128 0x5
 2577 01db 49       		.uleb128 0x49
 2578 01dc 13       		.uleb128 0x13
 2579 01dd 02       		.uleb128 0x2
 2580 01de 0A       		.uleb128 0xa
 2581 01df 00       		.byte	0x0
 2582 01e0 00       		.byte	0x0
 2583 01e1 24       		.uleb128 0x24
 2584 01e2 05       		.uleb128 0x5
 2585 01e3 00       		.byte	0x0
 2586 01e4 03       		.uleb128 0x3
 2587 01e5 0E       		.uleb128 0xe
 2588 01e6 3A       		.uleb128 0x3a
 2589 01e7 0B       		.uleb128 0xb
 2590 01e8 3B       		.uleb128 0x3b
 2591 01e9 05       		.uleb128 0x5
 2592 01ea 49       		.uleb128 0x49
 2593 01eb 13       		.uleb128 0x13
 2594 01ec 02       		.uleb128 0x2
 2595 01ed 06       		.uleb128 0x6
 2596 01ee 00       		.byte	0x0
 2597 01ef 00       		.byte	0x0
 2598 01f0 25       		.uleb128 0x25
 2599 01f1 2E       		.uleb128 0x2e
 2600 01f2 00       		.byte	0x0
 2601 01f3 3F       		.uleb128 0x3f
 2602 01f4 0C       		.uleb128 0xc
ARM GAS  C:\Users\DNIEL~1\AppData\Local\Temp\ccxp2FFG.s 			page 47


 2603 01f5 03       		.uleb128 0x3
 2604 01f6 0E       		.uleb128 0xe
 2605 01f7 3A       		.uleb128 0x3a
 2606 01f8 0B       		.uleb128 0xb
 2607 01f9 3B       		.uleb128 0x3b
 2608 01fa 05       		.uleb128 0x5
 2609 01fb 27       		.uleb128 0x27
 2610 01fc 0C       		.uleb128 0xc
 2611 01fd 11       		.uleb128 0x11
 2612 01fe 01       		.uleb128 0x1
 2613 01ff 12       		.uleb128 0x12
 2614 0200 01       		.uleb128 0x1
 2615 0201 40       		.uleb128 0x40
 2616 0202 06       		.uleb128 0x6
 2617 0203 00       		.byte	0x0
 2618 0204 00       		.byte	0x0
 2619 0205 26       		.uleb128 0x26
 2620 0206 05       		.uleb128 0x5
 2621 0207 00       		.byte	0x0
 2622 0208 03       		.uleb128 0x3
 2623 0209 08       		.uleb128 0x8
 2624 020a 3A       		.uleb128 0x3a
 2625 020b 0B       		.uleb128 0xb
 2626 020c 3B       		.uleb128 0x3b
 2627 020d 05       		.uleb128 0x5
 2628 020e 49       		.uleb128 0x49
 2629 020f 13       		.uleb128 0x13
 2630 0210 02       		.uleb128 0x2
 2631 0211 06       		.uleb128 0x6
 2632 0212 00       		.byte	0x0
 2633 0213 00       		.byte	0x0
 2634 0214 27       		.uleb128 0x27
 2635 0215 34       		.uleb128 0x34
 2636 0216 00       		.byte	0x0
 2637 0217 03       		.uleb128 0x3
 2638 0218 08       		.uleb128 0x8
 2639 0219 3A       		.uleb128 0x3a
 2640 021a 0B       		.uleb128 0xb
 2641 021b 3B       		.uleb128 0x3b
 2642 021c 05       		.uleb128 0x5
 2643 021d 49       		.uleb128 0x49
 2644 021e 13       		.uleb128 0x13
 2645 021f 02       		.uleb128 0x2
 2646 0220 06       		.uleb128 0x6
 2647 0221 00       		.byte	0x0
 2648 0222 00       		.byte	0x0
 2649 0223 28       		.uleb128 0x28
 2650 0224 2E       		.uleb128 0x2e
 2651 0225 01       		.byte	0x1
 2652 0226 3F       		.uleb128 0x3f
 2653 0227 0C       		.uleb128 0xc
 2654 0228 03       		.uleb128 0x3
 2655 0229 0E       		.uleb128 0xe
 2656 022a 3A       		.uleb128 0x3a
 2657 022b 0B       		.uleb128 0xb
 2658 022c 3B       		.uleb128 0x3b
 2659 022d 05       		.uleb128 0x5
ARM GAS  C:\Users\DNIEL~1\AppData\Local\Temp\ccxp2FFG.s 			page 48


 2660 022e 27       		.uleb128 0x27
 2661 022f 0C       		.uleb128 0xc
 2662 0230 49       		.uleb128 0x49
 2663 0231 13       		.uleb128 0x13
 2664 0232 11       		.uleb128 0x11
 2665 0233 01       		.uleb128 0x1
 2666 0234 12       		.uleb128 0x12
 2667 0235 01       		.uleb128 0x1
 2668 0236 40       		.uleb128 0x40
 2669 0237 06       		.uleb128 0x6
 2670 0238 01       		.uleb128 0x1
 2671 0239 13       		.uleb128 0x13
 2672 023a 00       		.byte	0x0
 2673 023b 00       		.byte	0x0
 2674 023c 29       		.uleb128 0x29
 2675 023d 34       		.uleb128 0x34
 2676 023e 00       		.byte	0x0
 2677 023f 03       		.uleb128 0x3
 2678 0240 0E       		.uleb128 0xe
 2679 0241 3A       		.uleb128 0x3a
 2680 0242 0B       		.uleb128 0xb
 2681 0243 3B       		.uleb128 0x3b
 2682 0244 0B       		.uleb128 0xb
 2683 0245 49       		.uleb128 0x49
 2684 0246 13       		.uleb128 0x13
 2685 0247 3F       		.uleb128 0x3f
 2686 0248 0C       		.uleb128 0xc
 2687 0249 3C       		.uleb128 0x3c
 2688 024a 0C       		.uleb128 0xc
 2689 024b 00       		.byte	0x0
 2690 024c 00       		.byte	0x0
 2691 024d 00       		.byte	0x0
 2692              		.section	.debug_pubnames,"",%progbits
 2693 0000 DB000000 		.4byte	0xdb
 2694 0004 0200     		.2byte	0x2
 2695 0006 00000000 		.4byte	.Ldebug_info0
 2696 000a 4E080000 		.4byte	0x84e
 2697 000e 58050000 		.4byte	0x558
 2698 0012 5F746872 		.ascii	"_thread_init\000"
 2698      6561645F 
 2698      696E6974 
 2698      00
 2699 001f 7C050000 		.4byte	0x57c
 2700 0023 63685468 		.ascii	"chThdCreateI\000"
 2700      64437265 
 2700      61746549 
 2700      00
 2701 0030 09060000 		.4byte	0x609
 2702 0034 63685468 		.ascii	"chThdCreateStatic\000"
 2702      64437265 
 2702      61746553 
 2702      74617469 
 2702      6300
 2703 0046 7E060000 		.4byte	0x67e
 2704 004a 63685468 		.ascii	"chThdSetPriority\000"
 2704      64536574 
 2704      5072696F 
ARM GAS  C:\Users\DNIEL~1\AppData\Local\Temp\ccxp2FFG.s 			page 49


 2704      72697479 
 2704      00
 2705 005b B8060000 		.4byte	0x6b8
 2706 005f 63685468 		.ascii	"chThdResume\000"
 2706      64526573 
 2706      756D6500 
 2707 006b E4060000 		.4byte	0x6e4
 2708 006f 63685468 		.ascii	"chThdTerminate\000"
 2708      64546572 
 2708      6D696E61 
 2708      746500
 2709 007e 0C070000 		.4byte	0x70c
 2710 0082 63685468 		.ascii	"chThdSleep\000"
 2710      64536C65 
 2710      657000
 2711 008d 37070000 		.4byte	0x737
 2712 0091 63685468 		.ascii	"chThdSleepUntil\000"
 2712      64536C65 
 2712      6570556E 
 2712      74696C00 
 2713 00a1 62070000 		.4byte	0x762
 2714 00a5 63685468 		.ascii	"chThdYield\000"
 2714      64596965 
 2714      6C6400
 2715 00b0 78070000 		.4byte	0x778
 2716 00b4 63685468 		.ascii	"chThdExitS\000"
 2716      64457869 
 2716      745300
 2717 00bf B2070000 		.4byte	0x7b2
 2718 00c3 63685468 		.ascii	"chThdExit\000"
 2718      64457869 
 2718      7400
 2719 00cd DB070000 		.4byte	0x7db
 2720 00d1 63685468 		.ascii	"chThdWait\000"
 2720      64576169 
 2720      7400
 2721 00db 00000000 		.4byte	0x0
 2722              		.section	.debug_pubtypes,"",%progbits
 2723 0000 68010000 		.4byte	0x168
 2724 0004 0200     		.2byte	0x2
 2725 0006 00000000 		.4byte	.Ldebug_info0
 2726 000a 4E080000 		.4byte	0x84e
 2727 000e 30000000 		.4byte	0x30
 2728 0012 73697A65 		.ascii	"size_t\000"
 2728      5F7400
 2729 0019 49000000 		.4byte	0x49
 2730 001d 75696E74 		.ascii	"uint8_t\000"
 2730      385F7400 
 2731 0025 69000000 		.4byte	0x69
 2732 0029 696E7433 		.ascii	"int32_t\000"
 2732      325F7400 
 2733 0031 7B000000 		.4byte	0x7b
 2734 0035 75696E74 		.ascii	"uint32_t\000"
 2734      33325F74 
 2734      00
 2735 003e A2000000 		.4byte	0xa2
 2736 0042 746D6F64 		.ascii	"tmode_t\000"
ARM GAS  C:\Users\DNIEL~1\AppData\Local\Temp\ccxp2FFG.s 			page 50


 2736      655F7400 
 2737 004a AD000000 		.4byte	0xad
 2738 004e 74737461 		.ascii	"tstate_t\000"
 2738      74655F74 
 2738      00
 2739 0057 B8000000 		.4byte	0xb8
 2740 005b 74726566 		.ascii	"trefs_t\000"
 2740      735F7400 
 2741 0063 C3000000 		.4byte	0xc3
 2742 0067 74736C69 		.ascii	"tslices_t\000"
 2742      6365735F 
 2742      7400
 2743 0071 CE000000 		.4byte	0xce
 2744 0075 74707269 		.ascii	"tprio_t\000"
 2744      6F5F7400 
 2745 007d D9000000 		.4byte	0xd9
 2746 0081 6D73675F 		.ascii	"msg_t\000"
 2746      7400
 2747 0087 E4000000 		.4byte	0xe4
 2748 008b 6576656E 		.ascii	"eventmask_t\000"
 2748      746D6173 
 2748      6B5F7400 
 2749 0097 EF000000 		.4byte	0xef
 2750 009b 73797374 		.ascii	"systime_t\000"
 2750      696D655F 
 2750      7400
 2751 00a5 FA000000 		.4byte	0xfa
 2752 00a9 54687265 		.ascii	"Thread\000"
 2752      616400
 2753 00b0 55020000 		.4byte	0x255
 2754 00b4 54687265 		.ascii	"ThreadsQueue\000"
 2754      61647351 
 2754      75657565 
 2754      00
 2755 00c1 77020000 		.4byte	0x277
 2756 00c5 54687265 		.ascii	"ThreadsList\000"
 2756      6164734C 
 2756      69737400 
 2757 00d1 82020000 		.4byte	0x282
 2758 00d5 72656761 		.ascii	"regarm_t\000"
 2758      726D5F74 
 2758      00
 2759 00de 8F020000 		.4byte	0x28f
 2760 00e2 696E7463 		.ascii	"intctx\000"
 2760      747800
 2761 00e9 1D030000 		.4byte	0x31d
 2762 00ed 636F6E74 		.ascii	"context\000"
 2762      65787400 
 2763 00f5 40030000 		.4byte	0x340
 2764 00f9 76746675 		.ascii	"vtfunc_t\000"
 2764      6E635F74 
 2764      00
 2765 0102 5D030000 		.4byte	0x35d
 2766 0106 56697274 		.ascii	"VirtualTimer\000"
 2766      75616C54 
 2766      696D6572 
 2766      00
ARM GAS  C:\Users\DNIEL~1\AppData\Local\Temp\ccxp2FFG.s 			page 51


 2767 0113 68030000 		.4byte	0x368
 2768 0117 56697274 		.ascii	"VirtualTimer\000"
 2768      75616C54 
 2768      696D6572 
 2768      00
 2769 0124 07040000 		.4byte	0x407
 2770 0128 56544C69 		.ascii	"VTList\000"
 2770      737400
 2771 012f 6F040000 		.4byte	0x46f
 2772 0133 52656164 		.ascii	"ReadyList\000"
 2772      794C6973 
 2772      7400
 2773 013d 7A040000 		.4byte	0x47a
 2774 0141 4D757465 		.ascii	"Mutex\000"
 2774      7800
 2775 0147 B7040000 		.4byte	0x4b7
 2776 014b 4D757465 		.ascii	"Mutex\000"
 2776      7800
 2777 0151 05010000 		.4byte	0x105
 2778 0155 54687265 		.ascii	"Thread\000"
 2778      616400
 2779 015c 0F050000 		.4byte	0x50f
 2780 0160 7466756E 		.ascii	"tfunc_t\000"
 2780      635F7400 
 2781 0168 00000000 		.4byte	0x0
 2782              		.section	.debug_aranges,"",%progbits
 2783 0000 74000000 		.4byte	0x74
 2784 0004 0200     		.2byte	0x2
 2785 0006 00000000 		.4byte	.Ldebug_info0
 2786 000a 04       		.byte	0x4
 2787 000b 00       		.byte	0x0
 2788 000c 0000     		.2byte	0x0
 2789 000e 0000     		.2byte	0x0
 2790 0010 00000000 		.4byte	.LFB0
 2791 0014 40000000 		.4byte	.LFE0-.LFB0
 2792 0018 00000000 		.4byte	.LFB1
 2793 001c 54000000 		.4byte	.LFE1-.LFB1
 2794 0020 00000000 		.4byte	.LFB2
 2795 0024 26000000 		.4byte	.LFE2-.LFB2
 2796 0028 00000000 		.4byte	.LFB3
 2797 002c 2C000000 		.4byte	.LFE3-.LFB3
 2798 0030 00000000 		.4byte	.LFB4
 2799 0034 16000000 		.4byte	.LFE4-.LFB4
 2800 0038 00000000 		.4byte	.LFB5
 2801 003c 16000000 		.4byte	.LFE5-.LFB5
 2802 0040 00000000 		.4byte	.LFB6
 2803 0044 14000000 		.4byte	.LFE6-.LFB6
 2804 0048 00000000 		.4byte	.LFB7
 2805 004c 20000000 		.4byte	.LFE7-.LFB7
 2806 0050 00000000 		.4byte	.LFB8
 2807 0054 24000000 		.4byte	.LFE8-.LFB8
 2808 0058 00000000 		.4byte	.LFB10
 2809 005c 44000000 		.4byte	.LFE10-.LFB10
 2810 0060 00000000 		.4byte	.LFB9
 2811 0064 0E000000 		.4byte	.LFE9-.LFB9
 2812 0068 00000000 		.4byte	.LFB11
 2813 006c 34000000 		.4byte	.LFE11-.LFB11
ARM GAS  C:\Users\DNIEL~1\AppData\Local\Temp\ccxp2FFG.s 			page 52


 2814 0070 00000000 		.4byte	0x0
 2815 0074 00000000 		.4byte	0x0
 2816              		.section	.debug_ranges,"",%progbits
 2817              	.Ldebug_ranges0:
 2818 0000 00000000 		.4byte	.LFB0
 2819 0004 40000000 		.4byte	.LFE0
 2820 0008 00000000 		.4byte	.LFB1
 2821 000c 54000000 		.4byte	.LFE1
 2822 0010 00000000 		.4byte	.LFB2
 2823 0014 26000000 		.4byte	.LFE2
 2824 0018 00000000 		.4byte	.LFB3
 2825 001c 2C000000 		.4byte	.LFE3
 2826 0020 00000000 		.4byte	.LFB4
 2827 0024 16000000 		.4byte	.LFE4
 2828 0028 00000000 		.4byte	.LFB5
 2829 002c 16000000 		.4byte	.LFE5
 2830 0030 00000000 		.4byte	.LFB6
 2831 0034 14000000 		.4byte	.LFE6
 2832 0038 00000000 		.4byte	.LFB7
 2833 003c 20000000 		.4byte	.LFE7
 2834 0040 00000000 		.4byte	.LFB8
 2835 0044 24000000 		.4byte	.LFE8
 2836 0048 00000000 		.4byte	.LFB10
 2837 004c 44000000 		.4byte	.LFE10
 2838 0050 00000000 		.4byte	.LFB9
 2839 0054 0E000000 		.4byte	.LFE9
 2840 0058 00000000 		.4byte	.LFB11
 2841 005c 34000000 		.4byte	.LFE11
 2842 0060 00000000 		.4byte	0x0
 2843 0064 00000000 		.4byte	0x0
 2844              		.section	.debug_str,"MS",%progbits,1
 2845              	.LASF72:
 2846 0000 7466756E 		.ascii	"tfunc_t\000"
 2846      635F7400 
 2847              	.LASF37:
 2848 0008 705F6D73 		.ascii	"p_msg\000"
 2848      6700
 2849              	.LASF2:
 2850 000e 73697A65 		.ascii	"size_t\000"
 2850      5F7400
 2851              	.LASF73:
 2852 0015 7072696F 		.ascii	"prio\000"
 2852      00
 2853              	.LASF67:
 2854 001a 7264796D 		.ascii	"rdymsg\000"
 2854      736700
 2855              	.LASF88:
 2856 0021 76746C69 		.ascii	"vtlist\000"
 2856      737400
 2857              	.LASF85:
 2858 0028 63685468 		.ascii	"chThdExitS\000"
 2858      64457869 
 2858      745300
 2859              	.LASF12:
 2860 0033 6C6F6E67 		.ascii	"long long unsigned int\000"
 2860      206C6F6E 
 2860      6720756E 
ARM GAS  C:\Users\DNIEL~1\AppData\Local\Temp\ccxp2FFG.s 			page 53


 2860      7369676E 
 2860      65642069 
 2861              	.LASF68:
 2862 004a 65786974 		.ascii	"exitcode\000"
 2862      636F6465 
 2862      00
 2863              	.LASF25:
 2864 0053 705F7072 		.ascii	"p_prio\000"
 2864      696F00
 2865              	.LASF11:
 2866 005a 6C6F6E67 		.ascii	"long long int\000"
 2866      206C6F6E 
 2866      6720696E 
 2866      7400
 2867              	.LASF1:
 2868 0068 7369676E 		.ascii	"signed char\000"
 2868      65642063 
 2868      68617200 
 2869              	.LASF86:
 2870 0074 63685468 		.ascii	"chThdExit\000"
 2870      64457869 
 2870      7400
 2871              	.LASF10:
 2872 007e 6C6F6E67 		.ascii	"long unsigned int\000"
 2872      20756E73 
 2872      69676E65 
 2872      6420696E 
 2872      7400
 2873              	.LASF41:
 2874 0090 705F6D70 		.ascii	"p_mpool\000"
 2874      6F6F6C00 
 2875              	.LASF64:
 2876 0098 6D5F7175 		.ascii	"m_queue\000"
 2876      65756500 
 2877              	.LASF17:
 2878 00a0 74736C69 		.ascii	"tslices_t\000"
 2878      6365735F 
 2878      7400
 2879              	.LASF75:
 2880 00aa 63685468 		.ascii	"chThdCreateI\000"
 2880      64437265 
 2880      61746549 
 2880      00
 2881              	.LASF8:
 2882 00b7 6C6F6E67 		.ascii	"long int\000"
 2882      20696E74 
 2882      00
 2883              	.LASF15:
 2884 00c0 74737461 		.ascii	"tstate_t\000"
 2884      74655F74 
 2884      00
 2885              	.LASF27:
 2886 00c9 705F6E65 		.ascii	"p_newer\000"
 2886      77657200 
 2887              	.LASF91:
 2888 00d1 2E2E2F2E 		.ascii	"../../../ChibiOS/os/kernel/src/chthreads.c\000"
 2888      2E2F2E2E 
ARM GAS  C:\Users\DNIEL~1\AppData\Local\Temp\ccxp2FFG.s 			page 54


 2888      2F436869 
 2888      62694F53 
 2888      2F6F732F 
 2889              	.LASF59:
 2890 00fc 725F6E65 		.ascii	"r_newer\000"
 2890      77657200 
 2891              	.LASF44:
 2892 0104 72656761 		.ascii	"regarm_t\000"
 2892      726D5F74 
 2892      00
 2893              	.LASF50:
 2894 010d 76745F70 		.ascii	"vt_prev\000"
 2894      72657600 
 2895              	.LASF77:
 2896 0115 63685468 		.ascii	"chThdSetPriority\000"
 2896      64536574 
 2896      5072696F 
 2896      72697479 
 2896      00
 2897              	.LASF0:
 2898 0126 756E7369 		.ascii	"unsigned int\000"
 2898      676E6564 
 2898      20696E74 
 2898      00
 2899              	.LASF49:
 2900 0133 76745F6E 		.ascii	"vt_next\000"
 2900      65787400 
 2901              	.LASF92:
 2902 013b 433A5C44 		.ascii	"C:\\Dani\\MegaLux\\Repo\\LuxControl\\LuxControl\\lu"
 2902      616E695C 
 2902      4D656761 
 2902      4C75785C 
 2902      5265706F 
 2903 0168 78636F6E 		.ascii	"xcontrol\\firmware\000"
 2903      74726F6C 
 2903      5C666972 
 2903      6D776172 
 2903      6500
 2904              	.LASF46:
 2905 017a 636F6E74 		.ascii	"context\000"
 2905      65787400 
 2906              	.LASF74:
 2907 0182 73697A65 		.ascii	"size\000"
 2907      00
 2908              	.LASF6:
 2909 0187 73686F72 		.ascii	"short unsigned int\000"
 2909      7420756E 
 2909      7369676E 
 2909      65642069 
 2909      6E7400
 2910              	.LASF19:
 2911 019a 6D73675F 		.ascii	"msg_t\000"
 2911      7400
 2912              	.LASF78:
 2913 01a0 6E657770 		.ascii	"newprio\000"
 2913      72696F00 
 2914              	.LASF14:
ARM GAS  C:\Users\DNIEL~1\AppData\Local\Temp\ccxp2FFG.s 			page 55


 2915 01a8 746D6F64 		.ascii	"tmode_t\000"
 2915      655F7400 
 2916              	.LASF81:
 2917 01b0 63685468 		.ascii	"chThdTerminate\000"
 2917      64546572 
 2917      6D696E61 
 2917      746500
 2918              	.LASF43:
 2919 01bf 54687265 		.ascii	"ThreadsList\000"
 2919      6164734C 
 2919      69737400 
 2920              	.LASF20:
 2921 01cb 6576656E 		.ascii	"eventmask_t\000"
 2921      746D6173 
 2921      6B5F7400 
 2922              	.LASF63:
 2923 01d7 4D757465 		.ascii	"Mutex\000"
 2923      7800
 2924              	.LASF79:
 2925 01dd 6F6C6470 		.ascii	"oldprio\000"
 2925      72696F00 
 2926              	.LASF76:
 2927 01e5 63685468 		.ascii	"chThdCreateStatic\000"
 2927      64437265 
 2927      61746553 
 2927      74617469 
 2927      6300
 2928              	.LASF51:
 2929 01f7 76745F74 		.ascii	"vt_time\000"
 2929      696D6500 
 2930              	.LASF52:
 2931 01ff 76745F66 		.ascii	"vt_func\000"
 2931      756E6300 
 2932              	.LASF80:
 2933 0207 63685468 		.ascii	"chThdResume\000"
 2933      64526573 
 2933      756D6500 
 2934              	.LASF28:
 2935 0213 705F6F6C 		.ascii	"p_older\000"
 2935      64657200 
 2936              	.LASF58:
 2937 021b 725F6374 		.ascii	"r_ctx\000"
 2937      7800
 2938              	.LASF42:
 2939 0221 54687265 		.ascii	"ThreadsQueue\000"
 2939      61647351 
 2939      75657565 
 2939      00
 2940              	.LASF83:
 2941 022e 74696D65 		.ascii	"time\000"
 2941      00
 2942              	.LASF61:
 2943 0233 725F6375 		.ascii	"r_current\000"
 2943      7272656E 
 2943      7400
 2944              	.LASF60:
 2945 023d 725F6F6C 		.ascii	"r_older\000"
ARM GAS  C:\Users\DNIEL~1\AppData\Local\Temp\ccxp2FFG.s 			page 56


 2945      64657200 
 2946              	.LASF84:
 2947 0245 63685468 		.ascii	"chThdSleepUntil\000"
 2947      64536C65 
 2947      6570556E 
 2947      74696C00 
 2948              	.LASF16:
 2949 0255 74726566 		.ascii	"trefs_t\000"
 2949      735F7400 
 2950              	.LASF24:
 2951 025d 705F7072 		.ascii	"p_prev\000"
 2951      657600
 2952              	.LASF18:
 2953 0264 74707269 		.ascii	"tprio_t\000"
 2953      6F5F7400 
 2954              	.LASF13:
 2955 026c 5F426F6F 		.ascii	"_Bool\000"
 2955      6C00
 2956              	.LASF7:
 2957 0272 696E7433 		.ascii	"int32_t\000"
 2957      325F7400 
 2958              	.LASF4:
 2959 027a 756E7369 		.ascii	"unsigned char\000"
 2959      676E6564 
 2959      20636861 
 2959      7200
 2960              	.LASF39:
 2961 0288 705F6D74 		.ascii	"p_mtxlist\000"
 2961      786C6973 
 2961      7400
 2962              	.LASF5:
 2963 0292 73686F72 		.ascii	"short int\000"
 2963      7420696E 
 2963      7400
 2964              	.LASF30:
 2965 029c 705F7374 		.ascii	"p_state\000"
 2965      61746500 
 2966              	.LASF33:
 2967 02a4 705F7072 		.ascii	"p_preempt\000"
 2967      65656D70 
 2967      7400
 2968              	.LASF57:
 2969 02ae 725F7072 		.ascii	"r_prio\000"
 2969      696F00
 2970              	.LASF70:
 2971 02b5 65776D61 		.ascii	"ewmask\000"
 2971      736B00
 2972              	.LASF23:
 2973 02bc 705F6E65 		.ascii	"p_next\000"
 2973      787400
 2974              	.LASF31:
 2975 02c3 705F666C 		.ascii	"p_flags\000"
 2975      61677300 
 2976              	.LASF22:
 2977 02cb 54687265 		.ascii	"Thread\000"
 2977      616400
 2978              	.LASF38:
ARM GAS  C:\Users\DNIEL~1\AppData\Local\Temp\ccxp2FFG.s 			page 57


 2979 02d2 705F6570 		.ascii	"p_epending\000"
 2979      656E6469 
 2979      6E6700
 2980              	.LASF9:
 2981 02dd 75696E74 		.ascii	"uint32_t\000"
 2981      33325F74 
 2981      00
 2982              	.LASF93:
 2983 02e6 5F746872 		.ascii	"_thread_init\000"
 2983      6561645F 
 2983      696E6974 
 2983      00
 2984              	.LASF56:
 2985 02f3 725F7175 		.ascii	"r_queue\000"
 2985      65756500 
 2986              	.LASF48:
 2987 02fb 56697274 		.ascii	"VirtualTimer\000"
 2987      75616C54 
 2987      696D6572 
 2987      00
 2988              	.LASF71:
 2989 0308 63686172 		.ascii	"char\000"
 2989      00
 2990              	.LASF66:
 2991 030d 6D5F6E65 		.ascii	"m_next\000"
 2991      787400
 2992              	.LASF21:
 2993 0314 73797374 		.ascii	"systime_t\000"
 2993      696D655F 
 2993      7400
 2994              	.LASF40:
 2995 031e 705F7265 		.ascii	"p_realprio\000"
 2995      616C7072 
 2995      696F00
 2996              	.LASF47:
 2997 0329 76746675 		.ascii	"vtfunc_t\000"
 2997      6E635F74 
 2997      00
 2998              	.LASF34:
 2999 0332 705F7469 		.ascii	"p_time\000"
 2999      6D6500
 3000              	.LASF45:
 3001 0339 696E7463 		.ascii	"intctx\000"
 3001      747800
 3002              	.LASF36:
 3003 0340 705F6D73 		.ascii	"p_msgqueue\000"
 3003      67717565 
 3003      756500
 3004              	.LASF87:
 3005 034b 63685468 		.ascii	"chThdWait\000"
 3005      64576169 
 3005      7400
 3006              	.LASF53:
 3007 0355 76745F70 		.ascii	"vt_par\000"
 3007      617200
 3008              	.LASF82:
 3009 035c 63685468 		.ascii	"chThdSleep\000"
ARM GAS  C:\Users\DNIEL~1\AppData\Local\Temp\ccxp2FFG.s 			page 58


 3009      64536C65 
 3009      657000
 3010              	.LASF32:
 3011 0367 705F7265 		.ascii	"p_refs\000"
 3011      667300
 3012              	.LASF62:
 3013 036e 52656164 		.ascii	"ReadyList\000"
 3013      794C6973 
 3013      7400
 3014              	.LASF89:
 3015 0378 726C6973 		.ascii	"rlist\000"
 3015      7400
 3016              	.LASF3:
 3017 037e 75696E74 		.ascii	"uint8_t\000"
 3017      385F7400 
 3018              	.LASF94:
 3019 0386 63685468 		.ascii	"chThdYield\000"
 3019      64596965 
 3019      6C6400
 3020              	.LASF69:
 3021 0391 77746F62 		.ascii	"wtobjp\000"
 3021      6A7000
 3022              	.LASF90:
 3023 0398 474E5520 		.ascii	"GNU C 4.5.2\000"
 3023      4320342E 
 3023      352E3200 
 3024              	.LASF29:
 3025 03a4 705F6E61 		.ascii	"p_name\000"
 3025      6D6500
 3026              	.LASF54:
 3027 03ab 76745F73 		.ascii	"vt_systime\000"
 3027      79737469 
 3027      6D6500
 3028              	.LASF55:
 3029 03b6 56544C69 		.ascii	"VTList\000"
 3029      737400
 3030              	.LASF65:
 3031 03bd 6D5F6F77 		.ascii	"m_owner\000"
 3031      6E657200 
 3032              	.LASF26:
 3033 03c5 705F6374 		.ascii	"p_ctx\000"
 3033      7800
 3034              	.LASF35:
 3035 03cb 705F7761 		.ascii	"p_waiting\000"
 3035      6974696E 
 3035      6700
 3036              		.ident	"GCC: (Sourcery G++ Lite 2011.03-42) 4.5.2"
ARM GAS  C:\Users\DNIEL~1\AppData\Local\Temp\ccxp2FFG.s 			page 59


DEFINED SYMBOLS
                            *ABS*:00000000 chthreads.c
C:\Users\DNIEL~1\AppData\Local\Temp\ccxp2FFG.s:24     .text._thread_init:00000000 $t
C:\Users\DNIEL~1\AppData\Local\Temp\ccxp2FFG.s:30     .text._thread_init:00000000 _thread_init
C:\Users\DNIEL~1\AppData\Local\Temp\ccxp2FFG.s:101    .text._thread_init:0000003c $d
C:\Users\DNIEL~1\AppData\Local\Temp\ccxp2FFG.s:106    .text.chThdCreateI:00000000 $t
C:\Users\DNIEL~1\AppData\Local\Temp\ccxp2FFG.s:112    .text.chThdCreateI:00000000 chThdCreateI
C:\Users\DNIEL~1\AppData\Local\Temp\ccxp2FFG.s:203    .text.chThdCreateI:0000004c $d
C:\Users\DNIEL~1\AppData\Local\Temp\ccxp2FFG.s:209    .text.chThdCreateStatic:00000000 $t
C:\Users\DNIEL~1\AppData\Local\Temp\ccxp2FFG.s:215    .text.chThdCreateStatic:00000000 chThdCreateStatic
C:\Users\DNIEL~1\AppData\Local\Temp\ccxp2FFG.s:261    .text.chThdSetPriority:00000000 $t
C:\Users\DNIEL~1\AppData\Local\Temp\ccxp2FFG.s:267    .text.chThdSetPriority:00000000 chThdSetPriority
C:\Users\DNIEL~1\AppData\Local\Temp\ccxp2FFG.s:318    .text.chThdSetPriority:00000028 $d
C:\Users\DNIEL~1\AppData\Local\Temp\ccxp2FFG.s:323    .text.chThdResume:00000000 $t
C:\Users\DNIEL~1\AppData\Local\Temp\ccxp2FFG.s:329    .text.chThdResume:00000000 chThdResume
C:\Users\DNIEL~1\AppData\Local\Temp\ccxp2FFG.s:364    .text.chThdTerminate:00000000 $t
C:\Users\DNIEL~1\AppData\Local\Temp\ccxp2FFG.s:370    .text.chThdTerminate:00000000 chThdTerminate
C:\Users\DNIEL~1\AppData\Local\Temp\ccxp2FFG.s:401    .text.chThdSleep:00000000 $t
C:\Users\DNIEL~1\AppData\Local\Temp\ccxp2FFG.s:407    .text.chThdSleep:00000000 chThdSleep
C:\Users\DNIEL~1\AppData\Local\Temp\ccxp2FFG.s:442    .text.chThdSleepUntil:00000000 $t
C:\Users\DNIEL~1\AppData\Local\Temp\ccxp2FFG.s:448    .text.chThdSleepUntil:00000000 chThdSleepUntil
C:\Users\DNIEL~1\AppData\Local\Temp\ccxp2FFG.s:487    .text.chThdSleepUntil:0000001c $d
C:\Users\DNIEL~1\AppData\Local\Temp\ccxp2FFG.s:492    .text.chThdYield:00000000 $t
C:\Users\DNIEL~1\AppData\Local\Temp\ccxp2FFG.s:498    .text.chThdYield:00000000 chThdYield
C:\Users\DNIEL~1\AppData\Local\Temp\ccxp2FFG.s:535    .text.chThdYield:00000020 $d
C:\Users\DNIEL~1\AppData\Local\Temp\ccxp2FFG.s:540    .text.chThdExitS:00000000 $t
C:\Users\DNIEL~1\AppData\Local\Temp\ccxp2FFG.s:546    .text.chThdExitS:00000000 chThdExitS
C:\Users\DNIEL~1\AppData\Local\Temp\ccxp2FFG.s:605    .text.chThdExitS:00000040 $d
C:\Users\DNIEL~1\AppData\Local\Temp\ccxp2FFG.s:610    .text.chThdExit:00000000 $t
C:\Users\DNIEL~1\AppData\Local\Temp\ccxp2FFG.s:616    .text.chThdExit:00000000 chThdExit
C:\Users\DNIEL~1\AppData\Local\Temp\ccxp2FFG.s:640    .text.chThdWait:00000000 $t
C:\Users\DNIEL~1\AppData\Local\Temp\ccxp2FFG.s:646    .text.chThdWait:00000000 chThdWait
C:\Users\DNIEL~1\AppData\Local\Temp\ccxp2FFG.s:699    .text.chThdWait:00000030 $d
                     .debug_frame:00000010 $d
C:\Users\DNIEL~1\AppData\Local\Temp\ccxp2FFG.s:208    .text.chThdCreateI:00000054 $t
C:\Users\DNIEL~1\AppData\Local\Temp\ccxp2FFG.s:322    .text.chThdSetPriority:0000002c $t
C:\Users\DNIEL~1\AppData\Local\Temp\ccxp2FFG.s:539    .text.chThdYield:00000024 $t
C:\Users\DNIEL~1\AppData\Local\Temp\ccxp2FFG.s:609    .text.chThdExitS:00000044 $t
C:\Users\DNIEL~1\AppData\Local\Temp\ccxp2FFG.s:703    .text.chThdWait:00000034 $t

UNDEFINED SYMBOLS
rlist
_port_thread_start
_port_lock
chSchWakeupS
_port_unlock
chSchRescheduleS
chSchGoSleepTimeoutS
vtlist
chSchDoRescheduleBehind
list_remove
chSchReadyI
chSchGoSleepS
list_insert
chThdRelease
