ARM GAS  C:\Users\DNIEL~1\AppData\Local\Temp\ccRjo4sj.s 			page 1


   1              		.syntax unified
   2              		.cpu cortex-m3
   3              		.fpu softvfp
   4              		.eabi_attribute 20, 1
   5              		.eabi_attribute 21, 1
   6              		.eabi_attribute 23, 3
   7              		.eabi_attribute 24, 1
   8              		.eabi_attribute 25, 1
   9              		.eabi_attribute 26, 1
  10              		.eabi_attribute 30, 2
  11              		.eabi_attribute 18, 4
  12              		.thumb
  13              		.file	"evtimer.c"
  20 0000 C6010000 		.text
  20      02007401 
  20      00000201 
  20      FB0E0D00 
  20      01010101 
  21              	.Ltext0:
  22              		.cfi_sections	.debug_frame
  23              		.section	.text.tmrcb,"ax",%progbits
  24              		.align	2
  25              		.p2align 4,,15
  26              		.thumb
  27              		.thumb_func
  28              		.type	tmrcb, %function
  29              	tmrcb:
  30              	.LFB0:
  31              		.file 1 "../../../ChibiOS/os/various/evtimer.c"
  32              		.loc 1 32 0
  33              		.cfi_startproc
  34              		@ args = 0, pretend = 0, frame = 0
  35              		@ frame_needed = 0, uses_anonymous_args = 0
  36              	.LVL0:
  37 0000 10B5     		push	{r4, lr}
  38              	.LCFI0:
  39              		.cfi_def_cfa_offset 8
  40              		.loc 1 32 0
  41 0002 0446     		mov	r4, r0
  42              		.cfi_offset 14, -4
  43              		.cfi_offset 4, -8
  44              	.LVL1:
  45              		.loc 1 35 0
  46              	@ 35 "../../../ChibiOS/os/various/evtimer.c" 1
  47 0004 FFF7FEFF 		bl      _port_lock
  48              	@ 0 "" 2
  49              		.loc 1 36 0
  50              		.thumb
  51 0008 0021     		movs	r1, #0
  52 000a 1430     		adds	r0, r0, #20
  53              	.LVL2:
ARM GAS  C:\Users\DNIEL~1\AppData\Local\Temp\ccRjo4sj.s 			page 2


  54 000c FFF7FEFF 		bl	chEvtBroadcastFlagsI
  55              		.loc 1 37 0
  56 0010 2046     		mov	r0, r4
  57 0012 A169     		ldr	r1, [r4, #24]
  58 0014 034A     		ldr	r2, .L2
  59 0016 2346     		mov	r3, r4
  60 0018 FFF7FEFF 		bl	chVTSetI
  61              		.loc 1 38 0
  62              	@ 38 "../../../ChibiOS/os/various/evtimer.c" 1
  63 001c FFF7FEFF 		bl      _port_unlock
  64              	@ 0 "" 2
  65              		.loc 1 39 0
  66              		.thumb
  67 0020 10BD     		pop	{r4, pc}
  68              	.L3:
  69 0022 00BF     		.align	2
  70              	.L2:
  71 0024 00000000 		.word	tmrcb
  72              		.cfi_endproc
  73              	.LFE0:
  74              		.size	tmrcb, .-tmrcb
  75 0028 AFF30080 		.section	.text.evtStart,"ax",%progbits
  75      AFF30080 
  76              		.align	2
  77              		.p2align 4,,15
  78              		.global	evtStart
  79              		.thumb
  80              		.thumb_func
  81              		.type	evtStart, %function
  82              	evtStart:
  83              	.LFB1:
  84              		.loc 1 47 0
  85              		.cfi_startproc
  86              		@ args = 0, pretend = 0, frame = 0
  87              		@ frame_needed = 0, uses_anonymous_args = 0
  88              	.LVL3:
  89 0000 10B5     		push	{r4, lr}
  90              	.LCFI1:
  91              		.cfi_def_cfa_offset 8
  92              		.loc 1 49 0
  93              	@ 49 "../../../ChibiOS/os/various/evtimer.c" 1
  94 0002 FFF7FEFF 		bl      _port_lock
  95              	@ 0 "" 2
  96              		.loc 1 51 0
  97              		.thumb
  98 0006 C368     		ldr	r3, [r0, #12]
  99 0008 13B1     		cbz	r3, .L7
 100              		.cfi_offset 14, -4
 101              		.cfi_offset 4, -8
 102              		.loc 1 54 0
 103              	@ 54 "../../../ChibiOS/os/various/evtimer.c" 1
 104 000a FFF7FEFF 		bl      _port_unlock
 105              	@ 0 "" 2
 106              		.loc 1 55 0
 107              		.thumb
 108 000e 10BD     		pop	{r4, pc}
 109              	.L7:
ARM GAS  C:\Users\DNIEL~1\AppData\Local\Temp\ccRjo4sj.s 			page 3


 110              		.loc 1 52 0
 111 0010 8169     		ldr	r1, [r0, #24]
 112 0012 034A     		ldr	r2, .L8
 113 0014 0346     		mov	r3, r0
 114 0016 FFF7FEFF 		bl	chVTSetI
 115              	.LVL4:
 116              		.loc 1 54 0
 117              	@ 54 "../../../ChibiOS/os/various/evtimer.c" 1
 118 001a FFF7FEFF 		bl      _port_unlock
 119              	@ 0 "" 2
 120              		.loc 1 55 0
 121              		.thumb
 122 001e 10BD     		pop	{r4, pc}
 123              	.L9:
 124              		.align	2
 125              	.L8:
 126 0020 00000000 		.word	tmrcb
 127              		.cfi_endproc
 128              	.LFE1:
 129              		.size	evtStart, .-evtStart
 130 0024 AFF30080 		.section	.text.evtStop,"ax",%progbits
 130      AFF30080 
 130      AFF30080 
 131              		.align	2
 132              		.p2align 4,,15
 133              		.global	evtStop
 134              		.thumb
 135              		.thumb_func
 136              		.type	evtStop, %function
 137              	evtStop:
 138              	.LFB2:
 139              		.loc 1 63 0
 140              		.cfi_startproc
 141              		@ args = 0, pretend = 0, frame = 0
 142              		@ frame_needed = 0, uses_anonymous_args = 0
 143              	.LVL5:
 144 0000 08B5     		push	{r3, lr}
 145              	.LCFI2:
 146              		.cfi_def_cfa_offset 8
 147              		.loc 1 65 0
 148              	@ 65 "../../../ChibiOS/os/various/evtimer.c" 1
 149 0002 FFF7FEFF 		bl      _port_lock
 150              	@ 0 "" 2
 151              		.thumb
 152 0006 C368     		ldr	r3, [r0, #12]
 153              		.cfi_offset 14, -4
 154              		.cfi_offset 3, -8
 155 0008 0BB1     		cbz	r3, .L11
 156              		.loc 1 65 0 is_stmt 0 discriminator 1
 157 000a FFF7FEFF 		bl	chVTResetI
 158              	.LVL6:
 159              	.L11:
 160              		.loc 1 65 0 discriminator 2
 161              	@ 65 "../../../ChibiOS/os/various/evtimer.c" 1
 162 000e FFF7FEFF 		bl      _port_unlock
 163              	@ 0 "" 2
 164              		.loc 1 66 0 is_stmt 1 discriminator 2
ARM GAS  C:\Users\DNIEL~1\AppData\Local\Temp\ccRjo4sj.s 			page 4


 165              		.thumb
 166 0012 08BD     		pop	{r3, pc}
 167              		.cfi_endproc
 168              	.LFE2:
 169              		.size	evtStop, .-evtStop
 170 0014 AFF30080 		.text
 170      AFF30080 
 170      AFF30080 
 171              	.Letext0: