ARM GAS  C:\Users\DNIEL~1\AppData\Local\Temp\ccc9S4hh.s 			page 1


   1              		.syntax unified
   2              		.cpu cortex-m3
   3              		.fpu softvfp
   4              		.eabi_attribute 20, 1
   5              		.eabi_attribute 21, 1
   6              		.eabi_attribute 23, 3
   7              		.eabi_attribute 24, 1
   8              		.eabi_attribute 25, 1
   9              		.eabi_attribute 26, 1
  10              		.eabi_attribute 30, 2
  11              		.eabi_attribute 18, 4
  12              		.thumb
  13              		.file	"hal.c"
  14              		.section	.debug_abbrev,"",%progbits
  15              	.Ldebug_abbrev0:
  16              		.section	.debug_info,"",%progbits
  17              	.Ldebug_info0:
  18              		.section	.debug_line,"",%progbits
  19              	.Ldebug_line0:
  20 0000 4B020000 		.text
  20      0200DC01 
  20      00000201 
  20      FB0E0D00 
  20      01010101 
  21              	.Ltext0:
  22              		.cfi_sections	.debug_frame
  23              		.section	.text.halInit,"ax",%progbits
  24              		.align	2
  25              		.p2align 4,,15
  26              		.global	halInit
  27              		.thumb
  28              		.thumb_func
  29              		.type	halInit, %function
  30              	halInit:
  31              	.LFB56:
  32              		.file 1 "../../../ChibiOS/os/hal/src/hal.c"
  33              		.loc 1 68 0
  34              		.cfi_startproc
  35              		@ args = 0, pretend = 0, frame = 0
  36              		@ frame_needed = 0, uses_anonymous_args = 0
  37 0000 10B5     		push	{r4, lr}
  38              	.LCFI0:
  39              		.cfi_def_cfa_offset 8
  40              		.loc 1 70 0
  41              		.cfi_offset 14, -4
  42              		.cfi_offset 4, -8
  43 0002 FFF7FEFF 		bl	hal_lld_init
  44              		.loc 1 73 0
  45 0006 FFF7FEFF 		bl	tmInit
  46              		.loc 1 76 0
  47 000a 0648     		ldr	r0, .L2
  48 000c FFF7FEFF 		bl	_pal_lld_init
  49              		.loc 1 79 0
  50 0010 FFF7FEFF 		bl	adcInit
  51              		.loc 1 82 0
  52 0014 FFF7FEFF 		bl	canInit
  53              		.loc 1 109 0
ARM GAS  C:\Users\DNIEL~1\AppData\Local\Temp\ccc9S4hh.s 			page 2


  54 0018 FFF7FEFF 		bl	spiInit
  55              		.loc 1 128 0
  56 001c BDE81040 		pop	{r4, lr}
  57              		.loc 1 127 0
  58 0020 FFF7FEBF 		b	boardInit
  59              	.L3:
  60              		.align	2
  61              	.L2:
  62 0024 00000000 		.word	pal_default_config
  63              		.cfi_endproc
  64              	.LFE56:
  65              		.size	halInit, .-halInit
  66 0028 AFF30080 		.section	.text.halIsCounterWithin,"ax",%progbits
  66      AFF30080 
  67              		.align	2
  68              		.p2align 4,,15
  69              		.global	halIsCounterWithin
  70              		.thumb
  71              		.thumb_func
  72              		.type	halIsCounterWithin, %function
  73              	halIsCounterWithin:
  74              	.LFB57:
  75              		.loc 1 174 0
  76              		.cfi_startproc
  77              		@ args = 0, pretend = 0, frame = 0
  78              		@ frame_needed = 0, uses_anonymous_args = 0
  79              		@ link register save eliminated.
  80              	.LVL0:
  81              		.loc 1 175 0
  82 0000 084B     		ldr	r3, .L13
  83              		.loc 1 177 0
  84 0002 8142     		cmp	r1, r0
  85              		.loc 1 175 0
  86 0004 5B68     		ldr	r3, [r3, #4]
  87              	.LVL1:
  88              		.loc 1 177 0
  89 0006 06D9     		bls	.L5
  90              		.loc 1 177 0 is_stmt 0 discriminator 1
  91 0008 8342     		cmp	r3, r0
  92 000a 08D3     		bcc	.L9
  93              	.L11:
  94              		.loc 1 177 0
  95 000c 8B42     		cmp	r3, r1
  96 000e 2CBF     		ite	cs
  97 0010 0020     		movcs	r0, #0
  98              	.LVL2:
  99 0012 0120     		movcc	r0, #1
 100 0014 7047     		bx	lr
 101              	.LVL3:
 102              	.L5:
 103              		.loc 1 177 0 discriminator 2
 104 0016 8342     		cmp	r3, r0
 105 0018 F8D3     		bcc	.L11
 106              		.loc 1 177 0
 107 001a 0120     		movs	r0, #1
 108              	.LVL4:
 109              		.loc 1 179 0 is_stmt 1
ARM GAS  C:\Users\DNIEL~1\AppData\Local\Temp\ccc9S4hh.s 			page 3


 110 001c 7047     		bx	lr
 111              	.LVL5:
 112              	.L9:
 113              		.loc 1 177 0
 114 001e 0020     		movs	r0, #0
 115              	.LVL6:
 116 0020 7047     		bx	lr
 117              	.L14:
 118 0022 00BF     		.align	2
 119              	.L13:
 120 0024 001000E0 		.word	-536866816
 121              		.cfi_endproc
 122              	.LFE57:
 123              		.size	halIsCounterWithin, .-halIsCounterWithin
 124 0028 AFF30080 		.section	.text.halPolledDelay,"ax",%progbits
 124      AFF30080 
 125              		.align	2
 126              		.p2align 4,,15
 127              		.global	halPolledDelay
 128              		.thumb
 129              		.thumb_func
 130              		.type	halPolledDelay, %function
 131              	halPolledDelay:
 132              	.LFB58:
 133              		.loc 1 193 0
 134              		.cfi_startproc
 135              		@ args = 0, pretend = 0, frame = 0
 136              		@ frame_needed = 0, uses_anonymous_args = 0
 137              		@ link register save eliminated.
 138              	.LVL7:
 139              		.loc 1 194 0
 140 0000 084A     		ldr	r2, .L27
 141 0002 5368     		ldr	r3, [r2, #4]
 142              	.LVL8:
 143              		.loc 1 195 0
 144 0004 C018     		adds	r0, r0, r3
 145              	.LVL9:
 146              	.L25:
 147              	.LBB4:
 148              	.LBB5:
 149              		.loc 1 177 0 discriminator 1
 150 0006 8342     		cmp	r3, r0
 151              		.loc 1 175 0 discriminator 1
 152 0008 5168     		ldr	r1, [r2, #4]
 153              	.LVL10:
 154              		.loc 1 177 0 discriminator 1
 155 000a 02D2     		bcs	.L16
 156              		.loc 1 177 0 is_stmt 0
 157 000c 8B42     		cmp	r3, r1
 158 000e 02D9     		bls	.L26
 159 0010 7047     		bx	lr
 160              	.L16:
 161 0012 8B42     		cmp	r3, r1
 162 0014 F7D9     		bls	.L25
 163              	.L26:
 164 0016 8842     		cmp	r0, r1
 165 0018 94BF     		ite	ls
ARM GAS  C:\Users\DNIEL~1\AppData\Local\Temp\ccc9S4hh.s 			page 4


 166 001a 0021     		movls	r1, #0
 167              	.LVL11:
 168 001c 0121     		movhi	r1, #1
 169              	.LBE5:
 170              	.LBE4:
 171              		.loc 1 196 0 is_stmt 1
 172 001e 0029     		cmp	r1, #0
 173 0020 F1D1     		bne	.L25
 174 0022 7047     		bx	lr
 175              	.L28:
 176              		.align	2
 177              	.L27:
 178 0024 001000E0 		.word	-536866816
 179              		.cfi_endproc
 180              	.LFE58:
 181              		.size	halPolledDelay, .-halPolledDelay
 182 0028 AFF30080 		.text
 182      AFF30080 
 183              	.Letext0:
 184              		.section	.debug_loc,"",%progbits
 185              	.Ldebug_loc0:
 186              	.LLST0:
 187 0000 00000000 		.4byte	.LFB56
 188 0004 02000000 		.4byte	.LCFI0
 189 0008 0200     		.2byte	0x2
 190 000a 7D       		.byte	0x7d
 191 000b 00       		.sleb128 0
 192 000c 02000000 		.4byte	.LCFI0
 193 0010 28000000 		.4byte	.LFE56
 194 0014 0200     		.2byte	0x2
 195 0016 7D       		.byte	0x7d
 196 0017 08       		.sleb128 8
 197 0018 00000000 		.4byte	0x0
 198 001c 00000000 		.4byte	0x0
 199              	.LLST1:
 200 0020 00000000 		.4byte	.LVL0
 201 0024 12000000 		.4byte	.LVL2
 202 0028 0100     		.2byte	0x1
 203 002a 50       		.byte	0x50
 204 002b 16000000 		.4byte	.LVL3
 205 002f 1C000000 		.4byte	.LVL4
 206 0033 0100     		.2byte	0x1
 207 0035 50       		.byte	0x50
 208 0036 1E000000 		.4byte	.LVL5
 209 003a 20000000 		.4byte	.LVL6
 210 003e 0100     		.2byte	0x1
 211 0040 50       		.byte	0x50
 212 0041 00000000 		.4byte	0x0
 213 0045 00000000 		.4byte	0x0
 214              	.LLST2:
 215 0049 00000000 		.4byte	.LVL7
 216 004d 06000000 		.4byte	.LVL9
 217 0051 0100     		.2byte	0x1
 218 0053 50       		.byte	0x50
 219 0054 00000000 		.4byte	0x0
 220 0058 00000000 		.4byte	0x0
 221              	.LLST3:
ARM GAS  C:\Users\DNIEL~1\AppData\Local\Temp\ccc9S4hh.s 			page 5


 222 005c 0A000000 		.4byte	.LVL10
 223 0060 1C000000 		.4byte	.LVL11
 224 0064 0100     		.2byte	0x1
 225 0066 51       		.byte	0x51
 226 0067 00000000 		.4byte	0x0
 227 006b 00000000 		.4byte	0x0
 228              		.file 2 "c:\\program files (x86)\\codesourcery\\sourcery g++ lite\\bin\\../lib/gcc/arm-none-eabi/4
 229              		.file 3 "../../../ChibiOS/os/ports/GCC/ARMCMx/chtypes.h"
 230              		.file 4 "../../../ChibiOS/os/ports/common/ARMCMx/nvic.h"
 231              		.file 5 "../../../ChibiOS/os/hal/platforms/STM32F1xx/hal_lld.h"
 232              		.file 6 "../../../ChibiOS/os/hal/platforms/STM32/GPIOv1/pal_lld.h"
 233              		.file 7 "../../../ChibiOS/os/ports/common/ARMCMx/CMSIS/include/core_cm3.h"
 234              		.section	.debug_info
 235 0000 FB020000 		.4byte	0x2fb
 236 0004 0200     		.2byte	0x2
 237 0006 00000000 		.4byte	.Ldebug_abbrev0
 238 000a 04       		.byte	0x4
 239 000b 01       		.uleb128 0x1
 240 000c 0D000000 		.4byte	.LASF35
 241 0010 01       		.byte	0x1
 242 0011 19000000 		.4byte	.LASF36
 243 0015 8B010000 		.4byte	.LASF37
 244 0019 00000000 		.4byte	0x0
 245 001d 00000000 		.4byte	0x0
 246 0021 00000000 		.4byte	.Ldebug_ranges0+0x0
 247 0025 00000000 		.4byte	.Ldebug_line0
 248 0029 02       		.uleb128 0x2
 249 002a 04       		.byte	0x4
 250 002b 05       		.byte	0x5
 251 002c 696E7400 		.ascii	"int\000"
 252 0030 03       		.uleb128 0x3
 253 0031 04       		.byte	0x4
 254 0032 07       		.byte	0x7
 255 0033 41000000 		.4byte	.LASF0
 256 0037 03       		.uleb128 0x3
 257 0038 01       		.byte	0x1
 258 0039 06       		.byte	0x6
 259 003a D3010000 		.4byte	.LASF1
 260 003e 03       		.uleb128 0x3
 261 003f 01       		.byte	0x1
 262 0040 08       		.byte	0x8
 263 0041 74000000 		.4byte	.LASF2
 264 0045 03       		.uleb128 0x3
 265 0046 02       		.byte	0x2
 266 0047 05       		.byte	0x5
 267 0048 72010000 		.4byte	.LASF3
 268 004c 03       		.uleb128 0x3
 269 004d 02       		.byte	0x2
 270 004e 07       		.byte	0x7
 271 004f AE000000 		.4byte	.LASF4
 272 0053 04       		.uleb128 0x4
 273 0054 40010000 		.4byte	.LASF6
 274 0058 02       		.byte	0x2
 275 0059 4F       		.byte	0x4f
 276 005a 5E000000 		.4byte	0x5e
 277 005e 03       		.uleb128 0x3
 278 005f 04       		.byte	0x4
ARM GAS  C:\Users\DNIEL~1\AppData\Local\Temp\ccc9S4hh.s 			page 6


 279 0060 05       		.byte	0x5
 280 0061 CA010000 		.4byte	.LASF5
 281 0065 04       		.uleb128 0x4
 282 0066 C1000000 		.4byte	.LASF7
 283 006a 02       		.byte	0x2
 284 006b 50       		.byte	0x50
 285 006c 70000000 		.4byte	0x70
 286 0070 03       		.uleb128 0x3
 287 0071 04       		.byte	0x4
 288 0072 07       		.byte	0x7
 289 0073 9C000000 		.4byte	.LASF8
 290 0077 03       		.uleb128 0x3
 291 0078 08       		.byte	0x8
 292 0079 05       		.byte	0x5
 293 007a 48010000 		.4byte	.LASF9
 294 007e 03       		.uleb128 0x3
 295 007f 08       		.byte	0x8
 296 0080 07       		.byte	0x7
 297 0081 E5010000 		.4byte	.LASF10
 298 0085 04       		.uleb128 0x4
 299 0086 4E000000 		.4byte	.LASF11
 300 008a 03       		.byte	0x3
 301 008b 2B       		.byte	0x2b
 302 008c 90000000 		.4byte	0x90
 303 0090 03       		.uleb128 0x3
 304 0091 01       		.byte	0x1
 305 0092 02       		.byte	0x2
 306 0093 DF010000 		.4byte	.LASF12
 307 0097 05       		.uleb128 0x5
 308 0098 70000000 		.4byte	0x70
 309 009c 06       		.uleb128 0x6
 310 009d 20       		.byte	0x20
 311 009e 04       		.byte	0x4
 312 009f 0601     		.2byte	0x106
 313 00a1 1E010000 		.4byte	0x11e
 314 00a5 07       		.uleb128 0x7
 315 00a6 28010000 		.4byte	.LASF13
 316 00aa 04       		.byte	0x4
 317 00ab 0701     		.2byte	0x107
 318 00ad 97000000 		.4byte	0x97
 319 00b1 02       		.byte	0x2
 320 00b2 23       		.byte	0x23
 321 00b3 00       		.uleb128 0x0
 322 00b4 07       		.uleb128 0x7
 323 00b5 0A010000 		.4byte	.LASF14
 324 00b9 04       		.byte	0x4
 325 00ba 0801     		.2byte	0x108
 326 00bc 97000000 		.4byte	0x97
 327 00c0 02       		.byte	0x2
 328 00c1 23       		.byte	0x23
 329 00c2 04       		.uleb128 0x4
 330 00c3 07       		.uleb128 0x7
 331 00c4 CA000000 		.4byte	.LASF15
 332 00c8 04       		.byte	0x4
 333 00c9 0901     		.2byte	0x109
 334 00cb 97000000 		.4byte	0x97
 335 00cf 02       		.byte	0x2
ARM GAS  C:\Users\DNIEL~1\AppData\Local\Temp\ccc9S4hh.s 			page 7


 336 00d0 23       		.byte	0x23
 337 00d1 08       		.uleb128 0x8
 338 00d2 07       		.uleb128 0x7
 339 00d3 55000000 		.4byte	.LASF16
 340 00d7 04       		.byte	0x4
 341 00d8 0A01     		.2byte	0x10a
 342 00da 97000000 		.4byte	0x97
 343 00de 02       		.byte	0x2
 344 00df 23       		.byte	0x23
 345 00e0 0C       		.uleb128 0xc
 346 00e1 07       		.uleb128 0x7
 347 00e2 5C000000 		.4byte	.LASF17
 348 00e6 04       		.byte	0x4
 349 00e7 0B01     		.2byte	0x10b
 350 00e9 97000000 		.4byte	0x97
 351 00ed 02       		.byte	0x2
 352 00ee 23       		.byte	0x23
 353 00ef 10       		.uleb128 0x10
 354 00f0 07       		.uleb128 0x7
 355 00f1 03010000 		.4byte	.LASF18
 356 00f5 04       		.byte	0x4
 357 00f6 0C01     		.2byte	0x10c
 358 00f8 97000000 		.4byte	0x97
 359 00fc 02       		.byte	0x2
 360 00fd 23       		.byte	0x23
 361 00fe 14       		.uleb128 0x14
 362 00ff 07       		.uleb128 0x7
 363 0100 DE000000 		.4byte	.LASF19
 364 0104 04       		.byte	0x4
 365 0105 0D01     		.2byte	0x10d
 366 0107 97000000 		.4byte	0x97
 367 010b 02       		.byte	0x2
 368 010c 23       		.byte	0x23
 369 010d 18       		.uleb128 0x18
 370 010e 07       		.uleb128 0x7
 371 010f 5E010000 		.4byte	.LASF20
 372 0113 04       		.byte	0x4
 373 0114 0E01     		.2byte	0x10e
 374 0116 97000000 		.4byte	0x97
 375 011a 02       		.byte	0x2
 376 011b 23       		.byte	0x23
 377 011c 1C       		.uleb128 0x1c
 378 011d 00       		.byte	0x0
 379 011e 08       		.uleb128 0x8
 380 011f 83010000 		.4byte	.LASF21
 381 0123 04       		.byte	0x4
 382 0124 0F01     		.2byte	0x10f
 383 0126 9C000000 		.4byte	0x9c
 384 012a 03       		.uleb128 0x3
 385 012b 01       		.byte	0x1
 386 012c 08       		.byte	0x8
 387 012d 23010000 		.4byte	.LASF22
 388 0131 05       		.uleb128 0x5
 389 0132 53000000 		.4byte	0x53
 390 0136 04       		.uleb128 0x4
 391 0137 18010000 		.4byte	.LASF23
 392 013b 05       		.byte	0x5
ARM GAS  C:\Users\DNIEL~1\AppData\Local\Temp\ccc9S4hh.s 			page 8


 393 013c CE       		.byte	0xce
 394 013d 65000000 		.4byte	0x65
 395 0141 09       		.uleb128 0x9
 396 0142 0C       		.byte	0xc
 397 0143 06       		.byte	0x6
 398 0144 38       		.byte	0x38
 399 0145 74010000 		.4byte	0x174
 400 0149 0A       		.uleb128 0xa
 401 014a 6F647200 		.ascii	"odr\000"
 402 014e 06       		.byte	0x6
 403 014f 3A       		.byte	0x3a
 404 0150 65000000 		.4byte	0x65
 405 0154 02       		.byte	0x2
 406 0155 23       		.byte	0x23
 407 0156 00       		.uleb128 0x0
 408 0157 0A       		.uleb128 0xa
 409 0158 63726C00 		.ascii	"crl\000"
 410 015c 06       		.byte	0x6
 411 015d 3C       		.byte	0x3c
 412 015e 65000000 		.4byte	0x65
 413 0162 02       		.byte	0x2
 414 0163 23       		.byte	0x23
 415 0164 04       		.uleb128 0x4
 416 0165 0A       		.uleb128 0xa
 417 0166 63726800 		.ascii	"crh\000"
 418 016a 06       		.byte	0x6
 419 016b 3E       		.byte	0x3e
 420 016c 65000000 		.4byte	0x65
 421 0170 02       		.byte	0x2
 422 0171 23       		.byte	0x23
 423 0172 08       		.uleb128 0x8
 424 0173 00       		.byte	0x0
 425 0174 04       		.uleb128 0x4
 426 0175 82000000 		.4byte	.LASF24
 427 0179 06       		.byte	0x6
 428 017a 3F       		.byte	0x3f
 429 017b 41010000 		.4byte	0x141
 430 017f 09       		.uleb128 0x9
 431 0180 3C       		.byte	0x3c
 432 0181 06       		.byte	0x6
 433 0182 48       		.byte	0x48
 434 0183 CE010000 		.4byte	0x1ce
 435 0187 0B       		.uleb128 0xb
 436 0188 95000000 		.4byte	.LASF25
 437 018c 06       		.byte	0x6
 438 018d 4A       		.byte	0x4a
 439 018e 74010000 		.4byte	0x174
 440 0192 02       		.byte	0x2
 441 0193 23       		.byte	0x23
 442 0194 00       		.uleb128 0x0
 443 0195 0B       		.uleb128 0xb
 444 0196 11010000 		.4byte	.LASF26
 445 019a 06       		.byte	0x6
 446 019b 4C       		.byte	0x4c
 447 019c 74010000 		.4byte	0x174
 448 01a0 02       		.byte	0x2
 449 01a1 23       		.byte	0x23
ARM GAS  C:\Users\DNIEL~1\AppData\Local\Temp\ccc9S4hh.s 			page 9


 450 01a2 0C       		.uleb128 0xc
 451 01a3 0B       		.uleb128 0xb
 452 01a4 7C010000 		.4byte	.LASF27
 453 01a8 06       		.byte	0x6
 454 01a9 4E       		.byte	0x4e
 455 01aa 74010000 		.4byte	0x174
 456 01ae 02       		.byte	0x2
 457 01af 23       		.byte	0x23
 458 01b0 18       		.uleb128 0x18
 459 01b1 0B       		.uleb128 0xb
 460 01b2 06000000 		.4byte	.LASF28
 461 01b6 06       		.byte	0x6
 462 01b7 50       		.byte	0x50
 463 01b8 74010000 		.4byte	0x174
 464 01bc 02       		.byte	0x2
 465 01bd 23       		.byte	0x23
 466 01be 24       		.uleb128 0x24
 467 01bf 0B       		.uleb128 0xb
 468 01c0 6D000000 		.4byte	.LASF29
 469 01c4 06       		.byte	0x6
 470 01c5 53       		.byte	0x53
 471 01c6 74010000 		.4byte	0x174
 472 01ca 02       		.byte	0x2
 473 01cb 23       		.byte	0x23
 474 01cc 30       		.uleb128 0x30
 475 01cd 00       		.byte	0x0
 476 01ce 04       		.uleb128 0x4
 477 01cf E6000000 		.4byte	.LASF30
 478 01d3 06       		.byte	0x6
 479 01d4 5D       		.byte	0x5d
 480 01d5 7F010000 		.4byte	0x17f
 481 01d9 0C       		.uleb128 0xc
 482 01da 01       		.byte	0x1
 483 01db 2D010000 		.4byte	.LASF38
 484 01df 01       		.byte	0x1
 485 01e0 AE       		.byte	0xae
 486 01e1 01       		.byte	0x1
 487 01e2 85000000 		.4byte	0x85
 488 01e6 01       		.byte	0x1
 489 01e7 0D020000 		.4byte	0x20d
 490 01eb 0D       		.uleb128 0xd
 491 01ec 3B000000 		.4byte	.LASF31
 492 01f0 01       		.byte	0x1
 493 01f1 AE       		.byte	0xae
 494 01f2 36010000 		.4byte	0x136
 495 01f6 0E       		.uleb128 0xe
 496 01f7 656E6400 		.ascii	"end\000"
 497 01fb 01       		.byte	0x1
 498 01fc AE       		.byte	0xae
 499 01fd 36010000 		.4byte	0x136
 500 0201 0F       		.uleb128 0xf
 501 0202 6E6F7700 		.ascii	"now\000"
 502 0206 01       		.byte	0x1
 503 0207 AF       		.byte	0xaf
 504 0208 36010000 		.4byte	0x136
 505 020c 00       		.byte	0x0
 506 020d 10       		.uleb128 0x10
ARM GAS  C:\Users\DNIEL~1\AppData\Local\Temp\ccc9S4hh.s 			page 10


 507 020e 01       		.byte	0x1
 508 020f 65000000 		.4byte	.LASF39
 509 0213 01       		.byte	0x1
 510 0214 44       		.byte	0x44
 511 0215 01       		.byte	0x1
 512 0216 00000000 		.4byte	.LFB56
 513 021a 28000000 		.4byte	.LFE56
 514 021e 00000000 		.4byte	.LLST0
 515 0222 11       		.uleb128 0x11
 516 0223 D9010000 		.4byte	0x1d9
 517 0227 00000000 		.4byte	.LFB57
 518 022b 28000000 		.4byte	.LFE57
 519 022f 02       		.byte	0x2
 520 0230 7D       		.byte	0x7d
 521 0231 00       		.sleb128 0
 522 0232 4E020000 		.4byte	0x24e
 523 0236 12       		.uleb128 0x12
 524 0237 EB010000 		.4byte	0x1eb
 525 023b 20000000 		.4byte	.LLST1
 526 023f 13       		.uleb128 0x13
 527 0240 F6010000 		.4byte	0x1f6
 528 0244 01       		.byte	0x1
 529 0245 51       		.byte	0x51
 530 0246 14       		.uleb128 0x14
 531 0247 01020000 		.4byte	0x201
 532 024b 01       		.byte	0x1
 533 024c 53       		.byte	0x53
 534 024d 00       		.byte	0x0
 535 024e 15       		.uleb128 0x15
 536 024f 01       		.byte	0x1
 537 0250 63010000 		.4byte	.LASF40
 538 0254 01       		.byte	0x1
 539 0255 C1       		.byte	0xc1
 540 0256 01       		.byte	0x1
 541 0257 00000000 		.4byte	.LFB58
 542 025b 28000000 		.4byte	.LFE58
 543 025f 02       		.byte	0x2
 544 0260 7D       		.byte	0x7d
 545 0261 00       		.sleb128 0
 546 0262 C1020000 		.4byte	0x2c1
 547 0266 16       		.uleb128 0x16
 548 0267 00000000 		.4byte	.LASF41
 549 026b 01       		.byte	0x1
 550 026c C1       		.byte	0xc1
 551 026d 36010000 		.4byte	0x136
 552 0271 49000000 		.4byte	.LLST2
 553 0275 17       		.uleb128 0x17
 554 0276 3B000000 		.4byte	.LASF31
 555 027a 01       		.byte	0x1
 556 027b C2       		.byte	0xc2
 557 027c 36010000 		.4byte	0x136
 558 0280 01       		.byte	0x1
 559 0281 53       		.byte	0x53
 560 0282 17       		.uleb128 0x17
 561 0283 56010000 		.4byte	.LASF32
 562 0287 01       		.byte	0x1
 563 0288 C3       		.byte	0xc3
ARM GAS  C:\Users\DNIEL~1\AppData\Local\Temp\ccc9S4hh.s 			page 11


 564 0289 36010000 		.4byte	0x136
 565 028d 01       		.byte	0x1
 566 028e 50       		.byte	0x50
 567 028f 18       		.uleb128 0x18
 568 0290 D9010000 		.4byte	0x1d9
 569 0294 06000000 		.4byte	.LBB4
 570 0298 1E000000 		.4byte	.LBE4
 571 029c 01       		.byte	0x1
 572 029d C4       		.byte	0xc4
 573 029e 13       		.uleb128 0x13
 574 029f F6010000 		.4byte	0x1f6
 575 02a3 01       		.byte	0x1
 576 02a4 50       		.byte	0x50
 577 02a5 13       		.uleb128 0x13
 578 02a6 EB010000 		.4byte	0x1eb
 579 02aa 01       		.byte	0x1
 580 02ab 53       		.byte	0x53
 581 02ac 19       		.uleb128 0x19
 582 02ad 06000000 		.4byte	.LBB5
 583 02b1 1E000000 		.4byte	.LBE5
 584 02b5 1A       		.uleb128 0x1a
 585 02b6 01020000 		.4byte	0x201
 586 02ba 5C000000 		.4byte	.LLST3
 587 02be 00       		.byte	0x0
 588 02bf 00       		.byte	0x0
 589 02c0 00       		.byte	0x0
 590 02c1 1B       		.uleb128 0x1b
 591 02c2 D1000000 		.4byte	.LASF33
 592 02c6 07       		.byte	0x7
 593 02c7 0706     		.2byte	0x607
 594 02c9 31010000 		.4byte	0x131
 595 02cd 01       		.byte	0x1
 596 02ce 01       		.byte	0x1
 597 02cf 1B       		.uleb128 0x1b
 598 02d0 F0000000 		.4byte	.LASF34
 599 02d4 06       		.byte	0x6
 600 02d5 3D01     		.2byte	0x13d
 601 02d7 DD020000 		.4byte	0x2dd
 602 02db 01       		.byte	0x1
 603 02dc 01       		.byte	0x1
 604 02dd 1C       		.uleb128 0x1c
 605 02de CE010000 		.4byte	0x1ce
 606 02e2 1B       		.uleb128 0x1b
 607 02e3 D1000000 		.4byte	.LASF33
 608 02e7 07       		.byte	0x7
 609 02e8 0706     		.2byte	0x607
 610 02ea 31010000 		.4byte	0x131
 611 02ee 01       		.byte	0x1
 612 02ef 01       		.byte	0x1
 613 02f0 1B       		.uleb128 0x1b
 614 02f1 F0000000 		.4byte	.LASF34
 615 02f5 06       		.byte	0x6
 616 02f6 3D01     		.2byte	0x13d
 617 02f8 DD020000 		.4byte	0x2dd
 618 02fc 01       		.byte	0x1
 619 02fd 01       		.byte	0x1
 620 02fe 00       		.byte	0x0
ARM GAS  C:\Users\DNIEL~1\AppData\Local\Temp\ccc9S4hh.s 			page 12


 621              		.section	.debug_abbrev
 622 0000 01       		.uleb128 0x1
 623 0001 11       		.uleb128 0x11
 624 0002 01       		.byte	0x1
 625 0003 25       		.uleb128 0x25
 626 0004 0E       		.uleb128 0xe
 627 0005 13       		.uleb128 0x13
 628 0006 0B       		.uleb128 0xb
 629 0007 03       		.uleb128 0x3
 630 0008 0E       		.uleb128 0xe
 631 0009 1B       		.uleb128 0x1b
 632 000a 0E       		.uleb128 0xe
 633 000b 11       		.uleb128 0x11
 634 000c 01       		.uleb128 0x1
 635 000d 52       		.uleb128 0x52
 636 000e 01       		.uleb128 0x1
 637 000f 55       		.uleb128 0x55
 638 0010 06       		.uleb128 0x6
 639 0011 10       		.uleb128 0x10
 640 0012 06       		.uleb128 0x6
 641 0013 00       		.byte	0x0
 642 0014 00       		.byte	0x0
 643 0015 02       		.uleb128 0x2
 644 0016 24       		.uleb128 0x24
 645 0017 00       		.byte	0x0
 646 0018 0B       		.uleb128 0xb
 647 0019 0B       		.uleb128 0xb
 648 001a 3E       		.uleb128 0x3e
 649 001b 0B       		.uleb128 0xb
 650 001c 03       		.uleb128 0x3
 651 001d 08       		.uleb128 0x8
 652 001e 00       		.byte	0x0
 653 001f 00       		.byte	0x0
 654 0020 03       		.uleb128 0x3
 655 0021 24       		.uleb128 0x24
 656 0022 00       		.byte	0x0
 657 0023 0B       		.uleb128 0xb
 658 0024 0B       		.uleb128 0xb
 659 0025 3E       		.uleb128 0x3e
 660 0026 0B       		.uleb128 0xb
 661 0027 03       		.uleb128 0x3
 662 0028 0E       		.uleb128 0xe
 663 0029 00       		.byte	0x0
 664 002a 00       		.byte	0x0
 665 002b 04       		.uleb128 0x4
 666 002c 16       		.uleb128 0x16
 667 002d 00       		.byte	0x0
 668 002e 03       		.uleb128 0x3
 669 002f 0E       		.uleb128 0xe
 670 0030 3A       		.uleb128 0x3a
 671 0031 0B       		.uleb128 0xb
 672 0032 3B       		.uleb128 0x3b
 673 0033 0B       		.uleb128 0xb
 674 0034 49       		.uleb128 0x49
 675 0035 13       		.uleb128 0x13
 676 0036 00       		.byte	0x0
 677 0037 00       		.byte	0x0
ARM GAS  C:\Users\DNIEL~1\AppData\Local\Temp\ccc9S4hh.s 			page 13


 678 0038 05       		.uleb128 0x5
 679 0039 35       		.uleb128 0x35
 680 003a 00       		.byte	0x0
 681 003b 49       		.uleb128 0x49
 682 003c 13       		.uleb128 0x13
 683 003d 00       		.byte	0x0
 684 003e 00       		.byte	0x0
 685 003f 06       		.uleb128 0x6
 686 0040 13       		.uleb128 0x13
 687 0041 01       		.byte	0x1
 688 0042 0B       		.uleb128 0xb
 689 0043 0B       		.uleb128 0xb
 690 0044 3A       		.uleb128 0x3a
 691 0045 0B       		.uleb128 0xb
 692 0046 3B       		.uleb128 0x3b
 693 0047 05       		.uleb128 0x5
 694 0048 01       		.uleb128 0x1
 695 0049 13       		.uleb128 0x13
 696 004a 00       		.byte	0x0
 697 004b 00       		.byte	0x0
 698 004c 07       		.uleb128 0x7
 699 004d 0D       		.uleb128 0xd
 700 004e 00       		.byte	0x0
 701 004f 03       		.uleb128 0x3
 702 0050 0E       		.uleb128 0xe
 703 0051 3A       		.uleb128 0x3a
 704 0052 0B       		.uleb128 0xb
 705 0053 3B       		.uleb128 0x3b
 706 0054 05       		.uleb128 0x5
 707 0055 49       		.uleb128 0x49
 708 0056 13       		.uleb128 0x13
 709 0057 38       		.uleb128 0x38
 710 0058 0A       		.uleb128 0xa
 711 0059 00       		.byte	0x0
 712 005a 00       		.byte	0x0
 713 005b 08       		.uleb128 0x8
 714 005c 16       		.uleb128 0x16
 715 005d 00       		.byte	0x0
 716 005e 03       		.uleb128 0x3
 717 005f 0E       		.uleb128 0xe
 718 0060 3A       		.uleb128 0x3a
 719 0061 0B       		.uleb128 0xb
 720 0062 3B       		.uleb128 0x3b
 721 0063 05       		.uleb128 0x5
 722 0064 49       		.uleb128 0x49
 723 0065 13       		.uleb128 0x13
 724 0066 00       		.byte	0x0
 725 0067 00       		.byte	0x0
 726 0068 09       		.uleb128 0x9
 727 0069 13       		.uleb128 0x13
 728 006a 01       		.byte	0x1
 729 006b 0B       		.uleb128 0xb
 730 006c 0B       		.uleb128 0xb
 731 006d 3A       		.uleb128 0x3a
 732 006e 0B       		.uleb128 0xb
 733 006f 3B       		.uleb128 0x3b
 734 0070 0B       		.uleb128 0xb
ARM GAS  C:\Users\DNIEL~1\AppData\Local\Temp\ccc9S4hh.s 			page 14


 735 0071 01       		.uleb128 0x1
 736 0072 13       		.uleb128 0x13
 737 0073 00       		.byte	0x0
 738 0074 00       		.byte	0x0
 739 0075 0A       		.uleb128 0xa
 740 0076 0D       		.uleb128 0xd
 741 0077 00       		.byte	0x0
 742 0078 03       		.uleb128 0x3
 743 0079 08       		.uleb128 0x8
 744 007a 3A       		.uleb128 0x3a
 745 007b 0B       		.uleb128 0xb
 746 007c 3B       		.uleb128 0x3b
 747 007d 0B       		.uleb128 0xb
 748 007e 49       		.uleb128 0x49
 749 007f 13       		.uleb128 0x13
 750 0080 38       		.uleb128 0x38
 751 0081 0A       		.uleb128 0xa
 752 0082 00       		.byte	0x0
 753 0083 00       		.byte	0x0
 754 0084 0B       		.uleb128 0xb
 755 0085 0D       		.uleb128 0xd
 756 0086 00       		.byte	0x0
 757 0087 03       		.uleb128 0x3
 758 0088 0E       		.uleb128 0xe
 759 0089 3A       		.uleb128 0x3a
 760 008a 0B       		.uleb128 0xb
 761 008b 3B       		.uleb128 0x3b
 762 008c 0B       		.uleb128 0xb
 763 008d 49       		.uleb128 0x49
 764 008e 13       		.uleb128 0x13
 765 008f 38       		.uleb128 0x38
 766 0090 0A       		.uleb128 0xa
 767 0091 00       		.byte	0x0
 768 0092 00       		.byte	0x0
 769 0093 0C       		.uleb128 0xc
 770 0094 2E       		.uleb128 0x2e
 771 0095 01       		.byte	0x1
 772 0096 3F       		.uleb128 0x3f
 773 0097 0C       		.uleb128 0xc
 774 0098 03       		.uleb128 0x3
 775 0099 0E       		.uleb128 0xe
 776 009a 3A       		.uleb128 0x3a
 777 009b 0B       		.uleb128 0xb
 778 009c 3B       		.uleb128 0x3b
 779 009d 0B       		.uleb128 0xb
 780 009e 27       		.uleb128 0x27
 781 009f 0C       		.uleb128 0xc
 782 00a0 49       		.uleb128 0x49
 783 00a1 13       		.uleb128 0x13
 784 00a2 20       		.uleb128 0x20
 785 00a3 0B       		.uleb128 0xb
 786 00a4 01       		.uleb128 0x1
 787 00a5 13       		.uleb128 0x13
 788 00a6 00       		.byte	0x0
 789 00a7 00       		.byte	0x0
 790 00a8 0D       		.uleb128 0xd
 791 00a9 05       		.uleb128 0x5
ARM GAS  C:\Users\DNIEL~1\AppData\Local\Temp\ccc9S4hh.s 			page 15


 792 00aa 00       		.byte	0x0
 793 00ab 03       		.uleb128 0x3
 794 00ac 0E       		.uleb128 0xe
 795 00ad 3A       		.uleb128 0x3a
 796 00ae 0B       		.uleb128 0xb
 797 00af 3B       		.uleb128 0x3b
 798 00b0 0B       		.uleb128 0xb
 799 00b1 49       		.uleb128 0x49
 800 00b2 13       		.uleb128 0x13
 801 00b3 00       		.byte	0x0
 802 00b4 00       		.byte	0x0
 803 00b5 0E       		.uleb128 0xe
 804 00b6 05       		.uleb128 0x5
 805 00b7 00       		.byte	0x0
 806 00b8 03       		.uleb128 0x3
 807 00b9 08       		.uleb128 0x8
 808 00ba 3A       		.uleb128 0x3a
 809 00bb 0B       		.uleb128 0xb
 810 00bc 3B       		.uleb128 0x3b
 811 00bd 0B       		.uleb128 0xb
 812 00be 49       		.uleb128 0x49
 813 00bf 13       		.uleb128 0x13
 814 00c0 00       		.byte	0x0
 815 00c1 00       		.byte	0x0
 816 00c2 0F       		.uleb128 0xf
 817 00c3 34       		.uleb128 0x34
 818 00c4 00       		.byte	0x0
 819 00c5 03       		.uleb128 0x3
 820 00c6 08       		.uleb128 0x8
 821 00c7 3A       		.uleb128 0x3a
 822 00c8 0B       		.uleb128 0xb
 823 00c9 3B       		.uleb128 0x3b
 824 00ca 0B       		.uleb128 0xb
 825 00cb 49       		.uleb128 0x49
 826 00cc 13       		.uleb128 0x13
 827 00cd 00       		.byte	0x0
 828 00ce 00       		.byte	0x0
 829 00cf 10       		.uleb128 0x10
 830 00d0 2E       		.uleb128 0x2e
 831 00d1 00       		.byte	0x0
 832 00d2 3F       		.uleb128 0x3f
 833 00d3 0C       		.uleb128 0xc
 834 00d4 03       		.uleb128 0x3
 835 00d5 0E       		.uleb128 0xe
 836 00d6 3A       		.uleb128 0x3a
 837 00d7 0B       		.uleb128 0xb
 838 00d8 3B       		.uleb128 0x3b
 839 00d9 0B       		.uleb128 0xb
 840 00da 27       		.uleb128 0x27
 841 00db 0C       		.uleb128 0xc
 842 00dc 11       		.uleb128 0x11
 843 00dd 01       		.uleb128 0x1
 844 00de 12       		.uleb128 0x12
 845 00df 01       		.uleb128 0x1
 846 00e0 40       		.uleb128 0x40
 847 00e1 06       		.uleb128 0x6
 848 00e2 00       		.byte	0x0
ARM GAS  C:\Users\DNIEL~1\AppData\Local\Temp\ccc9S4hh.s 			page 16


 849 00e3 00       		.byte	0x0
 850 00e4 11       		.uleb128 0x11
 851 00e5 2E       		.uleb128 0x2e
 852 00e6 01       		.byte	0x1
 853 00e7 31       		.uleb128 0x31
 854 00e8 13       		.uleb128 0x13
 855 00e9 11       		.uleb128 0x11
 856 00ea 01       		.uleb128 0x1
 857 00eb 12       		.uleb128 0x12
 858 00ec 01       		.uleb128 0x1
 859 00ed 40       		.uleb128 0x40
 860 00ee 0A       		.uleb128 0xa
 861 00ef 01       		.uleb128 0x1
 862 00f0 13       		.uleb128 0x13
 863 00f1 00       		.byte	0x0
 864 00f2 00       		.byte	0x0
 865 00f3 12       		.uleb128 0x12
 866 00f4 05       		.uleb128 0x5
 867 00f5 00       		.byte	0x0
 868 00f6 31       		.uleb128 0x31
 869 00f7 13       		.uleb128 0x13
 870 00f8 02       		.uleb128 0x2
 871 00f9 06       		.uleb128 0x6
 872 00fa 00       		.byte	0x0
 873 00fb 00       		.byte	0x0
 874 00fc 13       		.uleb128 0x13
 875 00fd 05       		.uleb128 0x5
 876 00fe 00       		.byte	0x0
 877 00ff 31       		.uleb128 0x31
 878 0100 13       		.uleb128 0x13
 879 0101 02       		.uleb128 0x2
 880 0102 0A       		.uleb128 0xa
 881 0103 00       		.byte	0x0
 882 0104 00       		.byte	0x0
 883 0105 14       		.uleb128 0x14
 884 0106 34       		.uleb128 0x34
 885 0107 00       		.byte	0x0
 886 0108 31       		.uleb128 0x31
 887 0109 13       		.uleb128 0x13
 888 010a 02       		.uleb128 0x2
 889 010b 0A       		.uleb128 0xa
 890 010c 00       		.byte	0x0
 891 010d 00       		.byte	0x0
 892 010e 15       		.uleb128 0x15
 893 010f 2E       		.uleb128 0x2e
 894 0110 01       		.byte	0x1
 895 0111 3F       		.uleb128 0x3f
 896 0112 0C       		.uleb128 0xc
 897 0113 03       		.uleb128 0x3
 898 0114 0E       		.uleb128 0xe
 899 0115 3A       		.uleb128 0x3a
 900 0116 0B       		.uleb128 0xb
 901 0117 3B       		.uleb128 0x3b
 902 0118 0B       		.uleb128 0xb
 903 0119 27       		.uleb128 0x27
 904 011a 0C       		.uleb128 0xc
 905 011b 11       		.uleb128 0x11
ARM GAS  C:\Users\DNIEL~1\AppData\Local\Temp\ccc9S4hh.s 			page 17


 906 011c 01       		.uleb128 0x1
 907 011d 12       		.uleb128 0x12
 908 011e 01       		.uleb128 0x1
 909 011f 40       		.uleb128 0x40
 910 0120 0A       		.uleb128 0xa
 911 0121 01       		.uleb128 0x1
 912 0122 13       		.uleb128 0x13
 913 0123 00       		.byte	0x0
 914 0124 00       		.byte	0x0
 915 0125 16       		.uleb128 0x16
 916 0126 05       		.uleb128 0x5
 917 0127 00       		.byte	0x0
 918 0128 03       		.uleb128 0x3
 919 0129 0E       		.uleb128 0xe
 920 012a 3A       		.uleb128 0x3a
 921 012b 0B       		.uleb128 0xb
 922 012c 3B       		.uleb128 0x3b
 923 012d 0B       		.uleb128 0xb
 924 012e 49       		.uleb128 0x49
 925 012f 13       		.uleb128 0x13
 926 0130 02       		.uleb128 0x2
 927 0131 06       		.uleb128 0x6
 928 0132 00       		.byte	0x0
 929 0133 00       		.byte	0x0
 930 0134 17       		.uleb128 0x17
 931 0135 34       		.uleb128 0x34
 932 0136 00       		.byte	0x0
 933 0137 03       		.uleb128 0x3
 934 0138 0E       		.uleb128 0xe
 935 0139 3A       		.uleb128 0x3a
 936 013a 0B       		.uleb128 0xb
 937 013b 3B       		.uleb128 0x3b
 938 013c 0B       		.uleb128 0xb
 939 013d 49       		.uleb128 0x49
 940 013e 13       		.uleb128 0x13
 941 013f 02       		.uleb128 0x2
 942 0140 0A       		.uleb128 0xa
 943 0141 00       		.byte	0x0
 944 0142 00       		.byte	0x0
 945 0143 18       		.uleb128 0x18
 946 0144 1D       		.uleb128 0x1d
 947 0145 01       		.byte	0x1
 948 0146 31       		.uleb128 0x31
 949 0147 13       		.uleb128 0x13
 950 0148 11       		.uleb128 0x11
 951 0149 01       		.uleb128 0x1
 952 014a 12       		.uleb128 0x12
 953 014b 01       		.uleb128 0x1
 954 014c 58       		.uleb128 0x58
 955 014d 0B       		.uleb128 0xb
 956 014e 59       		.uleb128 0x59
 957 014f 0B       		.uleb128 0xb
 958 0150 00       		.byte	0x0
 959 0151 00       		.byte	0x0
 960 0152 19       		.uleb128 0x19
 961 0153 0B       		.uleb128 0xb
 962 0154 01       		.byte	0x1
ARM GAS  C:\Users\DNIEL~1\AppData\Local\Temp\ccc9S4hh.s 			page 18


 963 0155 11       		.uleb128 0x11
 964 0156 01       		.uleb128 0x1
 965 0157 12       		.uleb128 0x12
 966 0158 01       		.uleb128 0x1
 967 0159 00       		.byte	0x0
 968 015a 00       		.byte	0x0
 969 015b 1A       		.uleb128 0x1a
 970 015c 34       		.uleb128 0x34
 971 015d 00       		.byte	0x0
 972 015e 31       		.uleb128 0x31
 973 015f 13       		.uleb128 0x13
 974 0160 02       		.uleb128 0x2
 975 0161 06       		.uleb128 0x6
 976 0162 00       		.byte	0x0
 977 0163 00       		.byte	0x0
 978 0164 1B       		.uleb128 0x1b
 979 0165 34       		.uleb128 0x34
 980 0166 00       		.byte	0x0
 981 0167 03       		.uleb128 0x3
 982 0168 0E       		.uleb128 0xe
 983 0169 3A       		.uleb128 0x3a
 984 016a 0B       		.uleb128 0xb
 985 016b 3B       		.uleb128 0x3b
 986 016c 05       		.uleb128 0x5
 987 016d 49       		.uleb128 0x49
 988 016e 13       		.uleb128 0x13
 989 016f 3F       		.uleb128 0x3f
 990 0170 0C       		.uleb128 0xc
 991 0171 3C       		.uleb128 0x3c
 992 0172 0C       		.uleb128 0xc
 993 0173 00       		.byte	0x0
 994 0174 00       		.byte	0x0
 995 0175 1C       		.uleb128 0x1c
 996 0176 26       		.uleb128 0x26
 997 0177 00       		.byte	0x0
 998 0178 49       		.uleb128 0x49
 999 0179 13       		.uleb128 0x13
 1000 017a 00       		.byte	0x0
 1001 017b 00       		.byte	0x0
 1002 017c 00       		.byte	0x0
 1003              		.section	.debug_pubnames,"",%progbits
 1004 0000 44000000 		.4byte	0x44
 1005 0004 0200     		.2byte	0x2
 1006 0006 00000000 		.4byte	.Ldebug_info0
 1007 000a FF020000 		.4byte	0x2ff
 1008 000e 0D020000 		.4byte	0x20d
 1009 0012 68616C49 		.ascii	"halInit\000"
 1009      6E697400 
 1010 001a 22020000 		.4byte	0x222
 1011 001e 68616C49 		.ascii	"halIsCounterWithin\000"
 1011      73436F75 
 1011      6E746572 
 1011      57697468 
 1011      696E00
 1012 0031 4E020000 		.4byte	0x24e
 1013 0035 68616C50 		.ascii	"halPolledDelay\000"
 1013      6F6C6C65 
ARM GAS  C:\Users\DNIEL~1\AppData\Local\Temp\ccc9S4hh.s 			page 19


 1013      6444656C 
 1013      617900
 1014 0044 00000000 		.4byte	0x0
 1015              		.section	.debug_pubtypes,"",%progbits
 1016 0000 72000000 		.4byte	0x72
 1017 0004 0200     		.2byte	0x2
 1018 0006 00000000 		.4byte	.Ldebug_info0
 1019 000a FF020000 		.4byte	0x2ff
 1020 000e 53000000 		.4byte	0x53
 1021 0012 696E7433 		.ascii	"int32_t\000"
 1021      325F7400 
 1022 001a 65000000 		.4byte	0x65
 1023 001e 75696E74 		.ascii	"uint32_t\000"
 1023      33325F74 
 1023      00
 1024 0027 85000000 		.4byte	0x85
 1025 002b 626F6F6C 		.ascii	"bool_t\000"
 1025      5F7400
 1026 0032 1E010000 		.4byte	0x11e
 1027 0036 434D785F 		.ascii	"CMx_DWT\000"
 1027      44575400 
 1028 003e 36010000 		.4byte	0x136
 1029 0042 68616C72 		.ascii	"halrtcnt_t\000"
 1029      74636E74 
 1029      5F7400
 1030 004d 74010000 		.4byte	0x174
 1031 0051 73746D33 		.ascii	"stm32_gpio_setup_t\000"
 1031      325F6770 
 1031      696F5F73 
 1031      65747570 
 1031      5F7400
 1032 0064 CE010000 		.4byte	0x1ce
 1033 0068 50414C43 		.ascii	"PALConfig\000"
 1033      6F6E6669 
 1033      6700
 1034 0072 00000000 		.4byte	0x0
 1035              		.section	.debug_aranges,"",%progbits
 1036 0000 2C000000 		.4byte	0x2c
 1037 0004 0200     		.2byte	0x2
 1038 0006 00000000 		.4byte	.Ldebug_info0
 1039 000a 04       		.byte	0x4
 1040 000b 00       		.byte	0x0
 1041 000c 0000     		.2byte	0x0
 1042 000e 0000     		.2byte	0x0
 1043 0010 00000000 		.4byte	.LFB56
 1044 0014 28000000 		.4byte	.LFE56-.LFB56
 1045 0018 00000000 		.4byte	.LFB57
 1046 001c 28000000 		.4byte	.LFE57-.LFB57
 1047 0020 00000000 		.4byte	.LFB58
 1048 0024 28000000 		.4byte	.LFE58-.LFB58
 1049 0028 00000000 		.4byte	0x0
 1050 002c 00000000 		.4byte	0x0
 1051              		.section	.debug_ranges,"",%progbits
 1052              	.Ldebug_ranges0:
 1053 0000 00000000 		.4byte	.LFB56
 1054 0004 28000000 		.4byte	.LFE56
 1055 0008 00000000 		.4byte	.LFB57
ARM GAS  C:\Users\DNIEL~1\AppData\Local\Temp\ccc9S4hh.s 			page 20


 1056 000c 28000000 		.4byte	.LFE57
 1057 0010 00000000 		.4byte	.LFB58
 1058 0014 28000000 		.4byte	.LFE58
 1059 0018 00000000 		.4byte	0x0
 1060 001c 00000000 		.4byte	0x0
 1061              		.section	.debug_str,"MS",%progbits,1
 1062              	.LASF41:
 1063 0000 7469636B 		.ascii	"ticks\000"
 1063      7300
 1064              	.LASF28:
 1065 0006 50444461 		.ascii	"PDData\000"
 1065      746100
 1066              	.LASF35:
 1067 000d 474E5520 		.ascii	"GNU C 4.5.2\000"
 1067      4320342E 
 1067      352E3200 
 1068              	.LASF36:
 1069 0019 2E2E2F2E 		.ascii	"../../../ChibiOS/os/hal/src/hal.c\000"
 1069      2E2F2E2E 
 1069      2F436869 
 1069      62694F53 
 1069      2F6F732F 
 1070              	.LASF31:
 1071 003b 73746172 		.ascii	"start\000"
 1071      7400
 1072              	.LASF0:
 1073 0041 756E7369 		.ascii	"unsigned int\000"
 1073      676E6564 
 1073      20696E74 
 1073      00
 1074              	.LASF11:
 1075 004e 626F6F6C 		.ascii	"bool_t\000"
 1075      5F7400
 1076              	.LASF16:
 1077 0055 45584343 		.ascii	"EXCCNT\000"
 1077      4E5400
 1078              	.LASF17:
 1079 005c 534C4545 		.ascii	"SLEEPCNT\000"
 1079      50434E54 
 1079      00
 1080              	.LASF39:
 1081 0065 68616C49 		.ascii	"halInit\000"
 1081      6E697400 
 1082              	.LASF29:
 1083 006d 50454461 		.ascii	"PEData\000"
 1083      746100
 1084              	.LASF2:
 1085 0074 756E7369 		.ascii	"unsigned char\000"
 1085      676E6564 
 1085      20636861 
 1085      7200
 1086              	.LASF24:
 1087 0082 73746D33 		.ascii	"stm32_gpio_setup_t\000"
 1087      325F6770 
 1087      696F5F73 
 1087      65747570 
 1087      5F7400
ARM GAS  C:\Users\DNIEL~1\AppData\Local\Temp\ccc9S4hh.s 			page 21


 1088              	.LASF25:
 1089 0095 50414461 		.ascii	"PAData\000"
 1089      746100
 1090              	.LASF8:
 1091 009c 6C6F6E67 		.ascii	"long unsigned int\000"
 1091      20756E73 
 1091      69676E65 
 1091      6420696E 
 1091      7400
 1092              	.LASF4:
 1093 00ae 73686F72 		.ascii	"short unsigned int\000"
 1093      7420756E 
 1093      7369676E 
 1093      65642069 
 1093      6E7400
 1094              	.LASF7:
 1095 00c1 75696E74 		.ascii	"uint32_t\000"
 1095      33325F74 
 1095      00
 1096              	.LASF15:
 1097 00ca 43504943 		.ascii	"CPICNT\000"
 1097      4E5400
 1098              	.LASF33:
 1099 00d1 49544D5F 		.ascii	"ITM_RxBuffer\000"
 1099      52784275 
 1099      66666572 
 1099      00
 1100              	.LASF19:
 1101 00de 464F4C44 		.ascii	"FOLDCNT\000"
 1101      434E5400 
 1102              	.LASF30:
 1103 00e6 50414C43 		.ascii	"PALConfig\000"
 1103      6F6E6669 
 1103      6700
 1104              	.LASF34:
 1105 00f0 70616C5F 		.ascii	"pal_default_config\000"
 1105      64656661 
 1105      756C745F 
 1105      636F6E66 
 1105      696700
 1106              	.LASF18:
 1107 0103 4C535543 		.ascii	"LSUCNT\000"
 1107      4E5400
 1108              	.LASF14:
 1109 010a 43594343 		.ascii	"CYCCNT\000"
 1109      4E5400
 1110              	.LASF26:
 1111 0111 50424461 		.ascii	"PBData\000"
 1111      746100
 1112              	.LASF23:
 1113 0118 68616C72 		.ascii	"halrtcnt_t\000"
 1113      74636E74 
 1113      5F7400
 1114              	.LASF22:
 1115 0123 63686172 		.ascii	"char\000"
 1115      00
 1116              	.LASF13:
ARM GAS  C:\Users\DNIEL~1\AppData\Local\Temp\ccc9S4hh.s 			page 22


 1117 0128 4354524C 		.ascii	"CTRL\000"
 1117      00
 1118              	.LASF38:
 1119 012d 68616C49 		.ascii	"halIsCounterWithin\000"
 1119      73436F75 
 1119      6E746572 
 1119      57697468 
 1119      696E00
 1120              	.LASF6:
 1121 0140 696E7433 		.ascii	"int32_t\000"
 1121      325F7400 
 1122              	.LASF9:
 1123 0148 6C6F6E67 		.ascii	"long long int\000"
 1123      206C6F6E 
 1123      6720696E 
 1123      7400
 1124              	.LASF32:
 1125 0156 74696D65 		.ascii	"timeout\000"
 1125      6F757400 
 1126              	.LASF20:
 1127 015e 50435352 		.ascii	"PCSR\000"
 1127      00
 1128              	.LASF40:
 1129 0163 68616C50 		.ascii	"halPolledDelay\000"
 1129      6F6C6C65 
 1129      6444656C 
 1129      617900
 1130              	.LASF3:
 1131 0172 73686F72 		.ascii	"short int\000"
 1131      7420696E 
 1131      7400
 1132              	.LASF27:
 1133 017c 50434461 		.ascii	"PCData\000"
 1133      746100
 1134              	.LASF21:
 1135 0183 434D785F 		.ascii	"CMx_DWT\000"
 1135      44575400 
 1136              	.LASF37:
 1137 018b 433A5C44 		.ascii	"C:\\Dani\\MegaLux\\Repo\\LuxControl\\LuxControl\\lu"
 1137      616E695C 
 1137      4D656761 
 1137      4C75785C 
 1137      5265706F 
 1138 01b8 78636F6E 		.ascii	"xcontrol\\firmware\000"
 1138      74726F6C 
 1138      5C666972 
 1138      6D776172 
 1138      6500
 1139              	.LASF5:
 1140 01ca 6C6F6E67 		.ascii	"long int\000"
 1140      20696E74 
 1140      00
 1141              	.LASF1:
 1142 01d3 7369676E 		.ascii	"signed char\000"
 1142      65642063 
 1142      68617200 
 1143              	.LASF12:
ARM GAS  C:\Users\DNIEL~1\AppData\Local\Temp\ccc9S4hh.s 			page 23


 1144 01df 5F426F6F 		.ascii	"_Bool\000"
 1144      6C00
 1145              	.LASF10:
 1146 01e5 6C6F6E67 		.ascii	"long long unsigned int\000"
 1146      206C6F6E 
 1146      6720756E 
 1146      7369676E 
 1146      65642069 
 1147              		.ident	"GCC: (Sourcery G++ Lite 2011.03-42) 4.5.2"
ARM GAS  C:\Users\DNIEL~1\AppData\Local\Temp\ccc9S4hh.s 			page 24


DEFINED SYMBOLS
                            *ABS*:00000000 hal.c
C:\Users\DNIEL~1\AppData\Local\Temp\ccc9S4hh.s:24     .text.halInit:00000000 $t
C:\Users\DNIEL~1\AppData\Local\Temp\ccc9S4hh.s:30     .text.halInit:00000000 halInit
C:\Users\DNIEL~1\AppData\Local\Temp\ccc9S4hh.s:62     .text.halInit:00000024 $d
C:\Users\DNIEL~1\AppData\Local\Temp\ccc9S4hh.s:67     .text.halIsCounterWithin:00000000 $t
C:\Users\DNIEL~1\AppData\Local\Temp\ccc9S4hh.s:73     .text.halIsCounterWithin:00000000 halIsCounterWithin
C:\Users\DNIEL~1\AppData\Local\Temp\ccc9S4hh.s:120    .text.halIsCounterWithin:00000024 $d
C:\Users\DNIEL~1\AppData\Local\Temp\ccc9S4hh.s:125    .text.halPolledDelay:00000000 $t
C:\Users\DNIEL~1\AppData\Local\Temp\ccc9S4hh.s:131    .text.halPolledDelay:00000000 halPolledDelay
C:\Users\DNIEL~1\AppData\Local\Temp\ccc9S4hh.s:178    .text.halPolledDelay:00000024 $d
                     .debug_frame:00000010 $d
C:\Users\DNIEL~1\AppData\Local\Temp\ccc9S4hh.s:66     .text.halInit:00000028 $t
C:\Users\DNIEL~1\AppData\Local\Temp\ccc9S4hh.s:124    .text.halIsCounterWithin:00000028 $t
C:\Users\DNIEL~1\AppData\Local\Temp\ccc9S4hh.s:182    .text.halPolledDelay:00000028 $t

UNDEFINED SYMBOLS
hal_lld_init
tmInit
_pal_lld_init
adcInit
canInit
spiInit
boardInit
pal_default_config
