ARM GAS  C:\Users\DNIEL~1\AppData\Local\Temp\ccw4joxv.s 			page 1


   1              		.syntax unified
   2              		.cpu cortex-m3
   3              		.fpu softvfp
   4              		.eabi_attribute 20, 1
   5              		.eabi_attribute 21, 1
   6              		.eabi_attribute 23, 3
   7              		.eabi_attribute 24, 1
   8              		.eabi_attribute 25, 1
   9              		.eabi_attribute 26, 1
  10              		.eabi_attribute 30, 2
  11              		.eabi_attribute 18, 4
  12              		.thumb
  13              		.file	"hal_lld.c"
  14              		.section	.debug_abbrev,"",%progbits
  15              	.Ldebug_abbrev0:
  16              		.section	.debug_info,"",%progbits
  17              	.Ldebug_info0:
  18              		.section	.debug_line,"",%progbits
  19              	.Ldebug_line0:
  20 0000 E2010000 		.text
  20      02005801 
  20      00000201 
  20      FB0E0D00 
  20      01010101 
  21              	.Ltext0:
  22              		.cfi_sections	.debug_frame
  23              		.section	.text.hal_lld_init,"ax",%progbits
  24              		.align	2
  25              		.p2align 4,,15
  26              		.global	hal_lld_init
  27              		.thumb
  28              		.thumb_func
  29              		.type	hal_lld_init, %function
  30              	hal_lld_init:
  31              	.LFB57:
  32              		.file 1 "../../../ChibiOS/os/hal/platforms/STM32F1xx/hal_lld.c"
  33              		.loc 1 99 0
  34              		.cfi_startproc
  35              		@ args = 0, pretend = 0, frame = 0
  36              		@ frame_needed = 0, uses_anonymous_args = 0
  37              		@ link register save eliminated.
  38              		.loc 1 102 0
  39 0000 164B     		ldr	r3, .L2
  40              		.loc 1 99 0
  41 0002 30B4     		push	{r4, r5}
  42              	.LCFI0:
  43              		.cfi_def_cfa_offset 8
  44              		.loc 1 102 0
  45 0004 0021     		movs	r1, #0
  46 0006 4FF0FF34 		mov	r4, #-1
  47              		.cfi_offset 5, -4
  48              		.cfi_offset 4, -8
  49 000a 1869     		ldr	r0, [r3, #16]
  50 000c 1C61     		str	r4, [r3, #16]
  51 000e 1961     		str	r1, [r3, #16]
  52              		.loc 1 103 0
  53 0010 DD68     		ldr	r5, [r3, #12]
ARM GAS  C:\Users\DNIEL~1\AppData\Local\Temp\ccw4joxv.s 			page 2


  54              		.loc 1 106 0
  55 0012 134A     		ldr	r2, .L2+4
  56              		.loc 1 103 0
  57 0014 DC60     		str	r4, [r3, #12]
  58              		.loc 1 106 0
  59 0016 04F58C34 		add	r4, r4, #71680
  60 001a 04F5A074 		add	r4, r4, #320
  61              		.loc 1 103 0
  62 001e D960     		str	r1, [r3, #12]
  63              		.loc 1 113 0
  64 0020 1048     		ldr	r0, .L2+8
  65              		.loc 1 106 0
  66 0022 5460     		str	r4, [r2, #4]
  67              		.loc 1 107 0
  68 0024 9160     		str	r1, [r2, #8]
  69              		.loc 1 108 0
  70 0026 0721     		movs	r1, #7
  71 0028 1160     		str	r1, [r2, #0]
  72              		.loc 1 113 0
  73 002a C268     		ldr	r2, [r0, #12]
  74              		.loc 1 114 0
  75 002c 0E49     		ldr	r1, .L2+12
  76              		.loc 1 113 0
  77 002e 42F08072 		orr	r2, r2, #16777216
  78 0032 C260     		str	r2, [r0, #12]
  79              		.loc 1 114 0
  80 0034 0868     		ldr	r0, [r1, #0]
  81              	.LBB4:
  82              	.LBB5:
  83              		.loc 1 52 0
  84 0036 0D4A     		ldr	r2, .L2+16
  85              	.LBE5:
  86              	.LBE4:
  87              		.loc 1 114 0
  88 0038 40F00100 		orr	r0, r0, #1
  89 003c 0860     		str	r0, [r1, #0]
  90              		.loc 1 117 0
  91 003e D869     		ldr	r0, [r3, #28]
  92 0040 40F08051 		orr	r1, r0, #268435456
  93 0044 D961     		str	r1, [r3, #28]
  94              		.loc 1 118 0
  95 0046 D869     		ldr	r0, [r3, #28]
  96 0048 40F00061 		orr	r1, r0, #134217728
  97 004c D961     		str	r1, [r3, #28]
  98              	.LBB7:
  99              	.LBB6:
 100              		.loc 1 52 0
 101 004e 1068     		ldr	r0, [r2, #0]
 102 0050 40F48073 		orr	r3, r0, #256
 103 0054 1360     		str	r3, [r2, #0]
 104              	.LBE6:
 105              	.LBE7:
 106              		.loc 1 131 0
 107 0056 30BC     		pop	{r4, r5}
 108              		.loc 1 124 0
 109 0058 FFF7FEBF 		b	dmaInit
 110              	.L3:
ARM GAS  C:\Users\DNIEL~1\AppData\Local\Temp\ccw4joxv.s 			page 3


 111              		.align	2
 112              	.L2:
 113 005c 00100240 		.word	1073876992
 114 0060 10E000E0 		.word	-536813552
 115 0064 F0ED00E0 		.word	-536810000
 116 0068 001000E0 		.word	-536866816
 117 006c 00700040 		.word	1073770496
 118              		.cfi_endproc
 119              	.LFE57:
 120              		.size	hal_lld_init, .-hal_lld_init
 121              		.section	.text.stm32_clock_init,"ax",%progbits
 122              		.align	2
 123              		.p2align 4,,15
 124              		.global	stm32_clock_init
 125              		.thumb
 126              		.thumb_func
 127              		.type	stm32_clock_init, %function
 128              	stm32_clock_init:
 129              	.LFB58:
 130              		.loc 1 147 0
 131              		.cfi_startproc
 132              		@ args = 0, pretend = 0, frame = 0
 133              		@ frame_needed = 0, uses_anonymous_args = 0
 134              		@ link register save eliminated.
 135              		.loc 1 152 0
 136 0000 224B     		ldr	r3, .L16
 137 0002 1868     		ldr	r0, [r3, #0]
 138              		.loc 1 153 0
 139 0004 1946     		mov	r1, r3
 140              		.loc 1 152 0
 141 0006 40F00102 		orr	r2, r0, #1
 142 000a 1A60     		str	r2, [r3, #0]
 143              	.L5:
 144              		.loc 1 153 0 discriminator 1
 145 000c 0B68     		ldr	r3, [r1, #0]
 146 000e 1F4A     		ldr	r2, .L16
 147 0010 13F0020F 		tst	r3, #2
 148 0014 FAD0     		beq	.L5
 149              		.loc 1 159 0
 150 0016 5068     		ldr	r0, [r2, #4]
 151              		.loc 1 161 0
 152 0018 1146     		mov	r1, r2
 153              		.loc 1 159 0
 154 001a 20F00303 		bic	r3, r0, #3
 155 001e 5360     		str	r3, [r2, #4]
 156              		.loc 1 160 0
 157 0020 5068     		ldr	r0, [r2, #4]
 158 0022 5060     		str	r0, [r2, #4]
 159              	.L6:
 160              		.loc 1 161 0 discriminator 1
 161 0024 4B68     		ldr	r3, [r1, #4]
 162 0026 194A     		ldr	r2, .L16
 163 0028 13F00C03 		ands	r3, r3, #12
 164 002c FAD1     		bne	.L6
 165              		.loc 1 165 0
 166 002e 1068     		ldr	r0, [r2, #0]
 167              		.loc 1 175 0
ARM GAS  C:\Users\DNIEL~1\AppData\Local\Temp\ccw4joxv.s 			page 4


 168 0030 1146     		mov	r1, r2
 169              		.loc 1 165 0
 170 0032 00F0F900 		and	r0, r0, #249
 171 0036 1060     		str	r0, [r2, #0]
 172              		.loc 1 166 0
 173 0038 5360     		str	r3, [r2, #4]
 174              		.loc 1 174 0
 175 003a 1368     		ldr	r3, [r2, #0]
 176 003c 43F48030 		orr	r0, r3, #65536
 177 0040 1060     		str	r0, [r2, #0]
 178              	.L7:
 179              		.loc 1 175 0 discriminator 1
 180 0042 0B68     		ldr	r3, [r1, #0]
 181 0044 114A     		ldr	r2, .L16
 182 0046 13F4003F 		tst	r3, #131072
 183 004a FAD0     		beq	.L7
 184              		.loc 1 188 0
 185 004c 5368     		ldr	r3, [r2, #4]
 186              		.loc 1 190 0
 187 004e 1146     		mov	r1, r2
 188              		.loc 1 188 0
 189 0050 43F4E810 		orr	r0, r3, #1900544
 190 0054 5060     		str	r0, [r2, #4]
 191              		.loc 1 189 0
 192 0056 1368     		ldr	r3, [r2, #0]
 193 0058 43F08070 		orr	r0, r3, #16777216
 194 005c 1060     		str	r0, [r2, #0]
 195              	.L8:
 196              		.loc 1 190 0 discriminator 1
 197 005e 0868     		ldr	r0, [r1, #0]
 198 0060 0A4A     		ldr	r2, .L16
 199 0062 10F0007F 		tst	r0, #33554432
 200 0066 FAD0     		beq	.L8
 201              		.loc 1 196 0
 202 0068 0948     		ldr	r0, .L16+4
 203              		.loc 1 206 0
 204 006a 0A4B     		ldr	r3, .L16+8
 205 006c 1221     		movs	r1, #18
 206              		.loc 1 196 0
 207 006e 5060     		str	r0, [r2, #4]
 208              		.loc 1 206 0
 209 0070 1960     		str	r1, [r3, #0]
 210              		.loc 1 211 0
 211 0072 5068     		ldr	r0, [r2, #4]
 212              		.loc 1 212 0
 213 0074 1146     		mov	r1, r2
 214              		.loc 1 211 0
 215 0076 40F00203 		orr	r3, r0, #2
 216 007a 5360     		str	r3, [r2, #4]
 217              	.L9:
 218              		.loc 1 212 0 discriminator 1
 219 007c 4A68     		ldr	r2, [r1, #4]
 220 007e 02F00C0C 		and	ip, r2, #12
 221 0082 BCF1080F 		cmp	ip, #8
 222 0086 F9D1     		bne	.L9
 223              		.loc 1 220 0
 224 0088 7047     		bx	lr
ARM GAS  C:\Users\DNIEL~1\AppData\Local\Temp\ccw4joxv.s 			page 5


 225              	.L17:
 226 008a 00BF     		.align	2
 227              	.L16:
 228 008c 00100240 		.word	1073876992
 229 0090 00641D00 		.word	1926144
 230 0094 00200240 		.word	1073881088
 231              		.cfi_endproc
 232              	.LFE58:
 233              		.size	stm32_clock_init, .-stm32_clock_init
 234 0098 AFF30080 		.text
 234      AFF30080 
 235              	.Letext0:
 236              		.section	.debug_loc,"",%progbits
 237              	.Ldebug_loc0:
 238              	.LLST0:
 239 0000 00000000 		.4byte	.LFB57
 240 0004 04000000 		.4byte	.LCFI0
 241 0008 0200     		.2byte	0x2
 242 000a 7D       		.byte	0x7d
 243 000b 00       		.sleb128 0
 244 000c 04000000 		.4byte	.LCFI0
 245 0010 70000000 		.4byte	.LFE57
 246 0014 0200     		.2byte	0x2
 247 0016 7D       		.byte	0x7d
 248 0017 08       		.sleb128 8
 249 0018 00000000 		.4byte	0x0
 250 001c 00000000 		.4byte	0x0
 251              		.file 2 "c:\\program files (x86)\\codesourcery\\sourcery g++ lite\\bin\\../lib/gcc/arm-none-eabi/4
 252              		.file 3 "../../../ChibiOS/os/ports/common/ARMCMx/nvic.h"
 253              		.file 4 "../../../ChibiOS/os/ports/common/ARMCMx/CMSIS/include/core_cm3.h"
 254              		.file 5 "../../../ChibiOS/os/hal/platforms/STM32F1xx/stm32f10x.h"
 255              		.section	.debug_info
 256 0000 B5030000 		.4byte	0x3b5
 257 0004 0200     		.2byte	0x2
 258 0006 00000000 		.4byte	.Ldebug_abbrev0
 259 000a 04       		.byte	0x4
 260 000b 01       		.uleb128 0x1
 261 000c 18000000 		.4byte	.LASF46
 262 0010 01       		.byte	0x1
 263 0011 25020000 		.4byte	.LASF47
 264 0015 BD010000 		.4byte	.LASF48
 265 0019 00000000 		.4byte	0x0
 266 001d 00000000 		.4byte	0x0
 267 0021 18000000 		.4byte	.Ldebug_ranges0+0x18
 268 0025 00000000 		.4byte	.Ldebug_line0
 269 0029 02       		.uleb128 0x2
 270 002a 04       		.byte	0x4
 271 002b 05       		.byte	0x5
 272 002c 696E7400 		.ascii	"int\000"
 273 0030 03       		.uleb128 0x3
 274 0031 04       		.byte	0x4
 275 0032 07       		.byte	0x7
 276 0033 36010000 		.4byte	.LASF0
 277 0037 03       		.uleb128 0x3
 278 0038 01       		.byte	0x1
 279 0039 06       		.byte	0x6
 280 003a 0A020000 		.4byte	.LASF1
ARM GAS  C:\Users\DNIEL~1\AppData\Local\Temp\ccw4joxv.s 			page 6


 281 003e 03       		.uleb128 0x3
 282 003f 01       		.byte	0x1
 283 0040 08       		.byte	0x8
 284 0041 82000000 		.4byte	.LASF2
 285 0045 03       		.uleb128 0x3
 286 0046 02       		.byte	0x2
 287 0047 05       		.byte	0x5
 288 0048 0E010000 		.4byte	.LASF3
 289 004c 04       		.uleb128 0x4
 290 004d A8010000 		.4byte	.LASF5
 291 0051 02       		.byte	0x2
 292 0052 36       		.byte	0x36
 293 0053 57000000 		.4byte	0x57
 294 0057 03       		.uleb128 0x3
 295 0058 02       		.byte	0x2
 296 0059 07       		.byte	0x7
 297 005a A9000000 		.4byte	.LASF4
 298 005e 04       		.uleb128 0x4
 299 005f 67010000 		.4byte	.LASF6
 300 0063 02       		.byte	0x2
 301 0064 4F       		.byte	0x4f
 302 0065 69000000 		.4byte	0x69
 303 0069 03       		.uleb128 0x3
 304 006a 04       		.byte	0x4
 305 006b 05       		.byte	0x5
 306 006c FC010000 		.4byte	.LASF7
 307 0070 04       		.uleb128 0x4
 308 0071 16020000 		.4byte	.LASF8
 309 0075 02       		.byte	0x2
 310 0076 50       		.byte	0x50
 311 0077 7B000000 		.4byte	0x7b
 312 007b 03       		.uleb128 0x3
 313 007c 04       		.byte	0x4
 314 007d 07       		.byte	0x7
 315 007e 97000000 		.4byte	.LASF9
 316 0082 03       		.uleb128 0x3
 317 0083 08       		.byte	0x8
 318 0084 05       		.byte	0x5
 319 0085 00000000 		.4byte	.LASF10
 320 0089 03       		.uleb128 0x3
 321 008a 08       		.byte	0x8
 322 008b 07       		.byte	0x7
 323 008c 5C000000 		.4byte	.LASF11
 324 0090 03       		.uleb128 0x3
 325 0091 01       		.byte	0x1
 326 0092 02       		.byte	0x2
 327 0093 1F020000 		.4byte	.LASF12
 328 0097 05       		.uleb128 0x5
 329 0098 70000000 		.4byte	0x70
 330 009c 05       		.uleb128 0x5
 331 009d 7B000000 		.4byte	0x7b
 332 00a1 06       		.uleb128 0x6
 333 00a2 10       		.byte	0x10
 334 00a3 03       		.byte	0x3
 335 00a4 F1       		.byte	0xf1
 336 00a5 E2000000 		.4byte	0xe2
 337 00a9 07       		.uleb128 0x7
ARM GAS  C:\Users\DNIEL~1\AppData\Local\Temp\ccw4joxv.s 			page 7


 338 00aa EB000000 		.4byte	.LASF13
 339 00ae 03       		.byte	0x3
 340 00af F2       		.byte	0xf2
 341 00b0 9C000000 		.4byte	0x9c
 342 00b4 02       		.byte	0x2
 343 00b5 23       		.byte	0x23
 344 00b6 00       		.uleb128 0x0
 345 00b7 07       		.uleb128 0x7
 346 00b8 30010000 		.4byte	.LASF14
 347 00bc 03       		.byte	0x3
 348 00bd F3       		.byte	0xf3
 349 00be 9C000000 		.4byte	0x9c
 350 00c2 02       		.byte	0x2
 351 00c3 23       		.byte	0x23
 352 00c4 04       		.uleb128 0x4
 353 00c5 07       		.uleb128 0x7
 354 00c6 55010000 		.4byte	.LASF15
 355 00ca 03       		.byte	0x3
 356 00cb F4       		.byte	0xf4
 357 00cc 9C000000 		.4byte	0x9c
 358 00d0 02       		.byte	0x2
 359 00d1 23       		.byte	0x23
 360 00d2 08       		.uleb128 0x8
 361 00d3 07       		.uleb128 0x7
 362 00d4 7C000000 		.4byte	.LASF16
 363 00d8 03       		.byte	0x3
 364 00d9 F5       		.byte	0xf5
 365 00da 9C000000 		.4byte	0x9c
 366 00de 02       		.byte	0x2
 367 00df 23       		.byte	0x23
 368 00e0 0C       		.uleb128 0xc
 369 00e1 00       		.byte	0x0
 370 00e2 04       		.uleb128 0x4
 371 00e3 7D010000 		.4byte	.LASF17
 372 00e7 03       		.byte	0x3
 373 00e8 F6       		.byte	0xf6
 374 00e9 A1000000 		.4byte	0xa1
 375 00ed 08       		.uleb128 0x8
 376 00ee 20       		.byte	0x20
 377 00ef 03       		.byte	0x3
 378 00f0 0601     		.2byte	0x106
 379 00f2 6F010000 		.4byte	0x16f
 380 00f6 09       		.uleb128 0x9
 381 00f7 5B010000 		.4byte	.LASF18
 382 00fb 03       		.byte	0x3
 383 00fc 0701     		.2byte	0x107
 384 00fe 9C000000 		.4byte	0x9c
 385 0102 02       		.byte	0x2
 386 0103 23       		.byte	0x23
 387 0104 00       		.uleb128 0x0
 388 0105 09       		.uleb128 0x9
 389 0106 90000000 		.4byte	.LASF19
 390 010a 03       		.byte	0x3
 391 010b 0801     		.2byte	0x108
 392 010d 9C000000 		.4byte	0x9c
 393 0111 02       		.byte	0x2
 394 0112 23       		.byte	0x23
ARM GAS  C:\Users\DNIEL~1\AppData\Local\Temp\ccw4joxv.s 			page 8


 395 0113 04       		.uleb128 0x4
 396 0114 09       		.uleb128 0x9
 397 0115 D7000000 		.4byte	.LASF20
 398 0119 03       		.byte	0x3
 399 011a 0901     		.2byte	0x109
 400 011c 9C000000 		.4byte	0x9c
 401 0120 02       		.byte	0x2
 402 0121 23       		.byte	0x23
 403 0122 08       		.uleb128 0x8
 404 0123 09       		.uleb128 0x9
 405 0124 60010000 		.4byte	.LASF21
 406 0128 03       		.byte	0x3
 407 0129 0A01     		.2byte	0x10a
 408 012b 9C000000 		.4byte	0x9c
 409 012f 02       		.byte	0x2
 410 0130 23       		.byte	0x23
 411 0131 0C       		.uleb128 0xc
 412 0132 09       		.uleb128 0x9
 413 0133 53000000 		.4byte	.LASF22
 414 0137 03       		.byte	0x3
 415 0138 0B01     		.2byte	0x10b
 416 013a 9C000000 		.4byte	0x9c
 417 013e 02       		.byte	0x2
 418 013f 23       		.byte	0x23
 419 0140 10       		.uleb128 0x10
 420 0141 09       		.uleb128 0x9
 421 0142 18010000 		.4byte	.LASF23
 422 0146 03       		.byte	0x3
 423 0147 0C01     		.2byte	0x10c
 424 0149 9C000000 		.4byte	0x9c
 425 014d 02       		.byte	0x2
 426 014e 23       		.byte	0x23
 427 014f 14       		.uleb128 0x14
 428 0150 09       		.uleb128 0x9
 429 0151 46000000 		.4byte	.LASF24
 430 0155 03       		.byte	0x3
 431 0156 0D01     		.2byte	0x10d
 432 0158 9C000000 		.4byte	0x9c
 433 015c 02       		.byte	0x2
 434 015d 23       		.byte	0x23
 435 015e 18       		.uleb128 0x18
 436 015f 09       		.uleb128 0x9
 437 0160 24000000 		.4byte	.LASF25
 438 0164 03       		.byte	0x3
 439 0165 0E01     		.2byte	0x10e
 440 0167 9C000000 		.4byte	0x9c
 441 016b 02       		.byte	0x2
 442 016c 23       		.byte	0x23
 443 016d 1C       		.uleb128 0x1c
 444 016e 00       		.byte	0x0
 445 016f 0A       		.uleb128 0xa
 446 0170 37000000 		.4byte	.LASF26
 447 0174 03       		.byte	0x3
 448 0175 0F01     		.2byte	0x10f
 449 0177 ED000000 		.4byte	0xed
 450 017b 03       		.uleb128 0x3
 451 017c 01       		.byte	0x1
ARM GAS  C:\Users\DNIEL~1\AppData\Local\Temp\ccw4joxv.s 			page 9


 452 017d 08       		.byte	0x8
 453 017e 43010000 		.4byte	.LASF27
 454 0182 0B       		.uleb128 0xb
 455 0183 97000000 		.4byte	0x97
 456 0187 08       		.uleb128 0x8
 457 0188 10       		.byte	0x10
 458 0189 04       		.byte	0x4
 459 018a 3F02     		.2byte	0x23f
 460 018c CD010000 		.4byte	0x1cd
 461 0190 09       		.uleb128 0x9
 462 0191 5B010000 		.4byte	.LASF18
 463 0195 04       		.byte	0x4
 464 0196 4102     		.2byte	0x241
 465 0198 97000000 		.4byte	0x97
 466 019c 02       		.byte	0x2
 467 019d 23       		.byte	0x23
 468 019e 00       		.uleb128 0x0
 469 019f 09       		.uleb128 0x9
 470 01a0 92010000 		.4byte	.LASF28
 471 01a4 04       		.byte	0x4
 472 01a5 4202     		.2byte	0x242
 473 01a7 97000000 		.4byte	0x97
 474 01ab 02       		.byte	0x2
 475 01ac 23       		.byte	0x23
 476 01ad 04       		.uleb128 0x4
 477 01ae 0C       		.uleb128 0xc
 478 01af 56414C00 		.ascii	"VAL\000"
 479 01b3 04       		.byte	0x4
 480 01b4 4302     		.2byte	0x243
 481 01b6 97000000 		.4byte	0x97
 482 01ba 02       		.byte	0x2
 483 01bb 23       		.byte	0x23
 484 01bc 08       		.uleb128 0x8
 485 01bd 09       		.uleb128 0x9
 486 01be 6F010000 		.4byte	.LASF29
 487 01c2 04       		.byte	0x4
 488 01c3 4402     		.2byte	0x244
 489 01c5 82010000 		.4byte	0x182
 490 01c9 02       		.byte	0x2
 491 01ca 23       		.byte	0x23
 492 01cb 0C       		.uleb128 0xc
 493 01cc 00       		.byte	0x0
 494 01cd 0A       		.uleb128 0xa
 495 01ce 48010000 		.4byte	.LASF30
 496 01d2 04       		.byte	0x4
 497 01d3 4502     		.2byte	0x245
 498 01d5 87010000 		.4byte	0x187
 499 01d9 05       		.uleb128 0x5
 500 01da 5E000000 		.4byte	0x5e
 501 01de 08       		.uleb128 0x8
 502 01df 24       		.byte	0x24
 503 01e0 05       		.byte	0x5
 504 01e1 9403     		.2byte	0x394
 505 01e3 6C020000 		.4byte	0x26c
 506 01e7 0C       		.uleb128 0xc
 507 01e8 41435200 		.ascii	"ACR\000"
 508 01ec 05       		.byte	0x5
ARM GAS  C:\Users\DNIEL~1\AppData\Local\Temp\ccw4joxv.s 			page 10


 509 01ed 9603     		.2byte	0x396
 510 01ef 97000000 		.4byte	0x97
 511 01f3 02       		.byte	0x2
 512 01f4 23       		.byte	0x23
 513 01f5 00       		.uleb128 0x0
 514 01f6 09       		.uleb128 0x9
 515 01f7 05020000 		.4byte	.LASF31
 516 01fb 05       		.byte	0x5
 517 01fc 9703     		.2byte	0x397
 518 01fe 97000000 		.4byte	0x97
 519 0202 02       		.byte	0x2
 520 0203 23       		.byte	0x23
 521 0204 04       		.uleb128 0x4
 522 0205 09       		.uleb128 0x9
 523 0206 F1000000 		.4byte	.LASF32
 524 020a 05       		.byte	0x5
 525 020b 9803     		.2byte	0x398
 526 020d 97000000 		.4byte	0x97
 527 0211 02       		.byte	0x2
 528 0212 23       		.byte	0x23
 529 0213 08       		.uleb128 0x8
 530 0214 0C       		.uleb128 0xc
 531 0215 535200   		.ascii	"SR\000"
 532 0218 05       		.byte	0x5
 533 0219 9903     		.2byte	0x399
 534 021b 97000000 		.4byte	0x97
 535 021f 02       		.byte	0x2
 536 0220 23       		.byte	0x23
 537 0221 0C       		.uleb128 0xc
 538 0222 0C       		.uleb128 0xc
 539 0223 435200   		.ascii	"CR\000"
 540 0226 05       		.byte	0x5
 541 0227 9A03     		.2byte	0x39a
 542 0229 97000000 		.4byte	0x97
 543 022d 02       		.byte	0x2
 544 022e 23       		.byte	0x23
 545 022f 10       		.uleb128 0x10
 546 0230 0C       		.uleb128 0xc
 547 0231 415200   		.ascii	"AR\000"
 548 0234 05       		.byte	0x5
 549 0235 9B03     		.2byte	0x39b
 550 0237 97000000 		.4byte	0x97
 551 023b 02       		.byte	0x2
 552 023c 23       		.byte	0x23
 553 023d 14       		.uleb128 0x14
 554 023e 09       		.uleb128 0x9
 555 023f 05010000 		.4byte	.LASF33
 556 0243 05       		.byte	0x5
 557 0244 9C03     		.2byte	0x39c
 558 0246 97000000 		.4byte	0x97
 559 024a 02       		.byte	0x2
 560 024b 23       		.byte	0x23
 561 024c 18       		.uleb128 0x18
 562 024d 0C       		.uleb128 0xc
 563 024e 4F425200 		.ascii	"OBR\000"
 564 0252 05       		.byte	0x5
 565 0253 9D03     		.2byte	0x39d
ARM GAS  C:\Users\DNIEL~1\AppData\Local\Temp\ccw4joxv.s 			page 11


 566 0255 97000000 		.4byte	0x97
 567 0259 02       		.byte	0x2
 568 025a 23       		.byte	0x23
 569 025b 1C       		.uleb128 0x1c
 570 025c 09       		.uleb128 0x9
 571 025d 4E000000 		.4byte	.LASF34
 572 0261 05       		.byte	0x5
 573 0262 9E03     		.2byte	0x39e
 574 0264 97000000 		.4byte	0x97
 575 0268 02       		.byte	0x2
 576 0269 23       		.byte	0x23
 577 026a 20       		.uleb128 0x20
 578 026b 00       		.byte	0x0
 579 026c 0A       		.uleb128 0xa
 580 026d 29000000 		.4byte	.LASF35
 581 0271 05       		.byte	0x5
 582 0272 A703     		.2byte	0x3a7
 583 0274 DE010000 		.4byte	0x1de
 584 0278 08       		.uleb128 0x8
 585 0279 08       		.byte	0x8
 586 027a 05       		.byte	0x5
 587 027b 3904     		.2byte	0x439
 588 027d 9F020000 		.4byte	0x29f
 589 0281 0C       		.uleb128 0xc
 590 0282 435200   		.ascii	"CR\000"
 591 0285 05       		.byte	0x5
 592 0286 3B04     		.2byte	0x43b
 593 0288 97000000 		.4byte	0x97
 594 028c 02       		.byte	0x2
 595 028d 23       		.byte	0x23
 596 028e 00       		.uleb128 0x0
 597 028f 0C       		.uleb128 0xc
 598 0290 43535200 		.ascii	"CSR\000"
 599 0294 05       		.byte	0x5
 600 0295 3C04     		.2byte	0x43c
 601 0297 97000000 		.4byte	0x97
 602 029b 02       		.byte	0x2
 603 029c 23       		.byte	0x23
 604 029d 04       		.uleb128 0x4
 605 029e 00       		.byte	0x0
 606 029f 0A       		.uleb128 0xa
 607 02a0 F9000000 		.4byte	.LASF36
 608 02a4 05       		.byte	0x5
 609 02a5 3D04     		.2byte	0x43d
 610 02a7 78020000 		.4byte	0x278
 611 02ab 08       		.uleb128 0x8
 612 02ac 28       		.byte	0x28
 613 02ad 05       		.byte	0x5
 614 02ae 4304     		.2byte	0x443
 615 02b0 4A030000 		.4byte	0x34a
 616 02b4 0C       		.uleb128 0xc
 617 02b5 435200   		.ascii	"CR\000"
 618 02b8 05       		.byte	0x5
 619 02b9 4504     		.2byte	0x445
 620 02bb 97000000 		.4byte	0x97
 621 02bf 02       		.byte	0x2
 622 02c0 23       		.byte	0x23
ARM GAS  C:\Users\DNIEL~1\AppData\Local\Temp\ccw4joxv.s 			page 12


 623 02c1 00       		.uleb128 0x0
 624 02c2 09       		.uleb128 0x9
 625 02c3 13000000 		.4byte	.LASF37
 626 02c7 05       		.byte	0x5
 627 02c8 4604     		.2byte	0x446
 628 02ca 97000000 		.4byte	0x97
 629 02ce 02       		.byte	0x2
 630 02cf 23       		.byte	0x23
 631 02d0 04       		.uleb128 0x4
 632 02d1 0C       		.uleb128 0xc
 633 02d2 43495200 		.ascii	"CIR\000"
 634 02d6 05       		.byte	0x5
 635 02d7 4704     		.2byte	0x447
 636 02d9 97000000 		.4byte	0x97
 637 02dd 02       		.byte	0x2
 638 02de 23       		.byte	0x23
 639 02df 08       		.uleb128 0x8
 640 02e0 09       		.uleb128 0x9
 641 02e1 27010000 		.4byte	.LASF38
 642 02e5 05       		.byte	0x5
 643 02e6 4804     		.2byte	0x448
 644 02e8 97000000 		.4byte	0x97
 645 02ec 02       		.byte	0x2
 646 02ed 23       		.byte	0x23
 647 02ee 0C       		.uleb128 0xc
 648 02ef 09       		.uleb128 0x9
 649 02f0 73000000 		.4byte	.LASF39
 650 02f4 05       		.byte	0x5
 651 02f5 4904     		.2byte	0x449
 652 02f7 97000000 		.4byte	0x97
 653 02fb 02       		.byte	0x2
 654 02fc 23       		.byte	0x23
 655 02fd 10       		.uleb128 0x10
 656 02fe 09       		.uleb128 0x9
 657 02ff 3F000000 		.4byte	.LASF40
 658 0303 05       		.byte	0x5
 659 0304 4A04     		.2byte	0x44a
 660 0306 97000000 		.4byte	0x97
 661 030a 02       		.byte	0x2
 662 030b 23       		.byte	0x23
 663 030c 14       		.uleb128 0x14
 664 030d 09       		.uleb128 0x9
 665 030e 75010000 		.4byte	.LASF41
 666 0312 05       		.byte	0x5
 667 0313 4B04     		.2byte	0x44b
 668 0315 97000000 		.4byte	0x97
 669 0319 02       		.byte	0x2
 670 031a 23       		.byte	0x23
 671 031b 18       		.uleb128 0x18
 672 031c 09       		.uleb128 0x9
 673 031d 1F010000 		.4byte	.LASF42
 674 0321 05       		.byte	0x5
 675 0322 4C04     		.2byte	0x44c
 676 0324 97000000 		.4byte	0x97
 677 0328 02       		.byte	0x2
 678 0329 23       		.byte	0x23
 679 032a 1C       		.uleb128 0x1c
ARM GAS  C:\Users\DNIEL~1\AppData\Local\Temp\ccw4joxv.s 			page 13


 680 032b 09       		.uleb128 0x9
 681 032c 0E000000 		.4byte	.LASF43
 682 0330 05       		.byte	0x5
 683 0331 4D04     		.2byte	0x44d
 684 0333 97000000 		.4byte	0x97
 685 0337 02       		.byte	0x2
 686 0338 23       		.byte	0x23
 687 0339 20       		.uleb128 0x20
 688 033a 0C       		.uleb128 0xc
 689 033b 43535200 		.ascii	"CSR\000"
 690 033f 05       		.byte	0x5
 691 0340 4E04     		.2byte	0x44e
 692 0342 97000000 		.4byte	0x97
 693 0346 02       		.byte	0x2
 694 0347 23       		.byte	0x23
 695 0348 24       		.uleb128 0x24
 696 0349 00       		.byte	0x0
 697 034a 0A       		.uleb128 0xa
 698 034b B1010000 		.4byte	.LASF44
 699 034f 05       		.byte	0x5
 700 0350 5904     		.2byte	0x459
 701 0352 AB020000 		.4byte	0x2ab
 702 0356 0D       		.uleb128 0xd
 703 0357 BC000000 		.4byte	.LASF49
 704 035b 01       		.byte	0x1
 705 035c 31       		.byte	0x31
 706 035d 01       		.byte	0x1
 707 035e 01       		.byte	0x1
 708 035f 0E       		.uleb128 0xe
 709 0360 01       		.byte	0x1
 710 0361 85010000 		.4byte	.LASF50
 711 0365 01       		.byte	0x1
 712 0366 63       		.byte	0x63
 713 0367 01       		.byte	0x1
 714 0368 00000000 		.4byte	.LFB57
 715 036c 70000000 		.4byte	.LFE57
 716 0370 00000000 		.4byte	.LLST0
 717 0374 88030000 		.4byte	0x388
 718 0378 0F       		.uleb128 0xf
 719 0379 56030000 		.4byte	0x356
 720 037d 36000000 		.4byte	.LBB4
 721 0381 00000000 		.4byte	.Ldebug_ranges0+0x0
 722 0385 01       		.byte	0x1
 723 0386 79       		.byte	0x79
 724 0387 00       		.byte	0x0
 725 0388 10       		.uleb128 0x10
 726 0389 01       		.byte	0x1
 727 038a 97010000 		.4byte	.LASF51
 728 038e 01       		.byte	0x1
 729 038f 93       		.byte	0x93
 730 0390 01       		.byte	0x1
 731 0391 00000000 		.4byte	.LFB58
 732 0395 98000000 		.4byte	.LFE58
 733 0399 02       		.byte	0x2
 734 039a 7D       		.byte	0x7d
 735 039b 00       		.sleb128 0
 736 039c 11       		.uleb128 0x11
ARM GAS  C:\Users\DNIEL~1\AppData\Local\Temp\ccw4joxv.s 			page 14


 737 039d DE000000 		.4byte	.LASF45
 738 03a1 04       		.byte	0x4
 739 03a2 0706     		.2byte	0x607
 740 03a4 D9010000 		.4byte	0x1d9
 741 03a8 01       		.byte	0x1
 742 03a9 01       		.byte	0x1
 743 03aa 11       		.uleb128 0x11
 744 03ab DE000000 		.4byte	.LASF45
 745 03af 04       		.byte	0x4
 746 03b0 0706     		.2byte	0x607
 747 03b2 D9010000 		.4byte	0x1d9
 748 03b6 01       		.byte	0x1
 749 03b7 01       		.byte	0x1
 750 03b8 00       		.byte	0x0
 751              		.section	.debug_abbrev
 752 0000 01       		.uleb128 0x1
 753 0001 11       		.uleb128 0x11
 754 0002 01       		.byte	0x1
 755 0003 25       		.uleb128 0x25
 756 0004 0E       		.uleb128 0xe
 757 0005 13       		.uleb128 0x13
 758 0006 0B       		.uleb128 0xb
 759 0007 03       		.uleb128 0x3
 760 0008 0E       		.uleb128 0xe
 761 0009 1B       		.uleb128 0x1b
 762 000a 0E       		.uleb128 0xe
 763 000b 11       		.uleb128 0x11
 764 000c 01       		.uleb128 0x1
 765 000d 52       		.uleb128 0x52
 766 000e 01       		.uleb128 0x1
 767 000f 55       		.uleb128 0x55
 768 0010 06       		.uleb128 0x6
 769 0011 10       		.uleb128 0x10
 770 0012 06       		.uleb128 0x6
 771 0013 00       		.byte	0x0
 772 0014 00       		.byte	0x0
 773 0015 02       		.uleb128 0x2
 774 0016 24       		.uleb128 0x24
 775 0017 00       		.byte	0x0
 776 0018 0B       		.uleb128 0xb
 777 0019 0B       		.uleb128 0xb
 778 001a 3E       		.uleb128 0x3e
 779 001b 0B       		.uleb128 0xb
 780 001c 03       		.uleb128 0x3
 781 001d 08       		.uleb128 0x8
 782 001e 00       		.byte	0x0
 783 001f 00       		.byte	0x0
 784 0020 03       		.uleb128 0x3
 785 0021 24       		.uleb128 0x24
 786 0022 00       		.byte	0x0
 787 0023 0B       		.uleb128 0xb
 788 0024 0B       		.uleb128 0xb
 789 0025 3E       		.uleb128 0x3e
 790 0026 0B       		.uleb128 0xb
 791 0027 03       		.uleb128 0x3
 792 0028 0E       		.uleb128 0xe
 793 0029 00       		.byte	0x0
ARM GAS  C:\Users\DNIEL~1\AppData\Local\Temp\ccw4joxv.s 			page 15


 794 002a 00       		.byte	0x0
 795 002b 04       		.uleb128 0x4
 796 002c 16       		.uleb128 0x16
 797 002d 00       		.byte	0x0
 798 002e 03       		.uleb128 0x3
 799 002f 0E       		.uleb128 0xe
 800 0030 3A       		.uleb128 0x3a
 801 0031 0B       		.uleb128 0xb
 802 0032 3B       		.uleb128 0x3b
 803 0033 0B       		.uleb128 0xb
 804 0034 49       		.uleb128 0x49
 805 0035 13       		.uleb128 0x13
 806 0036 00       		.byte	0x0
 807 0037 00       		.byte	0x0
 808 0038 05       		.uleb128 0x5
 809 0039 35       		.uleb128 0x35
 810 003a 00       		.byte	0x0
 811 003b 49       		.uleb128 0x49
 812 003c 13       		.uleb128 0x13
 813 003d 00       		.byte	0x0
 814 003e 00       		.byte	0x0
 815 003f 06       		.uleb128 0x6
 816 0040 13       		.uleb128 0x13
 817 0041 01       		.byte	0x1
 818 0042 0B       		.uleb128 0xb
 819 0043 0B       		.uleb128 0xb
 820 0044 3A       		.uleb128 0x3a
 821 0045 0B       		.uleb128 0xb
 822 0046 3B       		.uleb128 0x3b
 823 0047 0B       		.uleb128 0xb
 824 0048 01       		.uleb128 0x1
 825 0049 13       		.uleb128 0x13
 826 004a 00       		.byte	0x0
 827 004b 00       		.byte	0x0
 828 004c 07       		.uleb128 0x7
 829 004d 0D       		.uleb128 0xd
 830 004e 00       		.byte	0x0
 831 004f 03       		.uleb128 0x3
 832 0050 0E       		.uleb128 0xe
 833 0051 3A       		.uleb128 0x3a
 834 0052 0B       		.uleb128 0xb
 835 0053 3B       		.uleb128 0x3b
 836 0054 0B       		.uleb128 0xb
 837 0055 49       		.uleb128 0x49
 838 0056 13       		.uleb128 0x13
 839 0057 38       		.uleb128 0x38
 840 0058 0A       		.uleb128 0xa
 841 0059 00       		.byte	0x0
 842 005a 00       		.byte	0x0
 843 005b 08       		.uleb128 0x8
 844 005c 13       		.uleb128 0x13
 845 005d 01       		.byte	0x1
 846 005e 0B       		.uleb128 0xb
 847 005f 0B       		.uleb128 0xb
 848 0060 3A       		.uleb128 0x3a
 849 0061 0B       		.uleb128 0xb
 850 0062 3B       		.uleb128 0x3b
ARM GAS  C:\Users\DNIEL~1\AppData\Local\Temp\ccw4joxv.s 			page 16


 851 0063 05       		.uleb128 0x5
 852 0064 01       		.uleb128 0x1
 853 0065 13       		.uleb128 0x13
 854 0066 00       		.byte	0x0
 855 0067 00       		.byte	0x0
 856 0068 09       		.uleb128 0x9
 857 0069 0D       		.uleb128 0xd
 858 006a 00       		.byte	0x0
 859 006b 03       		.uleb128 0x3
 860 006c 0E       		.uleb128 0xe
 861 006d 3A       		.uleb128 0x3a
 862 006e 0B       		.uleb128 0xb
 863 006f 3B       		.uleb128 0x3b
 864 0070 05       		.uleb128 0x5
 865 0071 49       		.uleb128 0x49
 866 0072 13       		.uleb128 0x13
 867 0073 38       		.uleb128 0x38
 868 0074 0A       		.uleb128 0xa
 869 0075 00       		.byte	0x0
 870 0076 00       		.byte	0x0
 871 0077 0A       		.uleb128 0xa
 872 0078 16       		.uleb128 0x16
 873 0079 00       		.byte	0x0
 874 007a 03       		.uleb128 0x3
 875 007b 0E       		.uleb128 0xe
 876 007c 3A       		.uleb128 0x3a
 877 007d 0B       		.uleb128 0xb
 878 007e 3B       		.uleb128 0x3b
 879 007f 05       		.uleb128 0x5
 880 0080 49       		.uleb128 0x49
 881 0081 13       		.uleb128 0x13
 882 0082 00       		.byte	0x0
 883 0083 00       		.byte	0x0
 884 0084 0B       		.uleb128 0xb
 885 0085 26       		.uleb128 0x26
 886 0086 00       		.byte	0x0
 887 0087 49       		.uleb128 0x49
 888 0088 13       		.uleb128 0x13
 889 0089 00       		.byte	0x0
 890 008a 00       		.byte	0x0
 891 008b 0C       		.uleb128 0xc
 892 008c 0D       		.uleb128 0xd
 893 008d 00       		.byte	0x0
 894 008e 03       		.uleb128 0x3
 895 008f 08       		.uleb128 0x8
 896 0090 3A       		.uleb128 0x3a
 897 0091 0B       		.uleb128 0xb
 898 0092 3B       		.uleb128 0x3b
 899 0093 05       		.uleb128 0x5
 900 0094 49       		.uleb128 0x49
 901 0095 13       		.uleb128 0x13
 902 0096 38       		.uleb128 0x38
 903 0097 0A       		.uleb128 0xa
 904 0098 00       		.byte	0x0
 905 0099 00       		.byte	0x0
 906 009a 0D       		.uleb128 0xd
 907 009b 2E       		.uleb128 0x2e
ARM GAS  C:\Users\DNIEL~1\AppData\Local\Temp\ccw4joxv.s 			page 17


 908 009c 00       		.byte	0x0
 909 009d 03       		.uleb128 0x3
 910 009e 0E       		.uleb128 0xe
 911 009f 3A       		.uleb128 0x3a
 912 00a0 0B       		.uleb128 0xb
 913 00a1 3B       		.uleb128 0x3b
 914 00a2 0B       		.uleb128 0xb
 915 00a3 27       		.uleb128 0x27
 916 00a4 0C       		.uleb128 0xc
 917 00a5 20       		.uleb128 0x20
 918 00a6 0B       		.uleb128 0xb
 919 00a7 00       		.byte	0x0
 920 00a8 00       		.byte	0x0
 921 00a9 0E       		.uleb128 0xe
 922 00aa 2E       		.uleb128 0x2e
 923 00ab 01       		.byte	0x1
 924 00ac 3F       		.uleb128 0x3f
 925 00ad 0C       		.uleb128 0xc
 926 00ae 03       		.uleb128 0x3
 927 00af 0E       		.uleb128 0xe
 928 00b0 3A       		.uleb128 0x3a
 929 00b1 0B       		.uleb128 0xb
 930 00b2 3B       		.uleb128 0x3b
 931 00b3 0B       		.uleb128 0xb
 932 00b4 27       		.uleb128 0x27
 933 00b5 0C       		.uleb128 0xc
 934 00b6 11       		.uleb128 0x11
 935 00b7 01       		.uleb128 0x1
 936 00b8 12       		.uleb128 0x12
 937 00b9 01       		.uleb128 0x1
 938 00ba 40       		.uleb128 0x40
 939 00bb 06       		.uleb128 0x6
 940 00bc 01       		.uleb128 0x1
 941 00bd 13       		.uleb128 0x13
 942 00be 00       		.byte	0x0
 943 00bf 00       		.byte	0x0
 944 00c0 0F       		.uleb128 0xf
 945 00c1 1D       		.uleb128 0x1d
 946 00c2 00       		.byte	0x0
 947 00c3 31       		.uleb128 0x31
 948 00c4 13       		.uleb128 0x13
 949 00c5 52       		.uleb128 0x52
 950 00c6 01       		.uleb128 0x1
 951 00c7 55       		.uleb128 0x55
 952 00c8 06       		.uleb128 0x6
 953 00c9 58       		.uleb128 0x58
 954 00ca 0B       		.uleb128 0xb
 955 00cb 59       		.uleb128 0x59
 956 00cc 0B       		.uleb128 0xb
 957 00cd 00       		.byte	0x0
 958 00ce 00       		.byte	0x0
 959 00cf 10       		.uleb128 0x10
 960 00d0 2E       		.uleb128 0x2e
 961 00d1 00       		.byte	0x0
 962 00d2 3F       		.uleb128 0x3f
 963 00d3 0C       		.uleb128 0xc
 964 00d4 03       		.uleb128 0x3
ARM GAS  C:\Users\DNIEL~1\AppData\Local\Temp\ccw4joxv.s 			page 18


 965 00d5 0E       		.uleb128 0xe
 966 00d6 3A       		.uleb128 0x3a
 967 00d7 0B       		.uleb128 0xb
 968 00d8 3B       		.uleb128 0x3b
 969 00d9 0B       		.uleb128 0xb
 970 00da 27       		.uleb128 0x27
 971 00db 0C       		.uleb128 0xc
 972 00dc 11       		.uleb128 0x11
 973 00dd 01       		.uleb128 0x1
 974 00de 12       		.uleb128 0x12
 975 00df 01       		.uleb128 0x1
 976 00e0 40       		.uleb128 0x40
 977 00e1 0A       		.uleb128 0xa
 978 00e2 00       		.byte	0x0
 979 00e3 00       		.byte	0x0
 980 00e4 11       		.uleb128 0x11
 981 00e5 34       		.uleb128 0x34
 982 00e6 00       		.byte	0x0
 983 00e7 03       		.uleb128 0x3
 984 00e8 0E       		.uleb128 0xe
 985 00e9 3A       		.uleb128 0x3a
 986 00ea 0B       		.uleb128 0xb
 987 00eb 3B       		.uleb128 0x3b
 988 00ec 05       		.uleb128 0x5
 989 00ed 49       		.uleb128 0x49
 990 00ee 13       		.uleb128 0x13
 991 00ef 3F       		.uleb128 0x3f
 992 00f0 0C       		.uleb128 0xc
 993 00f1 3C       		.uleb128 0x3c
 994 00f2 0C       		.uleb128 0xc
 995 00f3 00       		.byte	0x0
 996 00f4 00       		.byte	0x0
 997 00f5 00       		.byte	0x0
 998              		.section	.debug_pubnames,"",%progbits
 999 0000 34000000 		.4byte	0x34
 1000 0004 0200     		.2byte	0x2
 1001 0006 00000000 		.4byte	.Ldebug_info0
 1002 000a B9030000 		.4byte	0x3b9
 1003 000e 5F030000 		.4byte	0x35f
 1004 0012 68616C5F 		.ascii	"hal_lld_init\000"
 1004      6C6C645F 
 1004      696E6974 
 1004      00
 1005 001f 88030000 		.4byte	0x388
 1006 0023 73746D33 		.ascii	"stm32_clock_init\000"
 1006      325F636C 
 1006      6F636B5F 
 1006      696E6974 
 1006      00
 1007 0034 00000000 		.4byte	0x0
 1008              		.section	.debug_pubtypes,"",%progbits
 1009 0000 8F000000 		.4byte	0x8f
 1010 0004 0200     		.2byte	0x2
 1011 0006 00000000 		.4byte	.Ldebug_info0
 1012 000a B9030000 		.4byte	0x3b9
 1013 000e 4C000000 		.4byte	0x4c
 1014 0012 75696E74 		.ascii	"uint16_t\000"
ARM GAS  C:\Users\DNIEL~1\AppData\Local\Temp\ccw4joxv.s 			page 19


 1014      31365F74 
 1014      00
 1015 001b 5E000000 		.4byte	0x5e
 1016 001f 696E7433 		.ascii	"int32_t\000"
 1016      325F7400 
 1017 0027 70000000 		.4byte	0x70
 1018 002b 75696E74 		.ascii	"uint32_t\000"
 1018      33325F74 
 1018      00
 1019 0034 E2000000 		.4byte	0xe2
 1020 0038 434D785F 		.ascii	"CMx_SCS\000"
 1020      53435300 
 1021 0040 6F010000 		.4byte	0x16f
 1022 0044 434D785F 		.ascii	"CMx_DWT\000"
 1022      44575400 
 1023 004c CD010000 		.4byte	0x1cd
 1024 0050 53797354 		.ascii	"SysTick_Type\000"
 1024      69636B5F 
 1024      54797065 
 1024      00
 1025 005d 6C020000 		.4byte	0x26c
 1026 0061 464C4153 		.ascii	"FLASH_TypeDef\000"
 1026      485F5479 
 1026      70654465 
 1026      6600
 1027 006f 9F020000 		.4byte	0x29f
 1028 0073 5057525F 		.ascii	"PWR_TypeDef\000"
 1028      54797065 
 1028      44656600 
 1029 007f 4A030000 		.4byte	0x34a
 1030 0083 5243435F 		.ascii	"RCC_TypeDef\000"
 1030      54797065 
 1030      44656600 
 1031 008f 00000000 		.4byte	0x0
 1032              		.section	.debug_aranges,"",%progbits
 1033 0000 24000000 		.4byte	0x24
 1034 0004 0200     		.2byte	0x2
 1035 0006 00000000 		.4byte	.Ldebug_info0
 1036 000a 04       		.byte	0x4
 1037 000b 00       		.byte	0x0
 1038 000c 0000     		.2byte	0x0
 1039 000e 0000     		.2byte	0x0
 1040 0010 00000000 		.4byte	.LFB57
 1041 0014 70000000 		.4byte	.LFE57-.LFB57
 1042 0018 00000000 		.4byte	.LFB58
 1043 001c 98000000 		.4byte	.LFE58-.LFB58
 1044 0020 00000000 		.4byte	0x0
 1045 0024 00000000 		.4byte	0x0
 1046              		.section	.debug_ranges,"",%progbits
 1047              	.Ldebug_ranges0:
 1048 0000 36000000 		.4byte	.LBB4
 1049 0004 38000000 		.4byte	.LBE4
 1050 0008 4E000000 		.4byte	.LBB7
 1051 000c 56000000 		.4byte	.LBE7
 1052 0010 00000000 		.4byte	0x0
 1053 0014 00000000 		.4byte	0x0
 1054 0018 00000000 		.4byte	.LFB57
ARM GAS  C:\Users\DNIEL~1\AppData\Local\Temp\ccw4joxv.s 			page 20


 1055 001c 70000000 		.4byte	.LFE57
 1056 0020 00000000 		.4byte	.LFB58
 1057 0024 98000000 		.4byte	.LFE58
 1058 0028 00000000 		.4byte	0x0
 1059 002c 00000000 		.4byte	0x0
 1060              		.section	.debug_str,"MS",%progbits,1
 1061              	.LASF10:
 1062 0000 6C6F6E67 		.ascii	"long long int\000"
 1062      206C6F6E 
 1062      6720696E 
 1062      7400
 1063              	.LASF43:
 1064 000e 42444352 		.ascii	"BDCR\000"
 1064      00
 1065              	.LASF37:
 1066 0013 43464752 		.ascii	"CFGR\000"
 1066      00
 1067              	.LASF46:
 1068 0018 474E5520 		.ascii	"GNU C 4.5.2\000"
 1068      4320342E 
 1068      352E3200 
 1069              	.LASF25:
 1070 0024 50435352 		.ascii	"PCSR\000"
 1070      00
 1071              	.LASF35:
 1072 0029 464C4153 		.ascii	"FLASH_TypeDef\000"
 1072      485F5479 
 1072      70654465 
 1072      6600
 1073              	.LASF26:
 1074 0037 434D785F 		.ascii	"CMx_DWT\000"
 1074      44575400 
 1075              	.LASF40:
 1076 003f 41484245 		.ascii	"AHBENR\000"
 1076      4E5200
 1077              	.LASF24:
 1078 0046 464F4C44 		.ascii	"FOLDCNT\000"
 1078      434E5400 
 1079              	.LASF34:
 1080 004e 57525052 		.ascii	"WRPR\000"
 1080      00
 1081              	.LASF22:
 1082 0053 534C4545 		.ascii	"SLEEPCNT\000"
 1082      50434E54 
 1082      00
 1083              	.LASF11:
 1084 005c 6C6F6E67 		.ascii	"long long unsigned int\000"
 1084      206C6F6E 
 1084      6720756E 
 1084      7369676E 
 1084      65642069 
 1085              	.LASF39:
 1086 0073 41504231 		.ascii	"APB1RSTR\000"
 1086      52535452 
 1086      00
 1087              	.LASF16:
 1088 007c 44454D43 		.ascii	"DEMCR\000"
ARM GAS  C:\Users\DNIEL~1\AppData\Local\Temp\ccw4joxv.s 			page 21


 1088      5200
 1089              	.LASF2:
 1090 0082 756E7369 		.ascii	"unsigned char\000"
 1090      676E6564 
 1090      20636861 
 1090      7200
 1091              	.LASF19:
 1092 0090 43594343 		.ascii	"CYCCNT\000"
 1092      4E5400
 1093              	.LASF9:
 1094 0097 6C6F6E67 		.ascii	"long unsigned int\000"
 1094      20756E73 
 1094      69676E65 
 1094      6420696E 
 1094      7400
 1095              	.LASF4:
 1096 00a9 73686F72 		.ascii	"short unsigned int\000"
 1096      7420756E 
 1096      7369676E 
 1096      65642069 
 1096      6E7400
 1097              	.LASF49:
 1098 00bc 68616C5F 		.ascii	"hal_lld_backup_domain_init\000"
 1098      6C6C645F 
 1098      6261636B 
 1098      75705F64 
 1098      6F6D6169 
 1099              	.LASF20:
 1100 00d7 43504943 		.ascii	"CPICNT\000"
 1100      4E5400
 1101              	.LASF45:
 1102 00de 49544D5F 		.ascii	"ITM_RxBuffer\000"
 1102      52784275 
 1102      66666572 
 1102      00
 1103              	.LASF13:
 1104 00eb 44484353 		.ascii	"DHCSR\000"
 1104      5200
 1105              	.LASF32:
 1106 00f1 4F50544B 		.ascii	"OPTKEYR\000"
 1106      45595200 
 1107              	.LASF36:
 1108 00f9 5057525F 		.ascii	"PWR_TypeDef\000"
 1108      54797065 
 1108      44656600 
 1109              	.LASF33:
 1110 0105 52455345 		.ascii	"RESERVED\000"
 1110      52564544 
 1110      00
 1111              	.LASF3:
 1112 010e 73686F72 		.ascii	"short int\000"
 1112      7420696E 
 1112      7400
 1113              	.LASF23:
 1114 0118 4C535543 		.ascii	"LSUCNT\000"
 1114      4E5400
 1115              	.LASF42:
ARM GAS  C:\Users\DNIEL~1\AppData\Local\Temp\ccw4joxv.s 			page 22


 1116 011f 41504231 		.ascii	"APB1ENR\000"
 1116      454E5200 
 1117              	.LASF38:
 1118 0127 41504232 		.ascii	"APB2RSTR\000"
 1118      52535452 
 1118      00
 1119              	.LASF14:
 1120 0130 44435253 		.ascii	"DCRSR\000"
 1120      5200
 1121              	.LASF0:
 1122 0136 756E7369 		.ascii	"unsigned int\000"
 1122      676E6564 
 1122      20696E74 
 1122      00
 1123              	.LASF27:
 1124 0143 63686172 		.ascii	"char\000"
 1124      00
 1125              	.LASF30:
 1126 0148 53797354 		.ascii	"SysTick_Type\000"
 1126      69636B5F 
 1126      54797065 
 1126      00
 1127              	.LASF15:
 1128 0155 44435244 		.ascii	"DCRDR\000"
 1128      5200
 1129              	.LASF18:
 1130 015b 4354524C 		.ascii	"CTRL\000"
 1130      00
 1131              	.LASF21:
 1132 0160 45584343 		.ascii	"EXCCNT\000"
 1132      4E5400
 1133              	.LASF6:
 1134 0167 696E7433 		.ascii	"int32_t\000"
 1134      325F7400 
 1135              	.LASF29:
 1136 016f 43414C49 		.ascii	"CALIB\000"
 1136      4200
 1137              	.LASF41:
 1138 0175 41504232 		.ascii	"APB2ENR\000"
 1138      454E5200 
 1139              	.LASF17:
 1140 017d 434D785F 		.ascii	"CMx_SCS\000"
 1140      53435300 
 1141              	.LASF50:
 1142 0185 68616C5F 		.ascii	"hal_lld_init\000"
 1142      6C6C645F 
 1142      696E6974 
 1142      00
 1143              	.LASF28:
 1144 0192 4C4F4144 		.ascii	"LOAD\000"
 1144      00
 1145              	.LASF51:
 1146 0197 73746D33 		.ascii	"stm32_clock_init\000"
 1146      325F636C 
 1146      6F636B5F 
 1146      696E6974 
 1146      00
ARM GAS  C:\Users\DNIEL~1\AppData\Local\Temp\ccw4joxv.s 			page 23


 1147              	.LASF5:
 1148 01a8 75696E74 		.ascii	"uint16_t\000"
 1148      31365F74 
 1148      00
 1149              	.LASF44:
 1150 01b1 5243435F 		.ascii	"RCC_TypeDef\000"
 1150      54797065 
 1150      44656600 
 1151              	.LASF48:
 1152 01bd 433A5C44 		.ascii	"C:\\Dani\\MegaLux\\Repo\\LuxControl\\LuxControl\\lu"
 1152      616E695C 
 1152      4D656761 
 1152      4C75785C 
 1152      5265706F 
 1153 01ea 78636F6E 		.ascii	"xcontrol\\firmware\000"
 1153      74726F6C 
 1153      5C666972 
 1153      6D776172 
 1153      6500
 1154              	.LASF7:
 1155 01fc 6C6F6E67 		.ascii	"long int\000"
 1155      20696E74 
 1155      00
 1156              	.LASF31:
 1157 0205 4B455952 		.ascii	"KEYR\000"
 1157      00
 1158              	.LASF1:
 1159 020a 7369676E 		.ascii	"signed char\000"
 1159      65642063 
 1159      68617200 
 1160              	.LASF8:
 1161 0216 75696E74 		.ascii	"uint32_t\000"
 1161      33325F74 
 1161      00
 1162              	.LASF12:
 1163 021f 5F426F6F 		.ascii	"_Bool\000"
 1163      6C00
 1164              	.LASF47:
 1165 0225 2E2E2F2E 		.ascii	"../../../ChibiOS/os/hal/platforms/STM32F1xx/hal_lld"
 1165      2E2F2E2E 
 1165      2F436869 
 1165      62694F53 
 1165      2F6F732F 
 1166 0258 2E6300   		.ascii	".c\000"
 1167              		.ident	"GCC: (Sourcery G++ Lite 2011.03-42) 4.5.2"
ARM GAS  C:\Users\DNIEL~1\AppData\Local\Temp\ccw4joxv.s 			page 24


DEFINED SYMBOLS
                            *ABS*:00000000 hal_lld.c
C:\Users\DNIEL~1\AppData\Local\Temp\ccw4joxv.s:24     .text.hal_lld_init:00000000 $t
C:\Users\DNIEL~1\AppData\Local\Temp\ccw4joxv.s:30     .text.hal_lld_init:00000000 hal_lld_init
C:\Users\DNIEL~1\AppData\Local\Temp\ccw4joxv.s:113    .text.hal_lld_init:0000005c $d
C:\Users\DNIEL~1\AppData\Local\Temp\ccw4joxv.s:122    .text.stm32_clock_init:00000000 $t
C:\Users\DNIEL~1\AppData\Local\Temp\ccw4joxv.s:128    .text.stm32_clock_init:00000000 stm32_clock_init
C:\Users\DNIEL~1\AppData\Local\Temp\ccw4joxv.s:228    .text.stm32_clock_init:0000008c $d
                     .debug_frame:00000010 $d
C:\Users\DNIEL~1\AppData\Local\Temp\ccw4joxv.s:234    .text.stm32_clock_init:00000098 $t

UNDEFINED SYMBOLS
dmaInit
