ARM GAS  C:\Users\DNIEL~1\AppData\Local\Temp\cch1xZAf.s 			page 1


   1              		.syntax unified
   2              		.cpu cortex-m3
   3              		.fpu softvfp
   4              		.eabi_attribute 20, 1
   5              		.eabi_attribute 21, 1
   6              		.eabi_attribute 23, 3
   7              		.eabi_attribute 24, 1
   8              		.eabi_attribute 25, 1
   9              		.eabi_attribute 26, 1
  10              		.eabi_attribute 30, 2
  11              		.eabi_attribute 18, 4
  12              		.thumb
  13              		.file	"main.c"
  20 0000 86020000 		.text
  20      02000502 
  20      00000201 
  20      FB0E0D00 
  20      01010101 
  21              	.Ltext0:
  22              		.cfi_sections	.debug_frame
  23              		.section	.text.Thread1,"ax",%progbits
  24              		.align	2
  25              		.p2align 4,,15
  26              		.thumb
  27              		.thumb_func
  28              		.type	Thread1, %function
  29              	Thread1:
  30              	.LFB56:
  31              		.file 1 "src/main.c"
  32              		.loc 1 27 0
  33              		.cfi_startproc
  34              		@ args = 0, pretend = 0, frame = 0
  35              		@ frame_needed = 0, uses_anonymous_args = 0
  36              	.LVL0:
  37              		.loc 1 30 0
  38 0000 0848     		ldr	r0, .L4
  39              	.LVL1:
  40 0002 094A     		ldr	r2, .L4+4
  41 0004 8369     		ldr	r3, [r0, #24]
  42              		.loc 1 27 0
  43 0006 70B5     		push	{r4, r5, r6, lr}
  44              	.LCFI0:
  45              		.cfi_def_cfa_offset 16
  46              	.LBB2:
  47              		.loc 1 34 0
  48 0008 0225     		movs	r5, #2
  49              		.cfi_offset 14, -4
  50              		.cfi_offset 6, -8
  51              		.cfi_offset 5, -12
  52              		.cfi_offset 4, -16
  53 000a 084C     		ldr	r4, .L4+8
ARM GAS  C:\Users\DNIEL~1\AppData\Local\Temp\cch1xZAf.s 			page 2


  54              	.LBE2:
  55              		.loc 1 30 0
  56 000c 9A61     		str	r2, [r3, #24]
  57              	.LBB3:
  58              		.loc 1 34 0
  59 000e 2E46     		mov	r6, r5
  60              	.L2:
  61              	.LVL2:
  62              		.loc 1 35 0 discriminator 1
  63 0010 3220     		movs	r0, #50
  64              		.loc 1 34 0 discriminator 1
  65 0012 2661     		str	r6, [r4, #16]
  66              		.loc 1 35 0 discriminator 1
  67 0014 FFF7FEFF 		bl	chThdSleep
  68              	.LVL3:
  69              		.loc 1 39 0 discriminator 1
  70 0018 4FF4E170 		mov	r0, #450
  71              		.loc 1 38 0 discriminator 1
  72 001c 6561     		str	r5, [r4, #20]
  73              		.loc 1 39 0 discriminator 1
  74 001e FFF7FEFF 		bl	chThdSleep
  75 0022 F5E7     		b	.L2
  76              	.L5:
  77              		.align	2
  78              	.L4:
  79 0024 00000000 		.word	rlist
  80 0028 00000000 		.word	.LC0
  81 002c 00080140 		.word	1073809408
  82              	.LBE3:
  83              		.cfi_endproc
  84              	.LFE56:
  85              		.size	Thread1, .-Thread1
  86              		.section	.text.task20ms,"ax",%progbits
  87              		.align	2
  88              		.p2align 4,,15
  89              		.thumb
  90              		.thumb_func
  91              		.type	task20ms, %function
  92              	task20ms:
  93              	.LFB57:
  94              		.loc 1 47 0
  95              		.cfi_startproc
  96              		@ args = 0, pretend = 0, frame = 0
  97              		@ frame_needed = 0, uses_anonymous_args = 0
  98              	.LVL4:
  99              		.loc 1 51 0
 100 0000 0649     		ldr	r1, .L8
 101              		.loc 1 52 0
 102 0002 0748     		ldr	r0, .L8+4
 103              	.LVL5:
 104              		.loc 1 51 0
 105 0004 8B69     		ldr	r3, [r1, #24]
 106 0006 074A     		ldr	r2, .L8+8
 107              		.loc 1 47 0
 108 0008 10B5     		push	{r4, lr}
 109              	.LCFI1:
 110              		.cfi_def_cfa_offset 8
ARM GAS  C:\Users\DNIEL~1\AppData\Local\Temp\cch1xZAf.s 			page 3


 111              		.loc 1 52 0
 112 000a C468     		ldr	r4, [r0, #12]
 113              		.cfi_offset 14, -4
 114              		.cfi_offset 4, -8
 115              		.loc 1 51 0
 116 000c 9A61     		str	r2, [r3, #24]
 117              	.LVL6:
 118              	.L7:
 119              		.loc 1 54 0 discriminator 1
 120 000e 1434     		adds	r4, r4, #20
 121              	.LVL7:
 122              		.loc 1 57 0 discriminator 1
 123 0010 FFF7FEFF 		bl	measCalc
 124              		.loc 1 59 0 discriminator 1
 125 0014 2046     		mov	r0, r4
 126 0016 FFF7FEFF 		bl	chThdSleepUntil
 127 001a F8E7     		b	.L7
 128              	.L9:
 129              		.align	2
 130              	.L8:
 131 001c 00000000 		.word	rlist
 132 0020 00000000 		.word	vtlist
 133 0024 08000000 		.word	.LC1
 134              		.cfi_endproc
 135              	.LFE57:
 136              		.size	task20ms, .-task20ms
 137 0028 AFF30080 		.section	.text.main,"ax",%progbits
 137      AFF30080 
 138              		.align	2
 139              		.p2align 4,,15
 140              		.global	main
 141              		.thumb
 142              		.thumb_func
 143              		.type	main, %function
 144              	main:
 145              	.LFB58:
 146              		.loc 1 66 0
 147              		.cfi_startproc
 148              		@ args = 0, pretend = 0, frame = 0
 149              		@ frame_needed = 0, uses_anonymous_args = 0
 150 0000 10B5     		push	{r4, lr}
 151              	.LCFI2:
 152              		.cfi_def_cfa_offset 8
 153 0002 82B0     		sub	sp, sp, #8
 154              	.LCFI3:
 155              		.cfi_def_cfa_offset 16
 156              		.loc 1 75 0
 157              		.cfi_offset 14, -4
 158              		.cfi_offset 4, -8
 159 0004 FFF7FEFF 		bl	halInit
 160              		.loc 1 101 0
 161 0008 0024     		movs	r4, #0
 162              		.loc 1 76 0
 163 000a FFF7FEFF 		bl	chSysInit
 164              		.loc 1 86 0
 165 000e FFF7FEFF 		bl	measInit
 166              		.loc 1 91 0
ARM GAS  C:\Users\DNIEL~1\AppData\Local\Temp\cch1xZAf.s 			page 4


 167 0012 FFF7FEFF 		bl	can_commInit
 168              		.loc 1 96 0
 169 0016 FFF7FEFF 		bl	spi_commInit
 170              		.loc 1 101 0
 171 001a 4FF4E871 		mov	r1, #464
 172 001e 4022     		movs	r2, #64
 173 0020 084B     		ldr	r3, .L12
 174 0022 0948     		ldr	r0, .L12+4
 175 0024 0094     		str	r4, [sp, #0]
 176 0026 FFF7FEFF 		bl	chThdCreateStatic
 177              		.loc 1 106 0
 178 002a 0848     		ldr	r0, .L12+8
 179 002c 4FF4A871 		mov	r1, #336
 180 0030 4022     		movs	r2, #64
 181 0032 074B     		ldr	r3, .L12+12
 182 0034 0094     		str	r4, [sp, #0]
 183 0036 FFF7FEFF 		bl	chThdCreateStatic
 184              	.L11:
 185              		.loc 1 113 0 discriminator 1
 186 003a 4FF47A70 		mov	r0, #1000
 187 003e FFF7FEFF 		bl	chThdSleep
 188 0042 FAE7     		b	.L11
 189              	.L13:
 190              		.align	2
 191              	.L12:
 192 0044 00000000 		.word	task20ms
 193 0048 00000000 		.word	.LANCHOR0
 194 004c 00000000 		.word	.LANCHOR1
 195 0050 00000000 		.word	Thread1
 196              		.cfi_endproc
 197              	.LFE58:
 198              		.size	main, .-main
 199 0054 AFF30080 		.section	.bss.waThread1,"aw",%nobits
 199      AFF30080 
 199      AFF30080 
 200              		.align	3
 201              		.set	.LANCHOR1,. + 0
 202              		.type	waThread1, %object
 203              		.size	waThread1, 336
 204              	waThread1:
 205 0000 00000000 		.space	336
 205      00000000 
 205      00000000 
 205      00000000 
 205      00000000 
 206              		.section	.bss.watask20ms,"aw",%nobits
 207              		.align	3
 208              		.set	.LANCHOR0,. + 0
 209              		.type	watask20ms, %object
 210              		.size	watask20ms, 464
 211              	watask20ms:
 212 0000 00000000 		.space	464
 212      00000000 
 212      00000000 
 212      00000000 
 212      00000000 
 213              		.section	.rodata.str1.4,"aMS",%progbits,1
ARM GAS  C:\Users\DNIEL~1\AppData\Local\Temp\cch1xZAf.s 			page 5


 214              		.align	2
 215              	.LC0:
 216 0000 626C696E 		.ascii	"blinker\000"
 216      6B657200 
 217              	.LC1:
 218 0008 7461736B 		.ascii	"task20ms\000"
 218      32306D73 
 218      00
 219 0011 000000   		.text
 220              	.Letext0: