ARM GAS  C:\Users\DNIEL~1\AppData\Local\Temp\ccvEjOxs.s 			page 1


   1              		.syntax unified
   2              		.cpu cortex-m3
   3              		.fpu softvfp
   4              		.eabi_attribute 20, 1
   5              		.eabi_attribute 21, 1
   6              		.eabi_attribute 23, 3
   7              		.eabi_attribute 24, 1
   8              		.eabi_attribute 25, 1
   9              		.eabi_attribute 26, 1
  10              		.eabi_attribute 30, 2
  11              		.eabi_attribute 18, 4
  12              		.thumb
  13              		.file	"meas.c"
  14              		.section	.debug_abbrev,"",%progbits
  15              	.Ldebug_abbrev0:
  16              		.section	.debug_info,"",%progbits
  17              	.Ldebug_info0:
  18              		.section	.debug_line,"",%progbits
  19              	.Ldebug_line0:
  20 0000 4C030000 		.text
  20      02007702 
  20      00000201 
  20      FB0E0D00 
  20      01010101 
  21              	.Ltext0:
  22              		.cfi_sections	.debug_frame
  23              		.section	.text.adcerrorcallback,"ax",%progbits
  24              		.align	2
  25              		.p2align 4,,15
  26              		.thumb
  27              		.thumb_func
  28              		.type	adcerrorcallback, %function
  29              	adcerrorcallback:
  30              	.LFB60:
  31              		.file 1 "src/meas.c"
  32              		.loc 1 161 0
  33              		.cfi_startproc
  34              		@ args = 0, pretend = 0, frame = 0
  35              		@ frame_needed = 0, uses_anonymous_args = 0
  36              		@ link register save eliminated.
  37              	.LVL0:
  38              		.loc 1 165 0
  39 0000 7047     		bx	lr
  40              		.cfi_endproc
  41              	.LFE60:
  42              		.size	adcerrorcallback, .-adcerrorcallback
  43 0002 00BFAFF3 		.section	.text.measInit,"ax",%progbits
  43      0080AFF3 
  43      0080AFF3 
  43      0080
  44              		.align	2
  45              		.p2align 4,,15
  46              		.global	measInit
  47              		.thumb
  48              		.thumb_func
  49              		.type	measInit, %function
  50              	measInit:
ARM GAS  C:\Users\DNIEL~1\AppData\Local\Temp\ccvEjOxs.s 			page 2


  51              	.LFB56:
  52              		.loc 1 60 0
  53              		.cfi_startproc
  54              		@ args = 0, pretend = 0, frame = 0
  55              		@ frame_needed = 0, uses_anonymous_args = 0
  56 0000 08B5     		push	{r3, lr}
  57              	.LCFI0:
  58              		.cfi_def_cfa_offset 8
  59              		.loc 1 65 0
  60 0002 0448     		ldr	r0, .L3
  61 0004 0021     		movs	r1, #0
  62              		.cfi_offset 14, -4
  63              		.cfi_offset 3, -8
  64 0006 FFF7FEFF 		bl	adcStart
  65              		.loc 1 66 0
  66 000a 034B     		ldr	r3, .L3+4
  67 000c 0022     		movs	r2, #0
  68 000e 1A70     		strb	r2, [r3, #0]
  69              		.loc 1 67 0
  70 0010 08BD     		pop	{r3, pc}
  71              	.L4:
  72 0012 00BF     		.align	2
  73              	.L3:
  74 0014 00000000 		.word	ADCD1
  75 0018 00000000 		.word	.LANCHOR0
  76              		.cfi_endproc
  77              	.LFE56:
  78              		.size	measInit, .-measInit
  79 001c AFF30080 		.section	.text.measGetValue,"ax",%progbits
  80              		.align	2
  81              		.p2align 4,,15
  82              		.global	measGetValue
  83              		.thumb
  84              		.thumb_func
  85              		.type	measGetValue, %function
  86              	measGetValue:
  87              	.LFB58:
  88              		.loc 1 127 0
  89              		.cfi_startproc
  90              		@ args = 0, pretend = 0, frame = 0
  91              		@ frame_needed = 0, uses_anonymous_args = 0
  92              		@ link register save eliminated.
  93              	.LVL1:
  94              		.loc 1 128 0
  95 0000 014B     		ldr	r3, .L6
  96              		.loc 1 129 0
  97 0002 33F92000 		ldrsh	r0, [r3, r0, lsl #2]
  98              	.LVL2:
  99 0006 7047     		bx	lr
 100              	.L7:
 101              		.align	2
 102              	.L6:
 103 0008 00000000 		.word	.LANCHOR1
 104              		.cfi_endproc
 105              	.LFE58:
 106              		.size	measGetValue, .-measGetValue
 107 000c AFF30080 		.section	.text.measInterpolateNTC,"ax",%progbits
ARM GAS  C:\Users\DNIEL~1\AppData\Local\Temp\ccvEjOxs.s 			page 3


 108              		.align	2
 109              		.p2align 4,,15
 110              		.global	measInterpolateNTC
 111              		.thumb
 112              		.thumb_func
 113              		.type	measInterpolateNTC, %function
 114              	measInterpolateNTC:
 115              	.LFB59:
 116              		.loc 1 131 0
 117              		.cfi_startproc
 118              		@ args = 0, pretend = 0, frame = 0
 119              		@ frame_needed = 0, uses_anonymous_args = 0
 120              		@ link register save eliminated.
 121              	.LVL3:
 122              		.loc 1 136 0
 123 0000 40F6D573 		movw	r3, #4053
 124 0004 9842     		cmp	r0, r3
 125              		.loc 1 131 0
 126 0006 30B4     		push	{r4, r5}
 127              	.LCFI1:
 128              		.cfi_def_cfa_offset 8
 129              		.loc 1 136 0
 130 0008 30D8     		bhi	.L13
 131              		.cfi_offset 5, -4
 132              		.cfi_offset 4, -8
 133              		.loc 1 139 0
 134 000a 4128     		cmp	r0, #65
 135 000c 2AD9     		bls	.L14
 136              	.LVL4:
 137              		.loc 1 146 0 discriminator 1
 138 000e 40F6C371 		movw	r1, #4035
 139 0012 8842     		cmp	r0, r1
 140 0014 30D8     		bhi	.L15
 141              		.loc 1 147 0
 142 0016 1B49     		ldr	r1, .L24
 143 0018 0122     		movs	r2, #1
 144              	.LVL5:
 145              		.loc 1 149 0
 146 001a 0B88     		ldrh	r3, [r1, #0]
 147              	.LVL6:
 148              		.loc 1 146 0
 149 001c 40F6C475 		movw	r5, #4036
 150 0020 9842     		cmp	r0, r3
 151 0022 08D3     		bcc	.L19
 152 0024 0FE0     		b	.L21
 153              	.L11:
 154              		.loc 1 146 0 is_stmt 0 discriminator 2
 155 0026 2A2A     		cmp	r2, #42
 156              		.loc 1 147 0 is_stmt 1 discriminator 2
 157 0028 02F10102 		add	r2, r2, #1
 158              		.loc 1 146 0 discriminator 2
 159 002c 21D0     		beq	.L23
 160              		.loc 1 146 0 is_stmt 0
 161 002e 1D46     		mov	r5, r3
 162              		.loc 1 149 0 is_stmt 1
 163 0030 6388     		ldrh	r3, [r4, #2]
 164              	.LVL7:
ARM GAS  C:\Users\DNIEL~1\AppData\Local\Temp\ccvEjOxs.s 			page 4


 165              		.loc 1 146 0
 166 0032 9842     		cmp	r0, r3
 167 0034 07D2     		bcs	.L21
 168              	.LVL8:
 169              	.L19:
 170 0036 1D46     		mov	r5, r3
 171              		.loc 1 149 0
 172 0038 4B88     		ldrh	r3, [r1, #2]
 173              		.loc 1 147 0
 174 003a 8C1C     		adds	r4, r1, #2
 175 003c 0132     		adds	r2, r2, #1
 176              	.LVL9:
 177              		.loc 1 146 0
 178 003e 9842     		cmp	r0, r3
 179              		.loc 1 147 0
 180 0040 04F10201 		add	r1, r4, #2
 181              		.loc 1 146 0
 182 0044 EFD3     		bcc	.L11
 183              	.LVL10:
 184              	.L21:
 185 0046 1FFA82FC 		uxth	ip, r2
 186 004a 0CEB8C02 		add	r2, ip, ip, lsl #2
 187 004e 373A     		subs	r2, r2, #55
 188 0050 EB1A     		subs	r3, r5, r3
 189 0052 92B2     		uxth	r2, r2
 190              	.L10:
 191              		.loc 1 153 0
 192 0054 C0EB050C 		rsb	ip, r0, r5
 193 0058 0CEB8C01 		add	r1, ip, ip, lsl #2
 194 005c 91FBF3F0 		sdiv	r0, r1, r3
 195              	.LVL11:
 196              		.loc 1 151 0
 197 0060 1018     		adds	r0, r2, r0
 198              	.LVL12:
 199 0062 00E0     		b	.L9
 200              	.LVL13:
 201              	.L14:
 202              		.loc 1 140 0
 203 0064 9B20     		movs	r0, #155
 204              	.LVL14:
 205              	.L9:
 206              		.loc 1 156 0
 207 0066 00B2     		sxth	r0, r0
 208              	.LVL15:
 209 0068 30BC     		pop	{r4, r5}
 210 006a 7047     		bx	lr
 211              	.LVL16:
 212              	.L13:
 213              		.loc 1 137 0
 214 006c 4FF6C970 		movw	r0, #65481
 215              	.LVL17:
 216 0070 F9E7     		b	.L9
 217              	.LVL18:
 218              	.L23:
 219              		.loc 1 146 0
 220 0072 EB1A     		subs	r3, r5, r3
 221              	.LVL19:
ARM GAS  C:\Users\DNIEL~1\AppData\Local\Temp\ccvEjOxs.s 			page 5


 222 0074 9B22     		movs	r2, #155
 223 0076 EDE7     		b	.L10
 224              	.LVL20:
 225              	.L15:
 226 0078 4FF6C972 		movw	r2, #65481
 227 007c 1223     		movs	r3, #18
 228 007e 40F6D675 		movw	r5, #4054
 229 0082 E7E7     		b	.L10
 230              	.L25:
 231              		.align	2
 232              	.L24:
 233 0084 04000000 		.word	.LANCHOR2+4
 234              		.cfi_endproc
 235              	.LFE59:
 236              		.size	measInterpolateNTC, .-measInterpolateNTC
 237 0088 AFF30080 		.section	.text.measCalc,"ax",%progbits
 237      AFF30080 
 238              		.align	2
 239              		.p2align 4,,15
 240              		.global	measCalc
 241              		.thumb
 242              		.thumb_func
 243              		.type	measCalc, %function
 244              	measCalc:
 245              	.LFB57:
 246              		.loc 1 69 0
 247              		.cfi_startproc
 248              		@ args = 0, pretend = 0, frame = 0
 249              		@ frame_needed = 0, uses_anonymous_args = 0
 250              		.loc 1 76 0
 251 0000 504A     		ldr	r2, .L31
 252              		.loc 1 69 0
 253 0002 70B5     		push	{r4, r5, r6, lr}
 254              	.LCFI2:
 255              		.cfi_def_cfa_offset 16
 256              		.loc 1 76 0
 257 0004 1378     		ldrb	r3, [r2, #0]	@ zero_extendqisi2
 258 0006 4BB9     		cbnz	r3, .L30
 259              		.cfi_offset 14, -4
 260              		.cfi_offset 6, -8
 261              		.cfi_offset 5, -12
 262              		.cfi_offset 4, -16
 263              		.loc 1 79 0
 264 0008 0123     		movs	r3, #1
 265 000a 1370     		strb	r3, [r2, #0]
 266              	.L27:
 267              		.loc 1 124 0
 268 000c 4E48     		ldr	r0, .L31+4
 269 000e 4F49     		ldr	r1, .L31+8
 270 0010 4F4A     		ldr	r2, .L31+12
 271 0012 0823     		movs	r3, #8
 272              		.loc 1 125 0
 273 0014 BDE87040 		pop	{r4, r5, r6, lr}
 274              		.loc 1 124 0
 275 0018 FFF7FEBF 		b	adcConvert
 276              	.L30:
 277              		.loc 1 76 0
ARM GAS  C:\Users\DNIEL~1\AppData\Local\Temp\ccvEjOxs.s 			page 6


 278 001c 012B     		cmp	r3, #1
 279 001e F5D1     		bne	.L27
 280              	.LVL21:
 281              		.loc 1 85 0
 282 0020 4B4C     		ldr	r4, .L31+12
 283 0022 2189     		ldrh	r1, [r4, #8]
 284 0024 228A     		ldrh	r2, [r4, #16]
 285 0026 208B     		ldrh	r0, [r4, #24]
 286 0028 B4F820C0 		ldrh	ip, [r4, #32]
 287 002c 01EB020E 		add	lr, r1, r2
 288 0030 258D     		ldrh	r5, [r4, #40]
 289 0032 0EEB0003 		add	r3, lr, r0
 290 0036 218E     		ldrh	r1, [r4, #48]
 291 0038 03EB0C02 		add	r2, r3, ip
 292 003c 5019     		adds	r0, r2, r5
 293 003e B4F800C0 		ldrh	ip, [r4, #0]
 294 0042 238F     		ldrh	r3, [r4, #56]
 295 0044 00EB010E 		add	lr, r0, r1
 296 0048 0CEB0E05 		add	r5, ip, lr
 297              	.LVL22:
 298 004c EA18     		adds	r2, r5, r3
 299              	.LVL23:
 300              		.loc 1 90 0
 301 004e C2F3CF00 		ubfx	r0, r2, #3, #16
 302 0052 FFF7FEFF 		bl	measInterpolateNTC
 303              	.LVL24:
 304              		.loc 1 91 0
 305 0056 20EAE070 		bic	r0, r0, r0, asr #31
 306              	.LVL25:
 307              		.loc 1 116 0
 308              	@ 116 "src/meas.c" 1
 309 005a FFF7FEFF 		bl      _port_lock
 310              	@ 0 "" 2
 311              		.loc 1 117 0
 312              		.thumb
 313 005e 3D4A     		ldr	r2, .L31+16
 314              		.loc 1 92 0
 315 0060 FF28     		cmp	r0, #255
 316 0062 A8BF     		it	ge
 317 0064 FF20     		movge	r0, #255
 318              	.LVL26:
 319              		.loc 1 117 0
 320 0066 01B2     		sxth	r1, r0
 321 0068 1160     		str	r1, [r2, #0]
 322              		.loc 1 118 0
 323              	@ 118 "src/meas.c" 1
 324 006a FFF7FEFF 		bl      _port_unlock
 325              	@ 0 "" 2
 326              	.LVL27:
 327              		.loc 1 85 0
 328              		.thumb
 329 006e B4F812C0 		ldrh	ip, [r4, #18]
 330 0072 B4F80AE0 		ldrh	lr, [r4, #10]
 331 0076 658B     		ldrh	r5, [r4, #26]
 332 0078 608C     		ldrh	r0, [r4, #34]
 333 007a 0CEB0E03 		add	r3, ip, lr
 334 007e 5919     		adds	r1, r3, r5
ARM GAS  C:\Users\DNIEL~1\AppData\Local\Temp\ccvEjOxs.s 			page 7


 335 0080 B4F82AE0 		ldrh	lr, [r4, #42]
 336 0084 658E     		ldrh	r5, [r4, #50]
 337 0086 01EB000C 		add	ip, r1, r0
 338 008a 0CEB0E03 		add	r3, ip, lr
 339 008e 6088     		ldrh	r0, [r4, #2]
 340 0090 B4F83AE0 		ldrh	lr, [r4, #58]
 341 0094 5919     		adds	r1, r3, r5
 342 0096 00EB010C 		add	ip, r0, r1
 343              	.LVL28:
 344 009a 0CEB0E03 		add	r3, ip, lr
 345              	.LVL29:
 346              		.loc 1 87 0
 347 009e DD10     		asrs	r5, r3, #3
 348              	.LVL30:
 349              		.loc 1 96 0
 350 00a0 2D49     		ldr	r1, .L31+20
 351              		.loc 1 95 0
 352 00a2 6800     		lsls	r0, r5, #1
 353              	.LVL31:
 354              		.loc 1 96 0
 355 00a4 81FB0003 		smull	r0, r3, r1, r0
 356              	.LVL32:
 357 00a8 9D08     		lsrs	r5, r3, #2
 358              	.LVL33:
 359              		.loc 1 116 0
 360              	@ 116 "src/meas.c" 1
 361 00aa FFF7FEFF 		bl      _port_lock
 362              	@ 0 "" 2
 363              		.loc 1 97 0
 364              		.thumb
 365 00ae 4FF6FF7E 		movw	lr, #65535
 366 00b2 7545     		cmp	r5, lr
 367 00b4 A8BF     		it	ge
 368 00b6 7546     		movge	r5, lr
 369              	.LVL34:
 370              		.loc 1 117 0
 371 00b8 29B2     		sxth	r1, r5
 372 00ba 5160     		str	r1, [r2, #4]
 373              		.loc 1 118 0
 374              	@ 118 "src/meas.c" 1
 375 00bc FFF7FEFF 		bl      _port_unlock
 376              	@ 0 "" 2
 377              	.LVL35:
 378              		.loc 1 85 0
 379              		.thumb
 380 00c0 A08A     		ldrh	r0, [r4, #20]
 381 00c2 B4F80CC0 		ldrh	ip, [r4, #12]
 382 00c6 A58B     		ldrh	r5, [r4, #28]
 383 00c8 B4F824E0 		ldrh	lr, [r4, #36]
 384 00cc 00EB0C03 		add	r3, r0, ip
 385 00d0 5919     		adds	r1, r3, r5
 386 00d2 B4F82CC0 		ldrh	ip, [r4, #44]
 387 00d6 01EB0E00 		add	r0, r1, lr
 388 00da A58E     		ldrh	r5, [r4, #52]
 389 00dc 00EB0C03 		add	r3, r0, ip
 390 00e0 B4F804E0 		ldrh	lr, [r4, #4]
 391 00e4 B4F83CC0 		ldrh	ip, [r4, #60]
ARM GAS  C:\Users\DNIEL~1\AppData\Local\Temp\ccvEjOxs.s 			page 8


 392 00e8 5D19     		adds	r5, r3, r5
 393 00ea 0EEB0501 		add	r1, lr, r5
 394              	.LVL36:
 395 00ee 01EB0C00 		add	r0, r1, ip
 396              	.LVL37:
 397              		.loc 1 116 0
 398              	@ 116 "src/meas.c" 1
 399 00f2 FFF7FEFF 		bl      _port_lock
 400              	@ 0 "" 2
 401              		.loc 1 117 0
 402              		.thumb
 403 00f6 40F3CF03 		sbfx	r3, r0, #3, #16
 404 00fa 9360     		str	r3, [r2, #8]
 405              		.loc 1 118 0
 406              	@ 118 "src/meas.c" 1
 407 00fc FFF7FEFF 		bl      _port_unlock
 408              	@ 0 "" 2
 409              	.LVL38:
 410              		.loc 1 85 0
 411              		.thumb
 412 0100 B4F816E0 		ldrh	lr, [r4, #22]
 413 0104 B4F80EC0 		ldrh	ip, [r4, #14]
 414 0108 E58B     		ldrh	r5, [r4, #30]
 415 010a E08C     		ldrh	r0, [r4, #38]
 416 010c 0EEB0C01 		add	r1, lr, ip
 417 0110 4B19     		adds	r3, r1, r5
 418 0112 B4F82EE0 		ldrh	lr, [r4, #46]
 419 0116 03EB000C 		add	ip, r3, r0
 420 011a E58E     		ldrh	r5, [r4, #54]
 421 011c E088     		ldrh	r0, [r4, #6]
 422 011e 0CEB0E01 		add	r1, ip, lr
 423 0122 01EB050E 		add	lr, r1, r5
 424 0126 B4F83EC0 		ldrh	ip, [r4, #62]
 425 012a 00EB0E03 		add	r3, r0, lr
 426              	.LVL39:
 427 012e 0CEB0300 		add	r0, ip, r3
 428              	.LVL40:
 429              		.loc 1 116 0
 430              	@ 116 "src/meas.c" 1
 431 0132 FFF7FEFF 		bl      _port_lock
 432              	@ 0 "" 2
 433              		.loc 1 117 0
 434              		.thumb
 435 0136 40F3CF01 		sbfx	r1, r0, #3, #16
 436 013a D160     		str	r1, [r2, #12]
 437              		.loc 1 118 0
 438              	@ 118 "src/meas.c" 1
 439 013c FFF7FEFF 		bl      _port_unlock
 440              	@ 0 "" 2
 441              	.LVL41:
 442              		.thumb
 443 0140 64E7     		b	.L27
 444              	.L32:
 445 0142 00BF     		.align	2
 446              	.L31:
 447 0144 00000000 		.word	.LANCHOR0
 448 0148 00000000 		.word	ADCD1
ARM GAS  C:\Users\DNIEL~1\AppData\Local\Temp\ccvEjOxs.s 			page 9


 449 014c 00000000 		.word	.LANCHOR4
 450 0150 00000000 		.word	.LANCHOR3
 451 0154 00000000 		.word	.LANCHOR1
 452 0158 4FECC44E 		.word	1321528399
 453              		.cfi_endproc
 454              	.LFE57:
 455              		.size	measCalc, .-measCalc
 456              		.global	measNTCcalib
 457              		.global	measstate
 458 015c AFF30080 		.section	.rodata.measNTCcalib,"a",%progbits
 459              		.align	2
 460              		.set	.LANCHOR2,. + 0
 461              		.type	measNTCcalib, %object
 462              		.size	measNTCcalib, 86
 463              	measNTCcalib:
 464 0000 D60F     		.short	4054
 465 0002 C40F     		.short	4036
 466 0004 AB0F     		.short	4011
 467 0006 8A0F     		.short	3978
 468 0008 5E0F     		.short	3934
 469 000a 250F     		.short	3877
 470 000c DC0E     		.short	3804
 471 000e 810E     		.short	3713
 472 0010 120E     		.short	3602
 473 0012 8D0D     		.short	3469
 474 0014 F10C     		.short	3313
 475 0016 400C     		.short	3136
 476 0018 7B0B     		.short	2939
 477 001a A60A     		.short	2726
 478 001c C709     		.short	2503
 479 001e E308     		.short	2275
 480 0020 0008     		.short	2048
 481 0022 2407     		.short	1828
 482 0024 5206     		.short	1618
 483 0026 9005     		.short	1424
 484 0028 DD04     		.short	1245
 485 002a 3D04     		.short	1085
 486 002c AE03     		.short	942
 487 002e 3003     		.short	816
 488 0030 C202     		.short	706
 489 0032 6302     		.short	611
 490 0034 1002     		.short	528
 491 0036 CA01     		.short	458
 492 0038 8D01     		.short	397
 493 003a 5801     		.short	344
 494 003c 2C01     		.short	300
 495 003e 0501     		.short	261
 496 0040 E400     		.short	228
 497 0042 C700     		.short	199
 498 0044 AF00     		.short	175
 499 0046 9900     		.short	153
 500 0048 8700     		.short	135
 501 004a 7800     		.short	120
 502 004c 6A00     		.short	106
 503 004e 5E00     		.short	94
 504 0050 5300     		.short	83
 505 0052 4A00     		.short	74
ARM GAS  C:\Users\DNIEL~1\AppData\Local\Temp\ccvEjOxs.s 			page 10


 506 0054 4200     		.short	66
 507 0056 0000     		.section	.bss.measValue,"aw",%nobits
 508              		.align	2
 509              		.set	.LANCHOR1,. + 0
 510              		.type	measValue, %object
 511              		.size	measValue, 24
 512              	measValue:
 513 0000 00000000 		.space	24
 513      00000000 
 513      00000000 
 513      00000000 
 513      00000000 
 514              		.section	.bss.measstate,"aw",%nobits
 515              		.set	.LANCHOR0,. + 0
 516              		.type	measstate, %object
 517              		.size	measstate, 1
 518              	measstate:
 519 0000 00       		.space	1
 520              		.section	.rodata.adcgrpcfg,"a",%progbits
 521              		.align	2
 522              		.set	.LANCHOR4,. + 0
 523              		.type	adcgrpcfg, %object
 524              		.size	adcgrpcfg, 40
 525              	adcgrpcfg:
 526 0000 00       		.byte	0
 527 0001 00       		.space	1
 528 0002 0400     		.short	4
 529 0004 00000000 		.word	0
 530 0008 00000000 		.word	adcerrorcallback
 531 000c 00000000 		.word	0
 532 0010 00000000 		.word	0
 533 0014 00000000 		.word	0
 534 0018 80040012 		.word	301991040
 535 001c 00003000 		.word	3145728
 536 0020 00000000 		.word	0
 537 0024 43A00400 		.word	303171
 538              		.section	.bss.samples,"aw",%nobits
 539              		.align	2
 540              		.set	.LANCHOR3,. + 0
 541              		.type	samples, %object
 542              		.size	samples, 64
 543              	samples:
 544 0000 00000000 		.space	64
 544      00000000 
 544      00000000 
 544      00000000 
 544      00000000 
 545              		.text
 546              	.Letext0:
 547              		.section	.debug_loc,"",%progbits
 548              	.Ldebug_loc0:
 549              	.LLST0:
 550 0000 00000000 		.4byte	.LFB56
 551 0004 02000000 		.4byte	.LCFI0
 552 0008 0200     		.2byte	0x2
 553 000a 7D       		.byte	0x7d
 554 000b 00       		.sleb128 0
ARM GAS  C:\Users\DNIEL~1\AppData\Local\Temp\ccvEjOxs.s 			page 11


 555 000c 02000000 		.4byte	.LCFI0
 556 0010 1C000000 		.4byte	.LFE56
 557 0014 0200     		.2byte	0x2
 558 0016 7D       		.byte	0x7d
 559 0017 08       		.sleb128 8
 560 0018 00000000 		.4byte	0x0
 561 001c 00000000 		.4byte	0x0
 562              	.LLST1:
 563 0020 00000000 		.4byte	.LVL1
 564 0024 06000000 		.4byte	.LVL2
 565 0028 0100     		.2byte	0x1
 566 002a 50       		.byte	0x50
 567 002b 00000000 		.4byte	0x0
 568 002f 00000000 		.4byte	0x0
 569              	.LLST2:
 570 0033 00000000 		.4byte	.LFB59
 571 0037 08000000 		.4byte	.LCFI1
 572 003b 0200     		.2byte	0x2
 573 003d 7D       		.byte	0x7d
 574 003e 00       		.sleb128 0
 575 003f 08000000 		.4byte	.LCFI1
 576 0043 88000000 		.4byte	.LFE59
 577 0047 0200     		.2byte	0x2
 578 0049 7D       		.byte	0x7d
 579 004a 08       		.sleb128 8
 580 004b 00000000 		.4byte	0x0
 581 004f 00000000 		.4byte	0x0
 582              	.LLST3:
 583 0053 00000000 		.4byte	.LVL3
 584 0057 60000000 		.4byte	.LVL11
 585 005b 0100     		.2byte	0x1
 586 005d 50       		.byte	0x50
 587 005e 64000000 		.4byte	.LVL13
 588 0062 66000000 		.4byte	.LVL14
 589 0066 0100     		.2byte	0x1
 590 0068 50       		.byte	0x50
 591 0069 6C000000 		.4byte	.LVL16
 592 006d 70000000 		.4byte	.LVL17
 593 0071 0100     		.2byte	0x1
 594 0073 50       		.byte	0x50
 595 0074 72000000 		.4byte	.LVL18
 596 0078 88000000 		.4byte	.LFE59
 597 007c 0100     		.2byte	0x1
 598 007e 50       		.byte	0x50
 599 007f 00000000 		.4byte	0x0
 600 0083 00000000 		.4byte	0x0
 601              	.LLST4:
 602 0087 00000000 		.4byte	.LVL3
 603 008b 62000000 		.4byte	.LVL12
 604 008f 0200     		.2byte	0x2
 605 0091 30       		.byte	0x30
 606 0092 9F       		.byte	0x9f
 607 0093 62000000 		.4byte	.LVL12
 608 0097 64000000 		.4byte	.LVL13
 609 009b 0100     		.2byte	0x1
 610 009d 50       		.byte	0x50
 611 009e 64000000 		.4byte	.LVL13
ARM GAS  C:\Users\DNIEL~1\AppData\Local\Temp\ccvEjOxs.s 			page 12


 612 00a2 66000000 		.4byte	.LVL14
 613 00a6 0200     		.2byte	0x2
 614 00a8 30       		.byte	0x30
 615 00a9 9F       		.byte	0x9f
 616 00aa 66000000 		.4byte	.LVL14
 617 00ae 68000000 		.4byte	.LVL15
 618 00b2 0100     		.2byte	0x1
 619 00b4 50       		.byte	0x50
 620 00b5 6C000000 		.4byte	.LVL16
 621 00b9 88000000 		.4byte	.LFE59
 622 00bd 0200     		.2byte	0x2
 623 00bf 30       		.byte	0x30
 624 00c0 9F       		.byte	0x9f
 625 00c1 00000000 		.4byte	0x0
 626 00c5 00000000 		.4byte	0x0
 627              	.LLST5:
 628 00c9 0E000000 		.4byte	.LVL4
 629 00cd 1C000000 		.4byte	.LVL6
 630 00d1 0400     		.2byte	0x4
 631 00d3 0A       		.byte	0xa
 632 00d4 D60F     		.2byte	0xfd6
 633 00d6 9F       		.byte	0x9f
 634 00d7 78000000 		.4byte	.LVL20
 635 00db 88000000 		.4byte	.LFE59
 636 00df 0400     		.2byte	0x4
 637 00e1 0A       		.byte	0xa
 638 00e2 D60F     		.2byte	0xfd6
 639 00e4 9F       		.byte	0x9f
 640 00e5 00000000 		.4byte	0x0
 641 00e9 00000000 		.4byte	0x0
 642              	.LLST6:
 643 00ed 0E000000 		.4byte	.LVL4
 644 00f1 1C000000 		.4byte	.LVL6
 645 00f5 0400     		.2byte	0x4
 646 00f7 0A       		.byte	0xa
 647 00f8 C40F     		.2byte	0xfc4
 648 00fa 9F       		.byte	0x9f
 649 00fb 1C000000 		.4byte	.LVL6
 650 00ff 32000000 		.4byte	.LVL7
 651 0103 0100     		.2byte	0x1
 652 0105 53       		.byte	0x53
 653 0106 32000000 		.4byte	.LVL7
 654 010a 36000000 		.4byte	.LVL8
 655 010e 0100     		.2byte	0x1
 656 0110 53       		.byte	0x53
 657 0111 3E000000 		.4byte	.LVL9
 658 0115 46000000 		.4byte	.LVL10
 659 0119 0100     		.2byte	0x1
 660 011b 53       		.byte	0x53
 661 011c 72000000 		.4byte	.LVL18
 662 0120 74000000 		.4byte	.LVL19
 663 0124 0100     		.2byte	0x1
 664 0126 53       		.byte	0x53
 665 0127 78000000 		.4byte	.LVL20
 666 012b 88000000 		.4byte	.LFE59
 667 012f 0400     		.2byte	0x4
 668 0131 0A       		.byte	0xa
ARM GAS  C:\Users\DNIEL~1\AppData\Local\Temp\ccvEjOxs.s 			page 13


 669 0132 C40F     		.2byte	0xfc4
 670 0134 9F       		.byte	0x9f
 671 0135 00000000 		.4byte	0x0
 672 0139 00000000 		.4byte	0x0
 673              	.LLST7:
 674 013d 0E000000 		.4byte	.LVL4
 675 0141 1A000000 		.4byte	.LVL5
 676 0145 0200     		.2byte	0x2
 677 0147 30       		.byte	0x30
 678 0148 9F       		.byte	0x9f
 679 0149 78000000 		.4byte	.LVL20
 680 014d 88000000 		.4byte	.LFE59
 681 0151 0200     		.2byte	0x2
 682 0153 30       		.byte	0x30
 683 0154 9F       		.byte	0x9f
 684 0155 00000000 		.4byte	0x0
 685 0159 00000000 		.4byte	0x0
 686              	.LLST8:
 687 015d 00000000 		.4byte	.LFB57
 688 0161 04000000 		.4byte	.LCFI2
 689 0165 0200     		.2byte	0x2
 690 0167 7D       		.byte	0x7d
 691 0168 00       		.sleb128 0
 692 0169 04000000 		.4byte	.LCFI2
 693 016d 5C010000 		.4byte	.LFE57
 694 0171 0200     		.2byte	0x2
 695 0173 7D       		.byte	0x7d
 696 0174 10       		.sleb128 16
 697 0175 00000000 		.4byte	0x0
 698 0179 00000000 		.4byte	0x0
 699              	.LLST9:
 700 017d 6E000000 		.4byte	.LVL27
 701 0181 C0000000 		.4byte	.LVL35
 702 0185 0200     		.2byte	0x2
 703 0187 31       		.byte	0x31
 704 0188 9F       		.byte	0x9f
 705 0189 C0000000 		.4byte	.LVL35
 706 018d 00010000 		.4byte	.LVL38
 707 0191 0200     		.2byte	0x2
 708 0193 32       		.byte	0x32
 709 0194 9F       		.byte	0x9f
 710 0195 00010000 		.4byte	.LVL38
 711 0199 40010000 		.4byte	.LVL41
 712 019d 0200     		.2byte	0x2
 713 019f 33       		.byte	0x33
 714 01a0 9F       		.byte	0x9f
 715 01a1 40010000 		.4byte	.LVL41
 716 01a5 5C010000 		.4byte	.LFE57
 717 01a9 0200     		.2byte	0x2
 718 01ab 34       		.byte	0x34
 719 01ac 9F       		.byte	0x9f
 720 01ad 00000000 		.4byte	0x0
 721 01b1 00000000 		.4byte	0x0
 722              	.LLST10:
 723 01b5 4C000000 		.4byte	.LVL22
 724 01b9 4E000000 		.4byte	.LVL23
 725 01bd 0100     		.2byte	0x1
ARM GAS  C:\Users\DNIEL~1\AppData\Local\Temp\ccvEjOxs.s 			page 14


 726 01bf 55       		.byte	0x55
 727 01c0 4E000000 		.4byte	.LVL23
 728 01c4 55000000 		.4byte	.LVL24-1
 729 01c8 0500     		.2byte	0x5
 730 01ca 72       		.byte	0x72
 731 01cb 00       		.sleb128 0
 732 01cc 33       		.byte	0x33
 733 01cd 26       		.byte	0x26
 734 01ce 9F       		.byte	0x9f
 735 01cf 56000000 		.4byte	.LVL24
 736 01d3 5A000000 		.4byte	.LVL25
 737 01d7 0100     		.2byte	0x1
 738 01d9 50       		.byte	0x50
 739 01da 66000000 		.4byte	.LVL26
 740 01de 6E000000 		.4byte	.LVL27
 741 01e2 0100     		.2byte	0x1
 742 01e4 50       		.byte	0x50
 743 01e5 9A000000 		.4byte	.LVL28
 744 01e9 9E000000 		.4byte	.LVL29
 745 01ed 0100     		.2byte	0x1
 746 01ef 5C       		.byte	0x5c
 747 01f0 9E000000 		.4byte	.LVL29
 748 01f4 A0000000 		.4byte	.LVL30
 749 01f8 0100     		.2byte	0x1
 750 01fa 53       		.byte	0x53
 751 01fb A0000000 		.4byte	.LVL30
 752 01ff A4000000 		.4byte	.LVL31
 753 0203 0100     		.2byte	0x1
 754 0205 55       		.byte	0x55
 755 0206 A4000000 		.4byte	.LVL31
 756 020a A8000000 		.4byte	.LVL32
 757 020e 0100     		.2byte	0x1
 758 0210 50       		.byte	0x50
 759 0211 A8000000 		.4byte	.LVL32
 760 0215 AA000000 		.4byte	.LVL33
 761 0219 0500     		.2byte	0x5
 762 021b 75       		.byte	0x75
 763 021c 00       		.sleb128 0
 764 021d 31       		.byte	0x31
 765 021e 24       		.byte	0x24
 766 021f 9F       		.byte	0x9f
 767 0220 B8000000 		.4byte	.LVL34
 768 0224 C0000000 		.4byte	.LVL35
 769 0228 0100     		.2byte	0x1
 770 022a 55       		.byte	0x55
 771 022b EE000000 		.4byte	.LVL36
 772 022f F2000000 		.4byte	.LVL37
 773 0233 0100     		.2byte	0x1
 774 0235 51       		.byte	0x51
 775 0236 F2000000 		.4byte	.LVL37
 776 023a 00010000 		.4byte	.LVL38
 777 023e 0500     		.2byte	0x5
 778 0240 70       		.byte	0x70
 779 0241 00       		.sleb128 0
 780 0242 33       		.byte	0x33
 781 0243 26       		.byte	0x26
 782 0244 9F       		.byte	0x9f
ARM GAS  C:\Users\DNIEL~1\AppData\Local\Temp\ccvEjOxs.s 			page 15


 783 0245 2E010000 		.4byte	.LVL39
 784 0249 32010000 		.4byte	.LVL40
 785 024d 0100     		.2byte	0x1
 786 024f 53       		.byte	0x53
 787 0250 32010000 		.4byte	.LVL40
 788 0254 5C010000 		.4byte	.LFE57
 789 0258 0500     		.2byte	0x5
 790 025a 70       		.byte	0x70
 791 025b 00       		.sleb128 0
 792 025c 33       		.byte	0x33
 793 025d 26       		.byte	0x26
 794 025e 9F       		.byte	0x9f
 795 025f 00000000 		.4byte	0x0
 796 0263 00000000 		.4byte	0x0
 797              	.LLST11:
 798 0267 20000000 		.4byte	.LVL21
 799 026b 4C000000 		.4byte	.LVL22
 800 026f 0200     		.2byte	0x2
 801 0271 36       		.byte	0x36
 802 0272 9F       		.byte	0x9f
 803 0273 4C000000 		.4byte	.LVL22
 804 0277 4E000000 		.4byte	.LVL23
 805 027b 0200     		.2byte	0x2
 806 027d 37       		.byte	0x37
 807 027e 9F       		.byte	0x9f
 808 027f 4E000000 		.4byte	.LVL23
 809 0283 6E000000 		.4byte	.LVL27
 810 0287 0200     		.2byte	0x2
 811 0289 38       		.byte	0x38
 812 028a 9F       		.byte	0x9f
 813 028b 6E000000 		.4byte	.LVL27
 814 028f 9A000000 		.4byte	.LVL28
 815 0293 0200     		.2byte	0x2
 816 0295 36       		.byte	0x36
 817 0296 9F       		.byte	0x9f
 818 0297 9A000000 		.4byte	.LVL28
 819 029b 9E000000 		.4byte	.LVL29
 820 029f 0200     		.2byte	0x2
 821 02a1 37       		.byte	0x37
 822 02a2 9F       		.byte	0x9f
 823 02a3 9E000000 		.4byte	.LVL29
 824 02a7 C0000000 		.4byte	.LVL35
 825 02ab 0200     		.2byte	0x2
 826 02ad 38       		.byte	0x38
 827 02ae 9F       		.byte	0x9f
 828 02af C0000000 		.4byte	.LVL35
 829 02b3 EE000000 		.4byte	.LVL36
 830 02b7 0200     		.2byte	0x2
 831 02b9 36       		.byte	0x36
 832 02ba 9F       		.byte	0x9f
 833 02bb EE000000 		.4byte	.LVL36
 834 02bf F2000000 		.4byte	.LVL37
 835 02c3 0200     		.2byte	0x2
 836 02c5 37       		.byte	0x37
 837 02c6 9F       		.byte	0x9f
 838 02c7 F2000000 		.4byte	.LVL37
 839 02cb 00010000 		.4byte	.LVL38
ARM GAS  C:\Users\DNIEL~1\AppData\Local\Temp\ccvEjOxs.s 			page 16


 840 02cf 0200     		.2byte	0x2
 841 02d1 38       		.byte	0x38
 842 02d2 9F       		.byte	0x9f
 843 02d3 00010000 		.4byte	.LVL38
 844 02d7 2E010000 		.4byte	.LVL39
 845 02db 0200     		.2byte	0x2
 846 02dd 36       		.byte	0x36
 847 02de 9F       		.byte	0x9f
 848 02df 2E010000 		.4byte	.LVL39
 849 02e3 32010000 		.4byte	.LVL40
 850 02e7 0200     		.2byte	0x2
 851 02e9 37       		.byte	0x37
 852 02ea 9F       		.byte	0x9f
 853 02eb 32010000 		.4byte	.LVL40
 854 02ef 5C010000 		.4byte	.LFE57
 855 02f3 0200     		.2byte	0x2
 856 02f5 38       		.byte	0x38
 857 02f6 9F       		.byte	0x9f
 858 02f7 00000000 		.4byte	0x0
 859 02fb 00000000 		.4byte	0x0
 860              		.file 2 "c:\\program files (x86)\\codesourcery\\sourcery g++ lite\\bin\\../lib/gcc/arm-none-eabi/4
 861              		.file 3 "c:\\program files (x86)\\codesourcery\\sourcery g++ lite\\bin\\../lib/gcc/arm-none-eabi/4
 862              		.file 4 "../../../ChibiOS/os/ports/GCC/ARMCMx/chtypes.h"
 863              		.file 5 "../../../ChibiOS/os/kernel/include/chlists.h"
 864              		.file 6 "../../../ChibiOS/os/kernel/include/chthreads.h"
 865              		.file 7 "../../../ChibiOS/os/ports/GCC/ARMCMx/chcore_v7m.h"
 866              		.file 8 "../../../ChibiOS/os/kernel/include/chmtx.h"
 867              		.file 9 "../../../ChibiOS/os/hal/platforms/STM32F1xx/stm32f10x.h"
 868              		.file 10 "../../../ChibiOS/os/hal/platforms/STM32F1xx/stm32_dma.h"
 869              		.file 11 "../../../ChibiOS/os/hal/include/adc.h"
 870              		.file 12 "../../../ChibiOS/os/hal/platforms/STM32F1xx/adc_lld.h"
 871              		.file 13 "include/meas.h"
 872              		.file 14 "../../../ChibiOS/os/ports/common/ARMCMx/CMSIS/include/core_cm3.h"
 873              		.section	.debug_info
 874 0000 AB0A0000 		.4byte	0xaab
 875 0004 0200     		.2byte	0x2
 876 0006 00000000 		.4byte	.Ldebug_abbrev0
 877 000a 04       		.byte	0x4
 878 000b 01       		.uleb128 0x1
 879 000c 93020000 		.4byte	.LASF141
 880 0010 01       		.byte	0x1
 881 0011 11030000 		.4byte	.LASF142
 882 0015 36000000 		.4byte	.LASF143
 883 0019 00000000 		.4byte	0x0
 884 001d 00000000 		.4byte	0x0
 885 0021 00000000 		.4byte	.Ldebug_ranges0+0x0
 886 0025 00000000 		.4byte	.Ldebug_line0
 887 0029 02       		.uleb128 0x2
 888 002a 04       		.byte	0x4
 889 002b 05       		.byte	0x5
 890 002c 696E7400 		.ascii	"int\000"
 891 0030 03       		.uleb128 0x3
 892 0031 0E000000 		.4byte	.LASF2
 893 0035 02       		.byte	0x2
 894 0036 D3       		.byte	0xd3
 895 0037 3B000000 		.4byte	0x3b
 896 003b 04       		.uleb128 0x4
ARM GAS  C:\Users\DNIEL~1\AppData\Local\Temp\ccvEjOxs.s 			page 17


 897 003c 04       		.byte	0x4
 898 003d 07       		.byte	0x7
 899 003e 0B020000 		.4byte	.LASF0
 900 0042 04       		.uleb128 0x4
 901 0043 01       		.byte	0x1
 902 0044 06       		.byte	0x6
 903 0045 F5000000 		.4byte	.LASF1
 904 0049 03       		.uleb128 0x3
 905 004a FD040000 		.4byte	.LASF3
 906 004e 03       		.byte	0x3
 907 004f 2A       		.byte	0x2a
 908 0050 54000000 		.4byte	0x54
 909 0054 04       		.uleb128 0x4
 910 0055 01       		.byte	0x1
 911 0056 08       		.byte	0x8
 912 0057 AF030000 		.4byte	.LASF4
 913 005b 03       		.uleb128 0x3
 914 005c DF000000 		.4byte	.LASF5
 915 0060 03       		.byte	0x3
 916 0061 35       		.byte	0x35
 917 0062 66000000 		.4byte	0x66
 918 0066 04       		.uleb128 0x4
 919 0067 02       		.byte	0x2
 920 0068 05       		.byte	0x5
 921 0069 D4030000 		.4byte	.LASF6
 922 006d 03       		.uleb128 0x3
 923 006e 78010000 		.4byte	.LASF7
 924 0072 03       		.byte	0x3
 925 0073 36       		.byte	0x36
 926 0074 78000000 		.4byte	0x78
 927 0078 04       		.uleb128 0x4
 928 0079 02       		.byte	0x2
 929 007a 07       		.byte	0x7
 930 007b 53020000 		.4byte	.LASF8
 931 007f 03       		.uleb128 0x3
 932 0080 A7030000 		.4byte	.LASF9
 933 0084 03       		.byte	0x3
 934 0085 4F       		.byte	0x4f
 935 0086 8A000000 		.4byte	0x8a
 936 008a 04       		.uleb128 0x4
 937 008b 04       		.byte	0x4
 938 008c 05       		.byte	0x5
 939 008d 39010000 		.4byte	.LASF10
 940 0091 03       		.uleb128 0x3
 941 0092 5D040000 		.4byte	.LASF11
 942 0096 03       		.byte	0x3
 943 0097 50       		.byte	0x50
 944 0098 9C000000 		.4byte	0x9c
 945 009c 04       		.uleb128 0x4
 946 009d 04       		.byte	0x4
 947 009e 07       		.byte	0x7
 948 009f 7C040000 		.4byte	.LASF12
 949 00a3 04       		.uleb128 0x4
 950 00a4 08       		.byte	0x8
 951 00a5 05       		.byte	0x5
 952 00a6 E7000000 		.4byte	.LASF13
 953 00aa 04       		.uleb128 0x4
ARM GAS  C:\Users\DNIEL~1\AppData\Local\Temp\ccvEjOxs.s 			page 18


 954 00ab 08       		.byte	0x8
 955 00ac 07       		.byte	0x7
 956 00ad 75000000 		.4byte	.LASF14
 957 00b1 03       		.uleb128 0x3
 958 00b2 09010000 		.4byte	.LASF15
 959 00b6 04       		.byte	0x4
 960 00b7 2B       		.byte	0x2b
 961 00b8 BC000000 		.4byte	0xbc
 962 00bc 04       		.uleb128 0x4
 963 00bd 01       		.byte	0x1
 964 00be 02       		.byte	0x2
 965 00bf A1030000 		.4byte	.LASF16
 966 00c3 03       		.uleb128 0x3
 967 00c4 9F020000 		.4byte	.LASF17
 968 00c8 04       		.byte	0x4
 969 00c9 2C       		.byte	0x2c
 970 00ca 49000000 		.4byte	0x49
 971 00ce 03       		.uleb128 0x3
 972 00cf 68010000 		.4byte	.LASF18
 973 00d3 04       		.byte	0x4
 974 00d4 2D       		.byte	0x2d
 975 00d5 49000000 		.4byte	0x49
 976 00d9 03       		.uleb128 0x3
 977 00da 5C030000 		.4byte	.LASF19
 978 00de 04       		.byte	0x4
 979 00df 2E       		.byte	0x2e
 980 00e0 49000000 		.4byte	0x49
 981 00e4 03       		.uleb128 0x3
 982 00e5 01020000 		.4byte	.LASF20
 983 00e9 04       		.byte	0x4
 984 00ea 2F       		.byte	0x2f
 985 00eb 49000000 		.4byte	0x49
 986 00ef 03       		.uleb128 0x3
 987 00f0 89030000 		.4byte	.LASF21
 988 00f4 04       		.byte	0x4
 989 00f5 30       		.byte	0x30
 990 00f6 91000000 		.4byte	0x91
 991 00fa 03       		.uleb128 0x3
 992 00fb 80020000 		.4byte	.LASF22
 993 00ff 04       		.byte	0x4
 994 0100 31       		.byte	0x31
 995 0101 7F000000 		.4byte	0x7f
 996 0105 03       		.uleb128 0x3
 997 0106 C0020000 		.4byte	.LASF23
 998 010a 04       		.byte	0x4
 999 010b 33       		.byte	0x33
 1000 010c 91000000 		.4byte	0x91
 1001 0110 03       		.uleb128 0x3
 1002 0111 A9040000 		.4byte	.LASF24
 1003 0115 04       		.byte	0x4
 1004 0116 35       		.byte	0x35
 1005 0117 91000000 		.4byte	0x91
 1006 011b 03       		.uleb128 0x3
 1007 011c E9010000 		.4byte	.LASF25
 1008 0120 05       		.byte	0x5
 1009 0121 2A       		.byte	0x2a
 1010 0122 26010000 		.4byte	0x126
ARM GAS  C:\Users\DNIEL~1\AppData\Local\Temp\ccvEjOxs.s 			page 19


 1011 0126 05       		.uleb128 0x5
 1012 0127 E9010000 		.4byte	.LASF25
 1013 012b 48       		.byte	0x48
 1014 012c 06       		.byte	0x6
 1015 012d 5E       		.byte	0x5e
 1016 012e 4B020000 		.4byte	0x24b
 1017 0132 06       		.uleb128 0x6
 1018 0133 00040000 		.4byte	.LASF26
 1019 0137 06       		.byte	0x6
 1020 0138 5F       		.byte	0x5f
 1021 0139 70020000 		.4byte	0x270
 1022 013d 02       		.byte	0x2
 1023 013e 23       		.byte	0x23
 1024 013f 00       		.uleb128 0x0
 1025 0140 06       		.uleb128 0x6
 1026 0141 6F030000 		.4byte	.LASF27
 1027 0145 06       		.byte	0x6
 1028 0146 61       		.byte	0x61
 1029 0147 70020000 		.4byte	0x270
 1030 014b 02       		.byte	0x2
 1031 014c 23       		.byte	0x23
 1032 014d 04       		.uleb128 0x4
 1033 014e 06       		.uleb128 0x6
 1034 014f D2000000 		.4byte	.LASF28
 1035 0153 06       		.byte	0x6
 1036 0154 63       		.byte	0x63
 1037 0155 EF000000 		.4byte	0xef
 1038 0159 02       		.byte	0x2
 1039 015a 23       		.byte	0x23
 1040 015b 08       		.uleb128 0x8
 1041 015c 06       		.uleb128 0x6
 1042 015d 7B050000 		.4byte	.LASF29
 1043 0161 06       		.byte	0x6
 1044 0162 64       		.byte	0x64
 1045 0163 3E030000 		.4byte	0x33e
 1046 0167 02       		.byte	0x2
 1047 0168 23       		.byte	0x23
 1048 0169 0C       		.uleb128 0xc
 1049 016a 06       		.uleb128 0x6
 1050 016b 94010000 		.4byte	.LASF30
 1051 016f 06       		.byte	0x6
 1052 0170 66       		.byte	0x66
 1053 0171 70020000 		.4byte	0x270
 1054 0175 02       		.byte	0x2
 1055 0176 23       		.byte	0x23
 1056 0177 10       		.uleb128 0x10
 1057 0178 06       		.uleb128 0x6
 1058 0179 25030000 		.4byte	.LASF31
 1059 017d 06       		.byte	0x6
 1060 017e 67       		.byte	0x67
 1061 017f 70020000 		.4byte	0x270
 1062 0183 02       		.byte	0x2
 1063 0184 23       		.byte	0x23
 1064 0185 14       		.uleb128 0x14
 1065 0186 06       		.uleb128 0x6
 1066 0187 40050000 		.4byte	.LASF32
 1067 018b 06       		.byte	0x6
ARM GAS  C:\Users\DNIEL~1\AppData\Local\Temp\ccvEjOxs.s 			page 20


 1068 018c 6E       		.byte	0x6e
 1069 018d E8030000 		.4byte	0x3e8
 1070 0191 02       		.byte	0x2
 1071 0192 23       		.byte	0x23
 1072 0193 18       		.uleb128 0x18
 1073 0194 06       		.uleb128 0x6
 1074 0195 DE030000 		.4byte	.LASF33
 1075 0199 06       		.byte	0x6
 1076 019a 79       		.byte	0x79
 1077 019b CE000000 		.4byte	0xce
 1078 019f 02       		.byte	0x2
 1079 01a0 23       		.byte	0x23
 1080 01a1 1C       		.uleb128 0x1c
 1081 01a2 06       		.uleb128 0x6
 1082 01a3 07040000 		.4byte	.LASF34
 1083 01a7 06       		.byte	0x6
 1084 01a8 7D       		.byte	0x7d
 1085 01a9 C3000000 		.4byte	0xc3
 1086 01ad 02       		.byte	0x2
 1087 01ae 23       		.byte	0x23
 1088 01af 1D       		.uleb128 0x1d
 1089 01b0 06       		.uleb128 0x6
 1090 01b1 EA040000 		.4byte	.LASF35
 1091 01b5 06       		.byte	0x6
 1092 01b6 82       		.byte	0x82
 1093 01b7 D9000000 		.4byte	0xd9
 1094 01bb 02       		.byte	0x2
 1095 01bc 23       		.byte	0x23
 1096 01bd 1E       		.uleb128 0x1e
 1097 01be 06       		.uleb128 0x6
 1098 01bf E6030000 		.4byte	.LASF36
 1099 01c3 06       		.byte	0x6
 1100 01c4 88       		.byte	0x88
 1101 01c5 E4000000 		.4byte	0xe4
 1102 01c9 02       		.byte	0x2
 1103 01ca 23       		.byte	0x23
 1104 01cb 1F       		.uleb128 0x1f
 1105 01cc 06       		.uleb128 0x6
 1106 01cd 81010000 		.4byte	.LASF37
 1107 01d1 06       		.byte	0x6
 1108 01d2 8F       		.byte	0x8f
 1109 01d3 66030000 		.4byte	0x366
 1110 01d7 02       		.byte	0x2
 1111 01d8 23       		.byte	0x23
 1112 01d9 20       		.uleb128 0x20
 1113 01da 07       		.uleb128 0x7
 1114 01db 705F7500 		.ascii	"p_u\000"
 1115 01df 06       		.byte	0x6
 1116 01e0 B4       		.byte	0xb4
 1117 01e1 B3030000 		.4byte	0x3b3
 1118 01e5 02       		.byte	0x2
 1119 01e6 23       		.byte	0x23
 1120 01e7 24       		.uleb128 0x24
 1121 01e8 06       		.uleb128 0x6
 1122 01e9 81050000 		.4byte	.LASF38
 1123 01ed 06       		.byte	0x6
 1124 01ee B9       		.byte	0xb9
ARM GAS  C:\Users\DNIEL~1\AppData\Local\Temp\ccvEjOxs.s 			page 21


 1125 01ef 98020000 		.4byte	0x298
 1126 01f3 02       		.byte	0x2
 1127 01f4 23       		.byte	0x23
 1128 01f5 28       		.uleb128 0x28
 1129 01f6 06       		.uleb128 0x6
 1130 01f7 23020000 		.4byte	.LASF39
 1131 01fb 06       		.byte	0x6
 1132 01fc BF       		.byte	0xbf
 1133 01fd 76020000 		.4byte	0x276
 1134 0201 02       		.byte	0x2
 1135 0202 23       		.byte	0x23
 1136 0203 2C       		.uleb128 0x2c
 1137 0204 06       		.uleb128 0x6
 1138 0205 5A050000 		.4byte	.LASF40
 1139 0209 06       		.byte	0x6
 1140 020a C3       		.byte	0xc3
 1141 020b FA000000 		.4byte	0xfa
 1142 020f 02       		.byte	0x2
 1143 0210 23       		.byte	0x23
 1144 0211 34       		.uleb128 0x34
 1145 0212 06       		.uleb128 0x6
 1146 0213 47040000 		.4byte	.LASF41
 1147 0217 06       		.byte	0x6
 1148 0218 C9       		.byte	0xc9
 1149 0219 05010000 		.4byte	0x105
 1150 021d 02       		.byte	0x2
 1151 021e 23       		.byte	0x23
 1152 021f 38       		.uleb128 0x38
 1153 0220 06       		.uleb128 0x6
 1154 0221 CA030000 		.4byte	.LASF42
 1155 0225 06       		.byte	0x6
 1156 0226 D0       		.byte	0xd0
 1157 0227 FA030000 		.4byte	0x3fa
 1158 022b 02       		.byte	0x2
 1159 022c 23       		.byte	0x23
 1160 022d 3C       		.uleb128 0x3c
 1161 022e 06       		.uleb128 0x6
 1162 022f B3040000 		.4byte	.LASF43
 1163 0233 06       		.byte	0x6
 1164 0234 D4       		.byte	0xd4
 1165 0235 EF000000 		.4byte	0xef
 1166 0239 02       		.byte	0x2
 1167 023a 23       		.byte	0x23
 1168 023b 40       		.uleb128 0x40
 1169 023c 06       		.uleb128 0x6
 1170 023d 01010000 		.4byte	.LASF44
 1171 0241 06       		.byte	0x6
 1172 0242 DA       		.byte	0xda
 1173 0243 AE020000 		.4byte	0x2ae
 1174 0247 02       		.byte	0x2
 1175 0248 23       		.byte	0x23
 1176 0249 44       		.uleb128 0x44
 1177 024a 00       		.byte	0x0
 1178 024b 08       		.uleb128 0x8
 1179 024c 08       		.byte	0x8
 1180 024d 05       		.byte	0x5
 1181 024e 61       		.byte	0x61
ARM GAS  C:\Users\DNIEL~1\AppData\Local\Temp\ccvEjOxs.s 			page 22


 1182 024f 70020000 		.4byte	0x270
 1183 0253 06       		.uleb128 0x6
 1184 0254 00040000 		.4byte	.LASF26
 1185 0258 05       		.byte	0x5
 1186 0259 62       		.byte	0x62
 1187 025a 70020000 		.4byte	0x270
 1188 025e 02       		.byte	0x2
 1189 025f 23       		.byte	0x23
 1190 0260 00       		.uleb128 0x0
 1191 0261 06       		.uleb128 0x6
 1192 0262 6F030000 		.4byte	.LASF27
 1193 0266 05       		.byte	0x5
 1194 0267 64       		.byte	0x64
 1195 0268 70020000 		.4byte	0x270
 1196 026c 02       		.byte	0x2
 1197 026d 23       		.byte	0x23
 1198 026e 04       		.uleb128 0x4
 1199 026f 00       		.byte	0x0
 1200 0270 09       		.uleb128 0x9
 1201 0271 04       		.byte	0x4
 1202 0272 1B010000 		.4byte	0x11b
 1203 0276 03       		.uleb128 0x3
 1204 0277 2D030000 		.4byte	.LASF45
 1205 027b 05       		.byte	0x5
 1206 027c 66       		.byte	0x66
 1207 027d 4B020000 		.4byte	0x24b
 1208 0281 08       		.uleb128 0x8
 1209 0282 04       		.byte	0x4
 1210 0283 05       		.byte	0x5
 1211 0284 6B       		.byte	0x6b
 1212 0285 98020000 		.4byte	0x298
 1213 0289 06       		.uleb128 0x6
 1214 028a 00040000 		.4byte	.LASF26
 1215 028e 05       		.byte	0x5
 1216 028f 6D       		.byte	0x6d
 1217 0290 70020000 		.4byte	0x270
 1218 0294 02       		.byte	0x2
 1219 0295 23       		.byte	0x23
 1220 0296 00       		.uleb128 0x0
 1221 0297 00       		.byte	0x0
 1222 0298 03       		.uleb128 0x3
 1223 0299 B4020000 		.4byte	.LASF46
 1224 029d 05       		.byte	0x5
 1225 029e 70       		.byte	0x70
 1226 029f 81020000 		.4byte	0x281
 1227 02a3 03       		.uleb128 0x3
 1228 02a4 CA010000 		.4byte	.LASF47
 1229 02a8 07       		.byte	0x7
 1230 02a9 E5       		.byte	0xe5
 1231 02aa AE020000 		.4byte	0x2ae
 1232 02ae 0A       		.uleb128 0xa
 1233 02af 04       		.byte	0x4
 1234 02b0 0B       		.uleb128 0xb
 1235 02b1 D9040000 		.4byte	.LASF48
 1236 02b5 24       		.byte	0x24
 1237 02b6 07       		.byte	0x7
 1238 02b7 0C01     		.2byte	0x10c
ARM GAS  C:\Users\DNIEL~1\AppData\Local\Temp\ccvEjOxs.s 			page 23


 1239 02b9 3E030000 		.4byte	0x33e
 1240 02bd 0C       		.uleb128 0xc
 1241 02be 723400   		.ascii	"r4\000"
 1242 02c1 07       		.byte	0x7
 1243 02c2 1F01     		.2byte	0x11f
 1244 02c4 A3020000 		.4byte	0x2a3
 1245 02c8 02       		.byte	0x2
 1246 02c9 23       		.byte	0x23
 1247 02ca 00       		.uleb128 0x0
 1248 02cb 0C       		.uleb128 0xc
 1249 02cc 723500   		.ascii	"r5\000"
 1250 02cf 07       		.byte	0x7
 1251 02d0 2001     		.2byte	0x120
 1252 02d2 A3020000 		.4byte	0x2a3
 1253 02d6 02       		.byte	0x2
 1254 02d7 23       		.byte	0x23
 1255 02d8 04       		.uleb128 0x4
 1256 02d9 0C       		.uleb128 0xc
 1257 02da 723600   		.ascii	"r6\000"
 1258 02dd 07       		.byte	0x7
 1259 02de 2101     		.2byte	0x121
 1260 02e0 A3020000 		.4byte	0x2a3
 1261 02e4 02       		.byte	0x2
 1262 02e5 23       		.byte	0x23
 1263 02e6 08       		.uleb128 0x8
 1264 02e7 0C       		.uleb128 0xc
 1265 02e8 723700   		.ascii	"r7\000"
 1266 02eb 07       		.byte	0x7
 1267 02ec 2201     		.2byte	0x122
 1268 02ee A3020000 		.4byte	0x2a3
 1269 02f2 02       		.byte	0x2
 1270 02f3 23       		.byte	0x23
 1271 02f4 0C       		.uleb128 0xc
 1272 02f5 0C       		.uleb128 0xc
 1273 02f6 723800   		.ascii	"r8\000"
 1274 02f9 07       		.byte	0x7
 1275 02fa 2301     		.2byte	0x123
 1276 02fc A3020000 		.4byte	0x2a3
 1277 0300 02       		.byte	0x2
 1278 0301 23       		.byte	0x23
 1279 0302 10       		.uleb128 0x10
 1280 0303 0C       		.uleb128 0xc
 1281 0304 723900   		.ascii	"r9\000"
 1282 0307 07       		.byte	0x7
 1283 0308 2401     		.2byte	0x124
 1284 030a A3020000 		.4byte	0x2a3
 1285 030e 02       		.byte	0x2
 1286 030f 23       		.byte	0x23
 1287 0310 14       		.uleb128 0x14
 1288 0311 0C       		.uleb128 0xc
 1289 0312 72313000 		.ascii	"r10\000"
 1290 0316 07       		.byte	0x7
 1291 0317 2501     		.2byte	0x125
 1292 0319 A3020000 		.4byte	0x2a3
 1293 031d 02       		.byte	0x2
 1294 031e 23       		.byte	0x23
 1295 031f 18       		.uleb128 0x18
ARM GAS  C:\Users\DNIEL~1\AppData\Local\Temp\ccvEjOxs.s 			page 24


 1296 0320 0C       		.uleb128 0xc
 1297 0321 72313100 		.ascii	"r11\000"
 1298 0325 07       		.byte	0x7
 1299 0326 2601     		.2byte	0x126
 1300 0328 A3020000 		.4byte	0x2a3
 1301 032c 02       		.byte	0x2
 1302 032d 23       		.byte	0x23
 1303 032e 1C       		.uleb128 0x1c
 1304 032f 0C       		.uleb128 0xc
 1305 0330 6C7200   		.ascii	"lr\000"
 1306 0333 07       		.byte	0x7
 1307 0334 2701     		.2byte	0x127
 1308 0336 A3020000 		.4byte	0x2a3
 1309 033a 02       		.byte	0x2
 1310 033b 23       		.byte	0x23
 1311 033c 20       		.uleb128 0x20
 1312 033d 00       		.byte	0x0
 1313 033e 0B       		.uleb128 0xb
 1314 033f C7040000 		.4byte	.LASF49
 1315 0343 04       		.byte	0x4
 1316 0344 07       		.byte	0x7
 1317 0345 3101     		.2byte	0x131
 1318 0347 5B030000 		.4byte	0x35b
 1319 034b 0C       		.uleb128 0xc
 1320 034c 72313300 		.ascii	"r13\000"
 1321 0350 07       		.byte	0x7
 1322 0351 3201     		.2byte	0x132
 1323 0353 5B030000 		.4byte	0x35b
 1324 0357 02       		.byte	0x2
 1325 0358 23       		.byte	0x23
 1326 0359 00       		.uleb128 0x0
 1327 035a 00       		.byte	0x0
 1328 035b 09       		.uleb128 0x9
 1329 035c 04       		.byte	0x4
 1330 035d B0020000 		.4byte	0x2b0
 1331 0361 0D       		.uleb128 0xd
 1332 0362 91000000 		.4byte	0x91
 1333 0366 0D       		.uleb128 0xd
 1334 0367 10010000 		.4byte	0x110
 1335 036b 05       		.uleb128 0x5
 1336 036c 0B030000 		.4byte	.LASF50
 1337 0370 10       		.byte	0x10
 1338 0371 08       		.byte	0x8
 1339 0372 2C       		.byte	0x2c
 1340 0373 A2030000 		.4byte	0x3a2
 1341 0377 06       		.uleb128 0x6
 1342 0378 10010000 		.4byte	.LASF51
 1343 037c 08       		.byte	0x8
 1344 037d 2D       		.byte	0x2d
 1345 037e 76020000 		.4byte	0x276
 1346 0382 02       		.byte	0x2
 1347 0383 23       		.byte	0x23
 1348 0384 00       		.uleb128 0x0
 1349 0385 06       		.uleb128 0x6
 1350 0386 73050000 		.4byte	.LASF52
 1351 038a 08       		.byte	0x8
 1352 038b 2F       		.byte	0x2f
ARM GAS  C:\Users\DNIEL~1\AppData\Local\Temp\ccvEjOxs.s 			page 25


 1353 038c 70020000 		.4byte	0x270
 1354 0390 02       		.byte	0x2
 1355 0391 23       		.byte	0x23
 1356 0392 08       		.uleb128 0x8
 1357 0393 06       		.uleb128 0x6
 1358 0394 46030000 		.4byte	.LASF53
 1359 0398 08       		.byte	0x8
 1360 0399 31       		.byte	0x31
 1361 039a A2030000 		.4byte	0x3a2
 1362 039e 02       		.byte	0x2
 1363 039f 23       		.byte	0x23
 1364 03a0 0C       		.uleb128 0xc
 1365 03a1 00       		.byte	0x0
 1366 03a2 09       		.uleb128 0x9
 1367 03a3 04       		.byte	0x4
 1368 03a4 6B030000 		.4byte	0x36b
 1369 03a8 03       		.uleb128 0x3
 1370 03a9 0B030000 		.4byte	.LASF50
 1371 03ad 08       		.byte	0x8
 1372 03ae 33       		.byte	0x33
 1373 03af 6B030000 		.4byte	0x36b
 1374 03b3 0E       		.uleb128 0xe
 1375 03b4 04       		.byte	0x4
 1376 03b5 06       		.byte	0x6
 1377 03b6 96       		.byte	0x96
 1378 03b7 E8030000 		.4byte	0x3e8
 1379 03bb 0F       		.uleb128 0xf
 1380 03bc 15000000 		.4byte	.LASF54
 1381 03c0 06       		.byte	0x6
 1382 03c1 9D       		.byte	0x9d
 1383 03c2 FA000000 		.4byte	0xfa
 1384 03c6 0F       		.uleb128 0xf
 1385 03c7 97000000 		.4byte	.LASF55
 1386 03cb 06       		.byte	0x6
 1387 03cc A4       		.byte	0xa4
 1388 03cd FA000000 		.4byte	0xfa
 1389 03d1 0F       		.uleb128 0xf
 1390 03d2 2C050000 		.4byte	.LASF56
 1391 03d6 06       		.byte	0x6
 1392 03d7 AB       		.byte	0xab
 1393 03d8 AE020000 		.4byte	0x2ae
 1394 03dc 0F       		.uleb128 0xf
 1395 03dd F9030000 		.4byte	.LASF57
 1396 03e1 06       		.byte	0x6
 1397 03e2 B2       		.byte	0xb2
 1398 03e3 05010000 		.4byte	0x105
 1399 03e7 00       		.byte	0x0
 1400 03e8 09       		.uleb128 0x9
 1401 03e9 04       		.byte	0x4
 1402 03ea EE030000 		.4byte	0x3ee
 1403 03ee 10       		.uleb128 0x10
 1404 03ef F3030000 		.4byte	0x3f3
 1405 03f3 04       		.uleb128 0x4
 1406 03f4 01       		.byte	0x1
 1407 03f5 08       		.byte	0x8
 1408 03f6 8E040000 		.4byte	.LASF58
 1409 03fa 09       		.uleb128 0x9
ARM GAS  C:\Users\DNIEL~1\AppData\Local\Temp\ccvEjOxs.s 			page 26


 1410 03fb 04       		.byte	0x4
 1411 03fc A8030000 		.4byte	0x3a8
 1412 0400 0D       		.uleb128 0xd
 1413 0401 7F000000 		.4byte	0x7f
 1414 0405 11       		.uleb128 0x11
 1415 0406 50       		.byte	0x50
 1416 0407 09       		.byte	0x9
 1417 0408 2D02     		.2byte	0x22d
 1418 040a 39050000 		.4byte	0x539
 1419 040e 0C       		.uleb128 0xc
 1420 040f 535200   		.ascii	"SR\000"
 1421 0412 09       		.byte	0x9
 1422 0413 2F02     		.2byte	0x22f
 1423 0415 61030000 		.4byte	0x361
 1424 0419 02       		.byte	0x2
 1425 041a 23       		.byte	0x23
 1426 041b 00       		.uleb128 0x0
 1427 041c 0C       		.uleb128 0xc
 1428 041d 43523100 		.ascii	"CR1\000"
 1429 0421 09       		.byte	0x9
 1430 0422 3002     		.2byte	0x230
 1431 0424 61030000 		.4byte	0x361
 1432 0428 02       		.byte	0x2
 1433 0429 23       		.byte	0x23
 1434 042a 04       		.uleb128 0x4
 1435 042b 0C       		.uleb128 0xc
 1436 042c 43523200 		.ascii	"CR2\000"
 1437 0430 09       		.byte	0x9
 1438 0431 3102     		.2byte	0x231
 1439 0433 61030000 		.4byte	0x361
 1440 0437 02       		.byte	0x2
 1441 0438 23       		.byte	0x23
 1442 0439 08       		.uleb128 0x8
 1443 043a 12       		.uleb128 0x12
 1444 043b 3A030000 		.4byte	.LASF59
 1445 043f 09       		.byte	0x9
 1446 0440 3202     		.2byte	0x232
 1447 0442 61030000 		.4byte	0x361
 1448 0446 02       		.byte	0x2
 1449 0447 23       		.byte	0x23
 1450 0448 0C       		.uleb128 0xc
 1451 0449 12       		.uleb128 0x12
 1452 044a 40030000 		.4byte	.LASF60
 1453 044e 09       		.byte	0x9
 1454 044f 3302     		.2byte	0x233
 1455 0451 61030000 		.4byte	0x361
 1456 0455 02       		.byte	0x2
 1457 0456 23       		.byte	0x23
 1458 0457 10       		.uleb128 0x10
 1459 0458 12       		.uleb128 0x12
 1460 0459 EC020000 		.4byte	.LASF61
 1461 045d 09       		.byte	0x9
 1462 045e 3402     		.2byte	0x234
 1463 0460 61030000 		.4byte	0x361
 1464 0464 02       		.byte	0x2
 1465 0465 23       		.byte	0x23
 1466 0466 14       		.uleb128 0x14
ARM GAS  C:\Users\DNIEL~1\AppData\Local\Temp\ccvEjOxs.s 			page 27


 1467 0467 12       		.uleb128 0x12
 1468 0468 F2020000 		.4byte	.LASF62
 1469 046c 09       		.byte	0x9
 1470 046d 3502     		.2byte	0x235
 1471 046f 61030000 		.4byte	0x361
 1472 0473 02       		.byte	0x2
 1473 0474 23       		.byte	0x23
 1474 0475 18       		.uleb128 0x18
 1475 0476 12       		.uleb128 0x12
 1476 0477 F8020000 		.4byte	.LASF63
 1477 047b 09       		.byte	0x9
 1478 047c 3602     		.2byte	0x236
 1479 047e 61030000 		.4byte	0x361
 1480 0482 02       		.byte	0x2
 1481 0483 23       		.byte	0x23
 1482 0484 1C       		.uleb128 0x1c
 1483 0485 12       		.uleb128 0x12
 1484 0486 0F040000 		.4byte	.LASF64
 1485 048a 09       		.byte	0x9
 1486 048b 3702     		.2byte	0x237
 1487 048d 61030000 		.4byte	0x361
 1488 0491 02       		.byte	0x2
 1489 0492 23       		.byte	0x23
 1490 0493 20       		.uleb128 0x20
 1491 0494 0C       		.uleb128 0xc
 1492 0495 48545200 		.ascii	"HTR\000"
 1493 0499 09       		.byte	0x9
 1494 049a 3802     		.2byte	0x238
 1495 049c 61030000 		.4byte	0x361
 1496 04a0 02       		.byte	0x2
 1497 04a1 23       		.byte	0x23
 1498 04a2 24       		.uleb128 0x24
 1499 04a3 0C       		.uleb128 0xc
 1500 04a4 4C545200 		.ascii	"LTR\000"
 1501 04a8 09       		.byte	0x9
 1502 04a9 3902     		.2byte	0x239
 1503 04ab 61030000 		.4byte	0x361
 1504 04af 02       		.byte	0x2
 1505 04b0 23       		.byte	0x23
 1506 04b1 28       		.uleb128 0x28
 1507 04b2 12       		.uleb128 0x12
 1508 04b3 4D030000 		.4byte	.LASF65
 1509 04b7 09       		.byte	0x9
 1510 04b8 3A02     		.2byte	0x23a
 1511 04ba 61030000 		.4byte	0x361
 1512 04be 02       		.byte	0x2
 1513 04bf 23       		.byte	0x23
 1514 04c0 2C       		.uleb128 0x2c
 1515 04c1 12       		.uleb128 0x12
 1516 04c2 52030000 		.4byte	.LASF66
 1517 04c6 09       		.byte	0x9
 1518 04c7 3B02     		.2byte	0x23b
 1519 04c9 61030000 		.4byte	0x361
 1520 04cd 02       		.byte	0x2
 1521 04ce 23       		.byte	0x23
 1522 04cf 30       		.uleb128 0x30
 1523 04d0 12       		.uleb128 0x12
ARM GAS  C:\Users\DNIEL~1\AppData\Local\Temp\ccvEjOxs.s 			page 28


 1524 04d1 57030000 		.4byte	.LASF67
 1525 04d5 09       		.byte	0x9
 1526 04d6 3C02     		.2byte	0x23c
 1527 04d8 61030000 		.4byte	0x361
 1528 04dc 02       		.byte	0x2
 1529 04dd 23       		.byte	0x23
 1530 04de 34       		.uleb128 0x34
 1531 04df 12       		.uleb128 0x12
 1532 04e0 06030000 		.4byte	.LASF68
 1533 04e4 09       		.byte	0x9
 1534 04e5 3D02     		.2byte	0x23d
 1535 04e7 61030000 		.4byte	0x361
 1536 04eb 02       		.byte	0x2
 1537 04ec 23       		.byte	0x23
 1538 04ed 38       		.uleb128 0x38
 1539 04ee 12       		.uleb128 0x12
 1540 04ef 18050000 		.4byte	.LASF69
 1541 04f3 09       		.byte	0x9
 1542 04f4 3E02     		.2byte	0x23e
 1543 04f6 61030000 		.4byte	0x361
 1544 04fa 02       		.byte	0x2
 1545 04fb 23       		.byte	0x23
 1546 04fc 3C       		.uleb128 0x3c
 1547 04fd 12       		.uleb128 0x12
 1548 04fe 1D050000 		.4byte	.LASF70
 1549 0502 09       		.byte	0x9
 1550 0503 3F02     		.2byte	0x23f
 1551 0505 61030000 		.4byte	0x361
 1552 0509 02       		.byte	0x2
 1553 050a 23       		.byte	0x23
 1554 050b 40       		.uleb128 0x40
 1555 050c 12       		.uleb128 0x12
 1556 050d 22050000 		.4byte	.LASF71
 1557 0511 09       		.byte	0x9
 1558 0512 4002     		.2byte	0x240
 1559 0514 61030000 		.4byte	0x361
 1560 0518 02       		.byte	0x2
 1561 0519 23       		.byte	0x23
 1562 051a 44       		.uleb128 0x44
 1563 051b 12       		.uleb128 0x12
 1564 051c 27050000 		.4byte	.LASF72
 1565 0520 09       		.byte	0x9
 1566 0521 4102     		.2byte	0x241
 1567 0523 61030000 		.4byte	0x361
 1568 0527 02       		.byte	0x2
 1569 0528 23       		.byte	0x23
 1570 0529 48       		.uleb128 0x48
 1571 052a 0C       		.uleb128 0xc
 1572 052b 445200   		.ascii	"DR\000"
 1573 052e 09       		.byte	0x9
 1574 052f 4202     		.2byte	0x242
 1575 0531 61030000 		.4byte	0x361
 1576 0535 02       		.byte	0x2
 1577 0536 23       		.byte	0x23
 1578 0537 4C       		.uleb128 0x4c
 1579 0538 00       		.byte	0x0
 1580 0539 13       		.uleb128 0x13
ARM GAS  C:\Users\DNIEL~1\AppData\Local\Temp\ccvEjOxs.s 			page 29


 1581 053a 88010000 		.4byte	.LASF73
 1582 053e 09       		.byte	0x9
 1583 053f 4302     		.2byte	0x243
 1584 0541 05040000 		.4byte	0x405
 1585 0545 11       		.uleb128 0x11
 1586 0546 10       		.byte	0x10
 1587 0547 09       		.byte	0x9
 1588 0548 2D03     		.2byte	0x32d
 1589 054a 8B050000 		.4byte	0x58b
 1590 054e 0C       		.uleb128 0xc
 1591 054f 43435200 		.ascii	"CCR\000"
 1592 0553 09       		.byte	0x9
 1593 0554 2F03     		.2byte	0x32f
 1594 0556 61030000 		.4byte	0x361
 1595 055a 02       		.byte	0x2
 1596 055b 23       		.byte	0x23
 1597 055c 00       		.uleb128 0x0
 1598 055d 12       		.uleb128 0x12
 1599 055e F1040000 		.4byte	.LASF74
 1600 0562 09       		.byte	0x9
 1601 0563 3003     		.2byte	0x330
 1602 0565 61030000 		.4byte	0x361
 1603 0569 02       		.byte	0x2
 1604 056a 23       		.byte	0x23
 1605 056b 04       		.uleb128 0x4
 1606 056c 12       		.uleb128 0x12
 1607 056d 1E020000 		.4byte	.LASF75
 1608 0571 09       		.byte	0x9
 1609 0572 3103     		.2byte	0x331
 1610 0574 61030000 		.4byte	0x361
 1611 0578 02       		.byte	0x2
 1612 0579 23       		.byte	0x23
 1613 057a 08       		.uleb128 0x8
 1614 057b 12       		.uleb128 0x12
 1615 057c D9020000 		.4byte	.LASF76
 1616 0580 09       		.byte	0x9
 1617 0581 3203     		.2byte	0x332
 1618 0583 61030000 		.4byte	0x361
 1619 0587 02       		.byte	0x2
 1620 0588 23       		.byte	0x23
 1621 0589 0C       		.uleb128 0xc
 1622 058a 00       		.byte	0x0
 1623 058b 13       		.uleb128 0x13
 1624 058c 38020000 		.4byte	.LASF77
 1625 0590 09       		.byte	0x9
 1626 0591 3303     		.2byte	0x333
 1627 0593 45050000 		.4byte	0x545
 1628 0597 08       		.uleb128 0x8
 1629 0598 0C       		.byte	0xc
 1630 0599 0A       		.byte	0xa
 1631 059a C1       		.byte	0xc1
 1632 059b E6050000 		.4byte	0x5e6
 1633 059f 06       		.uleb128 0x6
 1634 05a0 21040000 		.4byte	.LASF78
 1635 05a4 0A       		.byte	0xa
 1636 05a5 C2       		.byte	0xc2
 1637 05a6 E6050000 		.4byte	0x5e6
ARM GAS  C:\Users\DNIEL~1\AppData\Local\Temp\ccvEjOxs.s 			page 30


 1638 05aa 02       		.byte	0x2
 1639 05ab 23       		.byte	0x23
 1640 05ac 00       		.uleb128 0x0
 1641 05ad 06       		.uleb128 0x6
 1642 05ae 52040000 		.4byte	.LASF79
 1643 05b2 0A       		.byte	0xa
 1644 05b3 C3       		.byte	0xc3
 1645 05b4 EC050000 		.4byte	0x5ec
 1646 05b8 02       		.byte	0x2
 1647 05b9 23       		.byte	0x23
 1648 05ba 04       		.uleb128 0x4
 1649 05bb 06       		.uleb128 0x6
 1650 05bc 4C020000 		.4byte	.LASF80
 1651 05c0 0A       		.byte	0xa
 1652 05c1 C4       		.byte	0xc4
 1653 05c2 49000000 		.4byte	0x49
 1654 05c6 02       		.byte	0x2
 1655 05c7 23       		.byte	0x23
 1656 05c8 08       		.uleb128 0x8
 1657 05c9 06       		.uleb128 0x6
 1658 05ca D3010000 		.4byte	.LASF81
 1659 05ce 0A       		.byte	0xa
 1660 05cf C6       		.byte	0xc6
 1661 05d0 49000000 		.4byte	0x49
 1662 05d4 02       		.byte	0x2
 1663 05d5 23       		.byte	0x23
 1664 05d6 09       		.uleb128 0x9
 1665 05d7 06       		.uleb128 0x6
 1666 05d8 2F000000 		.4byte	.LASF82
 1667 05dc 0A       		.byte	0xa
 1668 05dd C7       		.byte	0xc7
 1669 05de 49000000 		.4byte	0x49
 1670 05e2 02       		.byte	0x2
 1671 05e3 23       		.byte	0x23
 1672 05e4 0A       		.uleb128 0xa
 1673 05e5 00       		.byte	0x0
 1674 05e6 09       		.uleb128 0x9
 1675 05e7 04       		.byte	0x4
 1676 05e8 8B050000 		.4byte	0x58b
 1677 05ec 09       		.uleb128 0x9
 1678 05ed 04       		.byte	0x4
 1679 05ee 61030000 		.4byte	0x361
 1680 05f2 03       		.uleb128 0x3
 1681 05f3 76030000 		.4byte	.LASF83
 1682 05f7 0A       		.byte	0xa
 1683 05f8 C8       		.byte	0xc8
 1684 05f9 97050000 		.4byte	0x597
 1685 05fd 14       		.uleb128 0x14
 1686 05fe 01       		.byte	0x1
 1687 05ff 0B       		.byte	0xb
 1688 0600 55       		.byte	0x55
 1689 0601 2A060000 		.4byte	0x62a
 1690 0605 15       		.uleb128 0x15
 1691 0606 A0000000 		.4byte	.LASF84
 1692 060a 00       		.sleb128 0
 1693 060b 15       		.uleb128 0x15
 1694 060c 1C030000 		.4byte	.LASF85
ARM GAS  C:\Users\DNIEL~1\AppData\Local\Temp\ccvEjOxs.s 			page 31


 1695 0610 01       		.sleb128 1
 1696 0611 15       		.uleb128 0x15
 1697 0612 66020000 		.4byte	.LASF86
 1698 0616 02       		.sleb128 2
 1699 0617 15       		.uleb128 0x15
 1700 0618 F6010000 		.4byte	.LASF87
 1701 061c 03       		.sleb128 3
 1702 061d 15       		.uleb128 0x15
 1703 061e 33050000 		.4byte	.LASF88
 1704 0622 04       		.sleb128 4
 1705 0623 15       		.uleb128 0x15
 1706 0624 E0040000 		.4byte	.LASF89
 1707 0628 05       		.sleb128 5
 1708 0629 00       		.byte	0x0
 1709 062a 03       		.uleb128 0x3
 1710 062b 24000000 		.4byte	.LASF90
 1711 062f 0B       		.byte	0xb
 1712 0630 5C       		.byte	0x5c
 1713 0631 FD050000 		.4byte	0x5fd
 1714 0635 03       		.uleb128 0x3
 1715 0636 B1010000 		.4byte	.LASF91
 1716 063a 0C       		.byte	0xc
 1717 063b 87       		.byte	0x87
 1718 063c 6D000000 		.4byte	0x6d
 1719 0640 03       		.uleb128 0x3
 1720 0641 47050000 		.4byte	.LASF92
 1721 0645 0C       		.byte	0xc
 1722 0646 8C       		.byte	0x8c
 1723 0647 6D000000 		.4byte	0x6d
 1724 064b 14       		.uleb128 0x14
 1725 064c 01       		.byte	0x1
 1726 064d 0C       		.byte	0xc
 1727 064e 93       		.byte	0x93
 1728 064f 5A060000 		.4byte	0x65a
 1729 0653 15       		.uleb128 0x15
 1730 0654 42010000 		.4byte	.LASF93
 1731 0658 00       		.sleb128 0
 1732 0659 00       		.byte	0x0
 1733 065a 03       		.uleb128 0x3
 1734 065b 18010000 		.4byte	.LASF94
 1735 065f 0C       		.byte	0xc
 1736 0660 95       		.byte	0x95
 1737 0661 4B060000 		.4byte	0x64b
 1738 0665 03       		.uleb128 0x3
 1739 0666 2E020000 		.4byte	.LASF95
 1740 066a 0C       		.byte	0xc
 1741 066b 9A       		.byte	0x9a
 1742 066c 70060000 		.4byte	0x670
 1743 0670 05       		.uleb128 0x5
 1744 0671 2E020000 		.4byte	.LASF95
 1745 0675 34       		.byte	0x34
 1746 0676 0C       		.byte	0xc
 1747 0677 FE       		.byte	0xfe
 1748 0678 13070000 		.4byte	0x713
 1749 067c 12       		.uleb128 0x12
 1750 067d 2A010000 		.4byte	.LASF96
 1751 0681 0C       		.byte	0xc
ARM GAS  C:\Users\DNIEL~1\AppData\Local\Temp\ccvEjOxs.s 			page 32


 1752 0682 0201     		.2byte	0x102
 1753 0684 2A060000 		.4byte	0x62a
 1754 0688 02       		.byte	0x2
 1755 0689 23       		.byte	0x23
 1756 068a 00       		.uleb128 0x0
 1757 068b 12       		.uleb128 0x12
 1758 068c 93040000 		.4byte	.LASF97
 1759 0690 0C       		.byte	0xc
 1760 0691 0601     		.2byte	0x106
 1761 0693 38080000 		.4byte	0x838
 1762 0697 02       		.byte	0x2
 1763 0698 23       		.byte	0x23
 1764 0699 04       		.uleb128 0x4
 1765 069a 12       		.uleb128 0x12
 1766 069b FE020000 		.4byte	.LASF98
 1767 069f 0C       		.byte	0xc
 1768 06a0 0A01     		.2byte	0x10a
 1769 06a2 40070000 		.4byte	0x740
 1770 06a6 02       		.byte	0x2
 1771 06a7 23       		.byte	0x23
 1772 06a8 08       		.uleb128 0x8
 1773 06a9 12       		.uleb128 0x12
 1774 06aa 7A020000 		.4byte	.LASF99
 1775 06ae 0C       		.byte	0xc
 1776 06af 0E01     		.2byte	0x10e
 1777 06b1 30000000 		.4byte	0x30
 1778 06b5 02       		.byte	0x2
 1779 06b6 23       		.byte	0x23
 1780 06b7 0C       		.uleb128 0xc
 1781 06b8 12       		.uleb128 0x12
 1782 06b9 E7020000 		.4byte	.LASF100
 1783 06bd 0C       		.byte	0xc
 1784 06be 1201     		.2byte	0x112
 1785 06c0 43080000 		.4byte	0x843
 1786 06c4 02       		.byte	0x2
 1787 06c5 23       		.byte	0x23
 1788 06c6 10       		.uleb128 0x10
 1789 06c7 12       		.uleb128 0x12
 1790 06c8 71010000 		.4byte	.LASF101
 1791 06cc 0C       		.byte	0xc
 1792 06cd 1701     		.2byte	0x117
 1793 06cf 70020000 		.4byte	0x270
 1794 06d3 02       		.byte	0x2
 1795 06d4 23       		.byte	0x23
 1796 06d5 14       		.uleb128 0x14
 1797 06d6 12       		.uleb128 0x12
 1798 06d7 9B030000 		.4byte	.LASF102
 1799 06db 0C       		.byte	0xc
 1800 06dc 1E01     		.2byte	0x11e
 1801 06de A8030000 		.4byte	0x3a8
 1802 06e2 02       		.byte	0x2
 1803 06e3 23       		.byte	0x23
 1804 06e4 18       		.uleb128 0x18
 1805 06e5 0C       		.uleb128 0xc
 1806 06e6 61646300 		.ascii	"adc\000"
 1807 06ea 0C       		.byte	0xc
 1808 06eb 2A01     		.2byte	0x12a
ARM GAS  C:\Users\DNIEL~1\AppData\Local\Temp\ccvEjOxs.s 			page 33


 1809 06ed 4E080000 		.4byte	0x84e
 1810 06f1 02       		.byte	0x2
 1811 06f2 23       		.byte	0x23
 1812 06f3 28       		.uleb128 0x28
 1813 06f4 12       		.uleb128 0x12
 1814 06f5 23010000 		.4byte	.LASF103
 1815 06f9 0C       		.byte	0xc
 1816 06fa 2E01     		.2byte	0x12e
 1817 06fc 54080000 		.4byte	0x854
 1818 0700 02       		.byte	0x2
 1819 0701 23       		.byte	0x23
 1820 0702 2C       		.uleb128 0x2c
 1821 0703 12       		.uleb128 0x12
 1822 0704 1C000000 		.4byte	.LASF104
 1823 0708 0C       		.byte	0xc
 1824 0709 3201     		.2byte	0x132
 1825 070b 91000000 		.4byte	0x91
 1826 070f 02       		.byte	0x2
 1827 0710 23       		.byte	0x23
 1828 0711 30       		.uleb128 0x30
 1829 0712 00       		.byte	0x0
 1830 0713 03       		.uleb128 0x3
 1831 0714 A3010000 		.4byte	.LASF105
 1832 0718 0C       		.byte	0xc
 1833 0719 A4       		.byte	0xa4
 1834 071a 1E070000 		.4byte	0x71e
 1835 071e 09       		.uleb128 0x9
 1836 071f 04       		.byte	0x4
 1837 0720 24070000 		.4byte	0x724
 1838 0724 16       		.uleb128 0x16
 1839 0725 01       		.byte	0x1
 1840 0726 3A070000 		.4byte	0x73a
 1841 072a 17       		.uleb128 0x17
 1842 072b 3A070000 		.4byte	0x73a
 1843 072f 17       		.uleb128 0x17
 1844 0730 40070000 		.4byte	0x740
 1845 0734 17       		.uleb128 0x17
 1846 0735 30000000 		.4byte	0x30
 1847 0739 00       		.byte	0x0
 1848 073a 09       		.uleb128 0x9
 1849 073b 04       		.byte	0x4
 1850 073c 65060000 		.4byte	0x665
 1851 0740 09       		.uleb128 0x9
 1852 0741 04       		.byte	0x4
 1853 0742 35060000 		.4byte	0x635
 1854 0746 03       		.uleb128 0x3
 1855 0747 55010000 		.4byte	.LASF106
 1856 074b 0C       		.byte	0xc
 1857 074c AD       		.byte	0xad
 1858 074d 51070000 		.4byte	0x751
 1859 0751 09       		.uleb128 0x9
 1860 0752 04       		.byte	0x4
 1861 0753 57070000 		.4byte	0x757
 1862 0757 16       		.uleb128 0x16
 1863 0758 01       		.byte	0x1
 1864 0759 68070000 		.4byte	0x768
 1865 075d 17       		.uleb128 0x17
ARM GAS  C:\Users\DNIEL~1\AppData\Local\Temp\ccvEjOxs.s 			page 34


 1866 075e 3A070000 		.4byte	0x73a
 1867 0762 17       		.uleb128 0x17
 1868 0763 5A060000 		.4byte	0x65a
 1869 0767 00       		.byte	0x0
 1870 0768 08       		.uleb128 0x8
 1871 0769 28       		.byte	0x28
 1872 076a 0C       		.byte	0xc
 1873 076b B7       		.byte	0xb7
 1874 076c 0B080000 		.4byte	0x80b
 1875 0770 06       		.uleb128 0x6
 1876 0771 30010000 		.4byte	.LASF107
 1877 0775 0C       		.byte	0xc
 1878 0776 BB       		.byte	0xbb
 1879 0777 B1000000 		.4byte	0xb1
 1880 077b 02       		.byte	0x2
 1881 077c 23       		.byte	0x23
 1882 077d 00       		.uleb128 0x0
 1883 077e 06       		.uleb128 0x6
 1884 077f A7020000 		.4byte	.LASF108
 1885 0783 0C       		.byte	0xc
 1886 0784 BF       		.byte	0xbf
 1887 0785 40060000 		.4byte	0x640
 1888 0789 02       		.byte	0x2
 1889 078a 23       		.byte	0x23
 1890 078b 02       		.uleb128 0x2
 1891 078c 06       		.uleb128 0x6
 1892 078d 9C010000 		.4byte	.LASF109
 1893 0791 0C       		.byte	0xc
 1894 0792 C3       		.byte	0xc3
 1895 0793 13070000 		.4byte	0x713
 1896 0797 02       		.byte	0x2
 1897 0798 23       		.byte	0x23
 1898 0799 04       		.uleb128 0x4
 1899 079a 06       		.uleb128 0x6
 1900 079b F0030000 		.4byte	.LASF110
 1901 079f 0C       		.byte	0xc
 1902 07a0 C7       		.byte	0xc7
 1903 07a1 46070000 		.4byte	0x746
 1904 07a5 02       		.byte	0x2
 1905 07a6 23       		.byte	0x23
 1906 07a7 08       		.uleb128 0x8
 1907 07a8 07       		.uleb128 0x7
 1908 07a9 63723100 		.ascii	"cr1\000"
 1909 07ad 0C       		.byte	0xc
 1910 07ae CE       		.byte	0xce
 1911 07af 91000000 		.4byte	0x91
 1912 07b3 02       		.byte	0x2
 1913 07b4 23       		.byte	0x23
 1914 07b5 0C       		.uleb128 0xc
 1915 07b6 07       		.uleb128 0x7
 1916 07b7 63723200 		.ascii	"cr2\000"
 1917 07bb 0C       		.byte	0xc
 1918 07bc D5       		.byte	0xd5
 1919 07bd 91000000 		.4byte	0x91
 1920 07c1 02       		.byte	0x2
 1921 07c2 23       		.byte	0x23
 1922 07c3 10       		.uleb128 0x10
ARM GAS  C:\Users\DNIEL~1\AppData\Local\Temp\ccvEjOxs.s 			page 35


 1923 07c4 06       		.uleb128 0x6
 1924 07c5 76040000 		.4byte	.LASF111
 1925 07c9 0C       		.byte	0xc
 1926 07ca DB       		.byte	0xdb
 1927 07cb 91000000 		.4byte	0x91
 1928 07cf 02       		.byte	0x2
 1929 07d0 23       		.byte	0x23
 1930 07d1 14       		.uleb128 0x14
 1931 07d2 06       		.uleb128 0x6
 1932 07d3 F7040000 		.4byte	.LASF112
 1933 07d7 0C       		.byte	0xc
 1934 07d8 E1       		.byte	0xe1
 1935 07d9 91000000 		.4byte	0x91
 1936 07dd 02       		.byte	0x2
 1937 07de 23       		.byte	0x23
 1938 07df 18       		.uleb128 0x18
 1939 07e0 06       		.uleb128 0x6
 1940 07e1 9A040000 		.4byte	.LASF113
 1941 07e5 0C       		.byte	0xc
 1942 07e6 E6       		.byte	0xe6
 1943 07e7 91000000 		.4byte	0x91
 1944 07eb 02       		.byte	0x2
 1945 07ec 23       		.byte	0x23
 1946 07ed 1C       		.uleb128 0x1c
 1947 07ee 06       		.uleb128 0x6
 1948 07ef 9F040000 		.4byte	.LASF114
 1949 07f3 0C       		.byte	0xc
 1950 07f4 EB       		.byte	0xeb
 1951 07f5 91000000 		.4byte	0x91
 1952 07f9 02       		.byte	0x2
 1953 07fa 23       		.byte	0x23
 1954 07fb 20       		.uleb128 0x20
 1955 07fc 06       		.uleb128 0x6
 1956 07fd A4040000 		.4byte	.LASF115
 1957 0801 0C       		.byte	0xc
 1958 0802 F0       		.byte	0xf0
 1959 0803 91000000 		.4byte	0x91
 1960 0807 02       		.byte	0x2
 1961 0808 23       		.byte	0x23
 1962 0809 24       		.uleb128 0x24
 1963 080a 00       		.byte	0x0
 1964 080b 03       		.uleb128 0x3
 1965 080c 05050000 		.4byte	.LASF116
 1966 0810 0C       		.byte	0xc
 1967 0811 F1       		.byte	0xf1
 1968 0812 68070000 		.4byte	0x768
 1969 0816 08       		.uleb128 0x8
 1970 0817 04       		.byte	0x4
 1971 0818 0C       		.byte	0xc
 1972 0819 F7       		.byte	0xf7
 1973 081a 2D080000 		.4byte	0x82d
 1974 081e 06       		.uleb128 0x6
 1975 081f 57040000 		.4byte	.LASF117
 1976 0823 0C       		.byte	0xc
 1977 0824 F8       		.byte	0xf8
 1978 0825 91000000 		.4byte	0x91
 1979 0829 02       		.byte	0x2
ARM GAS  C:\Users\DNIEL~1\AppData\Local\Temp\ccvEjOxs.s 			page 36


 1980 082a 23       		.byte	0x23
 1981 082b 00       		.uleb128 0x0
 1982 082c 00       		.byte	0x0
 1983 082d 03       		.uleb128 0x3
 1984 082e 6C040000 		.4byte	.LASF118
 1985 0832 0C       		.byte	0xc
 1986 0833 F9       		.byte	0xf9
 1987 0834 16080000 		.4byte	0x816
 1988 0838 09       		.uleb128 0x9
 1989 0839 04       		.byte	0x4
 1990 083a 3E080000 		.4byte	0x83e
 1991 083e 10       		.uleb128 0x10
 1992 083f 2D080000 		.4byte	0x82d
 1993 0843 09       		.uleb128 0x9
 1994 0844 04       		.byte	0x4
 1995 0845 49080000 		.4byte	0x849
 1996 0849 10       		.uleb128 0x10
 1997 084a 0B080000 		.4byte	0x80b
 1998 084e 09       		.uleb128 0x9
 1999 084f 04       		.byte	0x4
 2000 0850 39050000 		.4byte	0x539
 2001 0854 09       		.uleb128 0x9
 2002 0855 04       		.byte	0x4
 2003 0856 5A080000 		.4byte	0x85a
 2004 085a 10       		.uleb128 0x10
 2005 085b F2050000 		.4byte	0x5f2
 2006 085f 18       		.uleb128 0x18
 2007 0860 BD030000 		.4byte	.LASF124
 2008 0864 01       		.byte	0x1
 2009 0865 0D       		.byte	0xd
 2010 0866 0C       		.byte	0xc
 2011 0867 8A080000 		.4byte	0x88a
 2012 086b 15       		.uleb128 0x15
 2013 086c 6A050000 		.4byte	.LASF119
 2014 0870 00       		.sleb128 0
 2015 0871 15       		.uleb128 0x15
 2016 0872 8C000000 		.4byte	.LASF120
 2017 0876 01       		.sleb128 1
 2018 0877 15       		.uleb128 0x15
 2019 0878 CC020000 		.4byte	.LASF121
 2020 087c 02       		.sleb128 2
 2021 087d 15       		.uleb128 0x15
 2022 087e 00000000 		.4byte	.LASF122
 2023 0882 03       		.sleb128 3
 2024 0883 15       		.uleb128 0x15
 2025 0884 DD010000 		.4byte	.LASF123
 2026 0888 04       		.sleb128 4
 2027 0889 00       		.byte	0x0
 2028 088a 18       		.uleb128 0x18
 2029 088b 64030000 		.4byte	.LASF125
 2030 088f 01       		.byte	0x1
 2031 0890 01       		.byte	0x1
 2032 0891 0B       		.byte	0xb
 2033 0892 A3080000 		.4byte	0x8a3
 2034 0896 15       		.uleb128 0x15
 2035 0897 29040000 		.4byte	.LASF126
 2036 089b 00       		.sleb128 0
ARM GAS  C:\Users\DNIEL~1\AppData\Local\Temp\ccvEjOxs.s 			page 37


 2037 089c 15       		.uleb128 0x15
 2038 089d 15040000 		.4byte	.LASF127
 2039 08a1 01       		.sleb128 1
 2040 08a2 00       		.byte	0x0
 2041 08a3 19       		.uleb128 0x19
 2042 08a4 AB000000 		.4byte	.LASF144
 2043 08a8 01       		.byte	0x1
 2044 08a9 A1       		.byte	0xa1
 2045 08aa 01       		.byte	0x1
 2046 08ab 00000000 		.4byte	.LFB60
 2047 08af 02000000 		.4byte	.LFE60
 2048 08b3 02       		.byte	0x2
 2049 08b4 7D       		.byte	0x7d
 2050 08b5 00       		.sleb128 0
 2051 08b6 D5080000 		.4byte	0x8d5
 2052 08ba 1A       		.uleb128 0x1a
 2053 08bb 60050000 		.4byte	.LASF128
 2054 08bf 01       		.byte	0x1
 2055 08c0 A1       		.byte	0xa1
 2056 08c1 3A070000 		.4byte	0x73a
 2057 08c5 01       		.byte	0x1
 2058 08c6 50       		.byte	0x50
 2059 08c7 1B       		.uleb128 0x1b
 2060 08c8 65727200 		.ascii	"err\000"
 2061 08cc 01       		.byte	0x1
 2062 08cd A1       		.byte	0xa1
 2063 08ce 5A060000 		.4byte	0x65a
 2064 08d2 01       		.byte	0x1
 2065 08d3 51       		.byte	0x51
 2066 08d4 00       		.byte	0x0
 2067 08d5 1C       		.uleb128 0x1c
 2068 08d6 01       		.byte	0x1
 2069 08d7 C9000000 		.4byte	.LASF145
 2070 08db 01       		.byte	0x1
 2071 08dc 3C       		.byte	0x3c
 2072 08dd 01       		.byte	0x1
 2073 08de 00000000 		.4byte	.LFB56
 2074 08e2 1C000000 		.4byte	.LFE56
 2075 08e6 00000000 		.4byte	.LLST0
 2076 08ea 1D       		.uleb128 0x1d
 2077 08eb 01       		.byte	0x1
 2078 08ec 86020000 		.4byte	.LASF129
 2079 08f0 01       		.byte	0x1
 2080 08f1 7F       		.byte	0x7f
 2081 08f2 01       		.byte	0x1
 2082 08f3 5B000000 		.4byte	0x5b
 2083 08f7 00000000 		.4byte	.LFB58
 2084 08fb 0C000000 		.4byte	.LFE58
 2085 08ff 02       		.byte	0x2
 2086 0900 7D       		.byte	0x7d
 2087 0901 00       		.sleb128 0
 2088 0902 15090000 		.4byte	0x915
 2089 0906 1E       		.uleb128 0x1e
 2090 0907 636800   		.ascii	"ch\000"
 2091 090a 01       		.byte	0x1
 2092 090b 7F       		.byte	0x7f
 2093 090c 5F080000 		.4byte	0x85f
ARM GAS  C:\Users\DNIEL~1\AppData\Local\Temp\ccvEjOxs.s 			page 38


 2094 0910 20000000 		.4byte	.LLST1
 2095 0914 00       		.byte	0x0
 2096 0915 1F       		.uleb128 0x1f
 2097 0916 01       		.byte	0x1
 2098 0917 34040000 		.4byte	.LASF130
 2099 091b 01       		.byte	0x1
 2100 091c 83       		.byte	0x83
 2101 091d 01       		.byte	0x1
 2102 091e 5B000000 		.4byte	0x5b
 2103 0922 00000000 		.4byte	.LFB59
 2104 0926 88000000 		.4byte	.LFE59
 2105 092a 33000000 		.4byte	.LLST2
 2106 092e 7C090000 		.4byte	0x97c
 2107 0932 20       		.uleb128 0x20
 2108 0933 BE040000 		.4byte	.LASF131
 2109 0937 01       		.byte	0x1
 2110 0938 83       		.byte	0x83
 2111 0939 35060000 		.4byte	0x635
 2112 093d 53000000 		.4byte	.LLST3
 2113 0941 21       		.uleb128 0x21
 2114 0942 F0010000 		.4byte	.LASF132
 2115 0946 01       		.byte	0x1
 2116 0947 84       		.byte	0x84
 2117 0948 5B000000 		.4byte	0x5b
 2118 094c 87000000 		.4byte	.LLST4
 2119 0950 21       		.uleb128 0x21
 2120 0951 65050000 		.4byte	.LASF133
 2121 0955 01       		.byte	0x1
 2122 0956 85       		.byte	0x85
 2123 0957 35060000 		.4byte	0x635
 2124 095b C9000000 		.4byte	.LLST5
 2125 095f 21       		.uleb128 0x21
 2126 0960 D9000000 		.4byte	.LASF134
 2127 0964 01       		.byte	0x1
 2128 0965 85       		.byte	0x85
 2129 0966 35060000 		.4byte	0x635
 2130 096a ED000000 		.4byte	.LLST6
 2131 096e 22       		.uleb128 0x22
 2132 096f 6900     		.ascii	"i\000"
 2133 0971 01       		.byte	0x1
 2134 0972 86       		.byte	0x86
 2135 0973 29000000 		.4byte	0x29
 2136 0977 3D010000 		.4byte	.LLST7
 2137 097b 00       		.byte	0x0
 2138 097c 23       		.uleb128 0x23
 2139 097d 01       		.byte	0x1
 2140 097e DE020000 		.4byte	.LASF146
 2141 0982 01       		.byte	0x1
 2142 0983 45       		.byte	0x45
 2143 0984 01       		.byte	0x1
 2144 0985 00000000 		.4byte	.LFB57
 2145 0989 5C010000 		.4byte	.LFE57
 2146 098d 5D010000 		.4byte	.LLST8
 2147 0991 CB090000 		.4byte	0x9cb
 2148 0995 22       		.uleb128 0x22
 2149 0996 636800   		.ascii	"ch\000"
 2150 0999 01       		.byte	0x1
ARM GAS  C:\Users\DNIEL~1\AppData\Local\Temp\ccvEjOxs.s 			page 39


 2151 099a 46       		.byte	0x46
 2152 099b 29000000 		.4byte	0x29
 2153 099f 7D010000 		.4byte	.LLST9
 2154 09a3 22       		.uleb128 0x22
 2155 09a4 61766700 		.ascii	"avg\000"
 2156 09a8 01       		.byte	0x1
 2157 09a9 47       		.byte	0x47
 2158 09aa 29000000 		.4byte	0x29
 2159 09ae B5010000 		.4byte	.LLST10
 2160 09b2 22       		.uleb128 0x22
 2161 09b3 6900     		.ascii	"i\000"
 2162 09b5 01       		.byte	0x1
 2163 09b6 47       		.byte	0x47
 2164 09b7 29000000 		.4byte	0x29
 2165 09bb 67020000 		.4byte	.LLST11
 2166 09bf 24       		.uleb128 0x24
 2167 09c0 18020000 		.4byte	.LASF147
 2168 09c4 01       		.byte	0x1
 2169 09c5 47       		.byte	0x47
 2170 09c6 29000000 		.4byte	0x29
 2171 09ca 00       		.byte	0x0
 2172 09cb 25       		.uleb128 0x25
 2173 09cc BC000000 		.4byte	.LASF135
 2174 09d0 0E       		.byte	0xe
 2175 09d1 0706     		.2byte	0x607
 2176 09d3 00040000 		.4byte	0x400
 2177 09d7 01       		.byte	0x1
 2178 09d8 01       		.byte	0x1
 2179 09d9 25       		.uleb128 0x25
 2180 09da 66040000 		.4byte	.LASF136
 2181 09de 0C       		.byte	0xc
 2182 09df 7601     		.2byte	0x176
 2183 09e1 65060000 		.4byte	0x665
 2184 09e5 01       		.byte	0x1
 2185 09e6 01       		.byte	0x1
 2186 09e7 26       		.uleb128 0x26
 2187 09e8 70020000 		.4byte	.LASF137
 2188 09ec 01       		.byte	0x1
 2189 09ed 0F       		.byte	0xf
 2190 09ee 8A080000 		.4byte	0x88a
 2191 09f2 01       		.byte	0x1
 2192 09f3 01       		.byte	0x1
 2193 09f4 27       		.uleb128 0x27
 2194 09f5 35060000 		.4byte	0x635
 2195 09f9 040A0000 		.4byte	0xa04
 2196 09fd 28       		.uleb128 0x28
 2197 09fe 3B000000 		.4byte	0x3b
 2198 0a02 2A       		.byte	0x2a
 2199 0a03 00       		.byte	0x0
 2200 0a04 26       		.uleb128 0x26
 2201 0a05 BD010000 		.4byte	.LASF138
 2202 0a09 01       		.byte	0x1
 2203 0a0a 17       		.byte	0x17
 2204 0a0b 110A0000 		.4byte	0xa11
 2205 0a0f 01       		.byte	0x1
 2206 0a10 01       		.byte	0x1
 2207 0a11 10       		.uleb128 0x10
ARM GAS  C:\Users\DNIEL~1\AppData\Local\Temp\ccvEjOxs.s 			page 40


 2208 0a12 F4090000 		.4byte	0x9f4
 2209 0a16 27       		.uleb128 0x27
 2210 0a17 7F000000 		.4byte	0x7f
 2211 0a1b 260A0000 		.4byte	0xa26
 2212 0a1f 28       		.uleb128 0x28
 2213 0a20 3B000000 		.4byte	0x3b
 2214 0a24 05       		.byte	0x5
 2215 0a25 00       		.byte	0x0
 2216 0a26 29       		.uleb128 0x29
 2217 0a27 91030000 		.4byte	.LASF139
 2218 0a2b 01       		.byte	0x1
 2219 0a2c 1F       		.byte	0x1f
 2220 0a2d 160A0000 		.4byte	0xa16
 2221 0a31 05       		.byte	0x5
 2222 0a32 03       		.byte	0x3
 2223 0a33 00000000 		.4byte	measValue
 2224 0a37 27       		.uleb128 0x27
 2225 0a38 35060000 		.4byte	0x635
 2226 0a3c 470A0000 		.4byte	0xa47
 2227 0a40 28       		.uleb128 0x28
 2228 0a41 3B000000 		.4byte	0x3b
 2229 0a45 1F       		.byte	0x1f
 2230 0a46 00       		.byte	0x0
 2231 0a47 29       		.uleb128 0x29
 2232 0a48 FE020000 		.4byte	.LASF98
 2233 0a4c 01       		.byte	0x1
 2234 0a4d 20       		.byte	0x20
 2235 0a4e 370A0000 		.4byte	0xa37
 2236 0a52 05       		.byte	0x5
 2237 0a53 03       		.byte	0x3
 2238 0a54 00000000 		.4byte	samples
 2239 0a58 29       		.uleb128 0x29
 2240 0a59 CF040000 		.4byte	.LASF140
 2241 0a5d 01       		.byte	0x1
 2242 0a5e 2C       		.byte	0x2c
 2243 0a5f 49080000 		.4byte	0x849
 2244 0a63 05       		.byte	0x5
 2245 0a64 03       		.byte	0x3
 2246 0a65 00000000 		.4byte	adcgrpcfg
 2247 0a69 25       		.uleb128 0x25
 2248 0a6a BC000000 		.4byte	.LASF135
 2249 0a6e 0E       		.byte	0xe
 2250 0a6f 0706     		.2byte	0x607
 2251 0a71 00040000 		.4byte	0x400
 2252 0a75 01       		.byte	0x1
 2253 0a76 01       		.byte	0x1
 2254 0a77 25       		.uleb128 0x25
 2255 0a78 66040000 		.4byte	.LASF136
 2256 0a7c 0C       		.byte	0xc
 2257 0a7d 7601     		.2byte	0x176
 2258 0a7f 65060000 		.4byte	0x665
 2259 0a83 01       		.byte	0x1
 2260 0a84 01       		.byte	0x1
 2261 0a85 2A       		.uleb128 0x2a
 2262 0a86 70020000 		.4byte	.LASF137
 2263 0a8a 01       		.byte	0x1
 2264 0a8b 0F       		.byte	0xf
ARM GAS  C:\Users\DNIEL~1\AppData\Local\Temp\ccvEjOxs.s 			page 41


 2265 0a8c 8A080000 		.4byte	0x88a
 2266 0a90 01       		.byte	0x1
 2267 0a91 05       		.byte	0x5
 2268 0a92 03       		.byte	0x3
 2269 0a93 00000000 		.4byte	measstate
 2270 0a97 2A       		.uleb128 0x2a
 2271 0a98 BD010000 		.4byte	.LASF138
 2272 0a9c 01       		.byte	0x1
 2273 0a9d 17       		.byte	0x17
 2274 0a9e A90A0000 		.4byte	0xaa9
 2275 0aa2 01       		.byte	0x1
 2276 0aa3 05       		.byte	0x5
 2277 0aa4 03       		.byte	0x3
 2278 0aa5 00000000 		.4byte	measNTCcalib
 2279 0aa9 10       		.uleb128 0x10
 2280 0aaa F4090000 		.4byte	0x9f4
 2281 0aae 00       		.byte	0x0
 2282              		.section	.debug_abbrev
 2283 0000 01       		.uleb128 0x1
 2284 0001 11       		.uleb128 0x11
 2285 0002 01       		.byte	0x1
 2286 0003 25       		.uleb128 0x25
 2287 0004 0E       		.uleb128 0xe
 2288 0005 13       		.uleb128 0x13
 2289 0006 0B       		.uleb128 0xb
 2290 0007 03       		.uleb128 0x3
 2291 0008 0E       		.uleb128 0xe
 2292 0009 1B       		.uleb128 0x1b
 2293 000a 0E       		.uleb128 0xe
 2294 000b 11       		.uleb128 0x11
 2295 000c 01       		.uleb128 0x1
 2296 000d 52       		.uleb128 0x52
 2297 000e 01       		.uleb128 0x1
 2298 000f 55       		.uleb128 0x55
 2299 0010 06       		.uleb128 0x6
 2300 0011 10       		.uleb128 0x10
 2301 0012 06       		.uleb128 0x6
 2302 0013 00       		.byte	0x0
 2303 0014 00       		.byte	0x0
 2304 0015 02       		.uleb128 0x2
 2305 0016 24       		.uleb128 0x24
 2306 0017 00       		.byte	0x0
 2307 0018 0B       		.uleb128 0xb
 2308 0019 0B       		.uleb128 0xb
 2309 001a 3E       		.uleb128 0x3e
 2310 001b 0B       		.uleb128 0xb
 2311 001c 03       		.uleb128 0x3
 2312 001d 08       		.uleb128 0x8
 2313 001e 00       		.byte	0x0
 2314 001f 00       		.byte	0x0
 2315 0020 03       		.uleb128 0x3
 2316 0021 16       		.uleb128 0x16
 2317 0022 00       		.byte	0x0
 2318 0023 03       		.uleb128 0x3
 2319 0024 0E       		.uleb128 0xe
 2320 0025 3A       		.uleb128 0x3a
 2321 0026 0B       		.uleb128 0xb
ARM GAS  C:\Users\DNIEL~1\AppData\Local\Temp\ccvEjOxs.s 			page 42


 2322 0027 3B       		.uleb128 0x3b
 2323 0028 0B       		.uleb128 0xb
 2324 0029 49       		.uleb128 0x49
 2325 002a 13       		.uleb128 0x13
 2326 002b 00       		.byte	0x0
 2327 002c 00       		.byte	0x0
 2328 002d 04       		.uleb128 0x4
 2329 002e 24       		.uleb128 0x24
 2330 002f 00       		.byte	0x0
 2331 0030 0B       		.uleb128 0xb
 2332 0031 0B       		.uleb128 0xb
 2333 0032 3E       		.uleb128 0x3e
 2334 0033 0B       		.uleb128 0xb
 2335 0034 03       		.uleb128 0x3
 2336 0035 0E       		.uleb128 0xe
 2337 0036 00       		.byte	0x0
 2338 0037 00       		.byte	0x0
 2339 0038 05       		.uleb128 0x5
 2340 0039 13       		.uleb128 0x13
 2341 003a 01       		.byte	0x1
 2342 003b 03       		.uleb128 0x3
 2343 003c 0E       		.uleb128 0xe
 2344 003d 0B       		.uleb128 0xb
 2345 003e 0B       		.uleb128 0xb
 2346 003f 3A       		.uleb128 0x3a
 2347 0040 0B       		.uleb128 0xb
 2348 0041 3B       		.uleb128 0x3b
 2349 0042 0B       		.uleb128 0xb
 2350 0043 01       		.uleb128 0x1
 2351 0044 13       		.uleb128 0x13
 2352 0045 00       		.byte	0x0
 2353 0046 00       		.byte	0x0
 2354 0047 06       		.uleb128 0x6
 2355 0048 0D       		.uleb128 0xd
 2356 0049 00       		.byte	0x0
 2357 004a 03       		.uleb128 0x3
 2358 004b 0E       		.uleb128 0xe
 2359 004c 3A       		.uleb128 0x3a
 2360 004d 0B       		.uleb128 0xb
 2361 004e 3B       		.uleb128 0x3b
 2362 004f 0B       		.uleb128 0xb
 2363 0050 49       		.uleb128 0x49
 2364 0051 13       		.uleb128 0x13
 2365 0052 38       		.uleb128 0x38
 2366 0053 0A       		.uleb128 0xa
 2367 0054 00       		.byte	0x0
 2368 0055 00       		.byte	0x0
 2369 0056 07       		.uleb128 0x7
 2370 0057 0D       		.uleb128 0xd
 2371 0058 00       		.byte	0x0
 2372 0059 03       		.uleb128 0x3
 2373 005a 08       		.uleb128 0x8
 2374 005b 3A       		.uleb128 0x3a
 2375 005c 0B       		.uleb128 0xb
 2376 005d 3B       		.uleb128 0x3b
 2377 005e 0B       		.uleb128 0xb
 2378 005f 49       		.uleb128 0x49
ARM GAS  C:\Users\DNIEL~1\AppData\Local\Temp\ccvEjOxs.s 			page 43


 2379 0060 13       		.uleb128 0x13
 2380 0061 38       		.uleb128 0x38
 2381 0062 0A       		.uleb128 0xa
 2382 0063 00       		.byte	0x0
 2383 0064 00       		.byte	0x0
 2384 0065 08       		.uleb128 0x8
 2385 0066 13       		.uleb128 0x13
 2386 0067 01       		.byte	0x1
 2387 0068 0B       		.uleb128 0xb
 2388 0069 0B       		.uleb128 0xb
 2389 006a 3A       		.uleb128 0x3a
 2390 006b 0B       		.uleb128 0xb
 2391 006c 3B       		.uleb128 0x3b
 2392 006d 0B       		.uleb128 0xb
 2393 006e 01       		.uleb128 0x1
 2394 006f 13       		.uleb128 0x13
 2395 0070 00       		.byte	0x0
 2396 0071 00       		.byte	0x0
 2397 0072 09       		.uleb128 0x9
 2398 0073 0F       		.uleb128 0xf
 2399 0074 00       		.byte	0x0
 2400 0075 0B       		.uleb128 0xb
 2401 0076 0B       		.uleb128 0xb
 2402 0077 49       		.uleb128 0x49
 2403 0078 13       		.uleb128 0x13
 2404 0079 00       		.byte	0x0
 2405 007a 00       		.byte	0x0
 2406 007b 0A       		.uleb128 0xa
 2407 007c 0F       		.uleb128 0xf
 2408 007d 00       		.byte	0x0
 2409 007e 0B       		.uleb128 0xb
 2410 007f 0B       		.uleb128 0xb
 2411 0080 00       		.byte	0x0
 2412 0081 00       		.byte	0x0
 2413 0082 0B       		.uleb128 0xb
 2414 0083 13       		.uleb128 0x13
 2415 0084 01       		.byte	0x1
 2416 0085 03       		.uleb128 0x3
 2417 0086 0E       		.uleb128 0xe
 2418 0087 0B       		.uleb128 0xb
 2419 0088 0B       		.uleb128 0xb
 2420 0089 3A       		.uleb128 0x3a
 2421 008a 0B       		.uleb128 0xb
 2422 008b 3B       		.uleb128 0x3b
 2423 008c 05       		.uleb128 0x5
 2424 008d 01       		.uleb128 0x1
 2425 008e 13       		.uleb128 0x13
 2426 008f 00       		.byte	0x0
 2427 0090 00       		.byte	0x0
 2428 0091 0C       		.uleb128 0xc
 2429 0092 0D       		.uleb128 0xd
 2430 0093 00       		.byte	0x0
 2431 0094 03       		.uleb128 0x3
 2432 0095 08       		.uleb128 0x8
 2433 0096 3A       		.uleb128 0x3a
 2434 0097 0B       		.uleb128 0xb
 2435 0098 3B       		.uleb128 0x3b
ARM GAS  C:\Users\DNIEL~1\AppData\Local\Temp\ccvEjOxs.s 			page 44


 2436 0099 05       		.uleb128 0x5
 2437 009a 49       		.uleb128 0x49
 2438 009b 13       		.uleb128 0x13
 2439 009c 38       		.uleb128 0x38
 2440 009d 0A       		.uleb128 0xa
 2441 009e 00       		.byte	0x0
 2442 009f 00       		.byte	0x0
 2443 00a0 0D       		.uleb128 0xd
 2444 00a1 35       		.uleb128 0x35
 2445 00a2 00       		.byte	0x0
 2446 00a3 49       		.uleb128 0x49
 2447 00a4 13       		.uleb128 0x13
 2448 00a5 00       		.byte	0x0
 2449 00a6 00       		.byte	0x0
 2450 00a7 0E       		.uleb128 0xe
 2451 00a8 17       		.uleb128 0x17
 2452 00a9 01       		.byte	0x1
 2453 00aa 0B       		.uleb128 0xb
 2454 00ab 0B       		.uleb128 0xb
 2455 00ac 3A       		.uleb128 0x3a
 2456 00ad 0B       		.uleb128 0xb
 2457 00ae 3B       		.uleb128 0x3b
 2458 00af 0B       		.uleb128 0xb
 2459 00b0 01       		.uleb128 0x1
 2460 00b1 13       		.uleb128 0x13
 2461 00b2 00       		.byte	0x0
 2462 00b3 00       		.byte	0x0
 2463 00b4 0F       		.uleb128 0xf
 2464 00b5 0D       		.uleb128 0xd
 2465 00b6 00       		.byte	0x0
 2466 00b7 03       		.uleb128 0x3
 2467 00b8 0E       		.uleb128 0xe
 2468 00b9 3A       		.uleb128 0x3a
 2469 00ba 0B       		.uleb128 0xb
 2470 00bb 3B       		.uleb128 0x3b
 2471 00bc 0B       		.uleb128 0xb
 2472 00bd 49       		.uleb128 0x49
 2473 00be 13       		.uleb128 0x13
 2474 00bf 00       		.byte	0x0
 2475 00c0 00       		.byte	0x0
 2476 00c1 10       		.uleb128 0x10
 2477 00c2 26       		.uleb128 0x26
 2478 00c3 00       		.byte	0x0
 2479 00c4 49       		.uleb128 0x49
 2480 00c5 13       		.uleb128 0x13
 2481 00c6 00       		.byte	0x0
 2482 00c7 00       		.byte	0x0
 2483 00c8 11       		.uleb128 0x11
 2484 00c9 13       		.uleb128 0x13
 2485 00ca 01       		.byte	0x1
 2486 00cb 0B       		.uleb128 0xb
 2487 00cc 0B       		.uleb128 0xb
 2488 00cd 3A       		.uleb128 0x3a
 2489 00ce 0B       		.uleb128 0xb
 2490 00cf 3B       		.uleb128 0x3b
 2491 00d0 05       		.uleb128 0x5
 2492 00d1 01       		.uleb128 0x1
ARM GAS  C:\Users\DNIEL~1\AppData\Local\Temp\ccvEjOxs.s 			page 45


 2493 00d2 13       		.uleb128 0x13
 2494 00d3 00       		.byte	0x0
 2495 00d4 00       		.byte	0x0
 2496 00d5 12       		.uleb128 0x12
 2497 00d6 0D       		.uleb128 0xd
 2498 00d7 00       		.byte	0x0
 2499 00d8 03       		.uleb128 0x3
 2500 00d9 0E       		.uleb128 0xe
 2501 00da 3A       		.uleb128 0x3a
 2502 00db 0B       		.uleb128 0xb
 2503 00dc 3B       		.uleb128 0x3b
 2504 00dd 05       		.uleb128 0x5
 2505 00de 49       		.uleb128 0x49
 2506 00df 13       		.uleb128 0x13
 2507 00e0 38       		.uleb128 0x38
 2508 00e1 0A       		.uleb128 0xa
 2509 00e2 00       		.byte	0x0
 2510 00e3 00       		.byte	0x0
 2511 00e4 13       		.uleb128 0x13
 2512 00e5 16       		.uleb128 0x16
 2513 00e6 00       		.byte	0x0
 2514 00e7 03       		.uleb128 0x3
 2515 00e8 0E       		.uleb128 0xe
 2516 00e9 3A       		.uleb128 0x3a
 2517 00ea 0B       		.uleb128 0xb
 2518 00eb 3B       		.uleb128 0x3b
 2519 00ec 05       		.uleb128 0x5
 2520 00ed 49       		.uleb128 0x49
 2521 00ee 13       		.uleb128 0x13
 2522 00ef 00       		.byte	0x0
 2523 00f0 00       		.byte	0x0
 2524 00f1 14       		.uleb128 0x14
 2525 00f2 04       		.uleb128 0x4
 2526 00f3 01       		.byte	0x1
 2527 00f4 0B       		.uleb128 0xb
 2528 00f5 0B       		.uleb128 0xb
 2529 00f6 3A       		.uleb128 0x3a
 2530 00f7 0B       		.uleb128 0xb
 2531 00f8 3B       		.uleb128 0x3b
 2532 00f9 0B       		.uleb128 0xb
 2533 00fa 01       		.uleb128 0x1
 2534 00fb 13       		.uleb128 0x13
 2535 00fc 00       		.byte	0x0
 2536 00fd 00       		.byte	0x0
 2537 00fe 15       		.uleb128 0x15
 2538 00ff 28       		.uleb128 0x28
 2539 0100 00       		.byte	0x0
 2540 0101 03       		.uleb128 0x3
 2541 0102 0E       		.uleb128 0xe
 2542 0103 1C       		.uleb128 0x1c
 2543 0104 0D       		.uleb128 0xd
 2544 0105 00       		.byte	0x0
 2545 0106 00       		.byte	0x0
 2546 0107 16       		.uleb128 0x16
 2547 0108 15       		.uleb128 0x15
 2548 0109 01       		.byte	0x1
 2549 010a 27       		.uleb128 0x27
ARM GAS  C:\Users\DNIEL~1\AppData\Local\Temp\ccvEjOxs.s 			page 46


 2550 010b 0C       		.uleb128 0xc
 2551 010c 01       		.uleb128 0x1
 2552 010d 13       		.uleb128 0x13
 2553 010e 00       		.byte	0x0
 2554 010f 00       		.byte	0x0
 2555 0110 17       		.uleb128 0x17
 2556 0111 05       		.uleb128 0x5
 2557 0112 00       		.byte	0x0
 2558 0113 49       		.uleb128 0x49
 2559 0114 13       		.uleb128 0x13
 2560 0115 00       		.byte	0x0
 2561 0116 00       		.byte	0x0
 2562 0117 18       		.uleb128 0x18
 2563 0118 04       		.uleb128 0x4
 2564 0119 01       		.byte	0x1
 2565 011a 03       		.uleb128 0x3
 2566 011b 0E       		.uleb128 0xe
 2567 011c 0B       		.uleb128 0xb
 2568 011d 0B       		.uleb128 0xb
 2569 011e 3A       		.uleb128 0x3a
 2570 011f 0B       		.uleb128 0xb
 2571 0120 3B       		.uleb128 0x3b
 2572 0121 0B       		.uleb128 0xb
 2573 0122 01       		.uleb128 0x1
 2574 0123 13       		.uleb128 0x13
 2575 0124 00       		.byte	0x0
 2576 0125 00       		.byte	0x0
 2577 0126 19       		.uleb128 0x19
 2578 0127 2E       		.uleb128 0x2e
 2579 0128 01       		.byte	0x1
 2580 0129 03       		.uleb128 0x3
 2581 012a 0E       		.uleb128 0xe
 2582 012b 3A       		.uleb128 0x3a
 2583 012c 0B       		.uleb128 0xb
 2584 012d 3B       		.uleb128 0x3b
 2585 012e 0B       		.uleb128 0xb
 2586 012f 27       		.uleb128 0x27
 2587 0130 0C       		.uleb128 0xc
 2588 0131 11       		.uleb128 0x11
 2589 0132 01       		.uleb128 0x1
 2590 0133 12       		.uleb128 0x12
 2591 0134 01       		.uleb128 0x1
 2592 0135 40       		.uleb128 0x40
 2593 0136 0A       		.uleb128 0xa
 2594 0137 01       		.uleb128 0x1
 2595 0138 13       		.uleb128 0x13
 2596 0139 00       		.byte	0x0
 2597 013a 00       		.byte	0x0
 2598 013b 1A       		.uleb128 0x1a
 2599 013c 05       		.uleb128 0x5
 2600 013d 00       		.byte	0x0
 2601 013e 03       		.uleb128 0x3
 2602 013f 0E       		.uleb128 0xe
 2603 0140 3A       		.uleb128 0x3a
 2604 0141 0B       		.uleb128 0xb
 2605 0142 3B       		.uleb128 0x3b
 2606 0143 0B       		.uleb128 0xb
ARM GAS  C:\Users\DNIEL~1\AppData\Local\Temp\ccvEjOxs.s 			page 47


 2607 0144 49       		.uleb128 0x49
 2608 0145 13       		.uleb128 0x13
 2609 0146 02       		.uleb128 0x2
 2610 0147 0A       		.uleb128 0xa
 2611 0148 00       		.byte	0x0
 2612 0149 00       		.byte	0x0
 2613 014a 1B       		.uleb128 0x1b
 2614 014b 05       		.uleb128 0x5
 2615 014c 00       		.byte	0x0
 2616 014d 03       		.uleb128 0x3
 2617 014e 08       		.uleb128 0x8
 2618 014f 3A       		.uleb128 0x3a
 2619 0150 0B       		.uleb128 0xb
 2620 0151 3B       		.uleb128 0x3b
 2621 0152 0B       		.uleb128 0xb
 2622 0153 49       		.uleb128 0x49
 2623 0154 13       		.uleb128 0x13
 2624 0155 02       		.uleb128 0x2
 2625 0156 0A       		.uleb128 0xa
 2626 0157 00       		.byte	0x0
 2627 0158 00       		.byte	0x0
 2628 0159 1C       		.uleb128 0x1c
 2629 015a 2E       		.uleb128 0x2e
 2630 015b 00       		.byte	0x0
 2631 015c 3F       		.uleb128 0x3f
 2632 015d 0C       		.uleb128 0xc
 2633 015e 03       		.uleb128 0x3
 2634 015f 0E       		.uleb128 0xe
 2635 0160 3A       		.uleb128 0x3a
 2636 0161 0B       		.uleb128 0xb
 2637 0162 3B       		.uleb128 0x3b
 2638 0163 0B       		.uleb128 0xb
 2639 0164 27       		.uleb128 0x27
 2640 0165 0C       		.uleb128 0xc
 2641 0166 11       		.uleb128 0x11
 2642 0167 01       		.uleb128 0x1
 2643 0168 12       		.uleb128 0x12
 2644 0169 01       		.uleb128 0x1
 2645 016a 40       		.uleb128 0x40
 2646 016b 06       		.uleb128 0x6
 2647 016c 00       		.byte	0x0
 2648 016d 00       		.byte	0x0
 2649 016e 1D       		.uleb128 0x1d
 2650 016f 2E       		.uleb128 0x2e
 2651 0170 01       		.byte	0x1
 2652 0171 3F       		.uleb128 0x3f
 2653 0172 0C       		.uleb128 0xc
 2654 0173 03       		.uleb128 0x3
 2655 0174 0E       		.uleb128 0xe
 2656 0175 3A       		.uleb128 0x3a
 2657 0176 0B       		.uleb128 0xb
 2658 0177 3B       		.uleb128 0x3b
 2659 0178 0B       		.uleb128 0xb
 2660 0179 27       		.uleb128 0x27
 2661 017a 0C       		.uleb128 0xc
 2662 017b 49       		.uleb128 0x49
 2663 017c 13       		.uleb128 0x13
ARM GAS  C:\Users\DNIEL~1\AppData\Local\Temp\ccvEjOxs.s 			page 48


 2664 017d 11       		.uleb128 0x11
 2665 017e 01       		.uleb128 0x1
 2666 017f 12       		.uleb128 0x12
 2667 0180 01       		.uleb128 0x1
 2668 0181 40       		.uleb128 0x40
 2669 0182 0A       		.uleb128 0xa
 2670 0183 01       		.uleb128 0x1
 2671 0184 13       		.uleb128 0x13
 2672 0185 00       		.byte	0x0
 2673 0186 00       		.byte	0x0
 2674 0187 1E       		.uleb128 0x1e
 2675 0188 05       		.uleb128 0x5
 2676 0189 00       		.byte	0x0
 2677 018a 03       		.uleb128 0x3
 2678 018b 08       		.uleb128 0x8
 2679 018c 3A       		.uleb128 0x3a
 2680 018d 0B       		.uleb128 0xb
 2681 018e 3B       		.uleb128 0x3b
 2682 018f 0B       		.uleb128 0xb
 2683 0190 49       		.uleb128 0x49
 2684 0191 13       		.uleb128 0x13
 2685 0192 02       		.uleb128 0x2
 2686 0193 06       		.uleb128 0x6
 2687 0194 00       		.byte	0x0
 2688 0195 00       		.byte	0x0
 2689 0196 1F       		.uleb128 0x1f
 2690 0197 2E       		.uleb128 0x2e
 2691 0198 01       		.byte	0x1
 2692 0199 3F       		.uleb128 0x3f
 2693 019a 0C       		.uleb128 0xc
 2694 019b 03       		.uleb128 0x3
 2695 019c 0E       		.uleb128 0xe
 2696 019d 3A       		.uleb128 0x3a
 2697 019e 0B       		.uleb128 0xb
 2698 019f 3B       		.uleb128 0x3b
 2699 01a0 0B       		.uleb128 0xb
 2700 01a1 27       		.uleb128 0x27
 2701 01a2 0C       		.uleb128 0xc
 2702 01a3 49       		.uleb128 0x49
 2703 01a4 13       		.uleb128 0x13
 2704 01a5 11       		.uleb128 0x11
 2705 01a6 01       		.uleb128 0x1
 2706 01a7 12       		.uleb128 0x12
 2707 01a8 01       		.uleb128 0x1
 2708 01a9 40       		.uleb128 0x40
 2709 01aa 06       		.uleb128 0x6
 2710 01ab 01       		.uleb128 0x1
 2711 01ac 13       		.uleb128 0x13
 2712 01ad 00       		.byte	0x0
 2713 01ae 00       		.byte	0x0
 2714 01af 20       		.uleb128 0x20
 2715 01b0 05       		.uleb128 0x5
 2716 01b1 00       		.byte	0x0
 2717 01b2 03       		.uleb128 0x3
 2718 01b3 0E       		.uleb128 0xe
 2719 01b4 3A       		.uleb128 0x3a
 2720 01b5 0B       		.uleb128 0xb
ARM GAS  C:\Users\DNIEL~1\AppData\Local\Temp\ccvEjOxs.s 			page 49


 2721 01b6 3B       		.uleb128 0x3b
 2722 01b7 0B       		.uleb128 0xb
 2723 01b8 49       		.uleb128 0x49
 2724 01b9 13       		.uleb128 0x13
 2725 01ba 02       		.uleb128 0x2
 2726 01bb 06       		.uleb128 0x6
 2727 01bc 00       		.byte	0x0
 2728 01bd 00       		.byte	0x0
 2729 01be 21       		.uleb128 0x21
 2730 01bf 34       		.uleb128 0x34
 2731 01c0 00       		.byte	0x0
 2732 01c1 03       		.uleb128 0x3
 2733 01c2 0E       		.uleb128 0xe
 2734 01c3 3A       		.uleb128 0x3a
 2735 01c4 0B       		.uleb128 0xb
 2736 01c5 3B       		.uleb128 0x3b
 2737 01c6 0B       		.uleb128 0xb
 2738 01c7 49       		.uleb128 0x49
 2739 01c8 13       		.uleb128 0x13
 2740 01c9 02       		.uleb128 0x2
 2741 01ca 06       		.uleb128 0x6
 2742 01cb 00       		.byte	0x0
 2743 01cc 00       		.byte	0x0
 2744 01cd 22       		.uleb128 0x22
 2745 01ce 34       		.uleb128 0x34
 2746 01cf 00       		.byte	0x0
 2747 01d0 03       		.uleb128 0x3
 2748 01d1 08       		.uleb128 0x8
 2749 01d2 3A       		.uleb128 0x3a
 2750 01d3 0B       		.uleb128 0xb
 2751 01d4 3B       		.uleb128 0x3b
 2752 01d5 0B       		.uleb128 0xb
 2753 01d6 49       		.uleb128 0x49
 2754 01d7 13       		.uleb128 0x13
 2755 01d8 02       		.uleb128 0x2
 2756 01d9 06       		.uleb128 0x6
 2757 01da 00       		.byte	0x0
 2758 01db 00       		.byte	0x0
 2759 01dc 23       		.uleb128 0x23
 2760 01dd 2E       		.uleb128 0x2e
 2761 01de 01       		.byte	0x1
 2762 01df 3F       		.uleb128 0x3f
 2763 01e0 0C       		.uleb128 0xc
 2764 01e1 03       		.uleb128 0x3
 2765 01e2 0E       		.uleb128 0xe
 2766 01e3 3A       		.uleb128 0x3a
 2767 01e4 0B       		.uleb128 0xb
 2768 01e5 3B       		.uleb128 0x3b
 2769 01e6 0B       		.uleb128 0xb
 2770 01e7 27       		.uleb128 0x27
 2771 01e8 0C       		.uleb128 0xc
 2772 01e9 11       		.uleb128 0x11
 2773 01ea 01       		.uleb128 0x1
 2774 01eb 12       		.uleb128 0x12
 2775 01ec 01       		.uleb128 0x1
 2776 01ed 40       		.uleb128 0x40
 2777 01ee 06       		.uleb128 0x6
ARM GAS  C:\Users\DNIEL~1\AppData\Local\Temp\ccvEjOxs.s 			page 50


 2778 01ef 01       		.uleb128 0x1
 2779 01f0 13       		.uleb128 0x13
 2780 01f1 00       		.byte	0x0
 2781 01f2 00       		.byte	0x0
 2782 01f3 24       		.uleb128 0x24
 2783 01f4 34       		.uleb128 0x34
 2784 01f5 00       		.byte	0x0
 2785 01f6 03       		.uleb128 0x3
 2786 01f7 0E       		.uleb128 0xe
 2787 01f8 3A       		.uleb128 0x3a
 2788 01f9 0B       		.uleb128 0xb
 2789 01fa 3B       		.uleb128 0x3b
 2790 01fb 0B       		.uleb128 0xb
 2791 01fc 49       		.uleb128 0x49
 2792 01fd 13       		.uleb128 0x13
 2793 01fe 00       		.byte	0x0
 2794 01ff 00       		.byte	0x0
 2795 0200 25       		.uleb128 0x25
 2796 0201 34       		.uleb128 0x34
 2797 0202 00       		.byte	0x0
 2798 0203 03       		.uleb128 0x3
 2799 0204 0E       		.uleb128 0xe
 2800 0205 3A       		.uleb128 0x3a
 2801 0206 0B       		.uleb128 0xb
 2802 0207 3B       		.uleb128 0x3b
 2803 0208 05       		.uleb128 0x5
 2804 0209 49       		.uleb128 0x49
 2805 020a 13       		.uleb128 0x13
 2806 020b 3F       		.uleb128 0x3f
 2807 020c 0C       		.uleb128 0xc
 2808 020d 3C       		.uleb128 0x3c
 2809 020e 0C       		.uleb128 0xc
 2810 020f 00       		.byte	0x0
 2811 0210 00       		.byte	0x0
 2812 0211 26       		.uleb128 0x26
 2813 0212 34       		.uleb128 0x34
 2814 0213 00       		.byte	0x0
 2815 0214 03       		.uleb128 0x3
 2816 0215 0E       		.uleb128 0xe
 2817 0216 3A       		.uleb128 0x3a
 2818 0217 0B       		.uleb128 0xb
 2819 0218 3B       		.uleb128 0x3b
 2820 0219 0B       		.uleb128 0xb
 2821 021a 49       		.uleb128 0x49
 2822 021b 13       		.uleb128 0x13
 2823 021c 3F       		.uleb128 0x3f
 2824 021d 0C       		.uleb128 0xc
 2825 021e 3C       		.uleb128 0x3c
 2826 021f 0C       		.uleb128 0xc
 2827 0220 00       		.byte	0x0
 2828 0221 00       		.byte	0x0
 2829 0222 27       		.uleb128 0x27
 2830 0223 01       		.uleb128 0x1
 2831 0224 01       		.byte	0x1
 2832 0225 49       		.uleb128 0x49
 2833 0226 13       		.uleb128 0x13
 2834 0227 01       		.uleb128 0x1
ARM GAS  C:\Users\DNIEL~1\AppData\Local\Temp\ccvEjOxs.s 			page 51


 2835 0228 13       		.uleb128 0x13
 2836 0229 00       		.byte	0x0
 2837 022a 00       		.byte	0x0
 2838 022b 28       		.uleb128 0x28
 2839 022c 21       		.uleb128 0x21
 2840 022d 00       		.byte	0x0
 2841 022e 49       		.uleb128 0x49
 2842 022f 13       		.uleb128 0x13
 2843 0230 2F       		.uleb128 0x2f
 2844 0231 0B       		.uleb128 0xb
 2845 0232 00       		.byte	0x0
 2846 0233 00       		.byte	0x0
 2847 0234 29       		.uleb128 0x29
 2848 0235 34       		.uleb128 0x34
 2849 0236 00       		.byte	0x0
 2850 0237 03       		.uleb128 0x3
 2851 0238 0E       		.uleb128 0xe
 2852 0239 3A       		.uleb128 0x3a
 2853 023a 0B       		.uleb128 0xb
 2854 023b 3B       		.uleb128 0x3b
 2855 023c 0B       		.uleb128 0xb
 2856 023d 49       		.uleb128 0x49
 2857 023e 13       		.uleb128 0x13
 2858 023f 02       		.uleb128 0x2
 2859 0240 0A       		.uleb128 0xa
 2860 0241 00       		.byte	0x0
 2861 0242 00       		.byte	0x0
 2862 0243 2A       		.uleb128 0x2a
 2863 0244 34       		.uleb128 0x34
 2864 0245 00       		.byte	0x0
 2865 0246 03       		.uleb128 0x3
 2866 0247 0E       		.uleb128 0xe
 2867 0248 3A       		.uleb128 0x3a
 2868 0249 0B       		.uleb128 0xb
 2869 024a 3B       		.uleb128 0x3b
 2870 024b 0B       		.uleb128 0xb
 2871 024c 49       		.uleb128 0x49
 2872 024d 13       		.uleb128 0x13
 2873 024e 3F       		.uleb128 0x3f
 2874 024f 0C       		.uleb128 0xc
 2875 0250 02       		.uleb128 0x2
 2876 0251 0A       		.uleb128 0xa
 2877 0252 00       		.byte	0x0
 2878 0253 00       		.byte	0x0
 2879 0254 00       		.byte	0x0
 2880              		.section	.debug_pubnames,"",%progbits
 2881 0000 6F000000 		.4byte	0x6f
 2882 0004 0200     		.2byte	0x2
 2883 0006 00000000 		.4byte	.Ldebug_info0
 2884 000a AF0A0000 		.4byte	0xaaf
 2885 000e D5080000 		.4byte	0x8d5
 2886 0012 6D656173 		.ascii	"measInit\000"
 2886      496E6974 
 2886      00
 2887 001b EA080000 		.4byte	0x8ea
 2888 001f 6D656173 		.ascii	"measGetValue\000"
 2888      47657456 
ARM GAS  C:\Users\DNIEL~1\AppData\Local\Temp\ccvEjOxs.s 			page 52


 2888      616C7565 
 2888      00
 2889 002c 15090000 		.4byte	0x915
 2890 0030 6D656173 		.ascii	"measInterpolateNTC\000"
 2890      496E7465 
 2890      72706F6C 
 2890      6174654E 
 2890      544300
 2891 0043 7C090000 		.4byte	0x97c
 2892 0047 6D656173 		.ascii	"measCalc\000"
 2892      43616C63 
 2892      00
 2893 0050 850A0000 		.4byte	0xa85
 2894 0054 6D656173 		.ascii	"measstate\000"
 2894      73746174 
 2894      6500
 2895 005e 970A0000 		.4byte	0xa97
 2896 0062 6D656173 		.ascii	"measNTCcalib\000"
 2896      4E544363 
 2896      616C6962 
 2896      00
 2897 006f 00000000 		.4byte	0x0
 2898              		.section	.debug_pubtypes,"",%progbits
 2899 0000 46020000 		.4byte	0x246
 2900 0004 0200     		.2byte	0x2
 2901 0006 00000000 		.4byte	.Ldebug_info0
 2902 000a AF0A0000 		.4byte	0xaaf
 2903 000e 30000000 		.4byte	0x30
 2904 0012 73697A65 		.ascii	"size_t\000"
 2904      5F7400
 2905 0019 49000000 		.4byte	0x49
 2906 001d 75696E74 		.ascii	"uint8_t\000"
 2906      385F7400 
 2907 0025 5B000000 		.4byte	0x5b
 2908 0029 696E7431 		.ascii	"int16_t\000"
 2908      365F7400 
 2909 0031 6D000000 		.4byte	0x6d
 2910 0035 75696E74 		.ascii	"uint16_t\000"
 2910      31365F74 
 2910      00
 2911 003e 7F000000 		.4byte	0x7f
 2912 0042 696E7433 		.ascii	"int32_t\000"
 2912      325F7400 
 2913 004a 91000000 		.4byte	0x91
 2914 004e 75696E74 		.ascii	"uint32_t\000"
 2914      33325F74 
 2914      00
 2915 0057 B1000000 		.4byte	0xb1
 2916 005b 626F6F6C 		.ascii	"bool_t\000"
 2916      5F7400
 2917 0062 C3000000 		.4byte	0xc3
 2918 0066 746D6F64 		.ascii	"tmode_t\000"
 2918      655F7400 
 2919 006e CE000000 		.4byte	0xce
 2920 0072 74737461 		.ascii	"tstate_t\000"
 2920      74655F74 
 2920      00
ARM GAS  C:\Users\DNIEL~1\AppData\Local\Temp\ccvEjOxs.s 			page 53


 2921 007b D9000000 		.4byte	0xd9
 2922 007f 74726566 		.ascii	"trefs_t\000"
 2922      735F7400 
 2923 0087 E4000000 		.4byte	0xe4
 2924 008b 74736C69 		.ascii	"tslices_t\000"
 2924      6365735F 
 2924      7400
 2925 0095 EF000000 		.4byte	0xef
 2926 0099 74707269 		.ascii	"tprio_t\000"
 2926      6F5F7400 
 2927 00a1 FA000000 		.4byte	0xfa
 2928 00a5 6D73675F 		.ascii	"msg_t\000"
 2928      7400
 2929 00ab 05010000 		.4byte	0x105
 2930 00af 6576656E 		.ascii	"eventmask_t\000"
 2930      746D6173 
 2930      6B5F7400 
 2931 00bb 10010000 		.4byte	0x110
 2932 00bf 73797374 		.ascii	"systime_t\000"
 2932      696D655F 
 2932      7400
 2933 00c9 1B010000 		.4byte	0x11b
 2934 00cd 54687265 		.ascii	"Thread\000"
 2934      616400
 2935 00d4 76020000 		.4byte	0x276
 2936 00d8 54687265 		.ascii	"ThreadsQueue\000"
 2936      61647351 
 2936      75657565 
 2936      00
 2937 00e5 98020000 		.4byte	0x298
 2938 00e9 54687265 		.ascii	"ThreadsList\000"
 2938      6164734C 
 2938      69737400 
 2939 00f5 A3020000 		.4byte	0x2a3
 2940 00f9 72656761 		.ascii	"regarm_t\000"
 2940      726D5F74 
 2940      00
 2941 0102 B0020000 		.4byte	0x2b0
 2942 0106 696E7463 		.ascii	"intctx\000"
 2942      747800
 2943 010d 3E030000 		.4byte	0x33e
 2944 0111 636F6E74 		.ascii	"context\000"
 2944      65787400 
 2945 0119 6B030000 		.4byte	0x36b
 2946 011d 4D757465 		.ascii	"Mutex\000"
 2946      7800
 2947 0123 A8030000 		.4byte	0x3a8
 2948 0127 4D757465 		.ascii	"Mutex\000"
 2948      7800
 2949 012d 26010000 		.4byte	0x126
 2950 0131 54687265 		.ascii	"Thread\000"
 2950      616400
 2951 0138 39050000 		.4byte	0x539
 2952 013c 4144435F 		.ascii	"ADC_TypeDef\000"
 2952      54797065 
 2952      44656600 
 2953 0148 8B050000 		.4byte	0x58b
ARM GAS  C:\Users\DNIEL~1\AppData\Local\Temp\ccvEjOxs.s 			page 54


 2954 014c 444D415F 		.ascii	"DMA_Channel_TypeDef\000"
 2954      4368616E 
 2954      6E656C5F 
 2954      54797065 
 2954      44656600 
 2955 0160 F2050000 		.4byte	0x5f2
 2956 0164 73746D33 		.ascii	"stm32_dma_stream_t\000"
 2956      325F646D 
 2956      615F7374 
 2956      7265616D 
 2956      5F7400
 2957 0177 2A060000 		.4byte	0x62a
 2958 017b 61646373 		.ascii	"adcstate_t\000"
 2958      74617465 
 2958      5F7400
 2959 0186 35060000 		.4byte	0x635
 2960 018a 61646373 		.ascii	"adcsample_t\000"
 2960      616D706C 
 2960      655F7400 
 2961 0196 40060000 		.4byte	0x640
 2962 019a 6164635F 		.ascii	"adc_channels_num_t\000"
 2962      6368616E 
 2962      6E656C73 
 2962      5F6E756D 
 2962      5F7400
 2963 01ad 5A060000 		.4byte	0x65a
 2964 01b1 61646365 		.ascii	"adcerror_t\000"
 2964      72726F72 
 2964      5F7400
 2965 01bc 65060000 		.4byte	0x665
 2966 01c0 41444344 		.ascii	"ADCDriver\000"
 2966      72697665 
 2966      7200
 2967 01ca 13070000 		.4byte	0x713
 2968 01ce 61646363 		.ascii	"adccallback_t\000"
 2968      616C6C62 
 2968      61636B5F 
 2968      7400
 2969 01dc 46070000 		.4byte	0x746
 2970 01e0 61646365 		.ascii	"adcerrorcallback_t\000"
 2970      72726F72 
 2970      63616C6C 
 2970      6261636B 
 2970      5F7400
 2971 01f3 0B080000 		.4byte	0x80b
 2972 01f7 41444343 		.ascii	"ADCConversionGroup\000"
 2972      6F6E7665 
 2972      7273696F 
 2972      6E47726F 
 2972      757000
 2973 020a 2D080000 		.4byte	0x82d
 2974 020e 41444343 		.ascii	"ADCConfig\000"
 2974      6F6E6669 
 2974      6700
 2975 0218 70060000 		.4byte	0x670
 2976 021c 41444344 		.ascii	"ADCDriver\000"
 2976      72697665 
ARM GAS  C:\Users\DNIEL~1\AppData\Local\Temp\ccvEjOxs.s 			page 55


 2976      7200
 2977 0226 5F080000 		.4byte	0x85f
 2978 022a 6D656173 		.ascii	"measChannels\000"
 2978      4368616E 
 2978      6E656C73 
 2978      00
 2979 0237 8A080000 		.4byte	0x88a
 2980 023b 6D656173 		.ascii	"measStates\000"
 2980      53746174 
 2980      657300
 2981 0246 00000000 		.4byte	0x0
 2982              		.section	.debug_aranges,"",%progbits
 2983 0000 3C000000 		.4byte	0x3c
 2984 0004 0200     		.2byte	0x2
 2985 0006 00000000 		.4byte	.Ldebug_info0
 2986 000a 04       		.byte	0x4
 2987 000b 00       		.byte	0x0
 2988 000c 0000     		.2byte	0x0
 2989 000e 0000     		.2byte	0x0
 2990 0010 00000000 		.4byte	.LFB60
 2991 0014 02000000 		.4byte	.LFE60-.LFB60
 2992 0018 00000000 		.4byte	.LFB56
 2993 001c 1C000000 		.4byte	.LFE56-.LFB56
 2994 0020 00000000 		.4byte	.LFB58
 2995 0024 0C000000 		.4byte	.LFE58-.LFB58
 2996 0028 00000000 		.4byte	.LFB59
 2997 002c 88000000 		.4byte	.LFE59-.LFB59
 2998 0030 00000000 		.4byte	.LFB57
 2999 0034 5C010000 		.4byte	.LFE57-.LFB57
 3000 0038 00000000 		.4byte	0x0
 3001 003c 00000000 		.4byte	0x0
 3002              		.section	.debug_ranges,"",%progbits
 3003              	.Ldebug_ranges0:
 3004 0000 00000000 		.4byte	.LFB60
 3005 0004 02000000 		.4byte	.LFE60
 3006 0008 00000000 		.4byte	.LFB56
 3007 000c 1C000000 		.4byte	.LFE56
 3008 0010 00000000 		.4byte	.LFB58
 3009 0014 0C000000 		.4byte	.LFE58
 3010 0018 00000000 		.4byte	.LFB59
 3011 001c 88000000 		.4byte	.LFE59
 3012 0020 00000000 		.4byte	.LFB57
 3013 0024 5C010000 		.4byte	.LFE57
 3014 0028 00000000 		.4byte	0x0
 3015 002c 00000000 		.4byte	0x0
 3016              		.section	.debug_str,"MS",%progbits,1
 3017              	.LASF122:
 3018 0000 4D454153 		.ascii	"MEAS_OUT_CURR\000"
 3018      5F4F5554 
 3018      5F435552 
 3018      5200
 3019              	.LASF2:
 3020 000e 73697A65 		.ascii	"size_t\000"
 3020      5F7400
 3021              	.LASF54:
 3022 0015 7264796D 		.ascii	"rdymsg\000"
 3022      736700
ARM GAS  C:\Users\DNIEL~1\AppData\Local\Temp\ccvEjOxs.s 			page 56


 3023              	.LASF104:
 3024 001c 646D616D 		.ascii	"dmamode\000"
 3024      6F646500 
 3025              	.LASF90:
 3026 0024 61646373 		.ascii	"adcstate_t\000"
 3026      74617465 
 3026      5F7400
 3027              	.LASF82:
 3028 002f 76656374 		.ascii	"vector\000"
 3028      6F7200
 3029              	.LASF143:
 3030 0036 433A5C44 		.ascii	"C:\\Dani\\MegaLux\\Repo\\LuxControl\\LuxControl\\lu"
 3030      616E695C 
 3030      4D656761 
 3030      4C75785C 
 3030      5265706F 
 3031 0063 78636F6E 		.ascii	"xcontrol\\firmware\000"
 3031      74726F6C 
 3031      5C666972 
 3031      6D776172 
 3031      6500
 3032              	.LASF14:
 3033 0075 6C6F6E67 		.ascii	"long long unsigned int\000"
 3033      206C6F6E 
 3033      6720756E 
 3033      7369676E 
 3033      65642069 
 3034              	.LASF120:
 3035 008c 4D454153 		.ascii	"MEAS_V_OUT\000"
 3035      5F565F4F 
 3035      555400
 3036              	.LASF55:
 3037 0097 65786974 		.ascii	"exitcode\000"
 3037      636F6465 
 3037      00
 3038              	.LASF84:
 3039 00a0 4144435F 		.ascii	"ADC_UNINIT\000"
 3039      554E494E 
 3039      495400
 3040              	.LASF144:
 3041 00ab 61646365 		.ascii	"adcerrorcallback\000"
 3041      72726F72 
 3041      63616C6C 
 3041      6261636B 
 3041      00
 3042              	.LASF135:
 3043 00bc 49544D5F 		.ascii	"ITM_RxBuffer\000"
 3043      52784275 
 3043      66666572 
 3043      00
 3044              	.LASF145:
 3045 00c9 6D656173 		.ascii	"measInit\000"
 3045      496E6974 
 3045      00
 3046              	.LASF28:
 3047 00d2 705F7072 		.ascii	"p_prio\000"
 3047      696F00
ARM GAS  C:\Users\DNIEL~1\AppData\Local\Temp\ccvEjOxs.s 			page 57


 3048              	.LASF134:
 3049 00d9 72696768 		.ascii	"right\000"
 3049      7400
 3050              	.LASF5:
 3051 00df 696E7431 		.ascii	"int16_t\000"
 3051      365F7400 
 3052              	.LASF13:
 3053 00e7 6C6F6E67 		.ascii	"long long int\000"
 3053      206C6F6E 
 3053      6720696E 
 3053      7400
 3054              	.LASF1:
 3055 00f5 7369676E 		.ascii	"signed char\000"
 3055      65642063 
 3055      68617200 
 3056              	.LASF44:
 3057 0101 705F6D70 		.ascii	"p_mpool\000"
 3057      6F6F6C00 
 3058              	.LASF15:
 3059 0109 626F6F6C 		.ascii	"bool_t\000"
 3059      5F7400
 3060              	.LASF51:
 3061 0110 6D5F7175 		.ascii	"m_queue\000"
 3061      65756500 
 3062              	.LASF94:
 3063 0118 61646365 		.ascii	"adcerror_t\000"
 3063      72726F72 
 3063      5F7400
 3064              	.LASF103:
 3065 0123 646D6173 		.ascii	"dmastp\000"
 3065      747000
 3066              	.LASF96:
 3067 012a 73746174 		.ascii	"state\000"
 3067      6500
 3068              	.LASF107:
 3069 0130 63697263 		.ascii	"circular\000"
 3069      756C6172 
 3069      00
 3070              	.LASF10:
 3071 0139 6C6F6E67 		.ascii	"long int\000"
 3071      20696E74 
 3071      00
 3072              	.LASF93:
 3073 0142 4144435F 		.ascii	"ADC_ERR_DMAFAILURE\000"
 3073      4552525F 
 3073      444D4146 
 3073      41494C55 
 3073      524500
 3074              	.LASF106:
 3075 0155 61646365 		.ascii	"adcerrorcallback_t\000"
 3075      72726F72 
 3075      63616C6C 
 3075      6261636B 
 3075      5F7400
 3076              	.LASF18:
 3077 0168 74737461 		.ascii	"tstate_t\000"
 3077      74655F74 
ARM GAS  C:\Users\DNIEL~1\AppData\Local\Temp\ccvEjOxs.s 			page 58


 3077      00
 3078              	.LASF101:
 3079 0171 74687265 		.ascii	"thread\000"
 3079      616400
 3080              	.LASF7:
 3081 0178 75696E74 		.ascii	"uint16_t\000"
 3081      31365F74 
 3081      00
 3082              	.LASF37:
 3083 0181 705F7469 		.ascii	"p_time\000"
 3083      6D6500
 3084              	.LASF73:
 3085 0188 4144435F 		.ascii	"ADC_TypeDef\000"
 3085      54797065 
 3085      44656600 
 3086              	.LASF30:
 3087 0194 705F6E65 		.ascii	"p_newer\000"
 3087      77657200 
 3088              	.LASF109:
 3089 019c 656E645F 		.ascii	"end_cb\000"
 3089      636200
 3090              	.LASF105:
 3091 01a3 61646363 		.ascii	"adccallback_t\000"
 3091      616C6C62 
 3091      61636B5F 
 3091      7400
 3092              	.LASF91:
 3093 01b1 61646373 		.ascii	"adcsample_t\000"
 3093      616D706C 
 3093      655F7400 
 3094              	.LASF138:
 3095 01bd 6D656173 		.ascii	"measNTCcalib\000"
 3095      4E544363 
 3095      616C6962 
 3095      00
 3096              	.LASF47:
 3097 01ca 72656761 		.ascii	"regarm_t\000"
 3097      726D5F74 
 3097      00
 3098              	.LASF81:
 3099 01d3 73656C66 		.ascii	"selfindex\000"
 3099      696E6465 
 3099      7800
 3100              	.LASF123:
 3101 01dd 4D454153 		.ascii	"MEAS_NUM_CH\000"
 3101      5F4E554D 
 3101      5F434800 
 3102              	.LASF25:
 3103 01e9 54687265 		.ascii	"Thread\000"
 3103      616400
 3104              	.LASF132:
 3105 01f0 76616C75 		.ascii	"value\000"
 3105      6500
 3106              	.LASF87:
 3107 01f6 4144435F 		.ascii	"ADC_ACTIVE\000"
 3107      41435449 
 3107      564500
ARM GAS  C:\Users\DNIEL~1\AppData\Local\Temp\ccvEjOxs.s 			page 59


 3108              	.LASF20:
 3109 0201 74736C69 		.ascii	"tslices_t\000"
 3109      6365735F 
 3109      7400
 3110              	.LASF0:
 3111 020b 756E7369 		.ascii	"unsigned int\000"
 3111      676E6564 
 3111      20696E74 
 3111      00
 3112              	.LASF147:
 3113 0218 74786275 		.ascii	"txbuf\000"
 3113      6600
 3114              	.LASF75:
 3115 021e 43504152 		.ascii	"CPAR\000"
 3115      00
 3116              	.LASF39:
 3117 0223 705F6D73 		.ascii	"p_msgqueue\000"
 3117      67717565 
 3117      756500
 3118              	.LASF95:
 3119 022e 41444344 		.ascii	"ADCDriver\000"
 3119      72697665 
 3119      7200
 3120              	.LASF77:
 3121 0238 444D415F 		.ascii	"DMA_Channel_TypeDef\000"
 3121      4368616E 
 3121      6E656C5F 
 3121      54797065 
 3121      44656600 
 3122              	.LASF80:
 3123 024c 69736869 		.ascii	"ishift\000"
 3123      667400
 3124              	.LASF8:
 3125 0253 73686F72 		.ascii	"short unsigned int\000"
 3125      7420756E 
 3125      7369676E 
 3125      65642069 
 3125      6E7400
 3126              	.LASF86:
 3127 0266 4144435F 		.ascii	"ADC_READY\000"
 3127      52454144 
 3127      5900
 3128              	.LASF137:
 3129 0270 6D656173 		.ascii	"measstate\000"
 3129      73746174 
 3129      6500
 3130              	.LASF99:
 3131 027a 64657074 		.ascii	"depth\000"
 3131      6800
 3132              	.LASF22:
 3133 0280 6D73675F 		.ascii	"msg_t\000"
 3133      7400
 3134              	.LASF129:
 3135 0286 6D656173 		.ascii	"measGetValue\000"
 3135      47657456 
 3135      616C7565 
 3135      00
ARM GAS  C:\Users\DNIEL~1\AppData\Local\Temp\ccvEjOxs.s 			page 60


 3136              	.LASF141:
 3137 0293 474E5520 		.ascii	"GNU C 4.5.2\000"
 3137      4320342E 
 3137      352E3200 
 3138              	.LASF17:
 3139 029f 746D6F64 		.ascii	"tmode_t\000"
 3139      655F7400 
 3140              	.LASF108:
 3141 02a7 6E756D5F 		.ascii	"num_channels\000"
 3141      6368616E 
 3141      6E656C73 
 3141      00
 3142              	.LASF46:
 3143 02b4 54687265 		.ascii	"ThreadsList\000"
 3143      6164734C 
 3143      69737400 
 3144              	.LASF23:
 3145 02c0 6576656E 		.ascii	"eventmask_t\000"
 3145      746D6173 
 3145      6B5F7400 
 3146              	.LASF121:
 3147 02cc 4D454153 		.ascii	"MEAS_IN_CURR\000"
 3147      5F494E5F 
 3147      43555252 
 3147      00
 3148              	.LASF76:
 3149 02d9 434D4152 		.ascii	"CMAR\000"
 3149      00
 3150              	.LASF146:
 3151 02de 6D656173 		.ascii	"measCalc\000"
 3151      43616C63 
 3151      00
 3152              	.LASF100:
 3153 02e7 67727070 		.ascii	"grpp\000"
 3153      00
 3154              	.LASF61:
 3155 02ec 4A4F4652 		.ascii	"JOFR1\000"
 3155      3100
 3156              	.LASF62:
 3157 02f2 4A4F4652 		.ascii	"JOFR2\000"
 3157      3200
 3158              	.LASF63:
 3159 02f8 4A4F4652 		.ascii	"JOFR3\000"
 3159      3300
 3160              	.LASF98:
 3161 02fe 73616D70 		.ascii	"samples\000"
 3161      6C657300 
 3162              	.LASF68:
 3163 0306 4A535152 		.ascii	"JSQR\000"
 3163      00
 3164              	.LASF50:
 3165 030b 4D757465 		.ascii	"Mutex\000"
 3165      7800
 3166              	.LASF142:
 3167 0311 7372632F 		.ascii	"src/meas.c\000"
 3167      6D656173 
 3167      2E6300
ARM GAS  C:\Users\DNIEL~1\AppData\Local\Temp\ccvEjOxs.s 			page 61


 3168              	.LASF85:
 3169 031c 4144435F 		.ascii	"ADC_STOP\000"
 3169      53544F50 
 3169      00
 3170              	.LASF31:
 3171 0325 705F6F6C 		.ascii	"p_older\000"
 3171      64657200 
 3172              	.LASF45:
 3173 032d 54687265 		.ascii	"ThreadsQueue\000"
 3173      61647351 
 3173      75657565 
 3173      00
 3174              	.LASF59:
 3175 033a 534D5052 		.ascii	"SMPR1\000"
 3175      3100
 3176              	.LASF60:
 3177 0340 534D5052 		.ascii	"SMPR2\000"
 3177      3200
 3178              	.LASF53:
 3179 0346 6D5F6E65 		.ascii	"m_next\000"
 3179      787400
 3180              	.LASF65:
 3181 034d 53515231 		.ascii	"SQR1\000"
 3181      00
 3182              	.LASF66:
 3183 0352 53515232 		.ascii	"SQR2\000"
 3183      00
 3184              	.LASF67:
 3185 0357 53515233 		.ascii	"SQR3\000"
 3185      00
 3186              	.LASF19:
 3187 035c 74726566 		.ascii	"trefs_t\000"
 3187      735F7400 
 3188              	.LASF125:
 3189 0364 6D656173 		.ascii	"measStates\000"
 3189      53746174 
 3189      657300
 3190              	.LASF27:
 3191 036f 705F7072 		.ascii	"p_prev\000"
 3191      657600
 3192              	.LASF83:
 3193 0376 73746D33 		.ascii	"stm32_dma_stream_t\000"
 3193      325F646D 
 3193      615F7374 
 3193      7265616D 
 3193      5F7400
 3194              	.LASF21:
 3195 0389 74707269 		.ascii	"tprio_t\000"
 3195      6F5F7400 
 3196              	.LASF139:
 3197 0391 6D656173 		.ascii	"measValue\000"
 3197      56616C75 
 3197      6500
 3198              	.LASF102:
 3199 039b 6D757465 		.ascii	"mutex\000"
 3199      7800
 3200              	.LASF16:
ARM GAS  C:\Users\DNIEL~1\AppData\Local\Temp\ccvEjOxs.s 			page 62


 3201 03a1 5F426F6F 		.ascii	"_Bool\000"
 3201      6C00
 3202              	.LASF9:
 3203 03a7 696E7433 		.ascii	"int32_t\000"
 3203      325F7400 
 3204              	.LASF4:
 3205 03af 756E7369 		.ascii	"unsigned char\000"
 3205      676E6564 
 3205      20636861 
 3205      7200
 3206              	.LASF124:
 3207 03bd 6D656173 		.ascii	"measChannels\000"
 3207      4368616E 
 3207      6E656C73 
 3207      00
 3208              	.LASF42:
 3209 03ca 705F6D74 		.ascii	"p_mtxlist\000"
 3209      786C6973 
 3209      7400
 3210              	.LASF6:
 3211 03d4 73686F72 		.ascii	"short int\000"
 3211      7420696E 
 3211      7400
 3212              	.LASF33:
 3213 03de 705F7374 		.ascii	"p_state\000"
 3213      61746500 
 3214              	.LASF36:
 3215 03e6 705F7072 		.ascii	"p_preempt\000"
 3215      65656D70 
 3215      7400
 3216              	.LASF110:
 3217 03f0 6572726F 		.ascii	"error_cb\000"
 3217      725F6362 
 3217      00
 3218              	.LASF57:
 3219 03f9 65776D61 		.ascii	"ewmask\000"
 3219      736B00
 3220              	.LASF26:
 3221 0400 705F6E65 		.ascii	"p_next\000"
 3221      787400
 3222              	.LASF34:
 3223 0407 705F666C 		.ascii	"p_flags\000"
 3223      61677300 
 3224              	.LASF64:
 3225 040f 4A4F4652 		.ascii	"JOFR4\000"
 3225      3400
 3226              	.LASF127:
 3227 0415 4D454153 		.ascii	"MEAS_RUNING\000"
 3227      5F52554E 
 3227      494E4700 
 3228              	.LASF78:
 3229 0421 6368616E 		.ascii	"channel\000"
 3229      6E656C00 
 3230              	.LASF126:
 3231 0429 4D454153 		.ascii	"MEAS_START\000"
 3231      5F535441 
 3231      525400
ARM GAS  C:\Users\DNIEL~1\AppData\Local\Temp\ccvEjOxs.s 			page 63


 3232              	.LASF130:
 3233 0434 6D656173 		.ascii	"measInterpolateNTC\000"
 3233      496E7465 
 3233      72706F6C 
 3233      6174654E 
 3233      544300
 3234              	.LASF41:
 3235 0447 705F6570 		.ascii	"p_epending\000"
 3235      656E6469 
 3235      6E6700
 3236              	.LASF79:
 3237 0452 69666372 		.ascii	"ifcr\000"
 3237      00
 3238              	.LASF117:
 3239 0457 64756D6D 		.ascii	"dummy\000"
 3239      7900
 3240              	.LASF11:
 3241 045d 75696E74 		.ascii	"uint32_t\000"
 3241      33325F74 
 3241      00
 3242              	.LASF136:
 3243 0466 41444344 		.ascii	"ADCD1\000"
 3243      3100
 3244              	.LASF118:
 3245 046c 41444343 		.ascii	"ADCConfig\000"
 3245      6F6E6669 
 3245      6700
 3246              	.LASF111:
 3247 0476 736D7072 		.ascii	"smpr1\000"
 3247      3100
 3248              	.LASF12:
 3249 047c 6C6F6E67 		.ascii	"long unsigned int\000"
 3249      20756E73 
 3249      69676E65 
 3249      6420696E 
 3249      7400
 3250              	.LASF58:
 3251 048e 63686172 		.ascii	"char\000"
 3251      00
 3252              	.LASF97:
 3253 0493 636F6E66 		.ascii	"config\000"
 3253      696700
 3254              	.LASF113:
 3255 049a 73717231 		.ascii	"sqr1\000"
 3255      00
 3256              	.LASF114:
 3257 049f 73717232 		.ascii	"sqr2\000"
 3257      00
 3258              	.LASF115:
 3259 04a4 73717233 		.ascii	"sqr3\000"
 3259      00
 3260              	.LASF24:
 3261 04a9 73797374 		.ascii	"systime_t\000"
 3261      696D655F 
 3261      7400
 3262              	.LASF43:
 3263 04b3 705F7265 		.ascii	"p_realprio\000"
ARM GAS  C:\Users\DNIEL~1\AppData\Local\Temp\ccvEjOxs.s 			page 64


 3263      616C7072 
 3263      696F00
 3264              	.LASF131:
 3265 04be 72617776 		.ascii	"rawvalue\000"
 3265      616C7565 
 3265      00
 3266              	.LASF49:
 3267 04c7 636F6E74 		.ascii	"context\000"
 3267      65787400 
 3268              	.LASF140:
 3269 04cf 61646367 		.ascii	"adcgrpcfg\000"
 3269      72706366 
 3269      6700
 3270              	.LASF48:
 3271 04d9 696E7463 		.ascii	"intctx\000"
 3271      747800
 3272              	.LASF89:
 3273 04e0 4144435F 		.ascii	"ADC_ERROR\000"
 3273      4552524F 
 3273      5200
 3274              	.LASF35:
 3275 04ea 705F7265 		.ascii	"p_refs\000"
 3275      667300
 3276              	.LASF74:
 3277 04f1 434E4454 		.ascii	"CNDTR\000"
 3277      5200
 3278              	.LASF112:
 3279 04f7 736D7072 		.ascii	"smpr2\000"
 3279      3200
 3280              	.LASF3:
 3281 04fd 75696E74 		.ascii	"uint8_t\000"
 3281      385F7400 
 3282              	.LASF116:
 3283 0505 41444343 		.ascii	"ADCConversionGroup\000"
 3283      6F6E7665 
 3283      7273696F 
 3283      6E47726F 
 3283      757000
 3284              	.LASF69:
 3285 0518 4A445231 		.ascii	"JDR1\000"
 3285      00
 3286              	.LASF70:
 3287 051d 4A445232 		.ascii	"JDR2\000"
 3287      00
 3288              	.LASF71:
 3289 0522 4A445233 		.ascii	"JDR3\000"
 3289      00
 3290              	.LASF72:
 3291 0527 4A445234 		.ascii	"JDR4\000"
 3291      00
 3292              	.LASF56:
 3293 052c 77746F62 		.ascii	"wtobjp\000"
 3293      6A7000
 3294              	.LASF88:
 3295 0533 4144435F 		.ascii	"ADC_COMPLETE\000"
 3295      434F4D50 
 3295      4C455445 
ARM GAS  C:\Users\DNIEL~1\AppData\Local\Temp\ccvEjOxs.s 			page 65


 3295      00
 3296              	.LASF32:
 3297 0540 705F6E61 		.ascii	"p_name\000"
 3297      6D6500
 3298              	.LASF92:
 3299 0547 6164635F 		.ascii	"adc_channels_num_t\000"
 3299      6368616E 
 3299      6E656C73 
 3299      5F6E756D 
 3299      5F7400
 3300              	.LASF40:
 3301 055a 705F6D73 		.ascii	"p_msg\000"
 3301      6700
 3302              	.LASF128:
 3303 0560 61646370 		.ascii	"adcp\000"
 3303      00
 3304              	.LASF133:
 3305 0565 6C656674 		.ascii	"left\000"
 3305      00
 3306              	.LASF119:
 3307 056a 4D454153 		.ascii	"MEAS_NTC\000"
 3307      5F4E5443 
 3307      00
 3308              	.LASF52:
 3309 0573 6D5F6F77 		.ascii	"m_owner\000"
 3309      6E657200 
 3310              	.LASF29:
 3311 057b 705F6374 		.ascii	"p_ctx\000"
 3311      7800
 3312              	.LASF38:
 3313 0581 705F7761 		.ascii	"p_waiting\000"
 3313      6974696E 
 3313      6700
 3314              		.ident	"GCC: (Sourcery G++ Lite 2011.03-42) 4.5.2"
ARM GAS  C:\Users\DNIEL~1\AppData\Local\Temp\ccvEjOxs.s 			page 66


DEFINED SYMBOLS
                            *ABS*:00000000 meas.c
C:\Users\DNIEL~1\AppData\Local\Temp\ccvEjOxs.s:24     .text.adcerrorcallback:00000000 $t
C:\Users\DNIEL~1\AppData\Local\Temp\ccvEjOxs.s:29     .text.adcerrorcallback:00000000 adcerrorcallback
C:\Users\DNIEL~1\AppData\Local\Temp\ccvEjOxs.s:44     .text.measInit:00000000 $t
C:\Users\DNIEL~1\AppData\Local\Temp\ccvEjOxs.s:50     .text.measInit:00000000 measInit
C:\Users\DNIEL~1\AppData\Local\Temp\ccvEjOxs.s:74     .text.measInit:00000014 $d
C:\Users\DNIEL~1\AppData\Local\Temp\ccvEjOxs.s:80     .text.measGetValue:00000000 $t
C:\Users\DNIEL~1\AppData\Local\Temp\ccvEjOxs.s:86     .text.measGetValue:00000000 measGetValue
C:\Users\DNIEL~1\AppData\Local\Temp\ccvEjOxs.s:103    .text.measGetValue:00000008 $d
C:\Users\DNIEL~1\AppData\Local\Temp\ccvEjOxs.s:108    .text.measInterpolateNTC:00000000 $t
C:\Users\DNIEL~1\AppData\Local\Temp\ccvEjOxs.s:114    .text.measInterpolateNTC:00000000 measInterpolateNTC
C:\Users\DNIEL~1\AppData\Local\Temp\ccvEjOxs.s:233    .text.measInterpolateNTC:00000084 $d
C:\Users\DNIEL~1\AppData\Local\Temp\ccvEjOxs.s:238    .text.measCalc:00000000 $t
C:\Users\DNIEL~1\AppData\Local\Temp\ccvEjOxs.s:244    .text.measCalc:00000000 measCalc
C:\Users\DNIEL~1\AppData\Local\Temp\ccvEjOxs.s:447    .text.measCalc:00000144 $d
C:\Users\DNIEL~1\AppData\Local\Temp\ccvEjOxs.s:463    .rodata.measNTCcalib:00000000 measNTCcalib
C:\Users\DNIEL~1\AppData\Local\Temp\ccvEjOxs.s:518    .bss.measstate:00000000 measstate
C:\Users\DNIEL~1\AppData\Local\Temp\ccvEjOxs.s:459    .rodata.measNTCcalib:00000000 $d
C:\Users\DNIEL~1\AppData\Local\Temp\ccvEjOxs.s:508    .bss.measValue:00000000 $d
C:\Users\DNIEL~1\AppData\Local\Temp\ccvEjOxs.s:512    .bss.measValue:00000000 measValue
C:\Users\DNIEL~1\AppData\Local\Temp\ccvEjOxs.s:519    .bss.measstate:00000000 $d
C:\Users\DNIEL~1\AppData\Local\Temp\ccvEjOxs.s:521    .rodata.adcgrpcfg:00000000 $d
C:\Users\DNIEL~1\AppData\Local\Temp\ccvEjOxs.s:525    .rodata.adcgrpcfg:00000000 adcgrpcfg
C:\Users\DNIEL~1\AppData\Local\Temp\ccvEjOxs.s:539    .bss.samples:00000000 $d
C:\Users\DNIEL~1\AppData\Local\Temp\ccvEjOxs.s:543    .bss.samples:00000000 samples
                     .debug_frame:00000010 $d
C:\Users\DNIEL~1\AppData\Local\Temp\ccvEjOxs.s:79     .text.measInit:0000001c $t
C:\Users\DNIEL~1\AppData\Local\Temp\ccvEjOxs.s:107    .text.measGetValue:0000000c $t
C:\Users\DNIEL~1\AppData\Local\Temp\ccvEjOxs.s:237    .text.measInterpolateNTC:00000088 $t
C:\Users\DNIEL~1\AppData\Local\Temp\ccvEjOxs.s:458    .text.measCalc:0000015c $t

UNDEFINED SYMBOLS
adcStart
ADCD1
adcConvert
_port_lock
_port_unlock
