ARM GAS  C:\Users\DNIEL~1\AppData\Local\Temp\ccvEjOxs.s 			page 1


   1              		.syntax unified
   2              		.cpu cortex-m3
   3              		.fpu softvfp
   4              		.eabi_attribute 20, 1
   5              		.eabi_attribute 21, 1
   6              		.eabi_attribute 23, 3
   7              		.eabi_attribute 24, 1
   8              		.eabi_attribute 25, 1
   9              		.eabi_attribute 26, 1
  10              		.eabi_attribute 30, 2
  11              		.eabi_attribute 18, 4
  12              		.thumb
  13              		.file	"meas.c"
  20 0000 4C030000 		.text
  20      02007702 
  20      00000201 
  20      FB0E0D00 
  20      01010101 
  21              	.Ltext0:
  22              		.cfi_sections	.debug_frame
  23              		.section	.text.adcerrorcallback,"ax",%progbits
  24              		.align	2
  25              		.p2align 4,,15
  26              		.thumb
  27              		.thumb_func
  28              		.type	adcerrorcallback, %function
  29              	adcerrorcallback:
  30              	.LFB60:
  31              		.file 1 "src/meas.c"
  32              		.loc 1 161 0
  33              		.cfi_startproc
  34              		@ args = 0, pretend = 0, frame = 0
  35              		@ frame_needed = 0, uses_anonymous_args = 0
  36              		@ link register save eliminated.
  37              	.LVL0:
  38              		.loc 1 165 0
  39 0000 7047     		bx	lr
  40              		.cfi_endproc
  41              	.LFE60:
  42              		.size	adcerrorcallback, .-adcerrorcallback
  43 0002 00BFAFF3 		.section	.text.measInit,"ax",%progbits
  43      0080AFF3 
  43      0080AFF3 
  43      0080
  44              		.align	2
  45              		.p2align 4,,15
  46              		.global	measInit
  47              		.thumb
  48              		.thumb_func
  49              		.type	measInit, %function
  50              	measInit:
ARM GAS  C:\Users\DNIEL~1\AppData\Local\Temp\ccvEjOxs.s 			page 2


  51              	.LFB56:
  52              		.loc 1 60 0
  53              		.cfi_startproc
  54              		@ args = 0, pretend = 0, frame = 0
  55              		@ frame_needed = 0, uses_anonymous_args = 0
  56 0000 08B5     		push	{r3, lr}
  57              	.LCFI0:
  58              		.cfi_def_cfa_offset 8
  59              		.loc 1 65 0
  60 0002 0448     		ldr	r0, .L3
  61 0004 0021     		movs	r1, #0
  62              		.cfi_offset 14, -4
  63              		.cfi_offset 3, -8
  64 0006 FFF7FEFF 		bl	adcStart
  65              		.loc 1 66 0
  66 000a 034B     		ldr	r3, .L3+4
  67 000c 0022     		movs	r2, #0
  68 000e 1A70     		strb	r2, [r3, #0]
  69              		.loc 1 67 0
  70 0010 08BD     		pop	{r3, pc}
  71              	.L4:
  72 0012 00BF     		.align	2
  73              	.L3:
  74 0014 00000000 		.word	ADCD1
  75 0018 00000000 		.word	.LANCHOR0
  76              		.cfi_endproc
  77              	.LFE56:
  78              		.size	measInit, .-measInit
  79 001c AFF30080 		.section	.text.measGetValue,"ax",%progbits
  80              		.align	2
  81              		.p2align 4,,15
  82              		.global	measGetValue
  83              		.thumb
  84              		.thumb_func
  85              		.type	measGetValue, %function
  86              	measGetValue:
  87              	.LFB58:
  88              		.loc 1 127 0
  89              		.cfi_startproc
  90              		@ args = 0, pretend = 0, frame = 0
  91              		@ frame_needed = 0, uses_anonymous_args = 0
  92              		@ link register save eliminated.
  93              	.LVL1:
  94              		.loc 1 128 0
  95 0000 014B     		ldr	r3, .L6
  96              		.loc 1 129 0
  97 0002 33F92000 		ldrsh	r0, [r3, r0, lsl #2]
  98              	.LVL2:
  99 0006 7047     		bx	lr
 100              	.L7:
 101              		.align	2
 102              	.L6:
 103 0008 00000000 		.word	.LANCHOR1
 104              		.cfi_endproc
 105              	.LFE58:
 106              		.size	measGetValue, .-measGetValue
 107 000c AFF30080 		.section	.text.measInterpolateNTC,"ax",%progbits
ARM GAS  C:\Users\DNIEL~1\AppData\Local\Temp\ccvEjOxs.s 			page 3


 108              		.align	2
 109              		.p2align 4,,15
 110              		.global	measInterpolateNTC
 111              		.thumb
 112              		.thumb_func
 113              		.type	measInterpolateNTC, %function
 114              	measInterpolateNTC:
 115              	.LFB59:
 116              		.loc 1 131 0
 117              		.cfi_startproc
 118              		@ args = 0, pretend = 0, frame = 0
 119              		@ frame_needed = 0, uses_anonymous_args = 0
 120              		@ link register save eliminated.
 121              	.LVL3:
 122              		.loc 1 136 0
 123 0000 40F6D573 		movw	r3, #4053
 124 0004 9842     		cmp	r0, r3
 125              		.loc 1 131 0
 126 0006 30B4     		push	{r4, r5}
 127              	.LCFI1:
 128              		.cfi_def_cfa_offset 8
 129              		.loc 1 136 0
 130 0008 30D8     		bhi	.L13
 131              		.cfi_offset 5, -4
 132              		.cfi_offset 4, -8
 133              		.loc 1 139 0
 134 000a 4128     		cmp	r0, #65
 135 000c 2AD9     		bls	.L14
 136              	.LVL4:
 137              		.loc 1 146 0 discriminator 1
 138 000e 40F6C371 		movw	r1, #4035
 139 0012 8842     		cmp	r0, r1
 140 0014 30D8     		bhi	.L15
 141              		.loc 1 147 0
 142 0016 1B49     		ldr	r1, .L24
 143 0018 0122     		movs	r2, #1
 144              	.LVL5:
 145              		.loc 1 149 0
 146 001a 0B88     		ldrh	r3, [r1, #0]
 147              	.LVL6:
 148              		.loc 1 146 0
 149 001c 40F6C475 		movw	r5, #4036
 150 0020 9842     		cmp	r0, r3
 151 0022 08D3     		bcc	.L19
 152 0024 0FE0     		b	.L21
 153              	.L11:
 154              		.loc 1 146 0 is_stmt 0 discriminator 2
 155 0026 2A2A     		cmp	r2, #42
 156              		.loc 1 147 0 is_stmt 1 discriminator 2
 157 0028 02F10102 		add	r2, r2, #1
 158              		.loc 1 146 0 discriminator 2
 159 002c 21D0     		beq	.L23
 160              		.loc 1 146 0 is_stmt 0
 161 002e 1D46     		mov	r5, r3
 162              		.loc 1 149 0 is_stmt 1
 163 0030 6388     		ldrh	r3, [r4, #2]
 164              	.LVL7:
ARM GAS  C:\Users\DNIEL~1\AppData\Local\Temp\ccvEjOxs.s 			page 4


 165              		.loc 1 146 0
 166 0032 9842     		cmp	r0, r3
 167 0034 07D2     		bcs	.L21
 168              	.LVL8:
 169              	.L19:
 170 0036 1D46     		mov	r5, r3
 171              		.loc 1 149 0
 172 0038 4B88     		ldrh	r3, [r1, #2]
 173              		.loc 1 147 0
 174 003a 8C1C     		adds	r4, r1, #2
 175 003c 0132     		adds	r2, r2, #1
 176              	.LVL9:
 177              		.loc 1 146 0
 178 003e 9842     		cmp	r0, r3
 179              		.loc 1 147 0
 180 0040 04F10201 		add	r1, r4, #2
 181              		.loc 1 146 0
 182 0044 EFD3     		bcc	.L11
 183              	.LVL10:
 184              	.L21:
 185 0046 1FFA82FC 		uxth	ip, r2
 186 004a 0CEB8C02 		add	r2, ip, ip, lsl #2
 187 004e 373A     		subs	r2, r2, #55
 188 0050 EB1A     		subs	r3, r5, r3
 189 0052 92B2     		uxth	r2, r2
 190              	.L10:
 191              		.loc 1 153 0
 192 0054 C0EB050C 		rsb	ip, r0, r5
 193 0058 0CEB8C01 		add	r1, ip, ip, lsl #2
 194 005c 91FBF3F0 		sdiv	r0, r1, r3
 195              	.LVL11:
 196              		.loc 1 151 0
 197 0060 1018     		adds	r0, r2, r0
 198              	.LVL12:
 199 0062 00E0     		b	.L9
 200              	.LVL13:
 201              	.L14:
 202              		.loc 1 140 0
 203 0064 9B20     		movs	r0, #155
 204              	.LVL14:
 205              	.L9:
 206              		.loc 1 156 0
 207 0066 00B2     		sxth	r0, r0
 208              	.LVL15:
 209 0068 30BC     		pop	{r4, r5}
 210 006a 7047     		bx	lr
 211              	.LVL16:
 212              	.L13:
 213              		.loc 1 137 0
 214 006c 4FF6C970 		movw	r0, #65481
 215              	.LVL17:
 216 0070 F9E7     		b	.L9
 217              	.LVL18:
 218              	.L23:
 219              		.loc 1 146 0
 220 0072 EB1A     		subs	r3, r5, r3
 221              	.LVL19:
ARM GAS  C:\Users\DNIEL~1\AppData\Local\Temp\ccvEjOxs.s 			page 5


 222 0074 9B22     		movs	r2, #155
 223 0076 EDE7     		b	.L10
 224              	.LVL20:
 225              	.L15:
 226 0078 4FF6C972 		movw	r2, #65481
 227 007c 1223     		movs	r3, #18
 228 007e 40F6D675 		movw	r5, #4054
 229 0082 E7E7     		b	.L10
 230              	.L25:
 231              		.align	2
 232              	.L24:
 233 0084 04000000 		.word	.LANCHOR2+4
 234              		.cfi_endproc
 235              	.LFE59:
 236              		.size	measInterpolateNTC, .-measInterpolateNTC
 237 0088 AFF30080 		.section	.text.measCalc,"ax",%progbits
 237      AFF30080 
 238              		.align	2
 239              		.p2align 4,,15
 240              		.global	measCalc
 241              		.thumb
 242              		.thumb_func
 243              		.type	measCalc, %function
 244              	measCalc:
 245              	.LFB57:
 246              		.loc 1 69 0
 247              		.cfi_startproc
 248              		@ args = 0, pretend = 0, frame = 0
 249              		@ frame_needed = 0, uses_anonymous_args = 0
 250              		.loc 1 76 0
 251 0000 504A     		ldr	r2, .L31
 252              		.loc 1 69 0
 253 0002 70B5     		push	{r4, r5, r6, lr}
 254              	.LCFI2:
 255              		.cfi_def_cfa_offset 16
 256              		.loc 1 76 0
 257 0004 1378     		ldrb	r3, [r2, #0]	@ zero_extendqisi2
 258 0006 4BB9     		cbnz	r3, .L30
 259              		.cfi_offset 14, -4
 260              		.cfi_offset 6, -8
 261              		.cfi_offset 5, -12
 262              		.cfi_offset 4, -16
 263              		.loc 1 79 0
 264 0008 0123     		movs	r3, #1
 265 000a 1370     		strb	r3, [r2, #0]
 266              	.L27:
 267              		.loc 1 124 0
 268 000c 4E48     		ldr	r0, .L31+4
 269 000e 4F49     		ldr	r1, .L31+8
 270 0010 4F4A     		ldr	r2, .L31+12
 271 0012 0823     		movs	r3, #8
 272              		.loc 1 125 0
 273 0014 BDE87040 		pop	{r4, r5, r6, lr}
 274              		.loc 1 124 0
 275 0018 FFF7FEBF 		b	adcConvert
 276              	.L30:
 277              		.loc 1 76 0
ARM GAS  C:\Users\DNIEL~1\AppData\Local\Temp\ccvEjOxs.s 			page 6


 278 001c 012B     		cmp	r3, #1
 279 001e F5D1     		bne	.L27
 280              	.LVL21:
 281              		.loc 1 85 0
 282 0020 4B4C     		ldr	r4, .L31+12
 283 0022 2189     		ldrh	r1, [r4, #8]
 284 0024 228A     		ldrh	r2, [r4, #16]
 285 0026 208B     		ldrh	r0, [r4, #24]
 286 0028 B4F820C0 		ldrh	ip, [r4, #32]
 287 002c 01EB020E 		add	lr, r1, r2
 288 0030 258D     		ldrh	r5, [r4, #40]
 289 0032 0EEB0003 		add	r3, lr, r0
 290 0036 218E     		ldrh	r1, [r4, #48]
 291 0038 03EB0C02 		add	r2, r3, ip
 292 003c 5019     		adds	r0, r2, r5
 293 003e B4F800C0 		ldrh	ip, [r4, #0]
 294 0042 238F     		ldrh	r3, [r4, #56]
 295 0044 00EB010E 		add	lr, r0, r1
 296 0048 0CEB0E05 		add	r5, ip, lr
 297              	.LVL22:
 298 004c EA18     		adds	r2, r5, r3
 299              	.LVL23:
 300              		.loc 1 90 0
 301 004e C2F3CF00 		ubfx	r0, r2, #3, #16
 302 0052 FFF7FEFF 		bl	measInterpolateNTC
 303              	.LVL24:
 304              		.loc 1 91 0
 305 0056 20EAE070 		bic	r0, r0, r0, asr #31
 306              	.LVL25:
 307              		.loc 1 116 0
 308              	@ 116 "src/meas.c" 1
 309 005a FFF7FEFF 		bl      _port_lock
 310              	@ 0 "" 2
 311              		.loc 1 117 0
 312              		.thumb
 313 005e 3D4A     		ldr	r2, .L31+16
 314              		.loc 1 92 0
 315 0060 FF28     		cmp	r0, #255
 316 0062 A8BF     		it	ge
 317 0064 FF20     		movge	r0, #255
 318              	.LVL26:
 319              		.loc 1 117 0
 320 0066 01B2     		sxth	r1, r0
 321 0068 1160     		str	r1, [r2, #0]
 322              		.loc 1 118 0
 323              	@ 118 "src/meas.c" 1
 324 006a FFF7FEFF 		bl      _port_unlock
 325              	@ 0 "" 2
 326              	.LVL27:
 327              		.loc 1 85 0
 328              		.thumb
 329 006e B4F812C0 		ldrh	ip, [r4, #18]
 330 0072 B4F80AE0 		ldrh	lr, [r4, #10]
 331 0076 658B     		ldrh	r5, [r4, #26]
 332 0078 608C     		ldrh	r0, [r4, #34]
 333 007a 0CEB0E03 		add	r3, ip, lr
 334 007e 5919     		adds	r1, r3, r5
ARM GAS  C:\Users\DNIEL~1\AppData\Local\Temp\ccvEjOxs.s 			page 7


 335 0080 B4F82AE0 		ldrh	lr, [r4, #42]
 336 0084 658E     		ldrh	r5, [r4, #50]
 337 0086 01EB000C 		add	ip, r1, r0
 338 008a 0CEB0E03 		add	r3, ip, lr
 339 008e 6088     		ldrh	r0, [r4, #2]
 340 0090 B4F83AE0 		ldrh	lr, [r4, #58]
 341 0094 5919     		adds	r1, r3, r5
 342 0096 00EB010C 		add	ip, r0, r1
 343              	.LVL28:
 344 009a 0CEB0E03 		add	r3, ip, lr
 345              	.LVL29:
 346              		.loc 1 87 0
 347 009e DD10     		asrs	r5, r3, #3
 348              	.LVL30:
 349              		.loc 1 96 0
 350 00a0 2D49     		ldr	r1, .L31+20
 351              		.loc 1 95 0
 352 00a2 6800     		lsls	r0, r5, #1
 353              	.LVL31:
 354              		.loc 1 96 0
 355 00a4 81FB0003 		smull	r0, r3, r1, r0
 356              	.LVL32:
 357 00a8 9D08     		lsrs	r5, r3, #2
 358              	.LVL33:
 359              		.loc 1 116 0
 360              	@ 116 "src/meas.c" 1
 361 00aa FFF7FEFF 		bl      _port_lock
 362              	@ 0 "" 2
 363              		.loc 1 97 0
 364              		.thumb
 365 00ae 4FF6FF7E 		movw	lr, #65535
 366 00b2 7545     		cmp	r5, lr
 367 00b4 A8BF     		it	ge
 368 00b6 7546     		movge	r5, lr
 369              	.LVL34:
 370              		.loc 1 117 0
 371 00b8 29B2     		sxth	r1, r5
 372 00ba 5160     		str	r1, [r2, #4]
 373              		.loc 1 118 0
 374              	@ 118 "src/meas.c" 1
 375 00bc FFF7FEFF 		bl      _port_unlock
 376              	@ 0 "" 2
 377              	.LVL35:
 378              		.loc 1 85 0
 379              		.thumb
 380 00c0 A08A     		ldrh	r0, [r4, #20]
 381 00c2 B4F80CC0 		ldrh	ip, [r4, #12]
 382 00c6 A58B     		ldrh	r5, [r4, #28]
 383 00c8 B4F824E0 		ldrh	lr, [r4, #36]
 384 00cc 00EB0C03 		add	r3, r0, ip
 385 00d0 5919     		adds	r1, r3, r5
 386 00d2 B4F82CC0 		ldrh	ip, [r4, #44]
 387 00d6 01EB0E00 		add	r0, r1, lr
 388 00da A58E     		ldrh	r5, [r4, #52]
 389 00dc 00EB0C03 		add	r3, r0, ip
 390 00e0 B4F804E0 		ldrh	lr, [r4, #4]
 391 00e4 B4F83CC0 		ldrh	ip, [r4, #60]
ARM GAS  C:\Users\DNIEL~1\AppData\Local\Temp\ccvEjOxs.s 			page 8


 392 00e8 5D19     		adds	r5, r3, r5
 393 00ea 0EEB0501 		add	r1, lr, r5
 394              	.LVL36:
 395 00ee 01EB0C00 		add	r0, r1, ip
 396              	.LVL37:
 397              		.loc 1 116 0
 398              	@ 116 "src/meas.c" 1
 399 00f2 FFF7FEFF 		bl      _port_lock
 400              	@ 0 "" 2
 401              		.loc 1 117 0
 402              		.thumb
 403 00f6 40F3CF03 		sbfx	r3, r0, #3, #16
 404 00fa 9360     		str	r3, [r2, #8]
 405              		.loc 1 118 0
 406              	@ 118 "src/meas.c" 1
 407 00fc FFF7FEFF 		bl      _port_unlock
 408              	@ 0 "" 2
 409              	.LVL38:
 410              		.loc 1 85 0
 411              		.thumb
 412 0100 B4F816E0 		ldrh	lr, [r4, #22]
 413 0104 B4F80EC0 		ldrh	ip, [r4, #14]
 414 0108 E58B     		ldrh	r5, [r4, #30]
 415 010a E08C     		ldrh	r0, [r4, #38]
 416 010c 0EEB0C01 		add	r1, lr, ip
 417 0110 4B19     		adds	r3, r1, r5
 418 0112 B4F82EE0 		ldrh	lr, [r4, #46]
 419 0116 03EB000C 		add	ip, r3, r0
 420 011a E58E     		ldrh	r5, [r4, #54]
 421 011c E088     		ldrh	r0, [r4, #6]
 422 011e 0CEB0E01 		add	r1, ip, lr
 423 0122 01EB050E 		add	lr, r1, r5
 424 0126 B4F83EC0 		ldrh	ip, [r4, #62]
 425 012a 00EB0E03 		add	r3, r0, lr
 426              	.LVL39:
 427 012e 0CEB0300 		add	r0, ip, r3
 428              	.LVL40:
 429              		.loc 1 116 0
 430              	@ 116 "src/meas.c" 1
 431 0132 FFF7FEFF 		bl      _port_lock
 432              	@ 0 "" 2
 433              		.loc 1 117 0
 434              		.thumb
 435 0136 40F3CF01 		sbfx	r1, r0, #3, #16
 436 013a D160     		str	r1, [r2, #12]
 437              		.loc 1 118 0
 438              	@ 118 "src/meas.c" 1
 439 013c FFF7FEFF 		bl      _port_unlock
 440              	@ 0 "" 2
 441              	.LVL41:
 442              		.thumb
 443 0140 64E7     		b	.L27
 444              	.L32:
 445 0142 00BF     		.align	2
 446              	.L31:
 447 0144 00000000 		.word	.LANCHOR0
 448 0148 00000000 		.word	ADCD1
ARM GAS  C:\Users\DNIEL~1\AppData\Local\Temp\ccvEjOxs.s 			page 9


 449 014c 00000000 		.word	.LANCHOR4
 450 0150 00000000 		.word	.LANCHOR3
 451 0154 00000000 		.word	.LANCHOR1
 452 0158 4FECC44E 		.word	1321528399
 453              		.cfi_endproc
 454              	.LFE57:
 455              		.size	measCalc, .-measCalc
 456              		.global	measNTCcalib
 457              		.global	measstate
 458 015c AFF30080 		.section	.rodata.measNTCcalib,"a",%progbits
 459              		.align	2
 460              		.set	.LANCHOR2,. + 0
 461              		.type	measNTCcalib, %object
 462              		.size	measNTCcalib, 86
 463              	measNTCcalib:
 464 0000 D60F     		.short	4054
 465 0002 C40F     		.short	4036
 466 0004 AB0F     		.short	4011
 467 0006 8A0F     		.short	3978
 468 0008 5E0F     		.short	3934
 469 000a 250F     		.short	3877
 470 000c DC0E     		.short	3804
 471 000e 810E     		.short	3713
 472 0010 120E     		.short	3602
 473 0012 8D0D     		.short	3469
 474 0014 F10C     		.short	3313
 475 0016 400C     		.short	3136
 476 0018 7B0B     		.short	2939
 477 001a A60A     		.short	2726
 478 001c C709     		.short	2503
 479 001e E308     		.short	2275
 480 0020 0008     		.short	2048
 481 0022 2407     		.short	1828
 482 0024 5206     		.short	1618
 483 0026 9005     		.short	1424
 484 0028 DD04     		.short	1245
 485 002a 3D04     		.short	1085
 486 002c AE03     		.short	942
 487 002e 3003     		.short	816
 488 0030 C202     		.short	706
 489 0032 6302     		.short	611
 490 0034 1002     		.short	528
 491 0036 CA01     		.short	458
 492 0038 8D01     		.short	397
 493 003a 5801     		.short	344
 494 003c 2C01     		.short	300
 495 003e 0501     		.short	261
 496 0040 E400     		.short	228
 497 0042 C700     		.short	199
 498 0044 AF00     		.short	175
 499 0046 9900     		.short	153
 500 0048 8700     		.short	135
 501 004a 7800     		.short	120
 502 004c 6A00     		.short	106
 503 004e 5E00     		.short	94
 504 0050 5300     		.short	83
 505 0052 4A00     		.short	74
ARM GAS  C:\Users\DNIEL~1\AppData\Local\Temp\ccvEjOxs.s 			page 10


 506 0054 4200     		.short	66
 507 0056 0000     		.section	.bss.measValue,"aw",%nobits
 508              		.align	2
 509              		.set	.LANCHOR1,. + 0
 510              		.type	measValue, %object
 511              		.size	measValue, 24
 512              	measValue:
 513 0000 00000000 		.space	24
 513      00000000 
 513      00000000 
 513      00000000 
 513      00000000 
 514              		.section	.bss.measstate,"aw",%nobits
 515              		.set	.LANCHOR0,. + 0
 516              		.type	measstate, %object
 517              		.size	measstate, 1
 518              	measstate:
 519 0000 00       		.space	1
 520              		.section	.rodata.adcgrpcfg,"a",%progbits
 521              		.align	2
 522              		.set	.LANCHOR4,. + 0
 523              		.type	adcgrpcfg, %object
 524              		.size	adcgrpcfg, 40
 525              	adcgrpcfg:
 526 0000 00       		.byte	0
 527 0001 00       		.space	1
 528 0002 0400     		.short	4
 529 0004 00000000 		.word	0
 530 0008 00000000 		.word	adcerrorcallback
 531 000c 00000000 		.word	0
 532 0010 00000000 		.word	0
 533 0014 00000000 		.word	0
 534 0018 80040012 		.word	301991040
 535 001c 00003000 		.word	3145728
 536 0020 00000000 		.word	0
 537 0024 43A00400 		.word	303171
 538              		.section	.bss.samples,"aw",%nobits
 539              		.align	2
 540              		.set	.LANCHOR3,. + 0
 541              		.type	samples, %object
 542              		.size	samples, 64
 543              	samples:
 544 0000 00000000 		.space	64
 544      00000000 
 544      00000000 
 544      00000000 
 544      00000000 
 545              		.text
 546              	.Letext0: