ARM GAS  C:\Users\DNIEL~1\AppData\Local\Temp\cc99nIpT.s 			page 1


   1              		.syntax unified
   2              		.cpu cortex-m3
   3              		.fpu softvfp
   4              		.eabi_attribute 20, 1
   5              		.eabi_attribute 21, 1
   6              		.eabi_attribute 23, 3
   7              		.eabi_attribute 24, 1
   8              		.eabi_attribute 25, 1
   9              		.eabi_attribute 26, 1
  10              		.eabi_attribute 30, 2
  11              		.eabi_attribute 18, 4
  12              		.thumb
  13              		.file	"shell.c"
  20 0000 37040000 		.text
  20      02006402 
  20      00000201 
  20      FB0E0D00 
  20      01010101 
  21              	.Ltext0:
  22              		.cfi_sections	.debug_frame
  23              		.section	.text.chprintf,"ax",%progbits
  24              		.align	2
  25              		.p2align 4,,15
  26              		.thumb
  27              		.thumb_func
  28              		.type	chprintf, %function
  29              	chprintf:
  30              	.LFB56:
  31              		.file 1 "../../../ChibiOS/os/various/chprintf.h"
  32              		.loc 1 69 0
  33              		.cfi_startproc
  34              		@ args = 4, pretend = 12, frame = 8
  35              		@ frame_needed = 0, uses_anonymous_args = 1
  36              	.LVL0:
  37 0000 0EB4     		push	{r1, r2, r3}
  38              	.LCFI0:
  39              		.cfi_def_cfa_offset 12
  40 0002 00B5     		push	{lr}
  41              	.LCFI1:
  42              		.cfi_def_cfa_offset 16
  43 0004 82B0     		sub	sp, sp, #8
  44              	.LCFI2:
  45              		.cfi_def_cfa_offset 24
  46              		.loc 1 69 0
  47 0006 03AB     		add	r3, sp, #12
  48              		.cfi_offset 14, -16
  49              		.cfi_offset 3, -4
  50              		.cfi_offset 2, -8
  51              		.cfi_offset 1, -12
  52 0008 53F8041B 		ldr	r1, [r3], #4
  53              		.loc 1 73 0
ARM GAS  C:\Users\DNIEL~1\AppData\Local\Temp\cc99nIpT.s 			page 2


  54 000c 1A46     		mov	r2, r3
  55              		.loc 1 72 0
  56 000e 0193     		str	r3, [sp, #4]
  57              		.loc 1 73 0
  58 0010 FFF7FEFF 		bl	chvprintf
  59              	.LVL1:
  60              		.loc 1 75 0
  61 0014 02B0     		add	sp, sp, #8
  62 0016 5DF804EB 		pop	{lr}
  63 001a 03B0     		add	sp, sp, #12
  64 001c 7047     		bx	lr
  65              		.cfi_endproc
  66              	.LFE56:
  67              		.size	chprintf, .-chprintf
  68 001e 00BF     		.section	.text.cmd_systime,"ax",%progbits
  69              		.align	2
  70              		.p2align 4,,15
  71              		.thumb
  72              		.thumb_func
  73              		.type	cmd_systime, %function
  74              	cmd_systime:
  75              	.LFB61:
  76              		.file 2 "../../../ChibiOS/os/various/shell.c"
  77              		.loc 2 99 0
  78              		.cfi_startproc
  79              		@ args = 0, pretend = 0, frame = 0
  80              		@ frame_needed = 0, uses_anonymous_args = 0
  81              		@ link register save eliminated.
  82              	.LVL2:
  83              		.loc 2 102 0
  84 0000 0029     		cmp	r1, #0
  85 0002 03DD     		ble	.L3
  86              	.LVL3:
  87              	.LBB10:
  88              	.LBB11:
  89              		.loc 2 56 0
  90 0004 0449     		ldr	r1, .L5
  91              	.LVL4:
  92 0006 054A     		ldr	r2, .L5+4
  93              	.LVL5:
  94              	.LBE11:
  95              	.LBE10:
  96              		.loc 2 107 0
  97              	.LBB13:
  98              	.LBB12:
  99              		.loc 2 56 0
 100 0008 FFF7FEBF 		b	chprintf
 101              	.LVL6:
 102              	.L3:
 103              	.LBE12:
 104              	.LBE13:
 105              		.loc 2 106 0
 106 000c 044B     		ldr	r3, .L5+8
 107 000e 0549     		ldr	r1, .L5+12
 108              	.LVL7:
 109 0010 DA68     		ldr	r2, [r3, #12]
 110              	.LVL8:
ARM GAS  C:\Users\DNIEL~1\AppData\Local\Temp\cc99nIpT.s 			page 3


 111              		.loc 2 107 0
 112              		.loc 2 106 0
 113 0012 FFF7FEBF 		b	chprintf
 114              	.LVL9:
 115              	.L6:
 116 0016 00BF     		.align	2
 117              	.L5:
 118 0018 00000000 		.word	.LC0
 119 001c 0C000000 		.word	.LC1
 120 0020 00000000 		.word	vtlist
 121 0024 14000000 		.word	.LC2
 122              		.cfi_endproc
 123              	.LFE61:
 124              		.size	cmd_systime, .-cmd_systime
 125 0028 AFF30080 		.section	.text.cmd_info,"ax",%progbits
 125      AFF30080 
 126              		.align	2
 127              		.p2align 4,,15
 128              		.thumb
 129              		.thumb_func
 130              		.type	cmd_info, %function
 131              	cmd_info:
 132              	.LFB60:
 133              		.loc 2 67 0
 134              		.cfi_startproc
 135              		@ args = 0, pretend = 0, frame = 0
 136              		@ frame_needed = 0, uses_anonymous_args = 0
 137              	.LVL10:
 138 0000 10B5     		push	{r4, lr}
 139              	.LCFI3:
 140              		.cfi_def_cfa_offset 8
 141              		.loc 2 70 0
 142 0002 0029     		cmp	r1, #0
 143              		.loc 2 67 0
 144 0004 82B0     		sub	sp, sp, #8
 145              	.LCFI4:
 146              		.cfi_def_cfa_offset 16
 147              		.loc 2 67 0
 148 0006 0446     		mov	r4, r0
 149              		.cfi_offset 14, -4
 150              		.cfi_offset 4, -8
 151              		.loc 2 70 0
 152 0008 06DD     		ble	.L8
 153              	.LVL11:
 154              	.LBB14:
 155              	.LBB15:
 156              		.loc 2 56 0
 157 000a 1949     		ldr	r1, .L9
 158              	.LVL12:
 159 000c 194A     		ldr	r2, .L9+4
 160              	.LVL13:
 161              	.LBE15:
 162              	.LBE14:
 163              		.loc 2 97 0
 164 000e 02B0     		add	sp, sp, #8
 165 0010 BDE81040 		pop	{r4, lr}
 166              	.LBB17:
ARM GAS  C:\Users\DNIEL~1\AppData\Local\Temp\cc99nIpT.s 			page 4


 167              	.LBB16:
 168              		.loc 2 56 0
 169 0014 FFF7FEBF 		b	chprintf
 170              	.LVL14:
 171              	.L8:
 172              	.LBE16:
 173              	.LBE17:
 174              		.loc 2 75 0
 175 0018 1749     		ldr	r1, .L9+8
 176              	.LVL15:
 177 001a 184A     		ldr	r2, .L9+12
 178              	.LVL16:
 179 001c FFF7FEFF 		bl	chprintf
 180              		.loc 2 77 0
 181 0020 2046     		mov	r0, r4
 182 0022 1749     		ldr	r1, .L9+16
 183 0024 174A     		ldr	r2, .L9+20
 184 0026 FFF7FEFF 		bl	chprintf
 185              		.loc 2 79 0
 186 002a 2046     		mov	r0, r4
 187 002c 1649     		ldr	r1, .L9+24
 188 002e 174A     		ldr	r2, .L9+28
 189 0030 FFF7FEFF 		bl	chprintf
 190              		.loc 2 81 0
 191 0034 2046     		mov	r0, r4
 192 0036 1649     		ldr	r1, .L9+32
 193 0038 164A     		ldr	r2, .L9+36
 194 003a FFF7FEFF 		bl	chprintf
 195              		.loc 2 84 0
 196 003e 2046     		mov	r0, r4
 197 0040 1549     		ldr	r1, .L9+40
 198 0042 164A     		ldr	r2, .L9+44
 199 0044 FFF7FEFF 		bl	chprintf
 200              		.loc 2 87 0
 201 0048 2046     		mov	r0, r4
 202 004a 1549     		ldr	r1, .L9+48
 203 004c 154A     		ldr	r2, .L9+52
 204 004e FFF7FEFF 		bl	chprintf
 205              		.loc 2 90 0
 206 0052 2046     		mov	r0, r4
 207 0054 1449     		ldr	r1, .L9+56
 208 0056 154A     		ldr	r2, .L9+60
 209 0058 FFF7FEFF 		bl	chprintf
 210              		.loc 2 94 0
 211 005c 2046     		mov	r0, r4
 212 005e 144C     		ldr	r4, .L9+64
 213              	.LVL17:
 214 0060 1449     		ldr	r1, .L9+68
 215 0062 154A     		ldr	r2, .L9+72
 216 0064 154B     		ldr	r3, .L9+76
 217 0066 0094     		str	r4, [sp, #0]
 218 0068 FFF7FEFF 		bl	chprintf
 219              	.LVL18:
 220              		.loc 2 97 0
 221 006c 02B0     		add	sp, sp, #8
 222 006e 10BD     		pop	{r4, pc}
 223              	.L10:
ARM GAS  C:\Users\DNIEL~1\AppData\Local\Temp\cc99nIpT.s 			page 5


 224              		.align	2
 225              	.L9:
 226 0070 00000000 		.word	.LC0
 227 0074 1C000000 		.word	.LC3
 228 0078 24000000 		.word	.LC4
 229 007c 38000000 		.word	.LC5
 230 0080 40000000 		.word	.LC6
 231 0084 54000000 		.word	.LC7
 232 0088 60000000 		.word	.LC8
 233 008c 74000000 		.word	.LC9
 234 0090 7C000000 		.word	.LC10
 235 0094 90000000 		.word	.LC11
 236 0098 9C000000 		.word	.LC12
 237 009c B0000000 		.word	.LC13
 238 00a0 C8000000 		.word	.LC14
 239 00a4 DC000000 		.word	.LC15
 240 00a8 08010000 		.word	.LC16
 241 00ac 1C010000 		.word	.LC17
 242 00b0 50010000 		.word	.LC21
 243 00b4 28010000 		.word	.LC18
 244 00b8 40010000 		.word	.LC19
 245 00bc 4C010000 		.word	.LC20
 246              		.cfi_endproc
 247              	.LFE60:
 248              		.size	cmd_info, .-cmd_info
 249              		.section	.text.list_commands,"ax",%progbits
 250              		.align	2
 251              		.p2align 4,,15
 252              		.thumb
 253              		.thumb_func
 254              		.type	list_commands, %function
 255              	list_commands:
 256              	.LFB59:
 257              		.loc 2 59 0
 258              		.cfi_startproc
 259              		@ args = 0, pretend = 0, frame = 0
 260              		@ frame_needed = 0, uses_anonymous_args = 0
 261              	.LVL19:
 262              		.loc 2 61 0
 263 0000 0A68     		ldr	r2, [r1, #0]
 264              		.loc 2 59 0
 265 0002 38B5     		push	{r3, r4, r5, lr}
 266              	.LCFI5:
 267              		.cfi_def_cfa_offset 16
 268              		.loc 2 59 0
 269 0004 0546     		mov	r5, r0
 270              		.cfi_offset 14, -4
 271              		.cfi_offset 5, -8
 272              		.cfi_offset 4, -12
 273              		.cfi_offset 3, -16
 274              		.loc 2 61 0
 275 0006 42B1     		cbz	r2, .L11
 276 0008 0C46     		mov	r4, r1
 277              	.LVL20:
 278              	.L13:
 279              		.loc 2 62 0
 280 000a 2846     		mov	r0, r5
ARM GAS  C:\Users\DNIEL~1\AppData\Local\Temp\cc99nIpT.s 			page 6


 281 000c 0349     		ldr	r1, .L15
 282 000e FFF7FEFF 		bl	chprintf
 283              		.loc 2 61 0
 284 0012 54F8082F 		ldr	r2, [r4, #8]!
 285 0016 002A     		cmp	r2, #0
 286 0018 F7D1     		bne	.L13
 287              	.L11:
 288 001a 38BD     		pop	{r3, r4, r5, pc}
 289              	.L16:
 290              		.align	2
 291              	.L15:
 292 001c 5C010000 		.word	.LC22
 293              		.cfi_endproc
 294              	.LFE59:
 295              		.size	list_commands, .-list_commands
 296              		.section	.text.cmdexec,"ax",%progbits
 297              		.align	2
 298              		.p2align 4,,15
 299              		.thumb
 300              		.thumb_func
 301              		.type	cmdexec, %function
 302              	cmdexec:
 303              	.LFB62:
 304              		.loc 2 119 0
 305              		.cfi_startproc
 306              		@ args = 4, pretend = 0, frame = 0
 307              		@ frame_needed = 0, uses_anonymous_args = 0
 308              	.LVL21:
 309 0000 2DE9F041 		push	{r4, r5, r6, r7, r8, lr}
 310              	.LCFI6:
 311              		.cfi_def_cfa_offset 24
 312              		.loc 2 119 0
 313 0004 0546     		mov	r5, r0
 314              		.cfi_offset 14, -4
 315              		.cfi_offset 8, -8
 316              		.cfi_offset 7, -12
 317              		.cfi_offset 6, -16
 318              		.cfi_offset 5, -20
 319              		.cfi_offset 4, -24
 320              		.loc 2 121 0
 321 0006 0068     		ldr	r0, [r0, #0]
 322              	.LVL22:
 323              		.loc 2 119 0
 324 0008 0C46     		mov	r4, r1
 325 000a 1646     		mov	r6, r2
 326 000c 9846     		mov	r8, r3
 327              		.loc 2 121 0
 328 000e A8B1     		cbz	r0, .L21
 329 0010 2F46     		mov	r7, r5
 330 0012 02E0     		b	.L20
 331              	.LVL23:
 332              	.L19:
 333 0014 57F8080F 		ldr	r0, [r7, #8]!
 334              	.LVL24:
 335 0018 68B1     		cbz	r0, .L23
 336              	.LVL25:
 337              	.L20:
ARM GAS  C:\Users\DNIEL~1\AppData\Local\Temp\cc99nIpT.s 			page 7


 338              		.loc 2 122 0
 339 001a 3146     		mov	r1, r6
 340 001c FFF7FEFF 		bl	strcasecmp
 341 0020 0546     		mov	r5, r0
 342 0022 0028     		cmp	r0, #0
 343 0024 F6D1     		bne	.L19
 344              		.loc 2 123 0
 345 0026 2046     		mov	r0, r4
 346 0028 7E68     		ldr	r6, [r7, #4]
 347              	.LVL26:
 348 002a 4146     		mov	r1, r8
 349 002c 069A     		ldr	r2, [sp, #24]
 350 002e B047     		blx	r6
 351              		.loc 2 124 0
 352 0030 2846     		mov	r0, r5
 353 0032 BDE8F081 		pop	{r4, r5, r6, r7, r8, pc}
 354              	.LVL27:
 355              	.L23:
 356              		.loc 2 128 0
 357 0036 0120     		movs	r0, #1
 358 0038 BDE8F081 		pop	{r4, r5, r6, r7, r8, pc}
 359              	.LVL28:
 360              	.L21:
 361 003c 0120     		movs	r0, #1
 362              		.loc 2 129 0
 363 003e BDE8F081 		pop	{r4, r5, r6, r7, r8, pc}
 364              		.cfi_endproc
 365              	.LFE62:
 366              		.size	cmdexec, .-cmdexec
 367 0042 00BFAFF3 		.section	.text._strtok.clone.0,"ax",%progbits
 367      0080AFF3 
 367      0080AFF3 
 367      0080
 368              		.align	2
 369              		.p2align 4,,15
 370              		.thumb
 371              		.thumb_func
 372              		.type	_strtok.clone.0, %function
 373              	_strtok.clone.0:
 374              	.LFB69:
 375              		.loc 2 37 0
 376              		.cfi_startproc
 377              		@ args = 0, pretend = 0, frame = 0
 378              		@ frame_needed = 0, uses_anonymous_args = 0
 379              	.LVL29:
 380 0000 38B5     		push	{r3, r4, r5, lr}
 381              	.LCFI7:
 382              		.cfi_def_cfa_offset 16
 383              		.loc 2 39 0
 384 0002 0446     		mov	r4, r0
 385              		.cfi_offset 14, -4
 386              		.cfi_offset 5, -8
 387              		.cfi_offset 4, -12
 388              		.cfi_offset 3, -16
 389              		.loc 2 37 0
 390 0004 0D46     		mov	r5, r1
 391              		.loc 2 39 0
ARM GAS  C:\Users\DNIEL~1\AppData\Local\Temp\cc99nIpT.s 			page 8


 392 0006 A8B1     		cbz	r0, .L25
 393              		.loc 2 40 0
 394 0008 0860     		str	r0, [r1, #0]
 395              	.LVL30:
 396              	.L26:
 397              		.loc 2 46 0
 398 000a 0D49     		ldr	r1, .L30
 399              	.LVL31:
 400 000c 2046     		mov	r0, r4
 401              	.LVL32:
 402 000e FFF7FEFF 		bl	strspn
 403 0012 2418     		adds	r4, r4, r0
 404              	.LVL33:
 405              		.loc 2 47 0
 406 0014 2046     		mov	r0, r4
 407 0016 0A49     		ldr	r1, .L30
 408 0018 FFF7FEFF 		bl	strpbrk
 409 001c 2860     		str	r0, [r5, #0]
 410              		.loc 2 48 0
 411 001e 18B1     		cbz	r0, .L28
 412              		.loc 2 49 0
 413 0020 0023     		movs	r3, #0
 414 0022 00F8013B 		strb	r3, [r0], #1
 415 0026 2860     		str	r0, [r5, #0]
 416              	.L28:
 417              		.loc 2 51 0
 418 0028 2078     		ldrb	r0, [r4, #0]	@ zero_extendqisi2
 419 002a 0028     		cmp	r0, #0
 420 002c 14BF     		ite	ne
 421 002e 2046     		movne	r0, r4
 422 0030 0020     		moveq	r0, #0
 423 0032 38BD     		pop	{r3, r4, r5, pc}
 424              	.LVL34:
 425              	.L25:
 426              		.loc 2 41 0
 427 0034 0C68     		ldr	r4, [r1, #0]
 428              	.LVL35:
 429              		.loc 2 43 0
 430 0036 002C     		cmp	r4, #0
 431 0038 E7D1     		bne	.L26
 432              		.loc 2 44 0
 433 003a 2046     		mov	r0, r4
 434              	.LVL36:
 435              		.loc 2 52 0
 436 003c 38BD     		pop	{r3, r4, r5, pc}
 437              	.L31:
 438 003e 00BF     		.align	2
 439              	.L30:
 440 0040 60010000 		.word	.LC23
 441              		.cfi_endproc
 442              	.LFE69:
 443              		.size	_strtok.clone.0, .-_strtok.clone.0
 444 0044 AFF30080 		.section	.text.shellInit,"ax",%progbits
 444      AFF30080 
 444      AFF30080 
 445              		.align	2
 446              		.p2align 4,,15
ARM GAS  C:\Users\DNIEL~1\AppData\Local\Temp\cc99nIpT.s 			page 9


 447              		.global	shellInit
 448              		.thumb
 449              		.thumb_func
 450              		.type	shellInit, %function
 451              	shellInit:
 452              	.LFB64:
 453              		.loc 2 204 0
 454              		.cfi_startproc
 455              		@ args = 0, pretend = 0, frame = 0
 456              		@ frame_needed = 0, uses_anonymous_args = 0
 457              		@ link register save eliminated.
 458              		.loc 2 206 0
 459 0000 014B     		ldr	r3, .L33
 460 0002 1B60     		str	r3, [r3, #0]
 461              		.loc 2 207 0
 462 0004 7047     		bx	lr
 463              	.L34:
 464 0006 00BF     		.align	2
 465              	.L33:
 466 0008 00000000 		.word	.LANCHOR0
 467              		.cfi_endproc
 468              	.LFE64:
 469              		.size	shellInit, .-shellInit
 470 000c AFF30080 		.section	.text.shellExit,"ax",%progbits
 471              		.align	2
 472              		.p2align 4,,15
 473              		.global	shellExit
 474              		.thumb
 475              		.thumb_func
 476              		.type	shellExit, %function
 477              	shellExit:
 478              	.LFB65:
 479              		.loc 2 218 0
 480              		.cfi_startproc
 481              		@ args = 0, pretend = 0, frame = 0
 482              		@ frame_needed = 0, uses_anonymous_args = 0
 483              	.LVL37:
 484 0000 10B5     		push	{r4, lr}
 485              	.LCFI8:
 486              		.cfi_def_cfa_offset 8
 487              		.loc 2 218 0
 488 0002 0446     		mov	r4, r0
 489              		.cfi_offset 14, -4
 490              		.cfi_offset 4, -8
 491              		.loc 2 222 0
 492              	@ 222 "../../../ChibiOS/os/various/shell.c" 1
 493 0004 FFF7FEFF 		bl      _port_lock
 494              	@ 0 "" 2
 495              		.loc 2 223 0
 496              		.thumb
 497 0008 0448     		ldr	r0, .L36
 498              	.LVL38:
 499 000a 0021     		movs	r1, #0
 500 000c FFF7FEFF 		bl	chEvtBroadcastFlagsI
 501              		.loc 2 224 0
 502 0010 2046     		mov	r0, r4
 503              		.loc 2 225 0
ARM GAS  C:\Users\DNIEL~1\AppData\Local\Temp\cc99nIpT.s 			page 10


 504 0012 BDE81040 		pop	{r4, lr}
 505              		.loc 2 224 0
 506 0016 FFF7FEBF 		b	chThdExitS
 507              	.L37:
 508 001a 00BF     		.align	2
 509              	.L36:
 510 001c 00000000 		.word	.LANCHOR0
 511              		.cfi_endproc
 512              	.LFE65:
 513              		.size	shellExit, .-shellExit
 514              		.section	.text.shellCreate,"ax",%progbits
 515              		.align	2
 516              		.p2align 4,,15
 517              		.global	shellCreate
 518              		.thumb
 519              		.thumb_func
 520              		.type	shellCreate, %function
 521              	shellCreate:
 522              	.LFB66:
 523              		.loc 2 240 0
 524              		.cfi_startproc
 525              		@ args = 0, pretend = 0, frame = 0
 526              		@ frame_needed = 0, uses_anonymous_args = 0
 527              	.LVL39:
 528 0000 00B5     		push	{lr}
 529              	.LCFI9:
 530              		.cfi_def_cfa_offset 4
 531 0002 83B0     		sub	sp, sp, #12
 532              	.LCFI10:
 533              		.cfi_def_cfa_offset 16
 534              		.loc 2 242 0
 535 0004 0090     		str	r0, [sp, #0]
 536 0006 034B     		ldr	r3, .L39
 537 0008 0020     		movs	r0, #0
 538              	.LVL40:
 539              		.cfi_offset 14, -4
 540 000a FFF7FEFF 		bl	chThdCreateFromHeap
 541              	.LVL41:
 542              		.loc 2 243 0
 543 000e 03B0     		add	sp, sp, #12
 544 0010 00BD     		pop	{pc}
 545              	.L40:
 546 0012 00BF     		.align	2
 547              	.L39:
 548 0014 00000000 		.word	shell_thread
 549              		.cfi_endproc
 550              	.LFE66:
 551              		.size	shellCreate, .-shellCreate
 552 0018 AFF30080 		.section	.text.shellCreateStatic,"ax",%progbits
 552      AFF30080 
 553              		.align	2
 554              		.p2align 4,,15
 555              		.global	shellCreateStatic
 556              		.thumb
 557              		.thumb_func
 558              		.type	shellCreateStatic, %function
 559              	shellCreateStatic:
ARM GAS  C:\Users\DNIEL~1\AppData\Local\Temp\cc99nIpT.s 			page 11


 560              	.LFB67:
 561              		.loc 2 258 0
 562              		.cfi_startproc
 563              		@ args = 0, pretend = 0, frame = 0
 564              		@ frame_needed = 0, uses_anonymous_args = 0
 565              	.LVL42:
 566 0000 00B5     		push	{lr}
 567              	.LCFI11:
 568              		.cfi_def_cfa_offset 4
 569 0002 83B0     		sub	sp, sp, #12
 570              	.LCFI12:
 571              		.cfi_def_cfa_offset 16
 572              		.loc 2 260 0
 573 0004 0090     		str	r0, [sp, #0]
 574 0006 0846     		mov	r0, r1
 575              	.LVL43:
 576 0008 1146     		mov	r1, r2
 577              	.LVL44:
 578 000a 1A46     		mov	r2, r3
 579              	.LVL45:
 580 000c 024B     		ldr	r3, .L42
 581              	.LVL46:
 582              		.cfi_offset 14, -4
 583 000e FFF7FEFF 		bl	chThdCreateStatic
 584              	.LVL47:
 585              		.loc 2 261 0
 586 0012 03B0     		add	sp, sp, #12
 587 0014 00BD     		pop	{pc}
 588              	.L43:
 589 0016 00BF     		.align	2
 590              	.L42:
 591 0018 00000000 		.word	shell_thread
 592              		.cfi_endproc
 593              	.LFE67:
 594              		.size	shellCreateStatic, .-shellCreateStatic
 595 001c AFF30080 		.section	.text.shellGetLine,"ax",%progbits
 596              		.align	2
 597              		.p2align 4,,15
 598              		.global	shellGetLine
 599              		.thumb
 600              		.thumb_func
 601              		.type	shellGetLine, %function
 602              	shellGetLine:
 603              	.LFB68:
 604              		.loc 2 275 0
 605              		.cfi_startproc
 606              		@ args = 0, pretend = 0, frame = 8
 607              		@ frame_needed = 0, uses_anonymous_args = 0
 608              	.LVL48:
 609 0000 F0B5     		push	{r4, r5, r6, r7, lr}
 610              	.LCFI13:
 611              		.cfi_def_cfa_offset 20
 612              	.LBB18:
 613              		.loc 2 303 0
 614 0002 013A     		subs	r2, r2, #1
 615              	.LVL49:
 616              	.LBE18:
ARM GAS  C:\Users\DNIEL~1\AppData\Local\Temp\cc99nIpT.s 			page 12


 617              		.loc 2 275 0
 618 0004 83B0     		sub	sp, sp, #12
 619              	.LCFI14:
 620              		.cfi_def_cfa_offset 32
 621              		.loc 2 275 0
 622 0006 0E46     		mov	r6, r1
 623              		.cfi_offset 14, -4
 624              		.cfi_offset 7, -8
 625              		.cfi_offset 6, -12
 626              		.cfi_offset 5, -16
 627              		.cfi_offset 4, -20
 628              	.LVL50:
 629 0008 0446     		mov	r4, r0
 630              		.loc 2 276 0
 631 000a 0D46     		mov	r5, r1
 632              	.LBB19:
 633              		.loc 2 303 0
 634 000c 8F18     		adds	r7, r1, r2
 635              	.LVL51:
 636              	.L55:
 637              		.loc 2 281 0
 638 000e 2068     		ldr	r0, [r4, #0]
 639 0010 0122     		movs	r2, #1
 640 0012 4368     		ldr	r3, [r0, #4]
 641 0014 0DF10701 		add	r1, sp, #7
 642 0018 2046     		mov	r0, r4
 643 001a 9847     		blx	r3
 644 001c F0B1     		cbz	r0, .L52
 645              	.L58:
 646              		.loc 2 283 0
 647 001e 9DF80710 		ldrb	r1, [sp, #7]	@ zero_extendqisi2
 648 0022 0429     		cmp	r1, #4
 649 0024 30D0     		beq	.L56
 650              		.loc 2 287 0
 651 0026 0829     		cmp	r1, #8
 652 0028 1BD0     		beq	.L48
 653              		.loc 2 287 0 is_stmt 0 discriminator 1
 654 002a 7F29     		cmp	r1, #127
 655 002c 19D0     		beq	.L48
 656              		.loc 2 296 0 is_stmt 1
 657 002e 0D29     		cmp	r1, #13
 658 0030 30D0     		beq	.L57
 659              		.loc 2 301 0
 660 0032 1F29     		cmp	r1, #31
 661 0034 EBD9     		bls	.L55
 662              		.loc 2 303 0
 663 0036 BD42     		cmp	r5, r7
 664 0038 E9D2     		bcs	.L55
 665              		.loc 2 304 0
 666 003a 2368     		ldr	r3, [r4, #0]
 667 003c 2046     		mov	r0, r4
 668 003e 9A68     		ldr	r2, [r3, #8]
 669 0040 9047     		blx	r2
 670              		.loc 2 305 0
 671 0042 9DF807C0 		ldrb	ip, [sp, #7]	@ zero_extendqisi2
 672              	.LVL52:
 673              		.loc 2 281 0
ARM GAS  C:\Users\DNIEL~1\AppData\Local\Temp\cc99nIpT.s 			page 13


 674 0046 0122     		movs	r2, #1
 675              	.LVL53:
 676              		.loc 2 305 0
 677 0048 05F801CB 		strb	ip, [r5], #1
 678              	.LVL54:
 679              		.loc 2 281 0
 680 004c 2068     		ldr	r0, [r4, #0]
 681 004e 0DF10701 		add	r1, sp, #7
 682 0052 4368     		ldr	r3, [r0, #4]
 683 0054 2046     		mov	r0, r4
 684 0056 9847     		blx	r3
 685              	.LVL55:
 686 0058 0028     		cmp	r0, #0
 687 005a E0D1     		bne	.L58
 688              	.LVL56:
 689              	.L52:
 690              		.loc 2 282 0
 691 005c 0120     		movs	r0, #1
 692              	.L46:
 693              	.LBE19:
 694              		.loc 2 308 0
 695 005e 03B0     		add	sp, sp, #12
 696 0060 F0BD     		pop	{r4, r5, r6, r7, pc}
 697              	.L48:
 698              	.LBB20:
 699              		.loc 2 288 0
 700 0062 B542     		cmp	r5, r6
 701 0064 D3D0     		beq	.L55
 702              		.loc 2 289 0
 703 0066 2368     		ldr	r3, [r4, #0]
 704 0068 2046     		mov	r0, r4
 705 006a 9A68     		ldr	r2, [r3, #8]
 706 006c 9047     		blx	r2
 707              		.loc 2 290 0
 708 006e 2068     		ldr	r0, [r4, #0]
 709 0070 2021     		movs	r1, #32
 710 0072 8368     		ldr	r3, [r0, #8]
 711 0074 2046     		mov	r0, r4
 712 0076 9847     		blx	r3
 713              		.loc 2 291 0
 714 0078 2168     		ldr	r1, [r4, #0]
 715 007a 2046     		mov	r0, r4
 716 007c 8A68     		ldr	r2, [r1, #8]
 717 007e 9DF80710 		ldrb	r1, [sp, #7]	@ zero_extendqisi2
 718 0082 9047     		blx	r2
 719              		.loc 2 292 0
 720 0084 013D     		subs	r5, r5, #1
 721              	.LVL57:
 722 0086 C2E7     		b	.L55
 723              	.L56:
 724              		.loc 2 284 0
 725 0088 2046     		mov	r0, r4
 726 008a 0649     		ldr	r1, .L59
 727 008c FFF7FEFF 		bl	chprintf
 728              		.loc 2 285 0
 729 0090 0120     		movs	r0, #1
 730 0092 E4E7     		b	.L46
ARM GAS  C:\Users\DNIEL~1\AppData\Local\Temp\cc99nIpT.s 			page 14


 731              	.L57:
 732              		.loc 2 297 0
 733 0094 2046     		mov	r0, r4
 734 0096 0449     		ldr	r1, .L59+4
 735 0098 FFF7FEFF 		bl	chprintf
 736              		.loc 2 298 0
 737 009c 0020     		movs	r0, #0
 738 009e 2870     		strb	r0, [r5, #0]
 739              		.loc 2 299 0
 740 00a0 DDE7     		b	.L46
 741              	.L60:
 742 00a2 00BF     		.align	2
 743              	.L59:
 744 00a4 64010000 		.word	.LC24
 745 00a8 68010000 		.word	.LC25
 746              	.LBE20:
 747              		.cfi_endproc
 748              	.LFE68:
 749              		.size	shellGetLine, .-shellGetLine
 750 00ac AFF30080 		.section	.text.shell_thread,"ax",%progbits
 751              		.align	2
 752              		.p2align 4,,15
 753              		.thumb
 754              		.thumb_func
 755              		.type	shell_thread, %function
 756              	shell_thread:
 757              	.LFB63:
 758              		.loc 2 141 0
 759              		.cfi_startproc
 760              		@ args = 0, pretend = 0, frame = 88
 761              		@ frame_needed = 0, uses_anonymous_args = 0
 762              	.LVL58:
 763 0000 2DE9F043 		push	{r4, r5, r6, r7, r8, r9, lr}
 764              	.LCFI15:
 765              		.cfi_def_cfa_offset 28
 766              		.loc 2 148 0
 767 0004 6149     		ldr	r1, .L83
 768              		.loc 2 143 0
 769 0006 0468     		ldr	r4, [r0, #0]
 770              		.cfi_offset 14, -4
 771              		.cfi_offset 9, -8
 772              		.cfi_offset 8, -12
 773              		.cfi_offset 7, -16
 774              		.cfi_offset 6, -20
 775              		.cfi_offset 5, -24
 776              		.cfi_offset 4, -28
 777              	.LVL59:
 778              		.loc 2 148 0
 779 0008 8B69     		ldr	r3, [r1, #24]
 780 000a 614A     		ldr	r2, .L83+4
 781              		.loc 2 144 0
 782 000c D0F80480 		ldr	r8, [r0, #4]
 783              	.LVL60:
 784              		.loc 2 141 0
 785 0010 99B0     		sub	sp, sp, #100
 786              	.LCFI16:
 787              		.cfi_def_cfa_offset 128
ARM GAS  C:\Users\DNIEL~1\AppData\Local\Temp\cc99nIpT.s 			page 15


 788              		.loc 2 149 0
 789 0012 2046     		mov	r0, r4
 790              	.LVL61:
 791              		.loc 2 148 0
 792 0014 9A61     		str	r2, [r3, #24]
 793              		.loc 2 149 0
 794 0016 5F49     		ldr	r1, .L83+8
 795 0018 FFF7FEFF 		bl	chprintf
 796              	.LVL62:
 797              		.loc 2 167 0
 798 001c 4FF00009 		mov	r9, #0
 799              	.L81:
 800              		.loc 2 151 0
 801 0020 2046     		mov	r0, r4
 802 0022 5D49     		ldr	r1, .L83+12
 803 0024 FFF7FEFF 		bl	chprintf
 804              		.loc 2 152 0
 805 0028 2046     		mov	r0, r4
 806 002a 02A9     		add	r1, sp, #8
 807 002c 4022     		movs	r2, #64
 808 002e FFF7FEFF 		bl	shellGetLine
 809 0032 0646     		mov	r6, r0
 810 0034 0028     		cmp	r0, #0
 811 0036 3BD1     		bne	.L82
 812              	.L64:
 813              		.loc 2 156 0
 814 0038 17A9     		add	r1, sp, #92
 815 003a 02A8     		add	r0, sp, #8
 816 003c FFF7FEFF 		bl	_strtok.clone.0
 817              		.loc 2 159 0
 818 0040 17A9     		add	r1, sp, #92
 819              		.loc 2 156 0
 820 0042 0546     		mov	r5, r0
 821              	.LVL63:
 822              		.loc 2 159 0
 823 0044 3046     		mov	r0, r6
 824              	.LVL64:
 825 0046 FFF7FEFF 		bl	_strtok.clone.0
 826              	.LVL65:
 827 004a 0346     		mov	r3, r0
 828 004c 0028     		cmp	r0, #0
 829 004e 3AD0     		beq	.L74
 830 0050 3046     		mov	r0, r6
 831              	.LVL66:
 832 0052 17A9     		add	r1, sp, #92
 833              		.loc 2 165 0
 834 0054 1293     		str	r3, [sp, #72]
 835              	.LVL67:
 836              		.loc 2 159 0
 837 0056 FFF7FEFF 		bl	_strtok.clone.0
 838              	.LVL68:
 839 005a 0346     		mov	r3, r0
 840 005c 0028     		cmp	r0, #0
 841 005e 55D0     		beq	.L75
 842 0060 3046     		mov	r0, r6
 843              	.LVL69:
 844 0062 17A9     		add	r1, sp, #92
ARM GAS  C:\Users\DNIEL~1\AppData\Local\Temp\cc99nIpT.s 			page 16


 845              		.loc 2 165 0
 846 0064 1393     		str	r3, [sp, #76]
 847              	.LVL70:
 848              		.loc 2 159 0
 849 0066 FFF7FEFF 		bl	_strtok.clone.0
 850              	.LVL71:
 851 006a 0346     		mov	r3, r0
 852 006c 0028     		cmp	r0, #0
 853 006e 4FD0     		beq	.L76
 854 0070 3046     		mov	r0, r6
 855              	.LVL72:
 856 0072 17A9     		add	r1, sp, #92
 857              		.loc 2 165 0
 858 0074 1493     		str	r3, [sp, #80]
 859              	.LVL73:
 860              		.loc 2 159 0
 861 0076 FFF7FEFF 		bl	_strtok.clone.0
 862              	.LVL74:
 863 007a 0346     		mov	r3, r0
 864 007c 0028     		cmp	r0, #0
 865 007e 49D0     		beq	.L77
 866 0080 3046     		mov	r0, r6
 867              	.LVL75:
 868 0082 17A9     		add	r1, sp, #92
 869              		.loc 2 165 0
 870 0084 1593     		str	r3, [sp, #84]
 871              	.LVL76:
 872              		.loc 2 159 0
 873 0086 FFF7FEFF 		bl	_strtok.clone.0
 874              	.LVL77:
 875 008a 0028     		cmp	r0, #0
 876 008c 44D0     		beq	.L78
 877              		.loc 2 161 0
 878 008e 2046     		mov	r0, r4
 879              	.LVL78:
 880 0090 4249     		ldr	r1, .L83+16
 881 0092 FFF7FEFF 		bl	chprintf
 882              	.LVL79:
 883              		.loc 2 151 0
 884 0096 2046     		mov	r0, r4
 885 0098 3F49     		ldr	r1, .L83+12
 886              		.loc 2 167 0
 887 009a 1696     		str	r6, [sp, #88]
 888              		.loc 2 151 0
 889 009c FFF7FEFF 		bl	chprintf
 890              		.loc 2 152 0
 891 00a0 2046     		mov	r0, r4
 892 00a2 02A9     		add	r1, sp, #8
 893 00a4 4022     		movs	r2, #64
 894 00a6 FFF7FEFF 		bl	shellGetLine
 895 00aa 0646     		mov	r6, r0
 896 00ac 0028     		cmp	r0, #0
 897 00ae C3D0     		beq	.L64
 898              	.LVL80:
 899              	.L82:
 900              		.loc 2 153 0
 901 00b0 2046     		mov	r0, r4
ARM GAS  C:\Users\DNIEL~1\AppData\Local\Temp\cc99nIpT.s 			page 17


 902 00b2 3B49     		ldr	r1, .L83+20
 903 00b4 FFF7FEFF 		bl	chprintf
 904              	.L65:
 905              		.loc 2 194 0
 906 00b8 0020     		movs	r0, #0
 907 00ba FFF7FEFF 		bl	shellExit
 908              		.loc 2 197 0
 909 00be 0020     		movs	r0, #0
 910 00c0 19B0     		add	sp, sp, #100
 911 00c2 BDE8F083 		pop	{r4, r5, r6, r7, r8, r9, pc}
 912              	.LVL81:
 913              	.L74:
 914              		.loc 2 158 0
 915 00c6 0646     		mov	r6, r0
 916              	.LVL82:
 917              	.L66:
 918              		.loc 2 167 0
 919 00c8 0DF1600C 		add	ip, sp, #96
 920 00cc 0CEB8600 		add	r0, ip, r6, lsl #2
 921              	.LVL83:
 922 00d0 40F8189C 		str	r9, [r0, #-24]
 923              		.loc 2 168 0
 924 00d4 002D     		cmp	r5, #0
 925 00d6 A3D0     		beq	.L81
 926              		.loc 2 169 0
 927 00d8 2846     		mov	r0, r5
 928 00da 3249     		ldr	r1, .L83+24
 929 00dc FFF7FEFF 		bl	strcasecmp
 930 00e0 38B9     		cbnz	r0, .L68
 931              		.loc 2 170 0
 932 00e2 002E     		cmp	r6, #0
 933 00e4 E8D0     		beq	.L65
 934              	.LVL84:
 935              	.LBB21:
 936              	.LBB22:
 937              		.loc 2 56 0
 938 00e6 2046     		mov	r0, r4
 939 00e8 2F49     		ldr	r1, .L83+28
 940 00ea 2E4A     		ldr	r2, .L83+24
 941 00ec FFF7FEFF 		bl	chprintf
 942              	.LBE22:
 943              	.LBE21:
 944              		.loc 2 172 0
 945 00f0 96E7     		b	.L81
 946              	.LVL85:
 947              	.L68:
 948              		.loc 2 176 0
 949 00f2 2846     		mov	r0, r5
 950 00f4 2D49     		ldr	r1, .L83+32
 951 00f6 FFF7FEFF 		bl	strcasecmp
 952 00fa 78B9     		cbnz	r0, .L70
 953              		.loc 2 177 0
 954 00fc 002E     		cmp	r6, #0
 955 00fe 30D0     		beq	.L71
 956              	.LVL86:
 957              	.LBB23:
 958              	.LBB24:
ARM GAS  C:\Users\DNIEL~1\AppData\Local\Temp\cc99nIpT.s 			page 18


 959              		.loc 2 56 0
 960 0100 2046     		mov	r0, r4
 961 0102 2949     		ldr	r1, .L83+28
 962 0104 294A     		ldr	r2, .L83+32
 963 0106 FFF7FEFF 		bl	chprintf
 964              	.LBE24:
 965              	.LBE23:
 966              		.loc 2 179 0
 967 010a 89E7     		b	.L81
 968              	.LVL87:
 969              	.L75:
 970              		.loc 2 165 0
 971 010c 0126     		movs	r6, #1
 972 010e DBE7     		b	.L66
 973              	.LVL88:
 974              	.L76:
 975 0110 0226     		movs	r6, #2
 976 0112 D9E7     		b	.L66
 977              	.LVL89:
 978              	.L77:
 979 0114 0326     		movs	r6, #3
 980 0116 D7E7     		b	.L66
 981              	.LVL90:
 982              	.L78:
 983              		.loc 2 159 0
 984 0118 0426     		movs	r6, #4
 985 011a D5E7     		b	.L66
 986              	.LVL91:
 987              	.L70:
 988              		.loc 2 187 0
 989 011c 12AF     		add	r7, sp, #72
 990 011e 2448     		ldr	r0, .L83+36
 991 0120 2146     		mov	r1, r4
 992 0122 2A46     		mov	r2, r5
 993 0124 3346     		mov	r3, r6
 994 0126 0097     		str	r7, [sp, #0]
 995 0128 FFF7FEFF 		bl	cmdexec
 996 012c 0028     		cmp	r0, #0
 997 012e 3FF477AF 		beq	.L81
 998              		.loc 2 187 0 is_stmt 0 discriminator 1
 999 0132 B8F1000F 		cmp	r8, #0
 1000 0136 0AD0     		beq	.L73
 1001              		.loc 2 188 0 is_stmt 1
 1002 0138 3346     		mov	r3, r6
 1003 013a 4046     		mov	r0, r8
 1004 013c 12AE     		add	r6, sp, #72
 1005 013e 2146     		mov	r1, r4
 1006 0140 2A46     		mov	r2, r5
 1007 0142 0096     		str	r6, [sp, #0]
 1008 0144 FFF7FEFF 		bl	cmdexec
 1009 0148 0028     		cmp	r0, #0
 1010 014a 3FF469AF 		beq	.L81
 1011              	.L73:
 1012              		.loc 2 189 0
 1013 014e 2046     		mov	r0, r4
 1014 0150 1849     		ldr	r1, .L83+40
 1015 0152 2A46     		mov	r2, r5
ARM GAS  C:\Users\DNIEL~1\AppData\Local\Temp\cc99nIpT.s 			page 19


 1016 0154 FFF7FEFF 		bl	chprintf
 1017              		.loc 2 190 0
 1018 0158 2046     		mov	r0, r4
 1019 015a 1749     		ldr	r1, .L83+44
 1020 015c FFF7FEFF 		bl	chprintf
 1021 0160 5EE7     		b	.L81
 1022              	.L71:
 1023              		.loc 2 181 0
 1024 0162 1649     		ldr	r1, .L83+48
 1025 0164 2046     		mov	r0, r4
 1026 0166 FFF7FEFF 		bl	chprintf
 1027              		.loc 2 182 0
 1028 016a 2046     		mov	r0, r4
 1029 016c 1049     		ldr	r1, .L83+36
 1030 016e FFF7FEFF 		bl	list_commands
 1031              		.loc 2 183 0
 1032 0172 B8F1000F 		cmp	r8, #0
 1033 0176 03D0     		beq	.L72
 1034              		.loc 2 184 0
 1035 0178 2046     		mov	r0, r4
 1036 017a 4146     		mov	r1, r8
 1037 017c FFF7FEFF 		bl	list_commands
 1038              	.L72:
 1039              		.loc 2 185 0
 1040 0180 2046     		mov	r0, r4
 1041 0182 0F49     		ldr	r1, .L83+52
 1042 0184 FFF7FEFF 		bl	chprintf
 1043 0188 4AE7     		b	.L81
 1044              	.L84:
 1045 018a 00BF     		.align	2
 1046              	.L83:
 1047 018c 00000000 		.word	rlist
 1048 0190 6C010000 		.word	.LC26
 1049 0194 74010000 		.word	.LC27
 1050 0198 8C010000 		.word	.LC28
 1051 019c A0010000 		.word	.LC30
 1052 01a0 94010000 		.word	.LC29
 1053 01a4 B8010000 		.word	.LC31
 1054 01a8 00000000 		.word	.LC0
 1055 01ac C0010000 		.word	.LC32
 1056 01b0 00000000 		.word	.LANCHOR1
 1057 01b4 E0010000 		.word	.LC34
 1058 01b8 E4010000 		.word	.LC35
 1059 01bc C8010000 		.word	.LC33
 1060 01c0 68010000 		.word	.LC25
 1061              		.cfi_endproc
 1062              	.LFE63:
 1063              		.size	shell_thread, .-shell_thread
 1064              		.global	shell_terminated
 1065 01c4 AFF30080 		.section	.data.local_commands,"aw",%progbits
 1065      AFF30080 
 1065      AFF30080 
 1066              		.align	2
 1067              		.set	.LANCHOR1,. + 0
 1068              		.type	local_commands, %object
 1069              		.size	local_commands, 24
 1070              	local_commands:
ARM GAS  C:\Users\DNIEL~1\AppData\Local\Temp\cc99nIpT.s 			page 20


 1071 0000 1C000000 		.word	.LC3
 1072 0004 00000000 		.word	cmd_info
 1073 0008 0C000000 		.word	.LC1
 1074 000c 00000000 		.word	cmd_systime
 1075 0010 00000000 		.word	0
 1076 0014 00000000 		.word	0
 1077              		.section	.rodata.str1.4,"aMS",%progbits,1
 1078              		.align	2
 1079              	.LC0:
 1080 0000 55736167 		.ascii	"Usage: %s\015\012\000"
 1080      653A2025 
 1080      730D0A00 
 1081              	.LC1:
 1082 000c 73797374 		.ascii	"systime\000"
 1082      696D6500 
 1083              	.LC2:
 1084 0014 256C750D 		.ascii	"%lu\015\012\000"
 1084      0A00
 1085 001a 0000     		.space	2
 1086              	.LC3:
 1087 001c 696E666F 		.ascii	"info\000"
 1087      00
 1088 0021 000000   		.space	3
 1089              	.LC4:
 1090 0024 4B65726E 		.ascii	"Kernel:       %s\015\012\000"
 1090      656C3A20 
 1090      20202020 
 1090      20202573 
 1090      0D0A00
 1091 0037 00       		.space	1
 1092              	.LC5:
 1093 0038 322E362E 		.ascii	"2.6.7\000"
 1093      3700
 1094 003e 0000     		.space	2
 1095              	.LC6:
 1096 0040 436F6D70 		.ascii	"Compiler:     %s\015\012\000"
 1096      696C6572 
 1096      3A202020 
 1096      20202573 
 1096      0D0A00
 1097 0053 00       		.space	1
 1098              	.LC7:
 1099 0054 47434320 		.ascii	"GCC 4.5.2\000"
 1099      342E352E 
 1099      3200
 1100 005e 0000     		.space	2
 1101              	.LC8:
 1102 0060 41726368 		.ascii	"Architecture: %s\015\012\000"
 1102      69746563 
 1102      74757265 
 1102      3A202573 
 1102      0D0A00
 1103 0073 00       		.space	1
 1104              	.LC9:
 1105 0074 41524D76 		.ascii	"ARMv7-M\000"
 1105      372D4D00 
 1106              	.LC10:
ARM GAS  C:\Users\DNIEL~1\AppData\Local\Temp\cc99nIpT.s 			page 21


 1107 007c 436F7265 		.ascii	"Core Variant: %s\015\012\000"
 1107      20566172 
 1107      69616E74 
 1107      3A202573 
 1107      0D0A00
 1108 008f 00       		.space	1
 1109              	.LC11:
 1110 0090 436F7274 		.ascii	"Cortex-M3\000"
 1110      65782D4D 
 1110      3300
 1111 009a 0000     		.space	2
 1112              	.LC12:
 1113 009c 506F7274 		.ascii	"Port Info:    %s\015\012\000"
 1113      20496E66 
 1113      6F3A2020 
 1113      20202573 
 1113      0D0A00
 1114 00af 00       		.space	1
 1115              	.LC13:
 1116 00b0 41647661 		.ascii	"Advanced kernel mode\000"
 1116      6E636564 
 1116      206B6572 
 1116      6E656C20 
 1116      6D6F6465 
 1117 00c5 000000   		.space	3
 1118              	.LC14:
 1119 00c8 506C6174 		.ascii	"Platform:     %s\015\012\000"
 1119      666F726D 
 1119      3A202020 
 1119      20202573 
 1119      0D0A00
 1120 00db 00       		.space	1
 1121              	.LC15:
 1122 00dc 53544D33 		.ascii	"STM32F10x Performance Line Medium Density\000"
 1122      32463130 
 1122      78205065 
 1122      72666F72 
 1122      6D616E63 
 1123 0106 0000     		.space	2
 1124              	.LC16:
 1125 0108 426F6172 		.ascii	"Board:        %s\015\012\000"
 1125      643A2020 
 1125      20202020 
 1125      20202573 
 1125      0D0A00
 1126 011b 00       		.space	1
 1127              	.LC17:
 1128 011c 4C757843 		.ascii	"LuxControl\000"
 1128      6F6E7472 
 1128      6F6C00
 1129 0127 00       		.space	1
 1130              	.LC18:
 1131 0128 4275696C 		.ascii	"Build time:   %s%s%s\015\012\000"
 1131      64207469 
 1131      6D653A20 
 1131      20202573 
 1131      25732573 
ARM GAS  C:\Users\DNIEL~1\AppData\Local\Temp\cc99nIpT.s 			page 22


 1132 013f 00       		.space	1
 1133              	.LC19:
 1134 0140 4D617220 		.ascii	"Mar 19 2015\000"
 1134      31392032 
 1134      30313500 
 1135              	.LC20:
 1136 014c 202D2000 		.ascii	" - \000"
 1137              	.LC21:
 1138 0150 31363A33 		.ascii	"16:37:27\000"
 1138      373A3237 
 1138      00
 1139 0159 000000   		.space	3
 1140              	.LC22:
 1141 015c 25732000 		.ascii	"%s \000"
 1142              	.LC23:
 1143 0160 200900   		.ascii	" \011\000"
 1144 0163 00       		.space	1
 1145              	.LC24:
 1146 0164 5E4400   		.ascii	"^D\000"
 1147 0167 00       		.space	1
 1148              	.LC25:
 1149 0168 0D0A00   		.ascii	"\015\012\000"
 1150 016b 00       		.space	1
 1151              	.LC26:
 1152 016c 7368656C 		.ascii	"shell\000"
 1152      6C00
 1153 0172 0000     		.space	2
 1154              	.LC27:
 1155 0174 0D0A4368 		.ascii	"\015\012ChibiOS/RT Shell\015\012\000"
 1155      6962694F 
 1155      532F5254 
 1155      20536865 
 1155      6C6C0D0A 
 1156 0189 000000   		.space	3
 1157              	.LC28:
 1158 018c 63683E20 		.ascii	"ch> \000"
 1158      00
 1159 0191 000000   		.space	3
 1160              	.LC29:
 1161 0194 0D0A6C6F 		.ascii	"\015\012logout\000"
 1161      676F7574 
 1161      00
 1162 019d 000000   		.space	3
 1163              	.LC30:
 1164 01a0 746F6F20 		.ascii	"too many arguments\015\012\000"
 1164      6D616E79 
 1164      20617267 
 1164      756D656E 
 1164      74730D0A 
 1165 01b5 000000   		.space	3
 1166              	.LC31:
 1167 01b8 65786974 		.ascii	"exit\000"
 1167      00
 1168 01bd 000000   		.space	3
 1169              	.LC32:
 1170 01c0 68656C70 		.ascii	"help\000"
 1170      00
ARM GAS  C:\Users\DNIEL~1\AppData\Local\Temp\cc99nIpT.s 			page 23


 1171 01c5 000000   		.space	3
 1172              	.LC33:
 1173 01c8 436F6D6D 		.ascii	"Commands: help exit \000"
 1173      616E6473 
 1173      3A206865 
 1173      6C702065 
 1173      78697420 
 1174 01dd 000000   		.space	3
 1175              	.LC34:
 1176 01e0 257300   		.ascii	"%s\000"
 1177 01e3 00       		.space	1
 1178              	.LC35:
 1179 01e4 203F0D0A 		.ascii	" ?\015\012\000"
 1179      00
 1180 01e9 000000   		.section	.bss.shell_terminated,"aw",%nobits
 1181              		.align	2
 1182              		.set	.LANCHOR0,. + 0
 1183              		.type	shell_terminated, %object
 1184              		.size	shell_terminated, 4
 1185              	shell_terminated:
 1186 0000 00000000 		.space	4
 1187              		.text
 1188              	.Letext0: