ARM GAS  C:\Users\DNIEL~1\AppData\Local\Temp\cczu9NJe.s 			page 1


   1              		.syntax unified
   2              		.cpu cortex-m3
   3              		.fpu softvfp
   4              		.eabi_attribute 20, 1
   5              		.eabi_attribute 21, 1
   6              		.eabi_attribute 23, 3
   7              		.eabi_attribute 24, 1
   8              		.eabi_attribute 25, 1
   9              		.eabi_attribute 26, 1
  10              		.eabi_attribute 30, 2
  11              		.eabi_attribute 18, 4
  12              		.thumb
  13              		.file	"spi.c"
  20 0000 42040000 		.text
  20      0200EC02 
  20      00000201 
  20      FB0E0D00 
  20      01010101 
  21              	.Ltext0:
  22              		.cfi_sections	.debug_frame
  23              		.section	.text.spiInit,"ax",%progbits
  24              		.align	2
  25              		.p2align 4,,15
  26              		.global	spiInit
  27              		.thumb
  28              		.thumb_func
  29              		.type	spiInit, %function
  30              	spiInit:
  31              	.LFB56:
  32              		.file 1 "../../../ChibiOS/os/hal/src/spi.c"
  33              		.loc 1 61 0
  34              		.cfi_startproc
  35              		@ args = 0, pretend = 0, frame = 0
  36              		@ frame_needed = 0, uses_anonymous_args = 0
  37              		@ link register save eliminated.
  38              		.loc 1 64 0
  39              		.loc 1 63 0
  40 0000 FFF7FEBF 		b	spi_lld_init
  41              		.cfi_endproc
  42              	.LFE56:
  43              		.size	spiInit, .-spiInit
  44 0004 AFF30080 		.section	.text.spiObjectInit,"ax",%progbits
  44      AFF30080 
  44      AFF30080 
  45              		.align	2
  46              		.p2align 4,,15
  47              		.global	spiObjectInit
  48              		.thumb
  49              		.thumb_func
  50              		.type	spiObjectInit, %function
  51              	spiObjectInit:
ARM GAS  C:\Users\DNIEL~1\AppData\Local\Temp\cczu9NJe.s 			page 2


  52              	.LFB57:
  53              		.loc 1 73 0
  54              		.cfi_startproc
  55              		@ args = 0, pretend = 0, frame = 0
  56              		@ frame_needed = 0, uses_anonymous_args = 0
  57              		@ link register save eliminated.
  58              	.LVL0:
  59              		.loc 1 76 0
  60 0000 0023     		movs	r3, #0
  61              		.loc 1 75 0
  62 0002 0122     		movs	r2, #1
  63 0004 0270     		strb	r2, [r0, #0]
  64              		.loc 1 76 0
  65 0006 4360     		str	r3, [r0, #4]
  66              		.loc 1 78 0
  67 0008 8360     		str	r3, [r0, #8]
  68              		.loc 1 82 0
  69 000a 0C30     		adds	r0, r0, #12
  70              	.LVL1:
  71              		.loc 1 90 0
  72              		.loc 1 82 0
  73 000c FFF7FEBF 		b	chMtxInit
  74              		.cfi_endproc
  75              	.LFE57:
  76              		.size	spiObjectInit, .-spiObjectInit
  77              		.section	.text.spiStart,"ax",%progbits
  78              		.align	2
  79              		.p2align 4,,15
  80              		.global	spiStart
  81              		.thumb
  82              		.thumb_func
  83              		.type	spiStart, %function
  84              	spiStart:
  85              	.LFB58:
  86              		.loc 1 100 0
  87              		.cfi_startproc
  88              		@ args = 0, pretend = 0, frame = 0
  89              		@ frame_needed = 0, uses_anonymous_args = 0
  90              	.LVL2:
  91 0000 10B5     		push	{r4, lr}
  92              	.LCFI0:
  93              		.cfi_def_cfa_offset 8
  94              		.loc 1 100 0
  95 0002 0446     		mov	r4, r0
  96              		.cfi_offset 14, -4
  97              		.cfi_offset 4, -8
  98              		.loc 1 104 0
  99              	@ 104 "../../../ChibiOS/os/hal/src/spi.c" 1
 100 0004 FFF7FEFF 		bl      _port_lock
 101              	@ 0 "" 2
 102              		.loc 1 107 0
 103              		.thumb
 104 0008 4160     		str	r1, [r0, #4]
 105              		.loc 1 108 0
 106 000a FFF7FEFF 		bl	spi_lld_start
 107              	.LVL3:
 108              		.loc 1 109 0
ARM GAS  C:\Users\DNIEL~1\AppData\Local\Temp\cczu9NJe.s 			page 3


 109 000e 0223     		movs	r3, #2
 110 0010 2370     		strb	r3, [r4, #0]
 111              		.loc 1 110 0
 112              	@ 110 "../../../ChibiOS/os/hal/src/spi.c" 1
 113 0012 FFF7FEFF 		bl      _port_unlock
 114              	@ 0 "" 2
 115              		.loc 1 111 0
 116              		.thumb
 117 0016 10BD     		pop	{r4, pc}
 118              		.cfi_endproc
 119              	.LFE58:
 120              		.size	spiStart, .-spiStart
 121 0018 AFF30080 		.section	.text.spiStop,"ax",%progbits
 121      AFF30080 
 122              		.align	2
 123              		.p2align 4,,15
 124              		.global	spiStop
 125              		.thumb
 126              		.thumb_func
 127              		.type	spiStop, %function
 128              	spiStop:
 129              	.LFB59:
 130              		.loc 1 122 0
 131              		.cfi_startproc
 132              		@ args = 0, pretend = 0, frame = 0
 133              		@ frame_needed = 0, uses_anonymous_args = 0
 134              	.LVL4:
 135 0000 10B5     		push	{r4, lr}
 136              	.LCFI1:
 137              		.cfi_def_cfa_offset 8
 138              		.loc 1 122 0
 139 0002 0446     		mov	r4, r0
 140              		.cfi_offset 14, -4
 141              		.cfi_offset 4, -8
 142              		.loc 1 126 0
 143              	@ 126 "../../../ChibiOS/os/hal/src/spi.c" 1
 144 0004 FFF7FEFF 		bl      _port_lock
 145              	@ 0 "" 2
 146              		.loc 1 129 0
 147              		.thumb
 148 0008 FFF7FEFF 		bl	spi_lld_unselect
 149              	.LVL5:
 150              		.loc 1 130 0
 151 000c 2046     		mov	r0, r4
 152 000e FFF7FEFF 		bl	spi_lld_stop
 153              		.loc 1 131 0
 154 0012 0123     		movs	r3, #1
 155 0014 2370     		strb	r3, [r4, #0]
 156              		.loc 1 132 0
 157              	@ 132 "../../../ChibiOS/os/hal/src/spi.c" 1
 158 0016 FFF7FEFF 		bl      _port_unlock
 159              	@ 0 "" 2
 160              		.loc 1 133 0
 161              		.thumb
 162 001a 10BD     		pop	{r4, pc}
 163              		.cfi_endproc
 164              	.LFE59:
ARM GAS  C:\Users\DNIEL~1\AppData\Local\Temp\cczu9NJe.s 			page 4


 165              		.size	spiStop, .-spiStop
 166 001c AFF30080 		.section	.text.spiSelect,"ax",%progbits
 167              		.align	2
 168              		.p2align 4,,15
 169              		.global	spiSelect
 170              		.thumb
 171              		.thumb_func
 172              		.type	spiSelect, %function
 173              	spiSelect:
 174              	.LFB60:
 175              		.loc 1 142 0
 176              		.cfi_startproc
 177              		@ args = 0, pretend = 0, frame = 0
 178              		@ frame_needed = 0, uses_anonymous_args = 0
 179              	.LVL6:
 180 0000 08B5     		push	{r3, lr}
 181              	.LCFI2:
 182              		.cfi_def_cfa_offset 8
 183              		.loc 1 146 0
 184              	@ 146 "../../../ChibiOS/os/hal/src/spi.c" 1
 185 0002 FFF7FEFF 		bl      _port_lock
 186              	@ 0 "" 2
 187              		.loc 1 148 0
 188              		.thumb
 189              		.cfi_offset 14, -4
 190              		.cfi_offset 3, -8
 191 0006 FFF7FEFF 		bl	spi_lld_select
 192              	.LVL7:
 193              		.loc 1 149 0
 194              	@ 149 "../../../ChibiOS/os/hal/src/spi.c" 1
 195 000a FFF7FEFF 		bl      _port_unlock
 196              	@ 0 "" 2
 197              		.loc 1 150 0
 198              		.thumb
 199 000e 08BD     		pop	{r3, pc}
 200              		.cfi_endproc
 201              	.LFE60:
 202              		.size	spiSelect, .-spiSelect
 203              		.section	.text.spiUnselect,"ax",%progbits
 204              		.align	2
 205              		.p2align 4,,15
 206              		.global	spiUnselect
 207              		.thumb
 208              		.thumb_func
 209              		.type	spiUnselect, %function
 210              	spiUnselect:
 211              	.LFB61:
 212              		.loc 1 160 0
 213              		.cfi_startproc
 214              		@ args = 0, pretend = 0, frame = 0
 215              		@ frame_needed = 0, uses_anonymous_args = 0
 216              	.LVL8:
 217 0000 08B5     		push	{r3, lr}
 218              	.LCFI3:
 219              		.cfi_def_cfa_offset 8
 220              		.loc 1 164 0
 221              	@ 164 "../../../ChibiOS/os/hal/src/spi.c" 1
ARM GAS  C:\Users\DNIEL~1\AppData\Local\Temp\cczu9NJe.s 			page 5


 222 0002 FFF7FEFF 		bl      _port_lock
 223              	@ 0 "" 2
 224              		.loc 1 166 0
 225              		.thumb
 226              		.cfi_offset 14, -4
 227              		.cfi_offset 3, -8
 228 0006 FFF7FEFF 		bl	spi_lld_unselect
 229              	.LVL9:
 230              		.loc 1 167 0
 231              	@ 167 "../../../ChibiOS/os/hal/src/spi.c" 1
 232 000a FFF7FEFF 		bl      _port_unlock
 233              	@ 0 "" 2
 234              		.loc 1 168 0
 235              		.thumb
 236 000e 08BD     		pop	{r3, pc}
 237              		.cfi_endproc
 238              	.LFE61:
 239              		.size	spiUnselect, .-spiUnselect
 240              		.section	.text.spiStartIgnore,"ax",%progbits
 241              		.align	2
 242              		.p2align 4,,15
 243              		.global	spiStartIgnore
 244              		.thumb
 245              		.thumb_func
 246              		.type	spiStartIgnore, %function
 247              	spiStartIgnore:
 248              	.LFB62:
 249              		.loc 1 183 0
 250              		.cfi_startproc
 251              		@ args = 0, pretend = 0, frame = 0
 252              		@ frame_needed = 0, uses_anonymous_args = 0
 253              	.LVL10:
 254 0000 08B5     		push	{r3, lr}
 255              	.LCFI4:
 256              		.cfi_def_cfa_offset 8
 257              		.loc 1 187 0
 258              	@ 187 "../../../ChibiOS/os/hal/src/spi.c" 1
 259 0002 FFF7FEFF 		bl      _port_lock
 260              	@ 0 "" 2
 261              		.loc 1 189 0
 262              		.thumb
 263 0006 0323     		movs	r3, #3
 264              		.cfi_offset 14, -4
 265              		.cfi_offset 3, -8
 266 0008 0370     		strb	r3, [r0, #0]
 267 000a FFF7FEFF 		bl	spi_lld_ignore
 268              	.LVL11:
 269              		.loc 1 190 0
 270              	@ 190 "../../../ChibiOS/os/hal/src/spi.c" 1
 271 000e FFF7FEFF 		bl      _port_unlock
 272              	@ 0 "" 2
 273              		.loc 1 191 0
 274              		.thumb
 275 0012 08BD     		pop	{r3, pc}
 276              		.cfi_endproc
 277              	.LFE62:
 278              		.size	spiStartIgnore, .-spiStartIgnore
ARM GAS  C:\Users\DNIEL~1\AppData\Local\Temp\cczu9NJe.s 			page 6


 279 0014 AFF30080 		.section	.text.spiStartExchange,"ax",%progbits
 279      AFF30080 
 279      AFF30080 
 280              		.align	2
 281              		.p2align 4,,15
 282              		.global	spiStartExchange
 283              		.thumb
 284              		.thumb_func
 285              		.type	spiStartExchange, %function
 286              	spiStartExchange:
 287              	.LFB63:
 288              		.loc 1 211 0
 289              		.cfi_startproc
 290              		@ args = 0, pretend = 0, frame = 0
 291              		@ frame_needed = 0, uses_anonymous_args = 0
 292              	.LVL12:
 293 0000 38B5     		push	{r3, r4, r5, lr}
 294              	.LCFI5:
 295              		.cfi_def_cfa_offset 16
 296              		.loc 1 211 0
 297 0002 1C46     		mov	r4, r3
 298              		.cfi_offset 14, -4
 299              		.cfi_offset 5, -8
 300              		.cfi_offset 4, -12
 301              		.cfi_offset 3, -16
 302              		.loc 1 216 0
 303              	@ 216 "../../../ChibiOS/os/hal/src/spi.c" 1
 304 0004 FFF7FEFF 		bl      _port_lock
 305              	@ 0 "" 2
 306              	.LVL13:
 307              		.loc 1 218 0
 308              		.thumb
 309 0008 0323     		movs	r3, #3
 310 000a 0370     		strb	r3, [r0, #0]
 311 000c 2346     		mov	r3, r4
 312 000e FFF7FEFF 		bl	spi_lld_exchange
 313              	.LVL14:
 314              		.loc 1 219 0
 315              	@ 219 "../../../ChibiOS/os/hal/src/spi.c" 1
 316 0012 FFF7FEFF 		bl      _port_unlock
 317              	@ 0 "" 2
 318              		.loc 1 220 0
 319              		.thumb
 320 0016 38BD     		pop	{r3, r4, r5, pc}
 321              		.cfi_endproc
 322              	.LFE63:
 323              		.size	spiStartExchange, .-spiStartExchange
 324 0018 AFF30080 		.section	.text.spiStartSend,"ax",%progbits
 324      AFF30080 
 325              		.align	2
 326              		.p2align 4,,15
 327              		.global	spiStartSend
 328              		.thumb
 329              		.thumb_func
 330              		.type	spiStartSend, %function
 331              	spiStartSend:
 332              	.LFB64:
ARM GAS  C:\Users\DNIEL~1\AppData\Local\Temp\cczu9NJe.s 			page 7


 333              		.loc 1 237 0
 334              		.cfi_startproc
 335              		@ args = 0, pretend = 0, frame = 0
 336              		@ frame_needed = 0, uses_anonymous_args = 0
 337              	.LVL15:
 338 0000 10B5     		push	{r4, lr}
 339              	.LCFI6:
 340              		.cfi_def_cfa_offset 8
 341              		.loc 1 242 0
 342              	@ 242 "../../../ChibiOS/os/hal/src/spi.c" 1
 343 0002 FFF7FEFF 		bl      _port_lock
 344              	@ 0 "" 2
 345              		.loc 1 244 0
 346              		.thumb
 347 0006 0323     		movs	r3, #3
 348 0008 0370     		strb	r3, [r0, #0]
 349              		.cfi_offset 14, -4
 350              		.cfi_offset 4, -8
 351 000a FFF7FEFF 		bl	spi_lld_send
 352              	.LVL16:
 353              		.loc 1 245 0
 354              	@ 245 "../../../ChibiOS/os/hal/src/spi.c" 1
 355 000e FFF7FEFF 		bl      _port_unlock
 356              	@ 0 "" 2
 357              		.loc 1 246 0
 358              		.thumb
 359 0012 10BD     		pop	{r4, pc}
 360              		.cfi_endproc
 361              	.LFE64:
 362              		.size	spiStartSend, .-spiStartSend
 363 0014 AFF30080 		.section	.text.spiStartReceive,"ax",%progbits
 363      AFF30080 
 363      AFF30080 
 364              		.align	2
 365              		.p2align 4,,15
 366              		.global	spiStartReceive
 367              		.thumb
 368              		.thumb_func
 369              		.type	spiStartReceive, %function
 370              	spiStartReceive:
 371              	.LFB65:
 372              		.loc 1 263 0
 373              		.cfi_startproc
 374              		@ args = 0, pretend = 0, frame = 0
 375              		@ frame_needed = 0, uses_anonymous_args = 0
 376              	.LVL17:
 377 0000 10B5     		push	{r4, lr}
 378              	.LCFI7:
 379              		.cfi_def_cfa_offset 8
 380              		.loc 1 268 0
 381              	@ 268 "../../../ChibiOS/os/hal/src/spi.c" 1
 382 0002 FFF7FEFF 		bl      _port_lock
 383              	@ 0 "" 2
 384              		.loc 1 270 0
 385              		.thumb
 386 0006 0323     		movs	r3, #3
 387 0008 0370     		strb	r3, [r0, #0]
ARM GAS  C:\Users\DNIEL~1\AppData\Local\Temp\cczu9NJe.s 			page 8


 388              		.cfi_offset 14, -4
 389              		.cfi_offset 4, -8
 390 000a FFF7FEFF 		bl	spi_lld_receive
 391              	.LVL18:
 392              		.loc 1 271 0
 393              	@ 271 "../../../ChibiOS/os/hal/src/spi.c" 1
 394 000e FFF7FEFF 		bl      _port_unlock
 395              	@ 0 "" 2
 396              		.loc 1 272 0
 397              		.thumb
 398 0012 10BD     		pop	{r4, pc}
 399              		.cfi_endproc
 400              	.LFE65:
 401              		.size	spiStartReceive, .-spiStartReceive
 402 0014 AFF30080 		.section	.text.spiIgnore,"ax",%progbits
 402      AFF30080 
 402      AFF30080 
 403              		.align	2
 404              		.p2align 4,,15
 405              		.global	spiIgnore
 406              		.thumb
 407              		.thumb_func
 408              		.type	spiIgnore, %function
 409              	spiIgnore:
 410              	.LFB66:
 411              		.loc 1 289 0
 412              		.cfi_startproc
 413              		@ args = 0, pretend = 0, frame = 0
 414              		@ frame_needed = 0, uses_anonymous_args = 0
 415              	.LVL19:
 416 0000 10B5     		push	{r4, lr}
 417              	.LCFI8:
 418              		.cfi_def_cfa_offset 8
 419              		.loc 1 289 0
 420 0002 0446     		mov	r4, r0
 421              		.cfi_offset 14, -4
 422              		.cfi_offset 4, -8
 423              		.loc 1 293 0
 424              	@ 293 "../../../ChibiOS/os/hal/src/spi.c" 1
 425 0004 FFF7FEFF 		bl      _port_lock
 426              	@ 0 "" 2
 427              		.loc 1 296 0
 428              		.thumb
 429 0008 0322     		movs	r2, #3
 430 000a 0270     		strb	r2, [r0, #0]
 431 000c FFF7FEFF 		bl	spi_lld_ignore
 432              	.LVL20:
 433              		.loc 1 297 0
 434 0010 0449     		ldr	r1, .L12
 435 0012 0220     		movs	r0, #2
 436 0014 8B69     		ldr	r3, [r1, #24]
 437 0016 A360     		str	r3, [r4, #8]
 438 0018 FFF7FEFF 		bl	chSchGoSleepS
 439              		.loc 1 298 0
 440              	@ 298 "../../../ChibiOS/os/hal/src/spi.c" 1
 441 001c FFF7FEFF 		bl      _port_unlock
 442              	@ 0 "" 2
ARM GAS  C:\Users\DNIEL~1\AppData\Local\Temp\cczu9NJe.s 			page 9


 443              		.loc 1 299 0
 444              		.thumb
 445 0020 10BD     		pop	{r4, pc}
 446              	.L13:
 447 0022 00BF     		.align	2
 448              	.L12:
 449 0024 00000000 		.word	rlist
 450              		.cfi_endproc
 451              	.LFE66:
 452              		.size	spiIgnore, .-spiIgnore
 453 0028 AFF30080 		.section	.text.spiExchange,"ax",%progbits
 453      AFF30080 
 454              		.align	2
 455              		.p2align 4,,15
 456              		.global	spiExchange
 457              		.thumb
 458              		.thumb_func
 459              		.type	spiExchange, %function
 460              	spiExchange:
 461              	.LFB67:
 462              		.loc 1 320 0
 463              		.cfi_startproc
 464              		@ args = 0, pretend = 0, frame = 0
 465              		@ frame_needed = 0, uses_anonymous_args = 0
 466              	.LVL21:
 467 0000 38B5     		push	{r3, r4, r5, lr}
 468              	.LCFI9:
 469              		.cfi_def_cfa_offset 16
 470              		.loc 1 320 0
 471 0002 0446     		mov	r4, r0
 472              		.cfi_offset 14, -4
 473              		.cfi_offset 5, -8
 474              		.cfi_offset 4, -12
 475              		.cfi_offset 3, -16
 476 0004 1D46     		mov	r5, r3
 477              		.loc 1 325 0
 478              	@ 325 "../../../ChibiOS/os/hal/src/spi.c" 1
 479 0006 FFF7FEFF 		bl      _port_lock
 480              	@ 0 "" 2
 481              	.LVL22:
 482              		.loc 1 329 0
 483              		.thumb
 484 000a 2B46     		mov	r3, r5
 485 000c 0325     		movs	r5, #3
 486              	.LVL23:
 487 000e 0570     		strb	r5, [r0, #0]
 488 0010 FFF7FEFF 		bl	spi_lld_exchange
 489              	.LVL24:
 490              		.loc 1 330 0
 491 0014 0449     		ldr	r1, .L15
 492 0016 0220     		movs	r0, #2
 493 0018 8B69     		ldr	r3, [r1, #24]
 494 001a A360     		str	r3, [r4, #8]
 495 001c FFF7FEFF 		bl	chSchGoSleepS
 496              		.loc 1 331 0
 497              	@ 331 "../../../ChibiOS/os/hal/src/spi.c" 1
 498 0020 FFF7FEFF 		bl      _port_unlock
ARM GAS  C:\Users\DNIEL~1\AppData\Local\Temp\cczu9NJe.s 			page 10


 499              	@ 0 "" 2
 500              		.loc 1 332 0
 501              		.thumb
 502 0024 38BD     		pop	{r3, r4, r5, pc}
 503              	.L16:
 504 0026 00BF     		.align	2
 505              	.L15:
 506 0028 00000000 		.word	rlist
 507              		.cfi_endproc
 508              	.LFE67:
 509              		.size	spiExchange, .-spiExchange
 510 002c AFF30080 		.section	.text.spiSend,"ax",%progbits
 511              		.align	2
 512              		.p2align 4,,15
 513              		.global	spiSend
 514              		.thumb
 515              		.thumb_func
 516              		.type	spiSend, %function
 517              	spiSend:
 518              	.LFB68:
 519              		.loc 1 350 0
 520              		.cfi_startproc
 521              		@ args = 0, pretend = 0, frame = 0
 522              		@ frame_needed = 0, uses_anonymous_args = 0
 523              	.LVL25:
 524 0000 10B5     		push	{r4, lr}
 525              	.LCFI10:
 526              		.cfi_def_cfa_offset 8
 527              		.loc 1 350 0
 528 0002 0446     		mov	r4, r0
 529              		.cfi_offset 14, -4
 530              		.cfi_offset 4, -8
 531              		.loc 1 354 0
 532              	@ 354 "../../../ChibiOS/os/hal/src/spi.c" 1
 533 0004 FFF7FEFF 		bl      _port_lock
 534              	@ 0 "" 2
 535              		.loc 1 357 0
 536              		.thumb
 537 0008 0323     		movs	r3, #3
 538 000a 0370     		strb	r3, [r0, #0]
 539 000c FFF7FEFF 		bl	spi_lld_send
 540              	.LVL26:
 541              		.loc 1 358 0
 542 0010 0449     		ldr	r1, .L18
 543 0012 0220     		movs	r0, #2
 544 0014 8B69     		ldr	r3, [r1, #24]
 545 0016 A360     		str	r3, [r4, #8]
 546 0018 FFF7FEFF 		bl	chSchGoSleepS
 547              		.loc 1 359 0
 548              	@ 359 "../../../ChibiOS/os/hal/src/spi.c" 1
 549 001c FFF7FEFF 		bl      _port_unlock
 550              	@ 0 "" 2
 551              		.loc 1 360 0
 552              		.thumb
 553 0020 10BD     		pop	{r4, pc}
 554              	.L19:
 555 0022 00BF     		.align	2
ARM GAS  C:\Users\DNIEL~1\AppData\Local\Temp\cczu9NJe.s 			page 11


 556              	.L18:
 557 0024 00000000 		.word	rlist
 558              		.cfi_endproc
 559              	.LFE68:
 560              		.size	spiSend, .-spiSend
 561 0028 AFF30080 		.section	.text.spiReceive,"ax",%progbits
 561      AFF30080 
 562              		.align	2
 563              		.p2align 4,,15
 564              		.global	spiReceive
 565              		.thumb
 566              		.thumb_func
 567              		.type	spiReceive, %function
 568              	spiReceive:
 569              	.LFB69:
 570              		.loc 1 378 0
 571              		.cfi_startproc
 572              		@ args = 0, pretend = 0, frame = 0
 573              		@ frame_needed = 0, uses_anonymous_args = 0
 574              	.LVL27:
 575 0000 10B5     		push	{r4, lr}
 576              	.LCFI11:
 577              		.cfi_def_cfa_offset 8
 578              		.loc 1 378 0
 579 0002 0446     		mov	r4, r0
 580              		.cfi_offset 14, -4
 581              		.cfi_offset 4, -8
 582              		.loc 1 383 0
 583              	@ 383 "../../../ChibiOS/os/hal/src/spi.c" 1
 584 0004 FFF7FEFF 		bl      _port_lock
 585              	@ 0 "" 2
 586              		.loc 1 387 0
 587              		.thumb
 588 0008 0323     		movs	r3, #3
 589 000a 0370     		strb	r3, [r0, #0]
 590 000c FFF7FEFF 		bl	spi_lld_receive
 591              	.LVL28:
 592              		.loc 1 388 0
 593 0010 0449     		ldr	r1, .L21
 594 0012 0220     		movs	r0, #2
 595 0014 8B69     		ldr	r3, [r1, #24]
 596 0016 A360     		str	r3, [r4, #8]
 597 0018 FFF7FEFF 		bl	chSchGoSleepS
 598              		.loc 1 389 0
 599              	@ 389 "../../../ChibiOS/os/hal/src/spi.c" 1
 600 001c FFF7FEFF 		bl      _port_unlock
 601              	@ 0 "" 2
 602              		.loc 1 390 0
 603              		.thumb
 604 0020 10BD     		pop	{r4, pc}
 605              	.L22:
 606 0022 00BF     		.align	2
 607              	.L21:
 608 0024 00000000 		.word	rlist
 609              		.cfi_endproc
 610              	.LFE69:
 611              		.size	spiReceive, .-spiReceive
ARM GAS  C:\Users\DNIEL~1\AppData\Local\Temp\cczu9NJe.s 			page 12


 612 0028 AFF30080 		.section	.text.spiAcquireBus,"ax",%progbits
 612      AFF30080 
 613              		.align	2
 614              		.p2align 4,,15
 615              		.global	spiAcquireBus
 616              		.thumb
 617              		.thumb_func
 618              		.type	spiAcquireBus, %function
 619              	spiAcquireBus:
 620              	.LFB70:
 621              		.loc 1 405 0
 622              		.cfi_startproc
 623              		@ args = 0, pretend = 0, frame = 0
 624              		@ frame_needed = 0, uses_anonymous_args = 0
 625              		@ link register save eliminated.
 626              	.LVL29:
 627              		.loc 1 410 0
 628 0000 0C30     		adds	r0, r0, #12
 629              	.LVL30:
 630              		.loc 1 414 0
 631              		.loc 1 410 0
 632 0002 FFF7FEBF 		b	chMtxLock
 633              		.cfi_endproc
 634              	.LFE70:
 635              		.size	spiAcquireBus, .-spiAcquireBus
 636 0006 00BFAFF3 		.section	.text.spiReleaseBus,"ax",%progbits
 636      0080AFF3 
 636      0080
 637              		.align	2
 638              		.p2align 4,,15
 639              		.global	spiReleaseBus
 640              		.thumb
 641              		.thumb_func
 642              		.type	spiReleaseBus, %function
 643              	spiReleaseBus:
 644              	.LFB71:
 645              		.loc 1 425 0
 646              		.cfi_startproc
 647              		@ args = 0, pretend = 0, frame = 0
 648              		@ frame_needed = 0, uses_anonymous_args = 0
 649              		@ link register save eliminated.
 650              	.LVL31:
 651              		.loc 1 435 0
 652              		.loc 1 431 0
 653 0000 FFF7FEBF 		b	chMtxUnlock
 654              		.cfi_endproc
 655              	.LFE71:
 656              		.size	spiReleaseBus, .-spiReleaseBus
 657 0004 AFF30080 		.text
 657      AFF30080 
 657      AFF30080 
 658              	.Letext0: