ARM GAS  C:\Users\DNIEL~1\AppData\Local\Temp\cccvHhse.s 			page 1


   1              		.syntax unified
   2              		.cpu cortex-m3
   3              		.fpu softvfp
   4              		.eabi_attribute 20, 1
   5              		.eabi_attribute 21, 1
   6              		.eabi_attribute 23, 3
   7              		.eabi_attribute 24, 1
   8              		.eabi_attribute 25, 1
   9              		.eabi_attribute 26, 1
  10              		.eabi_attribute 30, 2
  11              		.eabi_attribute 18, 4
  12              		.thumb
  13              		.file	"spi.c"
  14              		.section	.debug_abbrev,"",%progbits
  15              	.Ldebug_abbrev0:
  16              		.section	.debug_info,"",%progbits
  17              	.Ldebug_info0:
  18              		.section	.debug_line,"",%progbits
  19              	.Ldebug_line0:
  20 0000 49040000 		.text
  20      0200F202 
  20      00000201 
  20      FB0E0D00 
  20      01010101 
  21              	.Ltext0:
  22              		.cfi_sections	.debug_frame
  23              		.section	.text.spiInit,"ax",%progbits
  24              		.align	2
  25              		.p2align 4,,15
  26              		.global	spiInit
  27              		.thumb
  28              		.thumb_func
  29              		.type	spiInit, %function
  30              	spiInit:
  31              	.LFB56:
  32              		.file 1 "../../../ChibiOS/os/hal/src/spi.c"
  33              		.loc 1 68 0
  34              		.cfi_startproc
  35              		@ args = 0, pretend = 0, frame = 0
  36              		@ frame_needed = 0, uses_anonymous_args = 0
  37              		@ link register save eliminated.
  38              		.loc 1 71 0
  39              		.loc 1 70 0
  40 0000 FFF7FEBF 		b	spi_lld_init
  41              		.cfi_endproc
  42              	.LFE56:
  43              		.size	spiInit, .-spiInit
  44 0004 AFF30080 		.section	.text.spiObjectInit,"ax",%progbits
  44      AFF30080 
  44      AFF30080 
  45              		.align	2
  46              		.p2align 4,,15
  47              		.global	spiObjectInit
  48              		.thumb
  49              		.thumb_func
  50              		.type	spiObjectInit, %function
  51              	spiObjectInit:
ARM GAS  C:\Users\DNIEL~1\AppData\Local\Temp\cccvHhse.s 			page 2


  52              	.LFB57:
  53              		.loc 1 80 0
  54              		.cfi_startproc
  55              		@ args = 0, pretend = 0, frame = 0
  56              		@ frame_needed = 0, uses_anonymous_args = 0
  57              		@ link register save eliminated.
  58              	.LVL0:
  59              		.loc 1 83 0
  60 0000 0023     		movs	r3, #0
  61              		.loc 1 82 0
  62 0002 0122     		movs	r2, #1
  63 0004 0270     		strb	r2, [r0, #0]
  64              		.loc 1 83 0
  65 0006 4360     		str	r3, [r0, #4]
  66              		.loc 1 85 0
  67 0008 8360     		str	r3, [r0, #8]
  68              		.loc 1 89 0
  69 000a 0C30     		adds	r0, r0, #12
  70              	.LVL1:
  71              		.loc 1 97 0
  72              		.loc 1 89 0
  73 000c FFF7FEBF 		b	chMtxInit
  74              		.cfi_endproc
  75              	.LFE57:
  76              		.size	spiObjectInit, .-spiObjectInit
  77              		.section	.text.spiStart,"ax",%progbits
  78              		.align	2
  79              		.p2align 4,,15
  80              		.global	spiStart
  81              		.thumb
  82              		.thumb_func
  83              		.type	spiStart, %function
  84              	spiStart:
  85              	.LFB58:
  86              		.loc 1 107 0
  87              		.cfi_startproc
  88              		@ args = 0, pretend = 0, frame = 0
  89              		@ frame_needed = 0, uses_anonymous_args = 0
  90              	.LVL2:
  91 0000 10B5     		push	{r4, lr}
  92              	.LCFI0:
  93              		.cfi_def_cfa_offset 8
  94              		.loc 1 107 0
  95 0002 0446     		mov	r4, r0
  96              		.cfi_offset 14, -4
  97              		.cfi_offset 4, -8
  98              		.loc 1 111 0
  99              	@ 111 "../../../ChibiOS/os/hal/src/spi.c" 1
 100 0004 FFF7FEFF 		bl      _port_lock
 101              	@ 0 "" 2
 102              		.loc 1 114 0
 103              		.thumb
 104 0008 4160     		str	r1, [r0, #4]
 105              		.loc 1 115 0
 106 000a FFF7FEFF 		bl	spi_lld_start
 107              	.LVL3:
 108              		.loc 1 116 0
ARM GAS  C:\Users\DNIEL~1\AppData\Local\Temp\cccvHhse.s 			page 3


 109 000e 0223     		movs	r3, #2
 110 0010 2370     		strb	r3, [r4, #0]
 111              		.loc 1 117 0
 112              	@ 117 "../../../ChibiOS/os/hal/src/spi.c" 1
 113 0012 FFF7FEFF 		bl      _port_unlock
 114              	@ 0 "" 2
 115              		.loc 1 118 0
 116              		.thumb
 117 0016 10BD     		pop	{r4, pc}
 118              		.cfi_endproc
 119              	.LFE58:
 120              		.size	spiStart, .-spiStart
 121 0018 AFF30080 		.section	.text.spiStop,"ax",%progbits
 121      AFF30080 
 122              		.align	2
 123              		.p2align 4,,15
 124              		.global	spiStop
 125              		.thumb
 126              		.thumb_func
 127              		.type	spiStop, %function
 128              	spiStop:
 129              	.LFB59:
 130              		.loc 1 129 0
 131              		.cfi_startproc
 132              		@ args = 0, pretend = 0, frame = 0
 133              		@ frame_needed = 0, uses_anonymous_args = 0
 134              	.LVL4:
 135 0000 10B5     		push	{r4, lr}
 136              	.LCFI1:
 137              		.cfi_def_cfa_offset 8
 138              		.loc 1 129 0
 139 0002 0446     		mov	r4, r0
 140              		.cfi_offset 14, -4
 141              		.cfi_offset 4, -8
 142              		.loc 1 133 0
 143              	@ 133 "../../../ChibiOS/os/hal/src/spi.c" 1
 144 0004 FFF7FEFF 		bl      _port_lock
 145              	@ 0 "" 2
 146              		.loc 1 136 0
 147              		.thumb
 148 0008 FFF7FEFF 		bl	spi_lld_unselect
 149              	.LVL5:
 150              		.loc 1 137 0
 151 000c 2046     		mov	r0, r4
 152 000e FFF7FEFF 		bl	spi_lld_stop
 153              		.loc 1 138 0
 154 0012 0123     		movs	r3, #1
 155 0014 2370     		strb	r3, [r4, #0]
 156              		.loc 1 139 0
 157              	@ 139 "../../../ChibiOS/os/hal/src/spi.c" 1
 158 0016 FFF7FEFF 		bl      _port_unlock
 159              	@ 0 "" 2
 160              		.loc 1 140 0
 161              		.thumb
 162 001a 10BD     		pop	{r4, pc}
 163              		.cfi_endproc
 164              	.LFE59:
ARM GAS  C:\Users\DNIEL~1\AppData\Local\Temp\cccvHhse.s 			page 4


 165              		.size	spiStop, .-spiStop
 166 001c AFF30080 		.section	.text.spiSelect,"ax",%progbits
 167              		.align	2
 168              		.p2align 4,,15
 169              		.global	spiSelect
 170              		.thumb
 171              		.thumb_func
 172              		.type	spiSelect, %function
 173              	spiSelect:
 174              	.LFB60:
 175              		.loc 1 149 0
 176              		.cfi_startproc
 177              		@ args = 0, pretend = 0, frame = 0
 178              		@ frame_needed = 0, uses_anonymous_args = 0
 179              	.LVL6:
 180 0000 08B5     		push	{r3, lr}
 181              	.LCFI2:
 182              		.cfi_def_cfa_offset 8
 183              		.loc 1 153 0
 184              	@ 153 "../../../ChibiOS/os/hal/src/spi.c" 1
 185 0002 FFF7FEFF 		bl      _port_lock
 186              	@ 0 "" 2
 187              		.loc 1 155 0
 188              		.thumb
 189              		.cfi_offset 14, -4
 190              		.cfi_offset 3, -8
 191 0006 FFF7FEFF 		bl	spi_lld_select
 192              	.LVL7:
 193              		.loc 1 156 0
 194              	@ 156 "../../../ChibiOS/os/hal/src/spi.c" 1
 195 000a FFF7FEFF 		bl      _port_unlock
 196              	@ 0 "" 2
 197              		.loc 1 157 0
 198              		.thumb
 199 000e 08BD     		pop	{r3, pc}
 200              		.cfi_endproc
 201              	.LFE60:
 202              		.size	spiSelect, .-spiSelect
 203              		.section	.text.spiUnselect,"ax",%progbits
 204              		.align	2
 205              		.p2align 4,,15
 206              		.global	spiUnselect
 207              		.thumb
 208              		.thumb_func
 209              		.type	spiUnselect, %function
 210              	spiUnselect:
 211              	.LFB61:
 212              		.loc 1 167 0
 213              		.cfi_startproc
 214              		@ args = 0, pretend = 0, frame = 0
 215              		@ frame_needed = 0, uses_anonymous_args = 0
 216              	.LVL8:
 217 0000 08B5     		push	{r3, lr}
 218              	.LCFI3:
 219              		.cfi_def_cfa_offset 8
 220              		.loc 1 171 0
 221              	@ 171 "../../../ChibiOS/os/hal/src/spi.c" 1
ARM GAS  C:\Users\DNIEL~1\AppData\Local\Temp\cccvHhse.s 			page 5


 222 0002 FFF7FEFF 		bl      _port_lock
 223              	@ 0 "" 2
 224              		.loc 1 173 0
 225              		.thumb
 226              		.cfi_offset 14, -4
 227              		.cfi_offset 3, -8
 228 0006 FFF7FEFF 		bl	spi_lld_unselect
 229              	.LVL9:
 230              		.loc 1 174 0
 231              	@ 174 "../../../ChibiOS/os/hal/src/spi.c" 1
 232 000a FFF7FEFF 		bl      _port_unlock
 233              	@ 0 "" 2
 234              		.loc 1 175 0
 235              		.thumb
 236 000e 08BD     		pop	{r3, pc}
 237              		.cfi_endproc
 238              	.LFE61:
 239              		.size	spiUnselect, .-spiUnselect
 240              		.section	.text.spiStartIgnore,"ax",%progbits
 241              		.align	2
 242              		.p2align 4,,15
 243              		.global	spiStartIgnore
 244              		.thumb
 245              		.thumb_func
 246              		.type	spiStartIgnore, %function
 247              	spiStartIgnore:
 248              	.LFB62:
 249              		.loc 1 190 0
 250              		.cfi_startproc
 251              		@ args = 0, pretend = 0, frame = 0
 252              		@ frame_needed = 0, uses_anonymous_args = 0
 253              	.LVL10:
 254 0000 08B5     		push	{r3, lr}
 255              	.LCFI4:
 256              		.cfi_def_cfa_offset 8
 257              		.loc 1 194 0
 258              	@ 194 "../../../ChibiOS/os/hal/src/spi.c" 1
 259 0002 FFF7FEFF 		bl      _port_lock
 260              	@ 0 "" 2
 261              		.loc 1 196 0
 262              		.thumb
 263 0006 0323     		movs	r3, #3
 264              		.cfi_offset 14, -4
 265              		.cfi_offset 3, -8
 266 0008 0370     		strb	r3, [r0, #0]
 267 000a FFF7FEFF 		bl	spi_lld_ignore
 268              	.LVL11:
 269              		.loc 1 197 0
 270              	@ 197 "../../../ChibiOS/os/hal/src/spi.c" 1
 271 000e FFF7FEFF 		bl      _port_unlock
 272              	@ 0 "" 2
 273              		.loc 1 198 0
 274              		.thumb
 275 0012 08BD     		pop	{r3, pc}
 276              		.cfi_endproc
 277              	.LFE62:
 278              		.size	spiStartIgnore, .-spiStartIgnore
ARM GAS  C:\Users\DNIEL~1\AppData\Local\Temp\cccvHhse.s 			page 6


 279 0014 AFF30080 		.section	.text.spiStartExchange,"ax",%progbits
 279      AFF30080 
 279      AFF30080 
 280              		.align	2
 281              		.p2align 4,,15
 282              		.global	spiStartExchange
 283              		.thumb
 284              		.thumb_func
 285              		.type	spiStartExchange, %function
 286              	spiStartExchange:
 287              	.LFB63:
 288              		.loc 1 218 0
 289              		.cfi_startproc
 290              		@ args = 0, pretend = 0, frame = 0
 291              		@ frame_needed = 0, uses_anonymous_args = 0
 292              	.LVL12:
 293 0000 38B5     		push	{r3, r4, r5, lr}
 294              	.LCFI5:
 295              		.cfi_def_cfa_offset 16
 296              		.loc 1 218 0
 297 0002 1C46     		mov	r4, r3
 298              		.cfi_offset 14, -4
 299              		.cfi_offset 5, -8
 300              		.cfi_offset 4, -12
 301              		.cfi_offset 3, -16
 302              		.loc 1 223 0
 303              	@ 223 "../../../ChibiOS/os/hal/src/spi.c" 1
 304 0004 FFF7FEFF 		bl      _port_lock
 305              	@ 0 "" 2
 306              	.LVL13:
 307              		.loc 1 225 0
 308              		.thumb
 309 0008 0323     		movs	r3, #3
 310 000a 0370     		strb	r3, [r0, #0]
 311 000c 2346     		mov	r3, r4
 312 000e FFF7FEFF 		bl	spi_lld_exchange
 313              	.LVL14:
 314              		.loc 1 226 0
 315              	@ 226 "../../../ChibiOS/os/hal/src/spi.c" 1
 316 0012 FFF7FEFF 		bl      _port_unlock
 317              	@ 0 "" 2
 318              		.loc 1 227 0
 319              		.thumb
 320 0016 38BD     		pop	{r3, r4, r5, pc}
 321              		.cfi_endproc
 322              	.LFE63:
 323              		.size	spiStartExchange, .-spiStartExchange
 324 0018 AFF30080 		.section	.text.spiStartSend,"ax",%progbits
 324      AFF30080 
 325              		.align	2
 326              		.p2align 4,,15
 327              		.global	spiStartSend
 328              		.thumb
 329              		.thumb_func
 330              		.type	spiStartSend, %function
 331              	spiStartSend:
 332              	.LFB64:
ARM GAS  C:\Users\DNIEL~1\AppData\Local\Temp\cccvHhse.s 			page 7


 333              		.loc 1 244 0
 334              		.cfi_startproc
 335              		@ args = 0, pretend = 0, frame = 0
 336              		@ frame_needed = 0, uses_anonymous_args = 0
 337              	.LVL15:
 338 0000 10B5     		push	{r4, lr}
 339              	.LCFI6:
 340              		.cfi_def_cfa_offset 8
 341              		.loc 1 249 0
 342              	@ 249 "../../../ChibiOS/os/hal/src/spi.c" 1
 343 0002 FFF7FEFF 		bl      _port_lock
 344              	@ 0 "" 2
 345              		.loc 1 251 0
 346              		.thumb
 347 0006 0323     		movs	r3, #3
 348 0008 0370     		strb	r3, [r0, #0]
 349              		.cfi_offset 14, -4
 350              		.cfi_offset 4, -8
 351 000a FFF7FEFF 		bl	spi_lld_send
 352              	.LVL16:
 353              		.loc 1 252 0
 354              	@ 252 "../../../ChibiOS/os/hal/src/spi.c" 1
 355 000e FFF7FEFF 		bl      _port_unlock
 356              	@ 0 "" 2
 357              		.loc 1 253 0
 358              		.thumb
 359 0012 10BD     		pop	{r4, pc}
 360              		.cfi_endproc
 361              	.LFE64:
 362              		.size	spiStartSend, .-spiStartSend
 363 0014 AFF30080 		.section	.text.spiStartReceive,"ax",%progbits
 363      AFF30080 
 363      AFF30080 
 364              		.align	2
 365              		.p2align 4,,15
 366              		.global	spiStartReceive
 367              		.thumb
 368              		.thumb_func
 369              		.type	spiStartReceive, %function
 370              	spiStartReceive:
 371              	.LFB65:
 372              		.loc 1 270 0
 373              		.cfi_startproc
 374              		@ args = 0, pretend = 0, frame = 0
 375              		@ frame_needed = 0, uses_anonymous_args = 0
 376              	.LVL17:
 377 0000 10B5     		push	{r4, lr}
 378              	.LCFI7:
 379              		.cfi_def_cfa_offset 8
 380              		.loc 1 275 0
 381              	@ 275 "../../../ChibiOS/os/hal/src/spi.c" 1
 382 0002 FFF7FEFF 		bl      _port_lock
 383              	@ 0 "" 2
 384              		.loc 1 277 0
 385              		.thumb
 386 0006 0323     		movs	r3, #3
 387 0008 0370     		strb	r3, [r0, #0]
ARM GAS  C:\Users\DNIEL~1\AppData\Local\Temp\cccvHhse.s 			page 8


 388              		.cfi_offset 14, -4
 389              		.cfi_offset 4, -8
 390 000a FFF7FEFF 		bl	spi_lld_receive
 391              	.LVL18:
 392              		.loc 1 278 0
 393              	@ 278 "../../../ChibiOS/os/hal/src/spi.c" 1
 394 000e FFF7FEFF 		bl      _port_unlock
 395              	@ 0 "" 2
 396              		.loc 1 279 0
 397              		.thumb
 398 0012 10BD     		pop	{r4, pc}
 399              		.cfi_endproc
 400              	.LFE65:
 401              		.size	spiStartReceive, .-spiStartReceive
 402 0014 AFF30080 		.section	.text.spiIgnore,"ax",%progbits
 402      AFF30080 
 402      AFF30080 
 403              		.align	2
 404              		.p2align 4,,15
 405              		.global	spiIgnore
 406              		.thumb
 407              		.thumb_func
 408              		.type	spiIgnore, %function
 409              	spiIgnore:
 410              	.LFB66:
 411              		.loc 1 296 0
 412              		.cfi_startproc
 413              		@ args = 0, pretend = 0, frame = 0
 414              		@ frame_needed = 0, uses_anonymous_args = 0
 415              	.LVL19:
 416 0000 10B5     		push	{r4, lr}
 417              	.LCFI8:
 418              		.cfi_def_cfa_offset 8
 419              		.loc 1 296 0
 420 0002 0446     		mov	r4, r0
 421              		.cfi_offset 14, -4
 422              		.cfi_offset 4, -8
 423              		.loc 1 300 0
 424              	@ 300 "../../../ChibiOS/os/hal/src/spi.c" 1
 425 0004 FFF7FEFF 		bl      _port_lock
 426              	@ 0 "" 2
 427              		.loc 1 303 0
 428              		.thumb
 429 0008 0322     		movs	r2, #3
 430 000a 0270     		strb	r2, [r0, #0]
 431 000c FFF7FEFF 		bl	spi_lld_ignore
 432              	.LVL20:
 433              		.loc 1 304 0
 434 0010 0449     		ldr	r1, .L12
 435 0012 0220     		movs	r0, #2
 436 0014 8B69     		ldr	r3, [r1, #24]
 437 0016 A360     		str	r3, [r4, #8]
 438 0018 FFF7FEFF 		bl	chSchGoSleepS
 439              		.loc 1 305 0
 440              	@ 305 "../../../ChibiOS/os/hal/src/spi.c" 1
 441 001c FFF7FEFF 		bl      _port_unlock
 442              	@ 0 "" 2
ARM GAS  C:\Users\DNIEL~1\AppData\Local\Temp\cccvHhse.s 			page 9


 443              		.loc 1 306 0
 444              		.thumb
 445 0020 10BD     		pop	{r4, pc}
 446              	.L13:
 447 0022 00BF     		.align	2
 448              	.L12:
 449 0024 00000000 		.word	rlist
 450              		.cfi_endproc
 451              	.LFE66:
 452              		.size	spiIgnore, .-spiIgnore
 453 0028 AFF30080 		.section	.text.spiExchange,"ax",%progbits
 453      AFF30080 
 454              		.align	2
 455              		.p2align 4,,15
 456              		.global	spiExchange
 457              		.thumb
 458              		.thumb_func
 459              		.type	spiExchange, %function
 460              	spiExchange:
 461              	.LFB67:
 462              		.loc 1 327 0
 463              		.cfi_startproc
 464              		@ args = 0, pretend = 0, frame = 0
 465              		@ frame_needed = 0, uses_anonymous_args = 0
 466              	.LVL21:
 467 0000 38B5     		push	{r3, r4, r5, lr}
 468              	.LCFI9:
 469              		.cfi_def_cfa_offset 16
 470              		.loc 1 327 0
 471 0002 0446     		mov	r4, r0
 472              		.cfi_offset 14, -4
 473              		.cfi_offset 5, -8
 474              		.cfi_offset 4, -12
 475              		.cfi_offset 3, -16
 476 0004 1D46     		mov	r5, r3
 477              		.loc 1 332 0
 478              	@ 332 "../../../ChibiOS/os/hal/src/spi.c" 1
 479 0006 FFF7FEFF 		bl      _port_lock
 480              	@ 0 "" 2
 481              	.LVL22:
 482              		.loc 1 336 0
 483              		.thumb
 484 000a 2B46     		mov	r3, r5
 485 000c 0325     		movs	r5, #3
 486              	.LVL23:
 487 000e 0570     		strb	r5, [r0, #0]
 488 0010 FFF7FEFF 		bl	spi_lld_exchange
 489              	.LVL24:
 490              		.loc 1 337 0
 491 0014 0449     		ldr	r1, .L15
 492 0016 0220     		movs	r0, #2
 493 0018 8B69     		ldr	r3, [r1, #24]
 494 001a A360     		str	r3, [r4, #8]
 495 001c FFF7FEFF 		bl	chSchGoSleepS
 496              		.loc 1 338 0
 497              	@ 338 "../../../ChibiOS/os/hal/src/spi.c" 1
 498 0020 FFF7FEFF 		bl      _port_unlock
ARM GAS  C:\Users\DNIEL~1\AppData\Local\Temp\cccvHhse.s 			page 10


 499              	@ 0 "" 2
 500              		.loc 1 339 0
 501              		.thumb
 502 0024 38BD     		pop	{r3, r4, r5, pc}
 503              	.L16:
 504 0026 00BF     		.align	2
 505              	.L15:
 506 0028 00000000 		.word	rlist
 507              		.cfi_endproc
 508              	.LFE67:
 509              		.size	spiExchange, .-spiExchange
 510 002c AFF30080 		.section	.text.spiSend,"ax",%progbits
 511              		.align	2
 512              		.p2align 4,,15
 513              		.global	spiSend
 514              		.thumb
 515              		.thumb_func
 516              		.type	spiSend, %function
 517              	spiSend:
 518              	.LFB68:
 519              		.loc 1 357 0
 520              		.cfi_startproc
 521              		@ args = 0, pretend = 0, frame = 0
 522              		@ frame_needed = 0, uses_anonymous_args = 0
 523              	.LVL25:
 524 0000 10B5     		push	{r4, lr}
 525              	.LCFI10:
 526              		.cfi_def_cfa_offset 8
 527              		.loc 1 357 0
 528 0002 0446     		mov	r4, r0
 529              		.cfi_offset 14, -4
 530              		.cfi_offset 4, -8
 531              		.loc 1 361 0
 532              	@ 361 "../../../ChibiOS/os/hal/src/spi.c" 1
 533 0004 FFF7FEFF 		bl      _port_lock
 534              	@ 0 "" 2
 535              		.loc 1 364 0
 536              		.thumb
 537 0008 0323     		movs	r3, #3
 538 000a 0370     		strb	r3, [r0, #0]
 539 000c FFF7FEFF 		bl	spi_lld_send
 540              	.LVL26:
 541              		.loc 1 365 0
 542 0010 0449     		ldr	r1, .L18
 543 0012 0220     		movs	r0, #2
 544 0014 8B69     		ldr	r3, [r1, #24]
 545 0016 A360     		str	r3, [r4, #8]
 546 0018 FFF7FEFF 		bl	chSchGoSleepS
 547              		.loc 1 366 0
 548              	@ 366 "../../../ChibiOS/os/hal/src/spi.c" 1
 549 001c FFF7FEFF 		bl      _port_unlock
 550              	@ 0 "" 2
 551              		.loc 1 367 0
 552              		.thumb
 553 0020 10BD     		pop	{r4, pc}
 554              	.L19:
 555 0022 00BF     		.align	2
ARM GAS  C:\Users\DNIEL~1\AppData\Local\Temp\cccvHhse.s 			page 11


 556              	.L18:
 557 0024 00000000 		.word	rlist
 558              		.cfi_endproc
 559              	.LFE68:
 560              		.size	spiSend, .-spiSend
 561 0028 AFF30080 		.section	.text.spiReceive,"ax",%progbits
 561      AFF30080 
 562              		.align	2
 563              		.p2align 4,,15
 564              		.global	spiReceive
 565              		.thumb
 566              		.thumb_func
 567              		.type	spiReceive, %function
 568              	spiReceive:
 569              	.LFB69:
 570              		.loc 1 385 0
 571              		.cfi_startproc
 572              		@ args = 0, pretend = 0, frame = 0
 573              		@ frame_needed = 0, uses_anonymous_args = 0
 574              	.LVL27:
 575 0000 10B5     		push	{r4, lr}
 576              	.LCFI11:
 577              		.cfi_def_cfa_offset 8
 578              		.loc 1 385 0
 579 0002 0446     		mov	r4, r0
 580              		.cfi_offset 14, -4
 581              		.cfi_offset 4, -8
 582              		.loc 1 390 0
 583              	@ 390 "../../../ChibiOS/os/hal/src/spi.c" 1
 584 0004 FFF7FEFF 		bl      _port_lock
 585              	@ 0 "" 2
 586              		.loc 1 394 0
 587              		.thumb
 588 0008 0323     		movs	r3, #3
 589 000a 0370     		strb	r3, [r0, #0]
 590 000c FFF7FEFF 		bl	spi_lld_receive
 591              	.LVL28:
 592              		.loc 1 395 0
 593 0010 0449     		ldr	r1, .L21
 594 0012 0220     		movs	r0, #2
 595 0014 8B69     		ldr	r3, [r1, #24]
 596 0016 A360     		str	r3, [r4, #8]
 597 0018 FFF7FEFF 		bl	chSchGoSleepS
 598              		.loc 1 396 0
 599              	@ 396 "../../../ChibiOS/os/hal/src/spi.c" 1
 600 001c FFF7FEFF 		bl      _port_unlock
 601              	@ 0 "" 2
 602              		.loc 1 397 0
 603              		.thumb
 604 0020 10BD     		pop	{r4, pc}
 605              	.L22:
 606 0022 00BF     		.align	2
 607              	.L21:
 608 0024 00000000 		.word	rlist
 609              		.cfi_endproc
 610              	.LFE69:
 611              		.size	spiReceive, .-spiReceive
ARM GAS  C:\Users\DNIEL~1\AppData\Local\Temp\cccvHhse.s 			page 12


 612 0028 AFF30080 		.section	.text.spiAcquireBus,"ax",%progbits
 612      AFF30080 
 613              		.align	2
 614              		.p2align 4,,15
 615              		.global	spiAcquireBus
 616              		.thumb
 617              		.thumb_func
 618              		.type	spiAcquireBus, %function
 619              	spiAcquireBus:
 620              	.LFB70:
 621              		.loc 1 412 0
 622              		.cfi_startproc
 623              		@ args = 0, pretend = 0, frame = 0
 624              		@ frame_needed = 0, uses_anonymous_args = 0
 625              		@ link register save eliminated.
 626              	.LVL29:
 627              		.loc 1 417 0
 628 0000 0C30     		adds	r0, r0, #12
 629              	.LVL30:
 630              		.loc 1 421 0
 631              		.loc 1 417 0
 632 0002 FFF7FEBF 		b	chMtxLock
 633              		.cfi_endproc
 634              	.LFE70:
 635              		.size	spiAcquireBus, .-spiAcquireBus
 636 0006 00BFAFF3 		.section	.text.spiReleaseBus,"ax",%progbits
 636      0080AFF3 
 636      0080
 637              		.align	2
 638              		.p2align 4,,15
 639              		.global	spiReleaseBus
 640              		.thumb
 641              		.thumb_func
 642              		.type	spiReleaseBus, %function
 643              	spiReleaseBus:
 644              	.LFB71:
 645              		.loc 1 432 0
 646              		.cfi_startproc
 647              		@ args = 0, pretend = 0, frame = 0
 648              		@ frame_needed = 0, uses_anonymous_args = 0
 649              		@ link register save eliminated.
 650              	.LVL31:
 651              		.loc 1 442 0
 652              		.loc 1 438 0
 653 0000 FFF7FEBF 		b	chMtxUnlock
 654              		.cfi_endproc
 655              	.LFE71:
 656              		.size	spiReleaseBus, .-spiReleaseBus
 657 0004 AFF30080 		.text
 657      AFF30080 
 657      AFF30080 
 658              	.Letext0:
 659              		.section	.debug_loc,"",%progbits
 660              	.Ldebug_loc0:
 661              	.LLST0:
 662 0000 00000000 		.4byte	.LVL0
 663 0004 0C000000 		.4byte	.LVL1
ARM GAS  C:\Users\DNIEL~1\AppData\Local\Temp\cccvHhse.s 			page 13


 664 0008 0100     		.2byte	0x1
 665 000a 50       		.byte	0x50
 666 000b 0C000000 		.4byte	.LVL1
 667 000f 10000000 		.4byte	.LFE57
 668 0013 0300     		.2byte	0x3
 669 0015 70       		.byte	0x70
 670 0016 74       		.sleb128 -12
 671 0017 9F       		.byte	0x9f
 672 0018 00000000 		.4byte	0x0
 673 001c 00000000 		.4byte	0x0
 674              	.LLST1:
 675 0020 00000000 		.4byte	.LFB58
 676 0024 02000000 		.4byte	.LCFI0
 677 0028 0200     		.2byte	0x2
 678 002a 7D       		.byte	0x7d
 679 002b 00       		.sleb128 0
 680 002c 02000000 		.4byte	.LCFI0
 681 0030 18000000 		.4byte	.LFE58
 682 0034 0200     		.2byte	0x2
 683 0036 7D       		.byte	0x7d
 684 0037 08       		.sleb128 8
 685 0038 00000000 		.4byte	0x0
 686 003c 00000000 		.4byte	0x0
 687              	.LLST2:
 688 0040 00000000 		.4byte	.LVL2
 689 0044 0D000000 		.4byte	.LVL3-1
 690 0048 0100     		.2byte	0x1
 691 004a 50       		.byte	0x50
 692 004b 0D000000 		.4byte	.LVL3-1
 693 004f 18000000 		.4byte	.LFE58
 694 0053 0100     		.2byte	0x1
 695 0055 54       		.byte	0x54
 696 0056 00000000 		.4byte	0x0
 697 005a 00000000 		.4byte	0x0
 698              	.LLST3:
 699 005e 00000000 		.4byte	.LVL2
 700 0062 0D000000 		.4byte	.LVL3-1
 701 0066 0100     		.2byte	0x1
 702 0068 51       		.byte	0x51
 703 0069 00000000 		.4byte	0x0
 704 006d 00000000 		.4byte	0x0
 705              	.LLST4:
 706 0071 00000000 		.4byte	.LFB59
 707 0075 02000000 		.4byte	.LCFI1
 708 0079 0200     		.2byte	0x2
 709 007b 7D       		.byte	0x7d
 710 007c 00       		.sleb128 0
 711 007d 02000000 		.4byte	.LCFI1
 712 0081 1C000000 		.4byte	.LFE59
 713 0085 0200     		.2byte	0x2
 714 0087 7D       		.byte	0x7d
 715 0088 08       		.sleb128 8
 716 0089 00000000 		.4byte	0x0
 717 008d 00000000 		.4byte	0x0
 718              	.LLST5:
 719 0091 00000000 		.4byte	.LVL4
 720 0095 0B000000 		.4byte	.LVL5-1
ARM GAS  C:\Users\DNIEL~1\AppData\Local\Temp\cccvHhse.s 			page 14


 721 0099 0100     		.2byte	0x1
 722 009b 50       		.byte	0x50
 723 009c 0B000000 		.4byte	.LVL5-1
 724 00a0 1C000000 		.4byte	.LFE59
 725 00a4 0100     		.2byte	0x1
 726 00a6 54       		.byte	0x54
 727 00a7 00000000 		.4byte	0x0
 728 00ab 00000000 		.4byte	0x0
 729              	.LLST6:
 730 00af 00000000 		.4byte	.LFB60
 731 00b3 02000000 		.4byte	.LCFI2
 732 00b7 0200     		.2byte	0x2
 733 00b9 7D       		.byte	0x7d
 734 00ba 00       		.sleb128 0
 735 00bb 02000000 		.4byte	.LCFI2
 736 00bf 10000000 		.4byte	.LFE60
 737 00c3 0200     		.2byte	0x2
 738 00c5 7D       		.byte	0x7d
 739 00c6 08       		.sleb128 8
 740 00c7 00000000 		.4byte	0x0
 741 00cb 00000000 		.4byte	0x0
 742              	.LLST7:
 743 00cf 00000000 		.4byte	.LVL6
 744 00d3 09000000 		.4byte	.LVL7-1
 745 00d7 0100     		.2byte	0x1
 746 00d9 50       		.byte	0x50
 747 00da 00000000 		.4byte	0x0
 748 00de 00000000 		.4byte	0x0
 749              	.LLST8:
 750 00e2 00000000 		.4byte	.LFB61
 751 00e6 02000000 		.4byte	.LCFI3
 752 00ea 0200     		.2byte	0x2
 753 00ec 7D       		.byte	0x7d
 754 00ed 00       		.sleb128 0
 755 00ee 02000000 		.4byte	.LCFI3
 756 00f2 10000000 		.4byte	.LFE61
 757 00f6 0200     		.2byte	0x2
 758 00f8 7D       		.byte	0x7d
 759 00f9 08       		.sleb128 8
 760 00fa 00000000 		.4byte	0x0
 761 00fe 00000000 		.4byte	0x0
 762              	.LLST9:
 763 0102 00000000 		.4byte	.LVL8
 764 0106 09000000 		.4byte	.LVL9-1
 765 010a 0100     		.2byte	0x1
 766 010c 50       		.byte	0x50
 767 010d 00000000 		.4byte	0x0
 768 0111 00000000 		.4byte	0x0
 769              	.LLST10:
 770 0115 00000000 		.4byte	.LFB62
 771 0119 02000000 		.4byte	.LCFI4
 772 011d 0200     		.2byte	0x2
 773 011f 7D       		.byte	0x7d
 774 0120 00       		.sleb128 0
 775 0121 02000000 		.4byte	.LCFI4
 776 0125 14000000 		.4byte	.LFE62
 777 0129 0200     		.2byte	0x2
ARM GAS  C:\Users\DNIEL~1\AppData\Local\Temp\cccvHhse.s 			page 15


 778 012b 7D       		.byte	0x7d
 779 012c 08       		.sleb128 8
 780 012d 00000000 		.4byte	0x0
 781 0131 00000000 		.4byte	0x0
 782              	.LLST11:
 783 0135 00000000 		.4byte	.LVL10
 784 0139 0D000000 		.4byte	.LVL11-1
 785 013d 0100     		.2byte	0x1
 786 013f 50       		.byte	0x50
 787 0140 00000000 		.4byte	0x0
 788 0144 00000000 		.4byte	0x0
 789              	.LLST12:
 790 0148 00000000 		.4byte	.LVL10
 791 014c 0D000000 		.4byte	.LVL11-1
 792 0150 0100     		.2byte	0x1
 793 0152 51       		.byte	0x51
 794 0153 00000000 		.4byte	0x0
 795 0157 00000000 		.4byte	0x0
 796              	.LLST13:
 797 015b 00000000 		.4byte	.LFB63
 798 015f 02000000 		.4byte	.LCFI5
 799 0163 0200     		.2byte	0x2
 800 0165 7D       		.byte	0x7d
 801 0166 00       		.sleb128 0
 802 0167 02000000 		.4byte	.LCFI5
 803 016b 18000000 		.4byte	.LFE63
 804 016f 0200     		.2byte	0x2
 805 0171 7D       		.byte	0x7d
 806 0172 10       		.sleb128 16
 807 0173 00000000 		.4byte	0x0
 808 0177 00000000 		.4byte	0x0
 809              	.LLST14:
 810 017b 00000000 		.4byte	.LVL12
 811 017f 11000000 		.4byte	.LVL14-1
 812 0183 0100     		.2byte	0x1
 813 0185 50       		.byte	0x50
 814 0186 00000000 		.4byte	0x0
 815 018a 00000000 		.4byte	0x0
 816              	.LLST15:
 817 018e 00000000 		.4byte	.LVL12
 818 0192 11000000 		.4byte	.LVL14-1
 819 0196 0100     		.2byte	0x1
 820 0198 51       		.byte	0x51
 821 0199 00000000 		.4byte	0x0
 822 019d 00000000 		.4byte	0x0
 823              	.LLST16:
 824 01a1 00000000 		.4byte	.LVL12
 825 01a5 11000000 		.4byte	.LVL14-1
 826 01a9 0100     		.2byte	0x1
 827 01ab 52       		.byte	0x52
 828 01ac 00000000 		.4byte	0x0
 829 01b0 00000000 		.4byte	0x0
 830              	.LLST17:
 831 01b4 00000000 		.4byte	.LVL12
 832 01b8 08000000 		.4byte	.LVL13
 833 01bc 0100     		.2byte	0x1
 834 01be 53       		.byte	0x53
ARM GAS  C:\Users\DNIEL~1\AppData\Local\Temp\cccvHhse.s 			page 16


 835 01bf 08000000 		.4byte	.LVL13
 836 01c3 18000000 		.4byte	.LFE63
 837 01c7 0100     		.2byte	0x1
 838 01c9 54       		.byte	0x54
 839 01ca 00000000 		.4byte	0x0
 840 01ce 00000000 		.4byte	0x0
 841              	.LLST18:
 842 01d2 00000000 		.4byte	.LFB64
 843 01d6 02000000 		.4byte	.LCFI6
 844 01da 0200     		.2byte	0x2
 845 01dc 7D       		.byte	0x7d
 846 01dd 00       		.sleb128 0
 847 01de 02000000 		.4byte	.LCFI6
 848 01e2 14000000 		.4byte	.LFE64
 849 01e6 0200     		.2byte	0x2
 850 01e8 7D       		.byte	0x7d
 851 01e9 08       		.sleb128 8
 852 01ea 00000000 		.4byte	0x0
 853 01ee 00000000 		.4byte	0x0
 854              	.LLST19:
 855 01f2 00000000 		.4byte	.LVL15
 856 01f6 0D000000 		.4byte	.LVL16-1
 857 01fa 0100     		.2byte	0x1
 858 01fc 50       		.byte	0x50
 859 01fd 00000000 		.4byte	0x0
 860 0201 00000000 		.4byte	0x0
 861              	.LLST20:
 862 0205 00000000 		.4byte	.LVL15
 863 0209 0D000000 		.4byte	.LVL16-1
 864 020d 0100     		.2byte	0x1
 865 020f 51       		.byte	0x51
 866 0210 00000000 		.4byte	0x0
 867 0214 00000000 		.4byte	0x0
 868              	.LLST21:
 869 0218 00000000 		.4byte	.LVL15
 870 021c 0D000000 		.4byte	.LVL16-1
 871 0220 0100     		.2byte	0x1
 872 0222 52       		.byte	0x52
 873 0223 00000000 		.4byte	0x0
 874 0227 00000000 		.4byte	0x0
 875              	.LLST22:
 876 022b 00000000 		.4byte	.LFB65
 877 022f 02000000 		.4byte	.LCFI7
 878 0233 0200     		.2byte	0x2
 879 0235 7D       		.byte	0x7d
 880 0236 00       		.sleb128 0
 881 0237 02000000 		.4byte	.LCFI7
 882 023b 14000000 		.4byte	.LFE65
 883 023f 0200     		.2byte	0x2
 884 0241 7D       		.byte	0x7d
 885 0242 08       		.sleb128 8
 886 0243 00000000 		.4byte	0x0
 887 0247 00000000 		.4byte	0x0
 888              	.LLST23:
 889 024b 00000000 		.4byte	.LVL17
 890 024f 0D000000 		.4byte	.LVL18-1
 891 0253 0100     		.2byte	0x1
ARM GAS  C:\Users\DNIEL~1\AppData\Local\Temp\cccvHhse.s 			page 17


 892 0255 50       		.byte	0x50
 893 0256 00000000 		.4byte	0x0
 894 025a 00000000 		.4byte	0x0
 895              	.LLST24:
 896 025e 00000000 		.4byte	.LVL17
 897 0262 0D000000 		.4byte	.LVL18-1
 898 0266 0100     		.2byte	0x1
 899 0268 51       		.byte	0x51
 900 0269 00000000 		.4byte	0x0
 901 026d 00000000 		.4byte	0x0
 902              	.LLST25:
 903 0271 00000000 		.4byte	.LVL17
 904 0275 0D000000 		.4byte	.LVL18-1
 905 0279 0100     		.2byte	0x1
 906 027b 52       		.byte	0x52
 907 027c 00000000 		.4byte	0x0
 908 0280 00000000 		.4byte	0x0
 909              	.LLST26:
 910 0284 00000000 		.4byte	.LFB66
 911 0288 02000000 		.4byte	.LCFI8
 912 028c 0200     		.2byte	0x2
 913 028e 7D       		.byte	0x7d
 914 028f 00       		.sleb128 0
 915 0290 02000000 		.4byte	.LCFI8
 916 0294 28000000 		.4byte	.LFE66
 917 0298 0200     		.2byte	0x2
 918 029a 7D       		.byte	0x7d
 919 029b 08       		.sleb128 8
 920 029c 00000000 		.4byte	0x0
 921 02a0 00000000 		.4byte	0x0
 922              	.LLST27:
 923 02a4 00000000 		.4byte	.LVL19
 924 02a8 0F000000 		.4byte	.LVL20-1
 925 02ac 0100     		.2byte	0x1
 926 02ae 50       		.byte	0x50
 927 02af 0F000000 		.4byte	.LVL20-1
 928 02b3 28000000 		.4byte	.LFE66
 929 02b7 0100     		.2byte	0x1
 930 02b9 54       		.byte	0x54
 931 02ba 00000000 		.4byte	0x0
 932 02be 00000000 		.4byte	0x0
 933              	.LLST28:
 934 02c2 00000000 		.4byte	.LVL19
 935 02c6 0F000000 		.4byte	.LVL20-1
 936 02ca 0100     		.2byte	0x1
 937 02cc 51       		.byte	0x51
 938 02cd 00000000 		.4byte	0x0
 939 02d1 00000000 		.4byte	0x0
 940              	.LLST29:
 941 02d5 00000000 		.4byte	.LFB67
 942 02d9 02000000 		.4byte	.LCFI9
 943 02dd 0200     		.2byte	0x2
 944 02df 7D       		.byte	0x7d
 945 02e0 00       		.sleb128 0
 946 02e1 02000000 		.4byte	.LCFI9
 947 02e5 2C000000 		.4byte	.LFE67
 948 02e9 0200     		.2byte	0x2
ARM GAS  C:\Users\DNIEL~1\AppData\Local\Temp\cccvHhse.s 			page 18


 949 02eb 7D       		.byte	0x7d
 950 02ec 10       		.sleb128 16
 951 02ed 00000000 		.4byte	0x0
 952 02f1 00000000 		.4byte	0x0
 953              	.LLST30:
 954 02f5 00000000 		.4byte	.LVL21
 955 02f9 13000000 		.4byte	.LVL24-1
 956 02fd 0100     		.2byte	0x1
 957 02ff 50       		.byte	0x50
 958 0300 13000000 		.4byte	.LVL24-1
 959 0304 2C000000 		.4byte	.LFE67
 960 0308 0100     		.2byte	0x1
 961 030a 54       		.byte	0x54
 962 030b 00000000 		.4byte	0x0
 963 030f 00000000 		.4byte	0x0
 964              	.LLST31:
 965 0313 00000000 		.4byte	.LVL21
 966 0317 13000000 		.4byte	.LVL24-1
 967 031b 0100     		.2byte	0x1
 968 031d 51       		.byte	0x51
 969 031e 00000000 		.4byte	0x0
 970 0322 00000000 		.4byte	0x0
 971              	.LLST32:
 972 0326 00000000 		.4byte	.LVL21
 973 032a 13000000 		.4byte	.LVL24-1
 974 032e 0100     		.2byte	0x1
 975 0330 52       		.byte	0x52
 976 0331 00000000 		.4byte	0x0
 977 0335 00000000 		.4byte	0x0
 978              	.LLST33:
 979 0339 00000000 		.4byte	.LVL21
 980 033d 0A000000 		.4byte	.LVL22
 981 0341 0100     		.2byte	0x1
 982 0343 53       		.byte	0x53
 983 0344 0A000000 		.4byte	.LVL22
 984 0348 0E000000 		.4byte	.LVL23
 985 034c 0100     		.2byte	0x1
 986 034e 55       		.byte	0x55
 987 034f 0E000000 		.4byte	.LVL23
 988 0353 13000000 		.4byte	.LVL24-1
 989 0357 0100     		.2byte	0x1
 990 0359 53       		.byte	0x53
 991 035a 00000000 		.4byte	0x0
 992 035e 00000000 		.4byte	0x0
 993              	.LLST34:
 994 0362 00000000 		.4byte	.LFB68
 995 0366 02000000 		.4byte	.LCFI10
 996 036a 0200     		.2byte	0x2
 997 036c 7D       		.byte	0x7d
 998 036d 00       		.sleb128 0
 999 036e 02000000 		.4byte	.LCFI10
 1000 0372 28000000 		.4byte	.LFE68
 1001 0376 0200     		.2byte	0x2
 1002 0378 7D       		.byte	0x7d
 1003 0379 08       		.sleb128 8
 1004 037a 00000000 		.4byte	0x0
 1005 037e 00000000 		.4byte	0x0
ARM GAS  C:\Users\DNIEL~1\AppData\Local\Temp\cccvHhse.s 			page 19


 1006              	.LLST35:
 1007 0382 00000000 		.4byte	.LVL25
 1008 0386 0F000000 		.4byte	.LVL26-1
 1009 038a 0100     		.2byte	0x1
 1010 038c 50       		.byte	0x50
 1011 038d 0F000000 		.4byte	.LVL26-1
 1012 0391 28000000 		.4byte	.LFE68
 1013 0395 0100     		.2byte	0x1
 1014 0397 54       		.byte	0x54
 1015 0398 00000000 		.4byte	0x0
 1016 039c 00000000 		.4byte	0x0
 1017              	.LLST36:
 1018 03a0 00000000 		.4byte	.LVL25
 1019 03a4 0F000000 		.4byte	.LVL26-1
 1020 03a8 0100     		.2byte	0x1
 1021 03aa 51       		.byte	0x51
 1022 03ab 00000000 		.4byte	0x0
 1023 03af 00000000 		.4byte	0x0
 1024              	.LLST37:
 1025 03b3 00000000 		.4byte	.LVL25
 1026 03b7 0F000000 		.4byte	.LVL26-1
 1027 03bb 0100     		.2byte	0x1
 1028 03bd 52       		.byte	0x52
 1029 03be 00000000 		.4byte	0x0
 1030 03c2 00000000 		.4byte	0x0
 1031              	.LLST38:
 1032 03c6 00000000 		.4byte	.LFB69
 1033 03ca 02000000 		.4byte	.LCFI11
 1034 03ce 0200     		.2byte	0x2
 1035 03d0 7D       		.byte	0x7d
 1036 03d1 00       		.sleb128 0
 1037 03d2 02000000 		.4byte	.LCFI11
 1038 03d6 28000000 		.4byte	.LFE69
 1039 03da 0200     		.2byte	0x2
 1040 03dc 7D       		.byte	0x7d
 1041 03dd 08       		.sleb128 8
 1042 03de 00000000 		.4byte	0x0
 1043 03e2 00000000 		.4byte	0x0
 1044              	.LLST39:
 1045 03e6 00000000 		.4byte	.LVL27
 1046 03ea 0F000000 		.4byte	.LVL28-1
 1047 03ee 0100     		.2byte	0x1
 1048 03f0 50       		.byte	0x50
 1049 03f1 0F000000 		.4byte	.LVL28-1
 1050 03f5 28000000 		.4byte	.LFE69
 1051 03f9 0100     		.2byte	0x1
 1052 03fb 54       		.byte	0x54
 1053 03fc 00000000 		.4byte	0x0
 1054 0400 00000000 		.4byte	0x0
 1055              	.LLST40:
 1056 0404 00000000 		.4byte	.LVL27
 1057 0408 0F000000 		.4byte	.LVL28-1
 1058 040c 0100     		.2byte	0x1
 1059 040e 51       		.byte	0x51
 1060 040f 00000000 		.4byte	0x0
 1061 0413 00000000 		.4byte	0x0
 1062              	.LLST41:
ARM GAS  C:\Users\DNIEL~1\AppData\Local\Temp\cccvHhse.s 			page 20


 1063 0417 00000000 		.4byte	.LVL27
 1064 041b 0F000000 		.4byte	.LVL28-1
 1065 041f 0100     		.2byte	0x1
 1066 0421 52       		.byte	0x52
 1067 0422 00000000 		.4byte	0x0
 1068 0426 00000000 		.4byte	0x0
 1069              	.LLST42:
 1070 042a 00000000 		.4byte	.LVL29
 1071 042e 02000000 		.4byte	.LVL30
 1072 0432 0100     		.2byte	0x1
 1073 0434 50       		.byte	0x50
 1074 0435 02000000 		.4byte	.LVL30
 1075 0439 06000000 		.4byte	.LFE70
 1076 043d 0300     		.2byte	0x3
 1077 043f 70       		.byte	0x70
 1078 0440 74       		.sleb128 -12
 1079 0441 9F       		.byte	0x9f
 1080 0442 00000000 		.4byte	0x0
 1081 0446 00000000 		.4byte	0x0
 1082              		.file 2 "c:\\program files (x86)\\codesourcery\\sourcery g++ lite\\bin\\../lib/gcc/arm-none-eabi/4
 1083              		.file 3 "c:\\program files (x86)\\codesourcery\\sourcery g++ lite\\bin\\../lib/gcc/arm-none-eabi/4
 1084              		.file 4 "../../../ChibiOS/os/ports/GCC/ARMCMx/chtypes.h"
 1085              		.file 5 "../../../ChibiOS/os/kernel/include/chlists.h"
 1086              		.file 6 "../../../ChibiOS/os/kernel/include/chthreads.h"
 1087              		.file 7 "../../../ChibiOS/os/ports/GCC/ARMCMx/chcore_v7m.h"
 1088              		.file 8 "../../../ChibiOS/os/kernel/include/chschd.h"
 1089              		.file 9 "../../../ChibiOS/os/kernel/include/chmtx.h"
 1090              		.file 10 "../../../ChibiOS/os/hal/platforms/STM32F1xx/stm32f10x.h"
 1091              		.file 11 "../../../ChibiOS/os/hal/platforms/STM32F1xx/stm32_dma.h"
 1092              		.file 12 "../../../ChibiOS/os/hal/platforms/STM32/GPIOv1/pal_lld.h"
 1093              		.file 13 "../../../ChibiOS/os/hal/include/spi.h"
 1094              		.file 14 "../../../ChibiOS/os/hal/platforms/STM32/SPIv1/spi_lld.h"
 1095              		.file 15 "../../../ChibiOS/os/ports/common/ARMCMx/CMSIS/include/core_cm3.h"
 1096              		.section	.debug_info
 1097 0000 E20B0000 		.4byte	0xbe2
 1098 0004 0200     		.2byte	0x2
 1099 0006 00000000 		.4byte	.Ldebug_abbrev0
 1100 000a 04       		.byte	0x4
 1101 000b 01       		.uleb128 0x1
 1102 000c 0C050000 		.4byte	.LASF133
 1103 0010 01       		.byte	0x1
 1104 0011 23010000 		.4byte	.LASF134
 1105 0015 2D000000 		.4byte	.LASF135
 1106 0019 00000000 		.4byte	0x0
 1107 001d 00000000 		.4byte	0x0
 1108 0021 00000000 		.4byte	.Ldebug_ranges0+0x0
 1109 0025 00000000 		.4byte	.Ldebug_line0
 1110 0029 02       		.uleb128 0x2
 1111 002a 04       		.byte	0x4
 1112 002b 05       		.byte	0x5
 1113 002c 696E7400 		.ascii	"int\000"
 1114 0030 03       		.uleb128 0x3
 1115 0031 06000000 		.4byte	.LASF2
 1116 0035 02       		.byte	0x2
 1117 0036 D3       		.byte	0xd3
 1118 0037 3B000000 		.4byte	0x3b
 1119 003b 04       		.uleb128 0x4
ARM GAS  C:\Users\DNIEL~1\AppData\Local\Temp\cccvHhse.s 			page 21


 1120 003c 04       		.byte	0x4
 1121 003d 07       		.byte	0x7
 1122 003e CA010000 		.4byte	.LASF0
 1123 0042 04       		.uleb128 0x4
 1124 0043 01       		.byte	0x1
 1125 0044 06       		.byte	0x6
 1126 0045 D2000000 		.4byte	.LASF1
 1127 0049 03       		.uleb128 0x3
 1128 004a F8040000 		.4byte	.LASF3
 1129 004e 03       		.byte	0x3
 1130 004f 2A       		.byte	0x2a
 1131 0050 54000000 		.4byte	0x54
 1132 0054 04       		.uleb128 0x4
 1133 0055 01       		.byte	0x1
 1134 0056 08       		.byte	0x8
 1135 0057 6A030000 		.4byte	.LASF4
 1136 005b 04       		.uleb128 0x4
 1137 005c 02       		.byte	0x2
 1138 005d 05       		.byte	0x5
 1139 005e 95030000 		.4byte	.LASF5
 1140 0062 03       		.uleb128 0x3
 1141 0063 65010000 		.4byte	.LASF6
 1142 0067 03       		.byte	0x3
 1143 0068 36       		.byte	0x36
 1144 0069 6D000000 		.4byte	0x6d
 1145 006d 04       		.uleb128 0x4
 1146 006e 02       		.byte	0x2
 1147 006f 07       		.byte	0x7
 1148 0070 1E020000 		.4byte	.LASF7
 1149 0074 03       		.uleb128 0x3
 1150 0075 62030000 		.4byte	.LASF8
 1151 0079 03       		.byte	0x3
 1152 007a 4F       		.byte	0x4f
 1153 007b 7F000000 		.4byte	0x7f
 1154 007f 04       		.uleb128 0x4
 1155 0080 04       		.byte	0x4
 1156 0081 05       		.byte	0x5
 1157 0082 1A010000 		.4byte	.LASF9
 1158 0086 03       		.uleb128 0x3
 1159 0087 F7030000 		.4byte	.LASF10
 1160 008b 03       		.byte	0x3
 1161 008c 50       		.byte	0x50
 1162 008d 91000000 		.4byte	0x91
 1163 0091 04       		.uleb128 0x4
 1164 0092 04       		.byte	0x4
 1165 0093 07       		.byte	0x7
 1166 0094 10040000 		.4byte	.LASF11
 1167 0098 04       		.uleb128 0x4
 1168 0099 08       		.byte	0x8
 1169 009a 05       		.byte	0x5
 1170 009b C4000000 		.4byte	.LASF12
 1171 009f 04       		.uleb128 0x4
 1172 00a0 08       		.byte	0x8
 1173 00a1 07       		.byte	0x7
 1174 00a2 72000000 		.4byte	.LASF13
 1175 00a6 04       		.uleb128 0x4
 1176 00a7 01       		.byte	0x1
ARM GAS  C:\Users\DNIEL~1\AppData\Local\Temp\cccvHhse.s 			page 22


 1177 00a8 02       		.byte	0x2
 1178 00a9 5C030000 		.4byte	.LASF14
 1179 00ad 03       		.uleb128 0x3
 1180 00ae 37020000 		.4byte	.LASF15
 1181 00b2 04       		.byte	0x4
 1182 00b3 2C       		.byte	0x2c
 1183 00b4 49000000 		.4byte	0x49
 1184 00b8 03       		.uleb128 0x3
 1185 00b9 45010000 		.4byte	.LASF16
 1186 00bd 04       		.byte	0x4
 1187 00be 2D       		.byte	0x2d
 1188 00bf 49000000 		.4byte	0x49
 1189 00c3 03       		.uleb128 0x3
 1190 00c4 08040000 		.4byte	.LASF17
 1191 00c8 04       		.byte	0x4
 1192 00c9 2E       		.byte	0x2e
 1193 00ca 49000000 		.4byte	0x49
 1194 00ce 03       		.uleb128 0x3
 1195 00cf FC000000 		.4byte	.LASF18
 1196 00d3 04       		.byte	0x4
 1197 00d4 2F       		.byte	0x2f
 1198 00d5 49000000 		.4byte	0x49
 1199 00d9 03       		.uleb128 0x3
 1200 00da 4E030000 		.4byte	.LASF19
 1201 00de 04       		.byte	0x4
 1202 00df 30       		.byte	0x30
 1203 00e0 86000000 		.4byte	0x86
 1204 00e4 03       		.uleb128 0x3
 1205 00e5 31020000 		.4byte	.LASF20
 1206 00e9 04       		.byte	0x4
 1207 00ea 31       		.byte	0x31
 1208 00eb 74000000 		.4byte	0x74
 1209 00ef 03       		.uleb128 0x3
 1210 00f0 4B020000 		.4byte	.LASF21
 1211 00f4 04       		.byte	0x4
 1212 00f5 33       		.byte	0x33
 1213 00f6 86000000 		.4byte	0x86
 1214 00fa 03       		.uleb128 0x3
 1215 00fb 59040000 		.4byte	.LASF22
 1216 00ff 04       		.byte	0x4
 1217 0100 35       		.byte	0x35
 1218 0101 86000000 		.4byte	0x86
 1219 0105 03       		.uleb128 0x3
 1220 0106 69020000 		.4byte	.LASF23
 1221 010a 05       		.byte	0x5
 1222 010b 2A       		.byte	0x2a
 1223 010c 10010000 		.4byte	0x110
 1224 0110 05       		.uleb128 0x5
 1225 0111 69020000 		.4byte	.LASF23
 1226 0115 48       		.byte	0x48
 1227 0116 06       		.byte	0x6
 1228 0117 5E       		.byte	0x5e
 1229 0118 35020000 		.4byte	0x235
 1230 011c 06       		.uleb128 0x6
 1231 011d C6030000 		.4byte	.LASF24
 1232 0121 06       		.byte	0x6
 1233 0122 5F       		.byte	0x5f
ARM GAS  C:\Users\DNIEL~1\AppData\Local\Temp\cccvHhse.s 			page 23


 1234 0123 5A020000 		.4byte	0x25a
 1235 0127 02       		.byte	0x2
 1236 0128 23       		.byte	0x23
 1237 0129 00       		.uleb128 0x0
 1238 012a 06       		.uleb128 0x6
 1239 012b 29030000 		.4byte	.LASF25
 1240 012f 06       		.byte	0x6
 1241 0130 61       		.byte	0x61
 1242 0131 5A020000 		.4byte	0x25a
 1243 0135 02       		.byte	0x2
 1244 0136 23       		.byte	0x23
 1245 0137 04       		.uleb128 0x4
 1246 0138 06       		.uleb128 0x6
 1247 0139 BD000000 		.4byte	.LASF26
 1248 013d 06       		.byte	0x6
 1249 013e 63       		.byte	0x63
 1250 013f D9000000 		.4byte	0xd9
 1251 0143 02       		.byte	0x2
 1252 0144 23       		.byte	0x23
 1253 0145 08       		.uleb128 0x8
 1254 0146 06       		.uleb128 0x6
 1255 0147 3F050000 		.4byte	.LASF27
 1256 014b 06       		.byte	0x6
 1257 014c 64       		.byte	0x64
 1258 014d 28030000 		.4byte	0x328
 1259 0151 02       		.byte	0x2
 1260 0152 23       		.byte	0x23
 1261 0153 0C       		.uleb128 0xc
 1262 0154 06       		.uleb128 0x6
 1263 0155 84010000 		.4byte	.LASF28
 1264 0159 06       		.byte	0x6
 1265 015a 66       		.byte	0x66
 1266 015b 5A020000 		.4byte	0x25a
 1267 015f 02       		.byte	0x2
 1268 0160 23       		.byte	0x23
 1269 0161 10       		.uleb128 0x10
 1270 0162 06       		.uleb128 0x6
 1271 0163 A5020000 		.4byte	.LASF29
 1272 0167 06       		.byte	0x6
 1273 0168 67       		.byte	0x67
 1274 0169 5A020000 		.4byte	0x25a
 1275 016d 02       		.byte	0x2
 1276 016e 23       		.byte	0x23
 1277 016f 14       		.uleb128 0x14
 1278 0170 06       		.uleb128 0x6
 1279 0171 18050000 		.4byte	.LASF30
 1280 0175 06       		.byte	0x6
 1281 0176 6E       		.byte	0x6e
 1282 0177 3A040000 		.4byte	0x43a
 1283 017b 02       		.byte	0x2
 1284 017c 23       		.byte	0x23
 1285 017d 18       		.uleb128 0x18
 1286 017e 06       		.uleb128 0x6
 1287 017f 9F030000 		.4byte	.LASF31
 1288 0183 06       		.byte	0x6
 1289 0184 79       		.byte	0x79
 1290 0185 B8000000 		.4byte	0xb8
ARM GAS  C:\Users\DNIEL~1\AppData\Local\Temp\cccvHhse.s 			page 24


 1291 0189 02       		.byte	0x2
 1292 018a 23       		.byte	0x23
 1293 018b 1C       		.uleb128 0x1c
 1294 018c 06       		.uleb128 0x6
 1295 018d CD030000 		.4byte	.LASF32
 1296 0191 06       		.byte	0x6
 1297 0192 7D       		.byte	0x7d
 1298 0193 AD000000 		.4byte	0xad
 1299 0197 02       		.byte	0x2
 1300 0198 23       		.byte	0x23
 1301 0199 1D       		.uleb128 0x1d
 1302 019a 06       		.uleb128 0x6
 1303 019b C8040000 		.4byte	.LASF33
 1304 019f 06       		.byte	0x6
 1305 01a0 82       		.byte	0x82
 1306 01a1 C3000000 		.4byte	0xc3
 1307 01a5 02       		.byte	0x2
 1308 01a6 23       		.byte	0x23
 1309 01a7 1E       		.uleb128 0x1e
 1310 01a8 06       		.uleb128 0x6
 1311 01a9 A7030000 		.4byte	.LASF34
 1312 01ad 06       		.byte	0x6
 1313 01ae 88       		.byte	0x88
 1314 01af CE000000 		.4byte	0xce
 1315 01b3 02       		.byte	0x2
 1316 01b4 23       		.byte	0x23
 1317 01b5 1F       		.uleb128 0x1f
 1318 01b6 06       		.uleb128 0x6
 1319 01b7 6E010000 		.4byte	.LASF35
 1320 01bb 06       		.byte	0x6
 1321 01bc 8F       		.byte	0x8f
 1322 01bd 50030000 		.4byte	0x350
 1323 01c1 02       		.byte	0x2
 1324 01c2 23       		.byte	0x23
 1325 01c3 20       		.uleb128 0x20
 1326 01c4 07       		.uleb128 0x7
 1327 01c5 705F7500 		.ascii	"p_u\000"
 1328 01c9 06       		.byte	0x6
 1329 01ca B4       		.byte	0xb4
 1330 01cb 05040000 		.4byte	0x405
 1331 01cf 02       		.byte	0x2
 1332 01d0 23       		.byte	0x23
 1333 01d1 24       		.uleb128 0x24
 1334 01d2 06       		.uleb128 0x6
 1335 01d3 45050000 		.4byte	.LASF36
 1336 01d7 06       		.byte	0x6
 1337 01d8 B9       		.byte	0xb9
 1338 01d9 82020000 		.4byte	0x282
 1339 01dd 02       		.byte	0x2
 1340 01de 23       		.byte	0x23
 1341 01df 28       		.uleb128 0x28
 1342 01e0 06       		.uleb128 0x6
 1343 01e1 ED010000 		.4byte	.LASF37
 1344 01e5 06       		.byte	0x6
 1345 01e6 BF       		.byte	0xbf
 1346 01e7 60020000 		.4byte	0x260
 1347 01eb 02       		.byte	0x2
ARM GAS  C:\Users\DNIEL~1\AppData\Local\Temp\cccvHhse.s 			page 25


 1348 01ec 23       		.byte	0x23
 1349 01ed 2C       		.uleb128 0x2c
 1350 01ee 06       		.uleb128 0x6
 1351 01ef 31050000 		.4byte	.LASF38
 1352 01f3 06       		.byte	0x6
 1353 01f4 C3       		.byte	0xc3
 1354 01f5 E4000000 		.4byte	0xe4
 1355 01f9 02       		.byte	0x2
 1356 01fa 23       		.byte	0x23
 1357 01fb 34       		.uleb128 0x34
 1358 01fc 06       		.uleb128 0x6
 1359 01fd DD030000 		.4byte	.LASF39
 1360 0201 06       		.byte	0x6
 1361 0202 C9       		.byte	0xc9
 1362 0203 EF000000 		.4byte	0xef
 1363 0207 02       		.byte	0x2
 1364 0208 23       		.byte	0x23
 1365 0209 38       		.uleb128 0x38
 1366 020a 06       		.uleb128 0x6
 1367 020b 8B030000 		.4byte	.LASF40
 1368 020f 06       		.byte	0x6
 1369 0210 D0       		.byte	0xd0
 1370 0211 4C040000 		.4byte	0x44c
 1371 0215 02       		.byte	0x2
 1372 0216 23       		.byte	0x23
 1373 0217 3C       		.uleb128 0x3c
 1374 0218 06       		.uleb128 0x6
 1375 0219 63040000 		.4byte	.LASF41
 1376 021d 06       		.byte	0x6
 1377 021e D4       		.byte	0xd4
 1378 021f D9000000 		.4byte	0xd9
 1379 0223 02       		.byte	0x2
 1380 0224 23       		.byte	0x23
 1381 0225 40       		.uleb128 0x40
 1382 0226 06       		.uleb128 0x6
 1383 0227 EC000000 		.4byte	.LASF42
 1384 022b 06       		.byte	0x6
 1385 022c DA       		.byte	0xda
 1386 022d 98020000 		.4byte	0x298
 1387 0231 02       		.byte	0x2
 1388 0232 23       		.byte	0x23
 1389 0233 44       		.uleb128 0x44
 1390 0234 00       		.byte	0x0
 1391 0235 08       		.uleb128 0x8
 1392 0236 08       		.byte	0x8
 1393 0237 05       		.byte	0x5
 1394 0238 61       		.byte	0x61
 1395 0239 5A020000 		.4byte	0x25a
 1396 023d 06       		.uleb128 0x6
 1397 023e C6030000 		.4byte	.LASF24
 1398 0242 05       		.byte	0x5
 1399 0243 62       		.byte	0x62
 1400 0244 5A020000 		.4byte	0x25a
 1401 0248 02       		.byte	0x2
 1402 0249 23       		.byte	0x23
 1403 024a 00       		.uleb128 0x0
 1404 024b 06       		.uleb128 0x6
ARM GAS  C:\Users\DNIEL~1\AppData\Local\Temp\cccvHhse.s 			page 26


 1405 024c 29030000 		.4byte	.LASF25
 1406 0250 05       		.byte	0x5
 1407 0251 64       		.byte	0x64
 1408 0252 5A020000 		.4byte	0x25a
 1409 0256 02       		.byte	0x2
 1410 0257 23       		.byte	0x23
 1411 0258 04       		.uleb128 0x4
 1412 0259 00       		.byte	0x0
 1413 025a 09       		.uleb128 0x9
 1414 025b 04       		.byte	0x4
 1415 025c 05010000 		.4byte	0x105
 1416 0260 03       		.uleb128 0x3
 1417 0261 B3020000 		.4byte	.LASF43
 1418 0265 05       		.byte	0x5
 1419 0266 66       		.byte	0x66
 1420 0267 35020000 		.4byte	0x235
 1421 026b 08       		.uleb128 0x8
 1422 026c 04       		.byte	0x4
 1423 026d 05       		.byte	0x5
 1424 026e 6B       		.byte	0x6b
 1425 026f 82020000 		.4byte	0x282
 1426 0273 06       		.uleb128 0x6
 1427 0274 C6030000 		.4byte	.LASF24
 1428 0278 05       		.byte	0x5
 1429 0279 6D       		.byte	0x6d
 1430 027a 5A020000 		.4byte	0x25a
 1431 027e 02       		.byte	0x2
 1432 027f 23       		.byte	0x23
 1433 0280 00       		.uleb128 0x0
 1434 0281 00       		.byte	0x0
 1435 0282 03       		.uleb128 0x3
 1436 0283 3F020000 		.4byte	.LASF44
 1437 0287 05       		.byte	0x5
 1438 0288 70       		.byte	0x70
 1439 0289 6B020000 		.4byte	0x26b
 1440 028d 03       		.uleb128 0x3
 1441 028e AB010000 		.4byte	.LASF45
 1442 0292 07       		.byte	0x7
 1443 0293 E5       		.byte	0xe5
 1444 0294 98020000 		.4byte	0x298
 1445 0298 0A       		.uleb128 0xa
 1446 0299 04       		.byte	0x4
 1447 029a 0B       		.uleb128 0xb
 1448 029b AC040000 		.4byte	.LASF46
 1449 029f 24       		.byte	0x24
 1450 02a0 07       		.byte	0x7
 1451 02a1 0C01     		.2byte	0x10c
 1452 02a3 28030000 		.4byte	0x328
 1453 02a7 0C       		.uleb128 0xc
 1454 02a8 723400   		.ascii	"r4\000"
 1455 02ab 07       		.byte	0x7
 1456 02ac 1F01     		.2byte	0x11f
 1457 02ae 8D020000 		.4byte	0x28d
 1458 02b2 02       		.byte	0x2
 1459 02b3 23       		.byte	0x23
 1460 02b4 00       		.uleb128 0x0
 1461 02b5 0C       		.uleb128 0xc
ARM GAS  C:\Users\DNIEL~1\AppData\Local\Temp\cccvHhse.s 			page 27


 1462 02b6 723500   		.ascii	"r5\000"
 1463 02b9 07       		.byte	0x7
 1464 02ba 2001     		.2byte	0x120
 1465 02bc 8D020000 		.4byte	0x28d
 1466 02c0 02       		.byte	0x2
 1467 02c1 23       		.byte	0x23
 1468 02c2 04       		.uleb128 0x4
 1469 02c3 0C       		.uleb128 0xc
 1470 02c4 723600   		.ascii	"r6\000"
 1471 02c7 07       		.byte	0x7
 1472 02c8 2101     		.2byte	0x121
 1473 02ca 8D020000 		.4byte	0x28d
 1474 02ce 02       		.byte	0x2
 1475 02cf 23       		.byte	0x23
 1476 02d0 08       		.uleb128 0x8
 1477 02d1 0C       		.uleb128 0xc
 1478 02d2 723700   		.ascii	"r7\000"
 1479 02d5 07       		.byte	0x7
 1480 02d6 2201     		.2byte	0x122
 1481 02d8 8D020000 		.4byte	0x28d
 1482 02dc 02       		.byte	0x2
 1483 02dd 23       		.byte	0x23
 1484 02de 0C       		.uleb128 0xc
 1485 02df 0C       		.uleb128 0xc
 1486 02e0 723800   		.ascii	"r8\000"
 1487 02e3 07       		.byte	0x7
 1488 02e4 2301     		.2byte	0x123
 1489 02e6 8D020000 		.4byte	0x28d
 1490 02ea 02       		.byte	0x2
 1491 02eb 23       		.byte	0x23
 1492 02ec 10       		.uleb128 0x10
 1493 02ed 0C       		.uleb128 0xc
 1494 02ee 723900   		.ascii	"r9\000"
 1495 02f1 07       		.byte	0x7
 1496 02f2 2401     		.2byte	0x124
 1497 02f4 8D020000 		.4byte	0x28d
 1498 02f8 02       		.byte	0x2
 1499 02f9 23       		.byte	0x23
 1500 02fa 14       		.uleb128 0x14
 1501 02fb 0C       		.uleb128 0xc
 1502 02fc 72313000 		.ascii	"r10\000"
 1503 0300 07       		.byte	0x7
 1504 0301 2501     		.2byte	0x125
 1505 0303 8D020000 		.4byte	0x28d
 1506 0307 02       		.byte	0x2
 1507 0308 23       		.byte	0x23
 1508 0309 18       		.uleb128 0x18
 1509 030a 0C       		.uleb128 0xc
 1510 030b 72313100 		.ascii	"r11\000"
 1511 030f 07       		.byte	0x7
 1512 0310 2601     		.2byte	0x126
 1513 0312 8D020000 		.4byte	0x28d
 1514 0316 02       		.byte	0x2
 1515 0317 23       		.byte	0x23
 1516 0318 1C       		.uleb128 0x1c
 1517 0319 0C       		.uleb128 0xc
 1518 031a 6C7200   		.ascii	"lr\000"
ARM GAS  C:\Users\DNIEL~1\AppData\Local\Temp\cccvHhse.s 			page 28


 1519 031d 07       		.byte	0x7
 1520 031e 2701     		.2byte	0x127
 1521 0320 8D020000 		.4byte	0x28d
 1522 0324 02       		.byte	0x2
 1523 0325 23       		.byte	0x23
 1524 0326 20       		.uleb128 0x20
 1525 0327 00       		.byte	0x0
 1526 0328 0B       		.uleb128 0xb
 1527 0329 91040000 		.4byte	.LASF47
 1528 032d 04       		.byte	0x4
 1529 032e 07       		.byte	0x7
 1530 032f 3101     		.2byte	0x131
 1531 0331 45030000 		.4byte	0x345
 1532 0335 0C       		.uleb128 0xc
 1533 0336 72313300 		.ascii	"r13\000"
 1534 033a 07       		.byte	0x7
 1535 033b 3201     		.2byte	0x132
 1536 033d 45030000 		.4byte	0x345
 1537 0341 02       		.byte	0x2
 1538 0342 23       		.byte	0x23
 1539 0343 00       		.uleb128 0x0
 1540 0344 00       		.byte	0x0
 1541 0345 09       		.uleb128 0x9
 1542 0346 04       		.byte	0x4
 1543 0347 9A020000 		.4byte	0x29a
 1544 034b 0D       		.uleb128 0xd
 1545 034c 86000000 		.4byte	0x86
 1546 0350 0D       		.uleb128 0xd
 1547 0351 FA000000 		.4byte	0xfa
 1548 0355 08       		.uleb128 0x8
 1549 0356 1C       		.byte	0x1c
 1550 0357 08       		.byte	0x8
 1551 0358 5E       		.byte	0x5e
 1552 0359 B2030000 		.4byte	0x3b2
 1553 035d 06       		.uleb128 0x6
 1554 035e 00040000 		.4byte	.LASF48
 1555 0362 08       		.byte	0x8
 1556 0363 5F       		.byte	0x5f
 1557 0364 60020000 		.4byte	0x260
 1558 0368 02       		.byte	0x2
 1559 0369 23       		.byte	0x23
 1560 036a 00       		.uleb128 0x0
 1561 036b 06       		.uleb128 0x6
 1562 036c 70020000 		.4byte	.LASF49
 1563 0370 08       		.byte	0x8
 1564 0371 60       		.byte	0x60
 1565 0372 D9000000 		.4byte	0xd9
 1566 0376 02       		.byte	0x2
 1567 0377 23       		.byte	0x23
 1568 0378 08       		.uleb128 0x8
 1569 0379 06       		.uleb128 0x6
 1570 037a AD020000 		.4byte	.LASF50
 1571 037e 08       		.byte	0x8
 1572 037f 62       		.byte	0x62
 1573 0380 28030000 		.4byte	0x328
 1574 0384 02       		.byte	0x2
 1575 0385 23       		.byte	0x23
ARM GAS  C:\Users\DNIEL~1\AppData\Local\Temp\cccvHhse.s 			page 29


 1576 0386 0C       		.uleb128 0xc
 1577 0387 06       		.uleb128 0x6
 1578 0388 A3010000 		.4byte	.LASF51
 1579 038c 08       		.byte	0x8
 1580 038d 65       		.byte	0x65
 1581 038e 5A020000 		.4byte	0x25a
 1582 0392 02       		.byte	0x2
 1583 0393 23       		.byte	0x23
 1584 0394 10       		.uleb128 0x10
 1585 0395 06       		.uleb128 0x6
 1586 0396 D4020000 		.4byte	.LASF52
 1587 039a 08       		.byte	0x8
 1588 039b 66       		.byte	0x66
 1589 039c 5A020000 		.4byte	0x25a
 1590 03a0 02       		.byte	0x2
 1591 03a1 23       		.byte	0x23
 1592 03a2 14       		.uleb128 0x14
 1593 03a3 06       		.uleb128 0x6
 1594 03a4 CA020000 		.4byte	.LASF53
 1595 03a8 08       		.byte	0x8
 1596 03a9 69       		.byte	0x69
 1597 03aa 5A020000 		.4byte	0x25a
 1598 03ae 02       		.byte	0x2
 1599 03af 23       		.byte	0x23
 1600 03b0 18       		.uleb128 0x18
 1601 03b1 00       		.byte	0x0
 1602 03b2 03       		.uleb128 0x3
 1603 03b3 57020000 		.4byte	.LASF54
 1604 03b7 08       		.byte	0x8
 1605 03b8 6B       		.byte	0x6b
 1606 03b9 55030000 		.4byte	0x355
 1607 03bd 05       		.uleb128 0x5
 1608 03be 89020000 		.4byte	.LASF55
 1609 03c2 10       		.byte	0x10
 1610 03c3 09       		.byte	0x9
 1611 03c4 2C       		.byte	0x2c
 1612 03c5 F4030000 		.4byte	0x3f4
 1613 03c9 06       		.uleb128 0x6
 1614 03ca F4000000 		.4byte	.LASF56
 1615 03ce 09       		.byte	0x9
 1616 03cf 2D       		.byte	0x2d
 1617 03d0 60020000 		.4byte	0x260
 1618 03d4 02       		.byte	0x2
 1619 03d5 23       		.byte	0x23
 1620 03d6 00       		.uleb128 0x0
 1621 03d7 06       		.uleb128 0x6
 1622 03d8 37050000 		.4byte	.LASF57
 1623 03dc 09       		.byte	0x9
 1624 03dd 2F       		.byte	0x2f
 1625 03de 5A020000 		.4byte	0x25a
 1626 03e2 02       		.byte	0x2
 1627 03e3 23       		.byte	0x23
 1628 03e4 08       		.uleb128 0x8
 1629 03e5 06       		.uleb128 0x6
 1630 03e6 52040000 		.4byte	.LASF58
 1631 03ea 09       		.byte	0x9
 1632 03eb 31       		.byte	0x31
ARM GAS  C:\Users\DNIEL~1\AppData\Local\Temp\cccvHhse.s 			page 30


 1633 03ec F4030000 		.4byte	0x3f4
 1634 03f0 02       		.byte	0x2
 1635 03f1 23       		.byte	0x23
 1636 03f2 0C       		.uleb128 0xc
 1637 03f3 00       		.byte	0x0
 1638 03f4 09       		.uleb128 0x9
 1639 03f5 04       		.byte	0x4
 1640 03f6 BD030000 		.4byte	0x3bd
 1641 03fa 03       		.uleb128 0x3
 1642 03fb 89020000 		.4byte	.LASF55
 1643 03ff 09       		.byte	0x9
 1644 0400 33       		.byte	0x33
 1645 0401 BD030000 		.4byte	0x3bd
 1646 0405 0E       		.uleb128 0xe
 1647 0406 04       		.byte	0x4
 1648 0407 06       		.byte	0x6
 1649 0408 96       		.byte	0x96
 1650 0409 3A040000 		.4byte	0x43a
 1651 040d 0F       		.uleb128 0xf
 1652 040e 0D000000 		.4byte	.LASF59
 1653 0412 06       		.byte	0x6
 1654 0413 9D       		.byte	0x9d
 1655 0414 E4000000 		.4byte	0xe4
 1656 0418 0F       		.uleb128 0xf
 1657 0419 8F000000 		.4byte	.LASF60
 1658 041d 06       		.byte	0x6
 1659 041e A4       		.byte	0xa4
 1660 041f E4000000 		.4byte	0xe4
 1661 0423 0F       		.uleb128 0xf
 1662 0424 05050000 		.4byte	.LASF61
 1663 0428 06       		.byte	0x6
 1664 0429 AB       		.byte	0xab
 1665 042a 98020000 		.4byte	0x298
 1666 042e 0F       		.uleb128 0xf
 1667 042f BF030000 		.4byte	.LASF62
 1668 0433 06       		.byte	0x6
 1669 0434 B2       		.byte	0xb2
 1670 0435 EF000000 		.4byte	0xef
 1671 0439 00       		.byte	0x0
 1672 043a 09       		.uleb128 0x9
 1673 043b 04       		.byte	0x4
 1674 043c 40040000 		.4byte	0x440
 1675 0440 10       		.uleb128 0x10
 1676 0441 45040000 		.4byte	0x445
 1677 0445 04       		.uleb128 0x4
 1678 0446 01       		.byte	0x1
 1679 0447 08       		.byte	0x8
 1680 0448 2E040000 		.4byte	.LASF63
 1681 044c 09       		.uleb128 0x9
 1682 044d 04       		.byte	0x4
 1683 044e FA030000 		.4byte	0x3fa
 1684 0452 0D       		.uleb128 0xd
 1685 0453 62000000 		.4byte	0x62
 1686 0457 0D       		.uleb128 0xd
 1687 0458 74000000 		.4byte	0x74
 1688 045c 11       		.uleb128 0x11
 1689 045d 10       		.byte	0x10
ARM GAS  C:\Users\DNIEL~1\AppData\Local\Temp\cccvHhse.s 			page 31


 1690 045e 0A       		.byte	0xa
 1691 045f 2D03     		.2byte	0x32d
 1692 0461 A2040000 		.4byte	0x4a2
 1693 0465 0C       		.uleb128 0xc
 1694 0466 43435200 		.ascii	"CCR\000"
 1695 046a 0A       		.byte	0xa
 1696 046b 2F03     		.2byte	0x32f
 1697 046d 4B030000 		.4byte	0x34b
 1698 0471 02       		.byte	0x2
 1699 0472 23       		.byte	0x23
 1700 0473 00       		.uleb128 0x0
 1701 0474 12       		.uleb128 0x12
 1702 0475 E0040000 		.4byte	.LASF64
 1703 0479 0A       		.byte	0xa
 1704 047a 3003     		.2byte	0x330
 1705 047c 4B030000 		.4byte	0x34b
 1706 0480 02       		.byte	0x2
 1707 0481 23       		.byte	0x23
 1708 0482 04       		.uleb128 0x4
 1709 0483 12       		.uleb128 0x12
 1710 0484 E8010000 		.4byte	.LASF65
 1711 0488 0A       		.byte	0xa
 1712 0489 3103     		.2byte	0x331
 1713 048b 4B030000 		.4byte	0x34b
 1714 048f 02       		.byte	0x2
 1715 0490 23       		.byte	0x23
 1716 0491 08       		.uleb128 0x8
 1717 0492 12       		.uleb128 0x12
 1718 0493 E6040000 		.4byte	.LASF66
 1719 0497 0A       		.byte	0xa
 1720 0498 3203     		.2byte	0x332
 1721 049a 4B030000 		.4byte	0x34b
 1722 049e 02       		.byte	0x2
 1723 049f 23       		.byte	0x23
 1724 04a0 0C       		.uleb128 0xc
 1725 04a1 00       		.byte	0x0
 1726 04a2 13       		.uleb128 0x13
 1727 04a3 DC020000 		.4byte	.LASF67
 1728 04a7 0A       		.byte	0xa
 1729 04a8 3303     		.2byte	0x333
 1730 04aa 5C040000 		.4byte	0x45c
 1731 04ae 11       		.uleb128 0x11
 1732 04af 1C       		.byte	0x1c
 1733 04b0 0A       		.byte	0xa
 1734 04b1 F803     		.2byte	0x3f8
 1735 04b3 21050000 		.4byte	0x521
 1736 04b7 0C       		.uleb128 0xc
 1737 04b8 43524C00 		.ascii	"CRL\000"
 1738 04bc 0A       		.byte	0xa
 1739 04bd FA03     		.2byte	0x3fa
 1740 04bf 4B030000 		.4byte	0x34b
 1741 04c3 02       		.byte	0x2
 1742 04c4 23       		.byte	0x23
 1743 04c5 00       		.uleb128 0x0
 1744 04c6 0C       		.uleb128 0xc
 1745 04c7 43524800 		.ascii	"CRH\000"
 1746 04cb 0A       		.byte	0xa
ARM GAS  C:\Users\DNIEL~1\AppData\Local\Temp\cccvHhse.s 			page 32


 1747 04cc FB03     		.2byte	0x3fb
 1748 04ce 4B030000 		.4byte	0x34b
 1749 04d2 02       		.byte	0x2
 1750 04d3 23       		.byte	0x23
 1751 04d4 04       		.uleb128 0x4
 1752 04d5 0C       		.uleb128 0xc
 1753 04d6 49445200 		.ascii	"IDR\000"
 1754 04da 0A       		.byte	0xa
 1755 04db FC03     		.2byte	0x3fc
 1756 04dd 4B030000 		.4byte	0x34b
 1757 04e1 02       		.byte	0x2
 1758 04e2 23       		.byte	0x23
 1759 04e3 08       		.uleb128 0x8
 1760 04e4 0C       		.uleb128 0xc
 1761 04e5 4F445200 		.ascii	"ODR\000"
 1762 04e9 0A       		.byte	0xa
 1763 04ea FD03     		.2byte	0x3fd
 1764 04ec 4B030000 		.4byte	0x34b
 1765 04f0 02       		.byte	0x2
 1766 04f1 23       		.byte	0x23
 1767 04f2 0C       		.uleb128 0xc
 1768 04f3 12       		.uleb128 0x12
 1769 04f4 DE000000 		.4byte	.LASF68
 1770 04f8 0A       		.byte	0xa
 1771 04f9 FE03     		.2byte	0x3fe
 1772 04fb 4B030000 		.4byte	0x34b
 1773 04ff 02       		.byte	0x2
 1774 0500 23       		.byte	0x23
 1775 0501 10       		.uleb128 0x10
 1776 0502 0C       		.uleb128 0xc
 1777 0503 42525200 		.ascii	"BRR\000"
 1778 0507 0A       		.byte	0xa
 1779 0508 FF03     		.2byte	0x3ff
 1780 050a 4B030000 		.4byte	0x34b
 1781 050e 02       		.byte	0x2
 1782 050f 23       		.byte	0x23
 1783 0510 14       		.uleb128 0x14
 1784 0511 12       		.uleb128 0x12
 1785 0512 05020000 		.4byte	.LASF69
 1786 0516 0A       		.byte	0xa
 1787 0517 0004     		.2byte	0x400
 1788 0519 4B030000 		.4byte	0x34b
 1789 051d 02       		.byte	0x2
 1790 051e 23       		.byte	0x23
 1791 051f 18       		.uleb128 0x18
 1792 0520 00       		.byte	0x0
 1793 0521 13       		.uleb128 0x13
 1794 0522 F8010000 		.4byte	.LASF70
 1795 0526 0A       		.byte	0xa
 1796 0527 0104     		.2byte	0x401
 1797 0529 AE040000 		.4byte	0x4ae
 1798 052d 11       		.uleb128 0x11
 1799 052e 24       		.byte	0x24
 1800 052f 0A       		.byte	0xa
 1801 0530 9704     		.2byte	0x497
 1802 0532 43060000 		.4byte	0x643
 1803 0536 0C       		.uleb128 0xc
ARM GAS  C:\Users\DNIEL~1\AppData\Local\Temp\cccvHhse.s 			page 33


 1804 0537 43523100 		.ascii	"CR1\000"
 1805 053b 0A       		.byte	0xa
 1806 053c 9904     		.2byte	0x499
 1807 053e 52040000 		.4byte	0x452
 1808 0542 02       		.byte	0x2
 1809 0543 23       		.byte	0x23
 1810 0544 00       		.uleb128 0x0
 1811 0545 12       		.uleb128 0x12
 1812 0546 F7020000 		.4byte	.LASF71
 1813 054a 0A       		.byte	0xa
 1814 054b 9A04     		.2byte	0x49a
 1815 054d 62000000 		.4byte	0x62
 1816 0551 02       		.byte	0x2
 1817 0552 23       		.byte	0x23
 1818 0553 02       		.uleb128 0x2
 1819 0554 0C       		.uleb128 0xc
 1820 0555 43523200 		.ascii	"CR2\000"
 1821 0559 0A       		.byte	0xa
 1822 055a 9B04     		.2byte	0x49b
 1823 055c 52040000 		.4byte	0x452
 1824 0560 02       		.byte	0x2
 1825 0561 23       		.byte	0x23
 1826 0562 04       		.uleb128 0x4
 1827 0563 12       		.uleb128 0x12
 1828 0564 01030000 		.4byte	.LASF72
 1829 0568 0A       		.byte	0xa
 1830 0569 9C04     		.2byte	0x49c
 1831 056b 62000000 		.4byte	0x62
 1832 056f 02       		.byte	0x2
 1833 0570 23       		.byte	0x23
 1834 0571 06       		.uleb128 0x6
 1835 0572 0C       		.uleb128 0xc
 1836 0573 535200   		.ascii	"SR\000"
 1837 0576 0A       		.byte	0xa
 1838 0577 9D04     		.2byte	0x49d
 1839 0579 52040000 		.4byte	0x452
 1840 057d 02       		.byte	0x2
 1841 057e 23       		.byte	0x23
 1842 057f 08       		.uleb128 0x8
 1843 0580 12       		.uleb128 0x12
 1844 0581 0B030000 		.4byte	.LASF73
 1845 0585 0A       		.byte	0xa
 1846 0586 9E04     		.2byte	0x49e
 1847 0588 62000000 		.4byte	0x62
 1848 058c 02       		.byte	0x2
 1849 058d 23       		.byte	0x23
 1850 058e 0A       		.uleb128 0xa
 1851 058f 0C       		.uleb128 0xc
 1852 0590 445200   		.ascii	"DR\000"
 1853 0593 0A       		.byte	0xa
 1854 0594 9F04     		.2byte	0x49f
 1855 0596 52040000 		.4byte	0x452
 1856 059a 02       		.byte	0x2
 1857 059b 23       		.byte	0x23
 1858 059c 0C       		.uleb128 0xc
 1859 059d 12       		.uleb128 0x12
 1860 059e 15030000 		.4byte	.LASF74
ARM GAS  C:\Users\DNIEL~1\AppData\Local\Temp\cccvHhse.s 			page 34


 1861 05a2 0A       		.byte	0xa
 1862 05a3 A004     		.2byte	0x4a0
 1863 05a5 62000000 		.4byte	0x62
 1864 05a9 02       		.byte	0x2
 1865 05aa 23       		.byte	0x23
 1866 05ab 0E       		.uleb128 0xe
 1867 05ac 12       		.uleb128 0x12
 1868 05ad 89000000 		.4byte	.LASF75
 1869 05b1 0A       		.byte	0xa
 1870 05b2 A104     		.2byte	0x4a1
 1871 05b4 52040000 		.4byte	0x452
 1872 05b8 02       		.byte	0x2
 1873 05b9 23       		.byte	0x23
 1874 05ba 10       		.uleb128 0x10
 1875 05bb 12       		.uleb128 0x12
 1876 05bc 1F030000 		.4byte	.LASF76
 1877 05c0 0A       		.byte	0xa
 1878 05c1 A204     		.2byte	0x4a2
 1879 05c3 62000000 		.4byte	0x62
 1880 05c7 02       		.byte	0x2
 1881 05c8 23       		.byte	0x23
 1882 05c9 12       		.uleb128 0x12
 1883 05ca 12       		.uleb128 0x12
 1884 05cb EB040000 		.4byte	.LASF77
 1885 05cf 0A       		.byte	0xa
 1886 05d0 A304     		.2byte	0x4a3
 1887 05d2 52040000 		.4byte	0x452
 1888 05d6 02       		.byte	0x2
 1889 05d7 23       		.byte	0x23
 1890 05d8 14       		.uleb128 0x14
 1891 05d9 12       		.uleb128 0x12
 1892 05da ED030000 		.4byte	.LASF78
 1893 05de 0A       		.byte	0xa
 1894 05df A404     		.2byte	0x4a4
 1895 05e1 62000000 		.4byte	0x62
 1896 05e5 02       		.byte	0x2
 1897 05e6 23       		.byte	0x23
 1898 05e7 16       		.uleb128 0x16
 1899 05e8 12       		.uleb128 0x12
 1900 05e9 F0020000 		.4byte	.LASF79
 1901 05ed 0A       		.byte	0xa
 1902 05ee A504     		.2byte	0x4a5
 1903 05f0 52040000 		.4byte	0x452
 1904 05f4 02       		.byte	0x2
 1905 05f5 23       		.byte	0x23
 1906 05f6 18       		.uleb128 0x18
 1907 05f7 12       		.uleb128 0x12
 1908 05f8 30030000 		.4byte	.LASF80
 1909 05fc 0A       		.byte	0xa
 1910 05fd A604     		.2byte	0x4a6
 1911 05ff 62000000 		.4byte	0x62
 1912 0603 02       		.byte	0x2
 1913 0604 23       		.byte	0x23
 1914 0605 1A       		.uleb128 0x1a
 1915 0606 12       		.uleb128 0x12
 1916 0607 8F020000 		.4byte	.LASF81
 1917 060b 0A       		.byte	0xa
ARM GAS  C:\Users\DNIEL~1\AppData\Local\Temp\cccvHhse.s 			page 35


 1918 060c A704     		.2byte	0x4a7
 1919 060e 52040000 		.4byte	0x452
 1920 0612 02       		.byte	0x2
 1921 0613 23       		.byte	0x23
 1922 0614 1C       		.uleb128 0x1c
 1923 0615 12       		.uleb128 0x12
 1924 0616 3A030000 		.4byte	.LASF82
 1925 061a 0A       		.byte	0xa
 1926 061b A804     		.2byte	0x4a8
 1927 061d 62000000 		.4byte	0x62
 1928 0621 02       		.byte	0x2
 1929 0622 23       		.byte	0x23
 1930 0623 1E       		.uleb128 0x1e
 1931 0624 12       		.uleb128 0x12
 1932 0625 83020000 		.4byte	.LASF83
 1933 0629 0A       		.byte	0xa
 1934 062a A904     		.2byte	0x4a9
 1935 062c 52040000 		.4byte	0x452
 1936 0630 02       		.byte	0x2
 1937 0631 23       		.byte	0x23
 1938 0632 20       		.uleb128 0x20
 1939 0633 12       		.uleb128 0x12
 1940 0634 44030000 		.4byte	.LASF84
 1941 0638 0A       		.byte	0xa
 1942 0639 AA04     		.2byte	0x4aa
 1943 063b 62000000 		.4byte	0x62
 1944 063f 02       		.byte	0x2
 1945 0640 23       		.byte	0x23
 1946 0641 22       		.uleb128 0x22
 1947 0642 00       		.byte	0x0
 1948 0643 13       		.uleb128 0x13
 1949 0644 22040000 		.4byte	.LASF85
 1950 0648 0A       		.byte	0xa
 1951 0649 AB04     		.2byte	0x4ab
 1952 064b 2D050000 		.4byte	0x52d
 1953 064f 08       		.uleb128 0x8
 1954 0650 0C       		.byte	0xc
 1955 0651 0B       		.byte	0xb
 1956 0652 C1       		.byte	0xc1
 1957 0653 9E060000 		.4byte	0x69e
 1958 0657 06       		.uleb128 0x6
 1959 0658 D5030000 		.4byte	.LASF86
 1960 065c 0B       		.byte	0xb
 1961 065d C2       		.byte	0xc2
 1962 065e 9E060000 		.4byte	0x69e
 1963 0662 02       		.byte	0x2
 1964 0663 23       		.byte	0x23
 1965 0664 00       		.uleb128 0x0
 1966 0665 06       		.uleb128 0x6
 1967 0666 E8030000 		.4byte	.LASF87
 1968 066a 0B       		.byte	0xb
 1969 066b C3       		.byte	0xc3
 1970 066c A4060000 		.4byte	0x6a4
 1971 0670 02       		.byte	0x2
 1972 0671 23       		.byte	0x23
 1973 0672 04       		.uleb128 0x4
 1974 0673 06       		.uleb128 0x6
ARM GAS  C:\Users\DNIEL~1\AppData\Local\Temp\cccvHhse.s 			page 36


 1975 0674 0A020000 		.4byte	.LASF88
 1976 0678 0B       		.byte	0xb
 1977 0679 C4       		.byte	0xc4
 1978 067a 49000000 		.4byte	0x49
 1979 067e 02       		.byte	0x2
 1980 067f 23       		.byte	0x23
 1981 0680 08       		.uleb128 0x8
 1982 0681 06       		.uleb128 0x6
 1983 0682 B4010000 		.4byte	.LASF89
 1984 0686 0B       		.byte	0xb
 1985 0687 C6       		.byte	0xc6
 1986 0688 49000000 		.4byte	0x49
 1987 068c 02       		.byte	0x2
 1988 068d 23       		.byte	0x23
 1989 068e 09       		.uleb128 0x9
 1990 068f 06       		.uleb128 0x6
 1991 0690 98000000 		.4byte	.LASF90
 1992 0694 0B       		.byte	0xb
 1993 0695 C7       		.byte	0xc7
 1994 0696 49000000 		.4byte	0x49
 1995 069a 02       		.byte	0x2
 1996 069b 23       		.byte	0x23
 1997 069c 0A       		.uleb128 0xa
 1998 069d 00       		.byte	0x0
 1999 069e 09       		.uleb128 0x9
 2000 069f 04       		.byte	0x4
 2001 06a0 A2040000 		.4byte	0x4a2
 2002 06a4 09       		.uleb128 0x9
 2003 06a5 04       		.byte	0x4
 2004 06a6 4B030000 		.4byte	0x34b
 2005 06aa 03       		.uleb128 0x3
 2006 06ab 78030000 		.4byte	.LASF91
 2007 06af 0B       		.byte	0xb
 2008 06b0 C8       		.byte	0xc8
 2009 06b1 4F060000 		.4byte	0x64f
 2010 06b5 03       		.uleb128 0x3
 2011 06b6 86040000 		.4byte	.LASF92
 2012 06ba 0C       		.byte	0xc
 2013 06bb 7A       		.byte	0x7a
 2014 06bc C0060000 		.4byte	0x6c0
 2015 06c0 09       		.uleb128 0x9
 2016 06c1 04       		.byte	0x4
 2017 06c2 21050000 		.4byte	0x521
 2018 06c6 09       		.uleb128 0x9
 2019 06c7 04       		.byte	0x4
 2020 06c8 CC060000 		.4byte	0x6cc
 2021 06cc 10       		.uleb128 0x10
 2022 06cd AA060000 		.4byte	0x6aa
 2023 06d1 14       		.uleb128 0x14
 2024 06d2 01       		.byte	0x1
 2025 06d3 0D       		.byte	0xd
 2026 06d4 55       		.byte	0x55
 2027 06d5 F8060000 		.4byte	0x6f8
 2028 06d9 15       		.uleb128 0x15
 2029 06da BD040000 		.4byte	.LASF93
 2030 06de 00       		.sleb128 0
 2031 06df 15       		.uleb128 0x15
ARM GAS  C:\Users\DNIEL~1\AppData\Local\Temp\cccvHhse.s 			page 37


 2032 06e0 E3000000 		.4byte	.LASF94
 2033 06e4 01       		.sleb128 1
 2034 06e5 15       		.uleb128 0x15
 2035 06e6 B3040000 		.4byte	.LASF95
 2036 06ea 02       		.sleb128 2
 2037 06eb 15       		.uleb128 0x15
 2038 06ec 14000000 		.4byte	.LASF96
 2039 06f0 03       		.sleb128 3
 2040 06f1 15       		.uleb128 0x15
 2041 06f2 33040000 		.4byte	.LASF97
 2042 06f6 04       		.sleb128 4
 2043 06f7 00       		.byte	0x0
 2044 06f8 03       		.uleb128 0x3
 2045 06f9 47040000 		.4byte	.LASF98
 2046 06fd 0D       		.byte	0xd
 2047 06fe 5B       		.byte	0x5b
 2048 06ff D1060000 		.4byte	0x6d1
 2049 0703 13       		.uleb128 0x13
 2050 0704 9F000000 		.4byte	.LASF99
 2051 0708 0E       		.byte	0xe
 2052 0709 E701     		.2byte	0x1e7
 2053 070b 0F070000 		.4byte	0x70f
 2054 070f 0B       		.uleb128 0xb
 2055 0710 9F000000 		.4byte	.LASF99
 2056 0714 30       		.byte	0x30
 2057 0715 0E       		.byte	0xe
 2058 0716 0B02     		.2byte	0x20b
 2059 0718 A4070000 		.4byte	0x7a4
 2060 071c 12       		.uleb128 0x12
 2061 071d 14010000 		.4byte	.LASF100
 2062 0721 0E       		.byte	0xe
 2063 0722 0F02     		.2byte	0x20f
 2064 0724 F8060000 		.4byte	0x6f8
 2065 0728 02       		.byte	0x2
 2066 0729 23       		.byte	0x23
 2067 072a 00       		.uleb128 0x0
 2068 072b 12       		.uleb128 0x12
 2069 072c 40040000 		.4byte	.LASF101
 2070 0730 0E       		.byte	0xe
 2071 0731 1302     		.2byte	0x213
 2072 0733 1A080000 		.4byte	0x81a
 2073 0737 02       		.byte	0x2
 2074 0738 23       		.byte	0x23
 2075 0739 04       		.uleb128 0x4
 2076 073a 12       		.uleb128 0x12
 2077 073b 5E010000 		.4byte	.LASF102
 2078 073f 0E       		.byte	0xe
 2079 0740 1802     		.2byte	0x218
 2080 0742 5A020000 		.4byte	0x25a
 2081 0746 02       		.byte	0x2
 2082 0747 23       		.byte	0x23
 2083 0748 08       		.uleb128 0x8
 2084 0749 12       		.uleb128 0x12
 2085 074a 56030000 		.4byte	.LASF103
 2086 074e 0E       		.byte	0xe
 2087 074f 1F02     		.2byte	0x21f
 2088 0751 FA030000 		.4byte	0x3fa
ARM GAS  C:\Users\DNIEL~1\AppData\Local\Temp\cccvHhse.s 			page 38


 2089 0755 02       		.byte	0x2
 2090 0756 23       		.byte	0x23
 2091 0757 0C       		.uleb128 0xc
 2092 0758 0C       		.uleb128 0xc
 2093 0759 73706900 		.ascii	"spi\000"
 2094 075d 0E       		.byte	0xe
 2095 075e 2B02     		.2byte	0x22b
 2096 0760 25080000 		.4byte	0x825
 2097 0764 02       		.byte	0x2
 2098 0765 23       		.byte	0x23
 2099 0766 1C       		.uleb128 0x1c
 2100 0767 12       		.uleb128 0x12
 2101 0768 00000000 		.4byte	.LASF104
 2102 076c 0E       		.byte	0xe
 2103 076d 2F02     		.2byte	0x22f
 2104 076f C6060000 		.4byte	0x6c6
 2105 0773 02       		.byte	0x2
 2106 0774 23       		.byte	0x23
 2107 0775 20       		.uleb128 0x20
 2108 0776 12       		.uleb128 0x12
 2109 0777 9D010000 		.4byte	.LASF105
 2110 077b 0E       		.byte	0xe
 2111 077c 3302     		.2byte	0x233
 2112 077e C6060000 		.4byte	0x6c6
 2113 0782 02       		.byte	0x2
 2114 0783 23       		.byte	0x23
 2115 0784 24       		.uleb128 0x24
 2116 0785 12       		.uleb128 0x12
 2117 0786 93010000 		.4byte	.LASF106
 2118 078a 0E       		.byte	0xe
 2119 078b 3702     		.2byte	0x237
 2120 078d 86000000 		.4byte	0x86
 2121 0791 02       		.byte	0x2
 2122 0792 23       		.byte	0x23
 2123 0793 28       		.uleb128 0x28
 2124 0794 12       		.uleb128 0x12
 2125 0795 C0020000 		.4byte	.LASF107
 2126 0799 0E       		.byte	0xe
 2127 079a 3B02     		.2byte	0x23b
 2128 079c 86000000 		.4byte	0x86
 2129 07a0 02       		.byte	0x2
 2130 07a1 23       		.byte	0x23
 2131 07a2 2C       		.uleb128 0x2c
 2132 07a3 00       		.byte	0x0
 2133 07a4 13       		.uleb128 0x13
 2134 07a5 06010000 		.4byte	.LASF108
 2135 07a9 0E       		.byte	0xe
 2136 07aa EF01     		.2byte	0x1ef
 2137 07ac B0070000 		.4byte	0x7b0
 2138 07b0 09       		.uleb128 0x9
 2139 07b1 04       		.byte	0x4
 2140 07b2 B6070000 		.4byte	0x7b6
 2141 07b6 16       		.uleb128 0x16
 2142 07b7 01       		.byte	0x1
 2143 07b8 C2070000 		.4byte	0x7c2
 2144 07bc 17       		.uleb128 0x17
 2145 07bd C2070000 		.4byte	0x7c2
ARM GAS  C:\Users\DNIEL~1\AppData\Local\Temp\cccvHhse.s 			page 39


 2146 07c1 00       		.byte	0x0
 2147 07c2 09       		.uleb128 0x9
 2148 07c3 04       		.byte	0x4
 2149 07c4 03070000 		.4byte	0x703
 2150 07c8 11       		.uleb128 0x11
 2151 07c9 0C       		.byte	0xc
 2152 07ca 0E       		.byte	0xe
 2153 07cb F401     		.2byte	0x1f4
 2154 07cd 0E080000 		.4byte	0x80e
 2155 07d1 12       		.uleb128 0x12
 2156 07d2 8C010000 		.4byte	.LASF109
 2157 07d6 0E       		.byte	0xe
 2158 07d7 F801     		.2byte	0x1f8
 2159 07d9 A4070000 		.4byte	0x7a4
 2160 07dd 02       		.byte	0x2
 2161 07de 23       		.byte	0x23
 2162 07df 00       		.uleb128 0x0
 2163 07e0 12       		.uleb128 0x12
 2164 07e1 A9000000 		.4byte	.LASF110
 2165 07e5 0E       		.byte	0xe
 2166 07e6 FD01     		.2byte	0x1fd
 2167 07e8 B5060000 		.4byte	0x6b5
 2168 07ec 02       		.byte	0x2
 2169 07ed 23       		.byte	0x23
 2170 07ee 04       		.uleb128 0x4
 2171 07ef 12       		.uleb128 0x12
 2172 07f0 6C000000 		.4byte	.LASF111
 2173 07f4 0E       		.byte	0xe
 2174 07f5 0102     		.2byte	0x201
 2175 07f7 62000000 		.4byte	0x62
 2176 07fb 02       		.byte	0x2
 2177 07fc 23       		.byte	0x23
 2178 07fd 08       		.uleb128 0x8
 2179 07fe 0C       		.uleb128 0xc
 2180 07ff 63723100 		.ascii	"cr1\000"
 2181 0803 0E       		.byte	0xe
 2182 0804 0502     		.2byte	0x205
 2183 0806 62000000 		.4byte	0x62
 2184 080a 02       		.byte	0x2
 2185 080b 23       		.byte	0x23
 2186 080c 0A       		.uleb128 0xa
 2187 080d 00       		.byte	0x0
 2188 080e 13       		.uleb128 0x13
 2189 080f 27050000 		.4byte	.LASF112
 2190 0813 0E       		.byte	0xe
 2191 0814 0602     		.2byte	0x206
 2192 0816 C8070000 		.4byte	0x7c8
 2193 081a 09       		.uleb128 0x9
 2194 081b 04       		.byte	0x4
 2195 081c 20080000 		.4byte	0x820
 2196 0820 10       		.uleb128 0x10
 2197 0821 0E080000 		.4byte	0x80e
 2198 0825 09       		.uleb128 0x9
 2199 0826 04       		.byte	0x4
 2200 0827 43060000 		.4byte	0x643
 2201 082b 18       		.uleb128 0x18
 2202 082c 01       		.byte	0x1
ARM GAS  C:\Users\DNIEL~1\AppData\Local\Temp\cccvHhse.s 			page 40


 2203 082d 61020000 		.4byte	.LASF136
 2204 0831 01       		.byte	0x1
 2205 0832 44       		.byte	0x44
 2206 0833 01       		.byte	0x1
 2207 0834 00000000 		.4byte	.LFB56
 2208 0838 04000000 		.4byte	.LFE56
 2209 083c 02       		.byte	0x2
 2210 083d 7D       		.byte	0x7d
 2211 083e 00       		.sleb128 0
 2212 083f 19       		.uleb128 0x19
 2213 0840 01       		.byte	0x1
 2214 0841 B1030000 		.4byte	.LASF113
 2215 0845 01       		.byte	0x1
 2216 0846 50       		.byte	0x50
 2217 0847 01       		.byte	0x1
 2218 0848 00000000 		.4byte	.LFB57
 2219 084c 10000000 		.4byte	.LFE57
 2220 0850 02       		.byte	0x2
 2221 0851 7D       		.byte	0x7d
 2222 0852 00       		.sleb128 0
 2223 0853 67080000 		.4byte	0x867
 2224 0857 1A       		.uleb128 0x1a
 2225 0858 00050000 		.4byte	.LASF115
 2226 085c 01       		.byte	0x1
 2227 085d 50       		.byte	0x50
 2228 085e C2070000 		.4byte	0x7c2
 2229 0862 00000000 		.4byte	.LLST0
 2230 0866 00       		.byte	0x0
 2231 0867 1B       		.uleb128 0x1b
 2232 0868 01       		.byte	0x1
 2233 0869 99040000 		.4byte	.LASF114
 2234 086d 01       		.byte	0x1
 2235 086e 6B       		.byte	0x6b
 2236 086f 01       		.byte	0x1
 2237 0870 00000000 		.4byte	.LFB58
 2238 0874 18000000 		.4byte	.LFE58
 2239 0878 20000000 		.4byte	.LLST1
 2240 087c 9F080000 		.4byte	0x89f
 2241 0880 1A       		.uleb128 0x1a
 2242 0881 00050000 		.4byte	.LASF115
 2243 0885 01       		.byte	0x1
 2244 0886 6B       		.byte	0x6b
 2245 0887 C2070000 		.4byte	0x7c2
 2246 088b 40000000 		.4byte	.LLST2
 2247 088f 1A       		.uleb128 0x1a
 2248 0890 40040000 		.4byte	.LASF101
 2249 0894 01       		.byte	0x1
 2250 0895 6B       		.byte	0x6b
 2251 0896 1A080000 		.4byte	0x81a
 2252 089a 5E000000 		.4byte	.LLST3
 2253 089e 00       		.byte	0x0
 2254 089f 1B       		.uleb128 0x1b
 2255 08a0 01       		.byte	0x1
 2256 08a1 1F000000 		.4byte	.LASF116
 2257 08a5 01       		.byte	0x1
 2258 08a6 81       		.byte	0x81
 2259 08a7 01       		.byte	0x1
ARM GAS  C:\Users\DNIEL~1\AppData\Local\Temp\cccvHhse.s 			page 41


 2260 08a8 00000000 		.4byte	.LFB59
 2261 08ac 1C000000 		.4byte	.LFE59
 2262 08b0 71000000 		.4byte	.LLST4
 2263 08b4 C8080000 		.4byte	0x8c8
 2264 08b8 1A       		.uleb128 0x1a
 2265 08b9 00050000 		.4byte	.LASF115
 2266 08bd 01       		.byte	0x1
 2267 08be 81       		.byte	0x81
 2268 08bf C2070000 		.4byte	0x7c2
 2269 08c3 91000000 		.4byte	.LLST5
 2270 08c7 00       		.byte	0x0
 2271 08c8 1B       		.uleb128 0x1b
 2272 08c9 01       		.byte	0x1
 2273 08ca A2040000 		.4byte	.LASF117
 2274 08ce 01       		.byte	0x1
 2275 08cf 95       		.byte	0x95
 2276 08d0 01       		.byte	0x1
 2277 08d1 00000000 		.4byte	.LFB60
 2278 08d5 10000000 		.4byte	.LFE60
 2279 08d9 AF000000 		.4byte	.LLST6
 2280 08dd F1080000 		.4byte	0x8f1
 2281 08e1 1A       		.uleb128 0x1a
 2282 08e2 00050000 		.4byte	.LASF115
 2283 08e6 01       		.byte	0x1
 2284 08e7 95       		.byte	0x95
 2285 08e8 C2070000 		.4byte	0x7c2
 2286 08ec CF000000 		.4byte	.LLST7
 2287 08f0 00       		.byte	0x0
 2288 08f1 1B       		.uleb128 0x1b
 2289 08f2 01       		.byte	0x1
 2290 08f3 BE010000 		.4byte	.LASF118
 2291 08f7 01       		.byte	0x1
 2292 08f8 A7       		.byte	0xa7
 2293 08f9 01       		.byte	0x1
 2294 08fa 00000000 		.4byte	.LFB61
 2295 08fe 10000000 		.4byte	.LFE61
 2296 0902 E2000000 		.4byte	.LLST8
 2297 0906 1A090000 		.4byte	0x91a
 2298 090a 1A       		.uleb128 0x1a
 2299 090b 00050000 		.4byte	.LASF115
 2300 090f 01       		.byte	0x1
 2301 0910 A7       		.byte	0xa7
 2302 0911 C2070000 		.4byte	0x7c2
 2303 0915 02010000 		.4byte	.LLST9
 2304 0919 00       		.byte	0x0
 2305 091a 1B       		.uleb128 0x1b
 2306 091b 01       		.byte	0x1
 2307 091c 75010000 		.4byte	.LASF119
 2308 0920 01       		.byte	0x1
 2309 0921 BE       		.byte	0xbe
 2310 0922 01       		.byte	0x1
 2311 0923 00000000 		.4byte	.LFB62
 2312 0927 14000000 		.4byte	.LFE62
 2313 092b 15010000 		.4byte	.LLST10
 2314 092f 50090000 		.4byte	0x950
 2315 0933 1A       		.uleb128 0x1a
 2316 0934 00050000 		.4byte	.LASF115
ARM GAS  C:\Users\DNIEL~1\AppData\Local\Temp\cccvHhse.s 			page 42


 2317 0938 01       		.byte	0x1
 2318 0939 BE       		.byte	0xbe
 2319 093a C2070000 		.4byte	0x7c2
 2320 093e 35010000 		.4byte	.LLST11
 2321 0942 1C       		.uleb128 0x1c
 2322 0943 6E00     		.ascii	"n\000"
 2323 0945 01       		.byte	0x1
 2324 0946 BE       		.byte	0xbe
 2325 0947 30000000 		.4byte	0x30
 2326 094b 48010000 		.4byte	.LLST12
 2327 094f 00       		.byte	0x0
 2328 0950 1B       		.uleb128 0x1b
 2329 0951 01       		.byte	0x1
 2330 0952 CF040000 		.4byte	.LASF120
 2331 0956 01       		.byte	0x1
 2332 0957 D9       		.byte	0xd9
 2333 0958 01       		.byte	0x1
 2334 0959 00000000 		.4byte	.LFB63
 2335 095d 18000000 		.4byte	.LFE63
 2336 0961 5B010000 		.4byte	.LLST13
 2337 0965 A4090000 		.4byte	0x9a4
 2338 0969 1A       		.uleb128 0x1a
 2339 096a 00050000 		.4byte	.LASF115
 2340 096e 01       		.byte	0x1
 2341 096f D9       		.byte	0xd9
 2342 0970 C2070000 		.4byte	0x7c2
 2343 0974 7B010000 		.4byte	.LLST14
 2344 0978 1C       		.uleb128 0x1c
 2345 0979 6E00     		.ascii	"n\000"
 2346 097b 01       		.byte	0x1
 2347 097c D9       		.byte	0xd9
 2348 097d 30000000 		.4byte	0x30
 2349 0981 8E010000 		.4byte	.LLST15
 2350 0985 1A       		.uleb128 0x1a
 2351 0986 D7010000 		.4byte	.LASF121
 2352 098a 01       		.byte	0x1
 2353 098b DA       		.byte	0xda
 2354 098c A4090000 		.4byte	0x9a4
 2355 0990 A1010000 		.4byte	.LLST16
 2356 0994 1A       		.uleb128 0x1a
 2357 0995 27000000 		.4byte	.LASF122
 2358 0999 01       		.byte	0x1
 2359 099a DA       		.byte	0xda
 2360 099b 98020000 		.4byte	0x298
 2361 099f B4010000 		.4byte	.LLST17
 2362 09a3 00       		.byte	0x0
 2363 09a4 09       		.uleb128 0x9
 2364 09a5 04       		.byte	0x4
 2365 09a6 AA090000 		.4byte	0x9aa
 2366 09aa 1D       		.uleb128 0x1d
 2367 09ab 1B       		.uleb128 0x1b
 2368 09ac 01       		.byte	0x1
 2369 09ad 11020000 		.4byte	.LASF123
 2370 09b1 01       		.byte	0x1
 2371 09b2 F4       		.byte	0xf4
 2372 09b3 01       		.byte	0x1
 2373 09b4 00000000 		.4byte	.LFB64
ARM GAS  C:\Users\DNIEL~1\AppData\Local\Temp\cccvHhse.s 			page 43


 2374 09b8 14000000 		.4byte	.LFE64
 2375 09bc D2010000 		.4byte	.LLST18
 2376 09c0 F0090000 		.4byte	0x9f0
 2377 09c4 1A       		.uleb128 0x1a
 2378 09c5 00050000 		.4byte	.LASF115
 2379 09c9 01       		.byte	0x1
 2380 09ca F4       		.byte	0xf4
 2381 09cb C2070000 		.4byte	0x7c2
 2382 09cf F2010000 		.4byte	.LLST19
 2383 09d3 1C       		.uleb128 0x1c
 2384 09d4 6E00     		.ascii	"n\000"
 2385 09d6 01       		.byte	0x1
 2386 09d7 F4       		.byte	0xf4
 2387 09d8 30000000 		.4byte	0x30
 2388 09dc 05020000 		.4byte	.LLST20
 2389 09e0 1A       		.uleb128 0x1a
 2390 09e1 D7010000 		.4byte	.LASF121
 2391 09e5 01       		.byte	0x1
 2392 09e6 F4       		.byte	0xf4
 2393 09e7 A4090000 		.4byte	0x9a4
 2394 09eb 18020000 		.4byte	.LLST21
 2395 09ef 00       		.byte	0x0
 2396 09f0 1E       		.uleb128 0x1e
 2397 09f1 01       		.byte	0x1
 2398 09f2 4E010000 		.4byte	.LASF124
 2399 09f6 01       		.byte	0x1
 2400 09f7 0E01     		.2byte	0x10e
 2401 09f9 01       		.byte	0x1
 2402 09fa 00000000 		.4byte	.LFB65
 2403 09fe 14000000 		.4byte	.LFE65
 2404 0a02 2B020000 		.4byte	.LLST22
 2405 0a06 390A0000 		.4byte	0xa39
 2406 0a0a 1F       		.uleb128 0x1f
 2407 0a0b 00050000 		.4byte	.LASF115
 2408 0a0f 01       		.byte	0x1
 2409 0a10 0E01     		.2byte	0x10e
 2410 0a12 C2070000 		.4byte	0x7c2
 2411 0a16 4B020000 		.4byte	.LLST23
 2412 0a1a 20       		.uleb128 0x20
 2413 0a1b 6E00     		.ascii	"n\000"
 2414 0a1d 01       		.byte	0x1
 2415 0a1e 0E01     		.2byte	0x10e
 2416 0a20 30000000 		.4byte	0x30
 2417 0a24 5E020000 		.4byte	.LLST24
 2418 0a28 1F       		.uleb128 0x1f
 2419 0a29 27000000 		.4byte	.LASF122
 2420 0a2d 01       		.byte	0x1
 2421 0a2e 0E01     		.2byte	0x10e
 2422 0a30 98020000 		.4byte	0x298
 2423 0a34 71020000 		.4byte	.LLST25
 2424 0a38 00       		.byte	0x0
 2425 0a39 1E       		.uleb128 0x1e
 2426 0a3a 01       		.byte	0x1
 2427 0a3b 7C040000 		.4byte	.LASF125
 2428 0a3f 01       		.byte	0x1
 2429 0a40 2801     		.2byte	0x128
 2430 0a42 01       		.byte	0x1
ARM GAS  C:\Users\DNIEL~1\AppData\Local\Temp\cccvHhse.s 			page 44


 2431 0a43 00000000 		.4byte	.LFB66
 2432 0a47 28000000 		.4byte	.LFE66
 2433 0a4b 84020000 		.4byte	.LLST26
 2434 0a4f 720A0000 		.4byte	0xa72
 2435 0a53 1F       		.uleb128 0x1f
 2436 0a54 00050000 		.4byte	.LASF115
 2437 0a58 01       		.byte	0x1
 2438 0a59 2801     		.2byte	0x128
 2439 0a5b C2070000 		.4byte	0x7c2
 2440 0a5f A4020000 		.4byte	.LLST27
 2441 0a63 20       		.uleb128 0x20
 2442 0a64 6E00     		.ascii	"n\000"
 2443 0a66 01       		.byte	0x1
 2444 0a67 2801     		.2byte	0x128
 2445 0a69 30000000 		.4byte	0x30
 2446 0a6d C2020000 		.4byte	.LLST28
 2447 0a71 00       		.byte	0x0
 2448 0a72 1E       		.uleb128 0x1e
 2449 0a73 01       		.byte	0x1
 2450 0a74 77020000 		.4byte	.LASF126
 2451 0a78 01       		.byte	0x1
 2452 0a79 4601     		.2byte	0x146
 2453 0a7b 01       		.byte	0x1
 2454 0a7c 00000000 		.4byte	.LFB67
 2455 0a80 2C000000 		.4byte	.LFE67
 2456 0a84 D5020000 		.4byte	.LLST29
 2457 0a88 CB0A0000 		.4byte	0xacb
 2458 0a8c 1F       		.uleb128 0x1f
 2459 0a8d 00050000 		.4byte	.LASF115
 2460 0a91 01       		.byte	0x1
 2461 0a92 4601     		.2byte	0x146
 2462 0a94 C2070000 		.4byte	0x7c2
 2463 0a98 F5020000 		.4byte	.LLST30
 2464 0a9c 20       		.uleb128 0x20
 2465 0a9d 6E00     		.ascii	"n\000"
 2466 0a9f 01       		.byte	0x1
 2467 0aa0 4601     		.2byte	0x146
 2468 0aa2 30000000 		.4byte	0x30
 2469 0aa6 13030000 		.4byte	.LLST31
 2470 0aaa 1F       		.uleb128 0x1f
 2471 0aab D7010000 		.4byte	.LASF121
 2472 0aaf 01       		.byte	0x1
 2473 0ab0 4701     		.2byte	0x147
 2474 0ab2 A4090000 		.4byte	0x9a4
 2475 0ab6 26030000 		.4byte	.LLST32
 2476 0aba 1F       		.uleb128 0x1f
 2477 0abb 27000000 		.4byte	.LASF122
 2478 0abf 01       		.byte	0x1
 2479 0ac0 4701     		.2byte	0x147
 2480 0ac2 98020000 		.4byte	0x298
 2481 0ac6 39030000 		.4byte	.LLST33
 2482 0aca 00       		.byte	0x0
 2483 0acb 1E       		.uleb128 0x1e
 2484 0acc 01       		.byte	0x1
 2485 0acd 1F050000 		.4byte	.LASF127
 2486 0ad1 01       		.byte	0x1
 2487 0ad2 6501     		.2byte	0x165
ARM GAS  C:\Users\DNIEL~1\AppData\Local\Temp\cccvHhse.s 			page 45


 2488 0ad4 01       		.byte	0x1
 2489 0ad5 00000000 		.4byte	.LFB68
 2490 0ad9 28000000 		.4byte	.LFE68
 2491 0add 62030000 		.4byte	.LLST34
 2492 0ae1 140B0000 		.4byte	0xb14
 2493 0ae5 1F       		.uleb128 0x1f
 2494 0ae6 00050000 		.4byte	.LASF115
 2495 0aea 01       		.byte	0x1
 2496 0aeb 6501     		.2byte	0x165
 2497 0aed C2070000 		.4byte	0x7c2
 2498 0af1 82030000 		.4byte	.LLST35
 2499 0af5 20       		.uleb128 0x20
 2500 0af6 6E00     		.ascii	"n\000"
 2501 0af8 01       		.byte	0x1
 2502 0af9 6501     		.2byte	0x165
 2503 0afb 30000000 		.4byte	0x30
 2504 0aff A0030000 		.4byte	.LLST36
 2505 0b03 1F       		.uleb128 0x1f
 2506 0b04 D7010000 		.4byte	.LASF121
 2507 0b08 01       		.byte	0x1
 2508 0b09 6501     		.2byte	0x165
 2509 0b0b A4090000 		.4byte	0x9a4
 2510 0b0f B3030000 		.4byte	.LLST37
 2511 0b13 00       		.byte	0x0
 2512 0b14 1E       		.uleb128 0x1e
 2513 0b15 01       		.byte	0x1
 2514 0b16 DD010000 		.4byte	.LASF128
 2515 0b1a 01       		.byte	0x1
 2516 0b1b 8101     		.2byte	0x181
 2517 0b1d 01       		.byte	0x1
 2518 0b1e 00000000 		.4byte	.LFB69
 2519 0b22 28000000 		.4byte	.LFE69
 2520 0b26 C6030000 		.4byte	.LLST38
 2521 0b2a 5D0B0000 		.4byte	0xb5d
 2522 0b2e 1F       		.uleb128 0x1f
 2523 0b2f 00050000 		.4byte	.LASF115
 2524 0b33 01       		.byte	0x1
 2525 0b34 8101     		.2byte	0x181
 2526 0b36 C2070000 		.4byte	0x7c2
 2527 0b3a E6030000 		.4byte	.LLST39
 2528 0b3e 20       		.uleb128 0x20
 2529 0b3f 6E00     		.ascii	"n\000"
 2530 0b41 01       		.byte	0x1
 2531 0b42 8101     		.2byte	0x181
 2532 0b44 30000000 		.4byte	0x30
 2533 0b48 04040000 		.4byte	.LLST40
 2534 0b4c 1F       		.uleb128 0x1f
 2535 0b4d 27000000 		.4byte	.LASF122
 2536 0b51 01       		.byte	0x1
 2537 0b52 8101     		.2byte	0x181
 2538 0b54 98020000 		.4byte	0x298
 2539 0b58 17040000 		.4byte	.LLST41
 2540 0b5c 00       		.byte	0x0
 2541 0b5d 21       		.uleb128 0x21
 2542 0b5e 01       		.byte	0x1
 2543 0b5f 97020000 		.4byte	.LASF129
 2544 0b63 01       		.byte	0x1
ARM GAS  C:\Users\DNIEL~1\AppData\Local\Temp\cccvHhse.s 			page 46


 2545 0b64 9C01     		.2byte	0x19c
 2546 0b66 01       		.byte	0x1
 2547 0b67 00000000 		.4byte	.LFB70
 2548 0b6b 06000000 		.4byte	.LFE70
 2549 0b6f 02       		.byte	0x2
 2550 0b70 7D       		.byte	0x7d
 2551 0b71 00       		.sleb128 0
 2552 0b72 870B0000 		.4byte	0xb87
 2553 0b76 1F       		.uleb128 0x1f
 2554 0b77 00050000 		.4byte	.LASF115
 2555 0b7b 01       		.byte	0x1
 2556 0b7c 9C01     		.2byte	0x19c
 2557 0b7e C2070000 		.4byte	0x7c2
 2558 0b82 2A040000 		.4byte	.LLST42
 2559 0b86 00       		.byte	0x0
 2560 0b87 21       		.uleb128 0x21
 2561 0b88 01       		.byte	0x1
 2562 0b89 6E040000 		.4byte	.LASF130
 2563 0b8d 01       		.byte	0x1
 2564 0b8e B001     		.2byte	0x1b0
 2565 0b90 01       		.byte	0x1
 2566 0b91 00000000 		.4byte	.LFB71
 2567 0b95 04000000 		.4byte	.LFE71
 2568 0b99 02       		.byte	0x2
 2569 0b9a 7D       		.byte	0x7d
 2570 0b9b 00       		.sleb128 0
 2571 0b9c AF0B0000 		.4byte	0xbaf
 2572 0ba0 22       		.uleb128 0x22
 2573 0ba1 00050000 		.4byte	.LASF115
 2574 0ba5 01       		.byte	0x1
 2575 0ba6 B001     		.2byte	0x1b0
 2576 0ba8 C2070000 		.4byte	0x7c2
 2577 0bac 01       		.byte	0x1
 2578 0bad 50       		.byte	0x50
 2579 0bae 00       		.byte	0x0
 2580 0baf 23       		.uleb128 0x23
 2581 0bb0 F2040000 		.4byte	.LASF131
 2582 0bb4 08       		.byte	0x8
 2583 0bb5 6F       		.byte	0x6f
 2584 0bb6 B2030000 		.4byte	0x3b2
 2585 0bba 01       		.byte	0x1
 2586 0bbb 01       		.byte	0x1
 2587 0bbc 24       		.uleb128 0x24
 2588 0bbd B0000000 		.4byte	.LASF132
 2589 0bc1 0F       		.byte	0xf
 2590 0bc2 0706     		.2byte	0x607
 2591 0bc4 57040000 		.4byte	0x457
 2592 0bc8 01       		.byte	0x1
 2593 0bc9 01       		.byte	0x1
 2594 0bca 23       		.uleb128 0x23
 2595 0bcb F2040000 		.4byte	.LASF131
 2596 0bcf 08       		.byte	0x8
 2597 0bd0 6F       		.byte	0x6f
 2598 0bd1 B2030000 		.4byte	0x3b2
 2599 0bd5 01       		.byte	0x1
 2600 0bd6 01       		.byte	0x1
 2601 0bd7 24       		.uleb128 0x24
ARM GAS  C:\Users\DNIEL~1\AppData\Local\Temp\cccvHhse.s 			page 47


 2602 0bd8 B0000000 		.4byte	.LASF132
 2603 0bdc 0F       		.byte	0xf
 2604 0bdd 0706     		.2byte	0x607
 2605 0bdf 57040000 		.4byte	0x457
 2606 0be3 01       		.byte	0x1
 2607 0be4 01       		.byte	0x1
 2608 0be5 00       		.byte	0x0
 2609              		.section	.debug_abbrev
 2610 0000 01       		.uleb128 0x1
 2611 0001 11       		.uleb128 0x11
 2612 0002 01       		.byte	0x1
 2613 0003 25       		.uleb128 0x25
 2614 0004 0E       		.uleb128 0xe
 2615 0005 13       		.uleb128 0x13
 2616 0006 0B       		.uleb128 0xb
 2617 0007 03       		.uleb128 0x3
 2618 0008 0E       		.uleb128 0xe
 2619 0009 1B       		.uleb128 0x1b
 2620 000a 0E       		.uleb128 0xe
 2621 000b 11       		.uleb128 0x11
 2622 000c 01       		.uleb128 0x1
 2623 000d 52       		.uleb128 0x52
 2624 000e 01       		.uleb128 0x1
 2625 000f 55       		.uleb128 0x55
 2626 0010 06       		.uleb128 0x6
 2627 0011 10       		.uleb128 0x10
 2628 0012 06       		.uleb128 0x6
 2629 0013 00       		.byte	0x0
 2630 0014 00       		.byte	0x0
 2631 0015 02       		.uleb128 0x2
 2632 0016 24       		.uleb128 0x24
 2633 0017 00       		.byte	0x0
 2634 0018 0B       		.uleb128 0xb
 2635 0019 0B       		.uleb128 0xb
 2636 001a 3E       		.uleb128 0x3e
 2637 001b 0B       		.uleb128 0xb
 2638 001c 03       		.uleb128 0x3
 2639 001d 08       		.uleb128 0x8
 2640 001e 00       		.byte	0x0
 2641 001f 00       		.byte	0x0
 2642 0020 03       		.uleb128 0x3
 2643 0021 16       		.uleb128 0x16
 2644 0022 00       		.byte	0x0
 2645 0023 03       		.uleb128 0x3
 2646 0024 0E       		.uleb128 0xe
 2647 0025 3A       		.uleb128 0x3a
 2648 0026 0B       		.uleb128 0xb
 2649 0027 3B       		.uleb128 0x3b
 2650 0028 0B       		.uleb128 0xb
 2651 0029 49       		.uleb128 0x49
 2652 002a 13       		.uleb128 0x13
 2653 002b 00       		.byte	0x0
 2654 002c 00       		.byte	0x0
 2655 002d 04       		.uleb128 0x4
 2656 002e 24       		.uleb128 0x24
 2657 002f 00       		.byte	0x0
 2658 0030 0B       		.uleb128 0xb
ARM GAS  C:\Users\DNIEL~1\AppData\Local\Temp\cccvHhse.s 			page 48


 2659 0031 0B       		.uleb128 0xb
 2660 0032 3E       		.uleb128 0x3e
 2661 0033 0B       		.uleb128 0xb
 2662 0034 03       		.uleb128 0x3
 2663 0035 0E       		.uleb128 0xe
 2664 0036 00       		.byte	0x0
 2665 0037 00       		.byte	0x0
 2666 0038 05       		.uleb128 0x5
 2667 0039 13       		.uleb128 0x13
 2668 003a 01       		.byte	0x1
 2669 003b 03       		.uleb128 0x3
 2670 003c 0E       		.uleb128 0xe
 2671 003d 0B       		.uleb128 0xb
 2672 003e 0B       		.uleb128 0xb
 2673 003f 3A       		.uleb128 0x3a
 2674 0040 0B       		.uleb128 0xb
 2675 0041 3B       		.uleb128 0x3b
 2676 0042 0B       		.uleb128 0xb
 2677 0043 01       		.uleb128 0x1
 2678 0044 13       		.uleb128 0x13
 2679 0045 00       		.byte	0x0
 2680 0046 00       		.byte	0x0
 2681 0047 06       		.uleb128 0x6
 2682 0048 0D       		.uleb128 0xd
 2683 0049 00       		.byte	0x0
 2684 004a 03       		.uleb128 0x3
 2685 004b 0E       		.uleb128 0xe
 2686 004c 3A       		.uleb128 0x3a
 2687 004d 0B       		.uleb128 0xb
 2688 004e 3B       		.uleb128 0x3b
 2689 004f 0B       		.uleb128 0xb
 2690 0050 49       		.uleb128 0x49
 2691 0051 13       		.uleb128 0x13
 2692 0052 38       		.uleb128 0x38
 2693 0053 0A       		.uleb128 0xa
 2694 0054 00       		.byte	0x0
 2695 0055 00       		.byte	0x0
 2696 0056 07       		.uleb128 0x7
 2697 0057 0D       		.uleb128 0xd
 2698 0058 00       		.byte	0x0
 2699 0059 03       		.uleb128 0x3
 2700 005a 08       		.uleb128 0x8
 2701 005b 3A       		.uleb128 0x3a
 2702 005c 0B       		.uleb128 0xb
 2703 005d 3B       		.uleb128 0x3b
 2704 005e 0B       		.uleb128 0xb
 2705 005f 49       		.uleb128 0x49
 2706 0060 13       		.uleb128 0x13
 2707 0061 38       		.uleb128 0x38
 2708 0062 0A       		.uleb128 0xa
 2709 0063 00       		.byte	0x0
 2710 0064 00       		.byte	0x0
 2711 0065 08       		.uleb128 0x8
 2712 0066 13       		.uleb128 0x13
 2713 0067 01       		.byte	0x1
 2714 0068 0B       		.uleb128 0xb
 2715 0069 0B       		.uleb128 0xb
ARM GAS  C:\Users\DNIEL~1\AppData\Local\Temp\cccvHhse.s 			page 49


 2716 006a 3A       		.uleb128 0x3a
 2717 006b 0B       		.uleb128 0xb
 2718 006c 3B       		.uleb128 0x3b
 2719 006d 0B       		.uleb128 0xb
 2720 006e 01       		.uleb128 0x1
 2721 006f 13       		.uleb128 0x13
 2722 0070 00       		.byte	0x0
 2723 0071 00       		.byte	0x0
 2724 0072 09       		.uleb128 0x9
 2725 0073 0F       		.uleb128 0xf
 2726 0074 00       		.byte	0x0
 2727 0075 0B       		.uleb128 0xb
 2728 0076 0B       		.uleb128 0xb
 2729 0077 49       		.uleb128 0x49
 2730 0078 13       		.uleb128 0x13
 2731 0079 00       		.byte	0x0
 2732 007a 00       		.byte	0x0
 2733 007b 0A       		.uleb128 0xa
 2734 007c 0F       		.uleb128 0xf
 2735 007d 00       		.byte	0x0
 2736 007e 0B       		.uleb128 0xb
 2737 007f 0B       		.uleb128 0xb
 2738 0080 00       		.byte	0x0
 2739 0081 00       		.byte	0x0
 2740 0082 0B       		.uleb128 0xb
 2741 0083 13       		.uleb128 0x13
 2742 0084 01       		.byte	0x1
 2743 0085 03       		.uleb128 0x3
 2744 0086 0E       		.uleb128 0xe
 2745 0087 0B       		.uleb128 0xb
 2746 0088 0B       		.uleb128 0xb
 2747 0089 3A       		.uleb128 0x3a
 2748 008a 0B       		.uleb128 0xb
 2749 008b 3B       		.uleb128 0x3b
 2750 008c 05       		.uleb128 0x5
 2751 008d 01       		.uleb128 0x1
 2752 008e 13       		.uleb128 0x13
 2753 008f 00       		.byte	0x0
 2754 0090 00       		.byte	0x0
 2755 0091 0C       		.uleb128 0xc
 2756 0092 0D       		.uleb128 0xd
 2757 0093 00       		.byte	0x0
 2758 0094 03       		.uleb128 0x3
 2759 0095 08       		.uleb128 0x8
 2760 0096 3A       		.uleb128 0x3a
 2761 0097 0B       		.uleb128 0xb
 2762 0098 3B       		.uleb128 0x3b
 2763 0099 05       		.uleb128 0x5
 2764 009a 49       		.uleb128 0x49
 2765 009b 13       		.uleb128 0x13
 2766 009c 38       		.uleb128 0x38
 2767 009d 0A       		.uleb128 0xa
 2768 009e 00       		.byte	0x0
 2769 009f 00       		.byte	0x0
 2770 00a0 0D       		.uleb128 0xd
 2771 00a1 35       		.uleb128 0x35
 2772 00a2 00       		.byte	0x0
ARM GAS  C:\Users\DNIEL~1\AppData\Local\Temp\cccvHhse.s 			page 50


 2773 00a3 49       		.uleb128 0x49
 2774 00a4 13       		.uleb128 0x13
 2775 00a5 00       		.byte	0x0
 2776 00a6 00       		.byte	0x0
 2777 00a7 0E       		.uleb128 0xe
 2778 00a8 17       		.uleb128 0x17
 2779 00a9 01       		.byte	0x1
 2780 00aa 0B       		.uleb128 0xb
 2781 00ab 0B       		.uleb128 0xb
 2782 00ac 3A       		.uleb128 0x3a
 2783 00ad 0B       		.uleb128 0xb
 2784 00ae 3B       		.uleb128 0x3b
 2785 00af 0B       		.uleb128 0xb
 2786 00b0 01       		.uleb128 0x1
 2787 00b1 13       		.uleb128 0x13
 2788 00b2 00       		.byte	0x0
 2789 00b3 00       		.byte	0x0
 2790 00b4 0F       		.uleb128 0xf
 2791 00b5 0D       		.uleb128 0xd
 2792 00b6 00       		.byte	0x0
 2793 00b7 03       		.uleb128 0x3
 2794 00b8 0E       		.uleb128 0xe
 2795 00b9 3A       		.uleb128 0x3a
 2796 00ba 0B       		.uleb128 0xb
 2797 00bb 3B       		.uleb128 0x3b
 2798 00bc 0B       		.uleb128 0xb
 2799 00bd 49       		.uleb128 0x49
 2800 00be 13       		.uleb128 0x13
 2801 00bf 00       		.byte	0x0
 2802 00c0 00       		.byte	0x0
 2803 00c1 10       		.uleb128 0x10
 2804 00c2 26       		.uleb128 0x26
 2805 00c3 00       		.byte	0x0
 2806 00c4 49       		.uleb128 0x49
 2807 00c5 13       		.uleb128 0x13
 2808 00c6 00       		.byte	0x0
 2809 00c7 00       		.byte	0x0
 2810 00c8 11       		.uleb128 0x11
 2811 00c9 13       		.uleb128 0x13
 2812 00ca 01       		.byte	0x1
 2813 00cb 0B       		.uleb128 0xb
 2814 00cc 0B       		.uleb128 0xb
 2815 00cd 3A       		.uleb128 0x3a
 2816 00ce 0B       		.uleb128 0xb
 2817 00cf 3B       		.uleb128 0x3b
 2818 00d0 05       		.uleb128 0x5
 2819 00d1 01       		.uleb128 0x1
 2820 00d2 13       		.uleb128 0x13
 2821 00d3 00       		.byte	0x0
 2822 00d4 00       		.byte	0x0
 2823 00d5 12       		.uleb128 0x12
 2824 00d6 0D       		.uleb128 0xd
 2825 00d7 00       		.byte	0x0
 2826 00d8 03       		.uleb128 0x3
 2827 00d9 0E       		.uleb128 0xe
 2828 00da 3A       		.uleb128 0x3a
 2829 00db 0B       		.uleb128 0xb
ARM GAS  C:\Users\DNIEL~1\AppData\Local\Temp\cccvHhse.s 			page 51


 2830 00dc 3B       		.uleb128 0x3b
 2831 00dd 05       		.uleb128 0x5
 2832 00de 49       		.uleb128 0x49
 2833 00df 13       		.uleb128 0x13
 2834 00e0 38       		.uleb128 0x38
 2835 00e1 0A       		.uleb128 0xa
 2836 00e2 00       		.byte	0x0
 2837 00e3 00       		.byte	0x0
 2838 00e4 13       		.uleb128 0x13
 2839 00e5 16       		.uleb128 0x16
 2840 00e6 00       		.byte	0x0
 2841 00e7 03       		.uleb128 0x3
 2842 00e8 0E       		.uleb128 0xe
 2843 00e9 3A       		.uleb128 0x3a
 2844 00ea 0B       		.uleb128 0xb
 2845 00eb 3B       		.uleb128 0x3b
 2846 00ec 05       		.uleb128 0x5
 2847 00ed 49       		.uleb128 0x49
 2848 00ee 13       		.uleb128 0x13
 2849 00ef 00       		.byte	0x0
 2850 00f0 00       		.byte	0x0
 2851 00f1 14       		.uleb128 0x14
 2852 00f2 04       		.uleb128 0x4
 2853 00f3 01       		.byte	0x1
 2854 00f4 0B       		.uleb128 0xb
 2855 00f5 0B       		.uleb128 0xb
 2856 00f6 3A       		.uleb128 0x3a
 2857 00f7 0B       		.uleb128 0xb
 2858 00f8 3B       		.uleb128 0x3b
 2859 00f9 0B       		.uleb128 0xb
 2860 00fa 01       		.uleb128 0x1
 2861 00fb 13       		.uleb128 0x13
 2862 00fc 00       		.byte	0x0
 2863 00fd 00       		.byte	0x0
 2864 00fe 15       		.uleb128 0x15
 2865 00ff 28       		.uleb128 0x28
 2866 0100 00       		.byte	0x0
 2867 0101 03       		.uleb128 0x3
 2868 0102 0E       		.uleb128 0xe
 2869 0103 1C       		.uleb128 0x1c
 2870 0104 0D       		.uleb128 0xd
 2871 0105 00       		.byte	0x0
 2872 0106 00       		.byte	0x0
 2873 0107 16       		.uleb128 0x16
 2874 0108 15       		.uleb128 0x15
 2875 0109 01       		.byte	0x1
 2876 010a 27       		.uleb128 0x27
 2877 010b 0C       		.uleb128 0xc
 2878 010c 01       		.uleb128 0x1
 2879 010d 13       		.uleb128 0x13
 2880 010e 00       		.byte	0x0
 2881 010f 00       		.byte	0x0
 2882 0110 17       		.uleb128 0x17
 2883 0111 05       		.uleb128 0x5
 2884 0112 00       		.byte	0x0
 2885 0113 49       		.uleb128 0x49
 2886 0114 13       		.uleb128 0x13
ARM GAS  C:\Users\DNIEL~1\AppData\Local\Temp\cccvHhse.s 			page 52


 2887 0115 00       		.byte	0x0
 2888 0116 00       		.byte	0x0
 2889 0117 18       		.uleb128 0x18
 2890 0118 2E       		.uleb128 0x2e
 2891 0119 00       		.byte	0x0
 2892 011a 3F       		.uleb128 0x3f
 2893 011b 0C       		.uleb128 0xc
 2894 011c 03       		.uleb128 0x3
 2895 011d 0E       		.uleb128 0xe
 2896 011e 3A       		.uleb128 0x3a
 2897 011f 0B       		.uleb128 0xb
 2898 0120 3B       		.uleb128 0x3b
 2899 0121 0B       		.uleb128 0xb
 2900 0122 27       		.uleb128 0x27
 2901 0123 0C       		.uleb128 0xc
 2902 0124 11       		.uleb128 0x11
 2903 0125 01       		.uleb128 0x1
 2904 0126 12       		.uleb128 0x12
 2905 0127 01       		.uleb128 0x1
 2906 0128 40       		.uleb128 0x40
 2907 0129 0A       		.uleb128 0xa
 2908 012a 00       		.byte	0x0
 2909 012b 00       		.byte	0x0
 2910 012c 19       		.uleb128 0x19
 2911 012d 2E       		.uleb128 0x2e
 2912 012e 01       		.byte	0x1
 2913 012f 3F       		.uleb128 0x3f
 2914 0130 0C       		.uleb128 0xc
 2915 0131 03       		.uleb128 0x3
 2916 0132 0E       		.uleb128 0xe
 2917 0133 3A       		.uleb128 0x3a
 2918 0134 0B       		.uleb128 0xb
 2919 0135 3B       		.uleb128 0x3b
 2920 0136 0B       		.uleb128 0xb
 2921 0137 27       		.uleb128 0x27
 2922 0138 0C       		.uleb128 0xc
 2923 0139 11       		.uleb128 0x11
 2924 013a 01       		.uleb128 0x1
 2925 013b 12       		.uleb128 0x12
 2926 013c 01       		.uleb128 0x1
 2927 013d 40       		.uleb128 0x40
 2928 013e 0A       		.uleb128 0xa
 2929 013f 01       		.uleb128 0x1
 2930 0140 13       		.uleb128 0x13
 2931 0141 00       		.byte	0x0
 2932 0142 00       		.byte	0x0
 2933 0143 1A       		.uleb128 0x1a
 2934 0144 05       		.uleb128 0x5
 2935 0145 00       		.byte	0x0
 2936 0146 03       		.uleb128 0x3
 2937 0147 0E       		.uleb128 0xe
 2938 0148 3A       		.uleb128 0x3a
 2939 0149 0B       		.uleb128 0xb
 2940 014a 3B       		.uleb128 0x3b
 2941 014b 0B       		.uleb128 0xb
 2942 014c 49       		.uleb128 0x49
 2943 014d 13       		.uleb128 0x13
ARM GAS  C:\Users\DNIEL~1\AppData\Local\Temp\cccvHhse.s 			page 53


 2944 014e 02       		.uleb128 0x2
 2945 014f 06       		.uleb128 0x6
 2946 0150 00       		.byte	0x0
 2947 0151 00       		.byte	0x0
 2948 0152 1B       		.uleb128 0x1b
 2949 0153 2E       		.uleb128 0x2e
 2950 0154 01       		.byte	0x1
 2951 0155 3F       		.uleb128 0x3f
 2952 0156 0C       		.uleb128 0xc
 2953 0157 03       		.uleb128 0x3
 2954 0158 0E       		.uleb128 0xe
 2955 0159 3A       		.uleb128 0x3a
 2956 015a 0B       		.uleb128 0xb
 2957 015b 3B       		.uleb128 0x3b
 2958 015c 0B       		.uleb128 0xb
 2959 015d 27       		.uleb128 0x27
 2960 015e 0C       		.uleb128 0xc
 2961 015f 11       		.uleb128 0x11
 2962 0160 01       		.uleb128 0x1
 2963 0161 12       		.uleb128 0x12
 2964 0162 01       		.uleb128 0x1
 2965 0163 40       		.uleb128 0x40
 2966 0164 06       		.uleb128 0x6
 2967 0165 01       		.uleb128 0x1
 2968 0166 13       		.uleb128 0x13
 2969 0167 00       		.byte	0x0
 2970 0168 00       		.byte	0x0
 2971 0169 1C       		.uleb128 0x1c
 2972 016a 05       		.uleb128 0x5
 2973 016b 00       		.byte	0x0
 2974 016c 03       		.uleb128 0x3
 2975 016d 08       		.uleb128 0x8
 2976 016e 3A       		.uleb128 0x3a
 2977 016f 0B       		.uleb128 0xb
 2978 0170 3B       		.uleb128 0x3b
 2979 0171 0B       		.uleb128 0xb
 2980 0172 49       		.uleb128 0x49
 2981 0173 13       		.uleb128 0x13
 2982 0174 02       		.uleb128 0x2
 2983 0175 06       		.uleb128 0x6
 2984 0176 00       		.byte	0x0
 2985 0177 00       		.byte	0x0
 2986 0178 1D       		.uleb128 0x1d
 2987 0179 26       		.uleb128 0x26
 2988 017a 00       		.byte	0x0
 2989 017b 00       		.byte	0x0
 2990 017c 00       		.byte	0x0
 2991 017d 1E       		.uleb128 0x1e
 2992 017e 2E       		.uleb128 0x2e
 2993 017f 01       		.byte	0x1
 2994 0180 3F       		.uleb128 0x3f
 2995 0181 0C       		.uleb128 0xc
 2996 0182 03       		.uleb128 0x3
 2997 0183 0E       		.uleb128 0xe
 2998 0184 3A       		.uleb128 0x3a
 2999 0185 0B       		.uleb128 0xb
 3000 0186 3B       		.uleb128 0x3b
ARM GAS  C:\Users\DNIEL~1\AppData\Local\Temp\cccvHhse.s 			page 54


 3001 0187 05       		.uleb128 0x5
 3002 0188 27       		.uleb128 0x27
 3003 0189 0C       		.uleb128 0xc
 3004 018a 11       		.uleb128 0x11
 3005 018b 01       		.uleb128 0x1
 3006 018c 12       		.uleb128 0x12
 3007 018d 01       		.uleb128 0x1
 3008 018e 40       		.uleb128 0x40
 3009 018f 06       		.uleb128 0x6
 3010 0190 01       		.uleb128 0x1
 3011 0191 13       		.uleb128 0x13
 3012 0192 00       		.byte	0x0
 3013 0193 00       		.byte	0x0
 3014 0194 1F       		.uleb128 0x1f
 3015 0195 05       		.uleb128 0x5
 3016 0196 00       		.byte	0x0
 3017 0197 03       		.uleb128 0x3
 3018 0198 0E       		.uleb128 0xe
 3019 0199 3A       		.uleb128 0x3a
 3020 019a 0B       		.uleb128 0xb
 3021 019b 3B       		.uleb128 0x3b
 3022 019c 05       		.uleb128 0x5
 3023 019d 49       		.uleb128 0x49
 3024 019e 13       		.uleb128 0x13
 3025 019f 02       		.uleb128 0x2
 3026 01a0 06       		.uleb128 0x6
 3027 01a1 00       		.byte	0x0
 3028 01a2 00       		.byte	0x0
 3029 01a3 20       		.uleb128 0x20
 3030 01a4 05       		.uleb128 0x5
 3031 01a5 00       		.byte	0x0
 3032 01a6 03       		.uleb128 0x3
 3033 01a7 08       		.uleb128 0x8
 3034 01a8 3A       		.uleb128 0x3a
 3035 01a9 0B       		.uleb128 0xb
 3036 01aa 3B       		.uleb128 0x3b
 3037 01ab 05       		.uleb128 0x5
 3038 01ac 49       		.uleb128 0x49
 3039 01ad 13       		.uleb128 0x13
 3040 01ae 02       		.uleb128 0x2
 3041 01af 06       		.uleb128 0x6
 3042 01b0 00       		.byte	0x0
 3043 01b1 00       		.byte	0x0
 3044 01b2 21       		.uleb128 0x21
 3045 01b3 2E       		.uleb128 0x2e
 3046 01b4 01       		.byte	0x1
 3047 01b5 3F       		.uleb128 0x3f
 3048 01b6 0C       		.uleb128 0xc
 3049 01b7 03       		.uleb128 0x3
 3050 01b8 0E       		.uleb128 0xe
 3051 01b9 3A       		.uleb128 0x3a
 3052 01ba 0B       		.uleb128 0xb
 3053 01bb 3B       		.uleb128 0x3b
 3054 01bc 05       		.uleb128 0x5
 3055 01bd 27       		.uleb128 0x27
 3056 01be 0C       		.uleb128 0xc
 3057 01bf 11       		.uleb128 0x11
ARM GAS  C:\Users\DNIEL~1\AppData\Local\Temp\cccvHhse.s 			page 55


 3058 01c0 01       		.uleb128 0x1
 3059 01c1 12       		.uleb128 0x12
 3060 01c2 01       		.uleb128 0x1
 3061 01c3 40       		.uleb128 0x40
 3062 01c4 0A       		.uleb128 0xa
 3063 01c5 01       		.uleb128 0x1
 3064 01c6 13       		.uleb128 0x13
 3065 01c7 00       		.byte	0x0
 3066 01c8 00       		.byte	0x0
 3067 01c9 22       		.uleb128 0x22
 3068 01ca 05       		.uleb128 0x5
 3069 01cb 00       		.byte	0x0
 3070 01cc 03       		.uleb128 0x3
 3071 01cd 0E       		.uleb128 0xe
 3072 01ce 3A       		.uleb128 0x3a
 3073 01cf 0B       		.uleb128 0xb
 3074 01d0 3B       		.uleb128 0x3b
 3075 01d1 05       		.uleb128 0x5
 3076 01d2 49       		.uleb128 0x49
 3077 01d3 13       		.uleb128 0x13
 3078 01d4 02       		.uleb128 0x2
 3079 01d5 0A       		.uleb128 0xa
 3080 01d6 00       		.byte	0x0
 3081 01d7 00       		.byte	0x0
 3082 01d8 23       		.uleb128 0x23
 3083 01d9 34       		.uleb128 0x34
 3084 01da 00       		.byte	0x0
 3085 01db 03       		.uleb128 0x3
 3086 01dc 0E       		.uleb128 0xe
 3087 01dd 3A       		.uleb128 0x3a
 3088 01de 0B       		.uleb128 0xb
 3089 01df 3B       		.uleb128 0x3b
 3090 01e0 0B       		.uleb128 0xb
 3091 01e1 49       		.uleb128 0x49
 3092 01e2 13       		.uleb128 0x13
 3093 01e3 3F       		.uleb128 0x3f
 3094 01e4 0C       		.uleb128 0xc
 3095 01e5 3C       		.uleb128 0x3c
 3096 01e6 0C       		.uleb128 0xc
 3097 01e7 00       		.byte	0x0
 3098 01e8 00       		.byte	0x0
 3099 01e9 24       		.uleb128 0x24
 3100 01ea 34       		.uleb128 0x34
 3101 01eb 00       		.byte	0x0
 3102 01ec 03       		.uleb128 0x3
 3103 01ed 0E       		.uleb128 0xe
 3104 01ee 3A       		.uleb128 0x3a
 3105 01ef 0B       		.uleb128 0xb
 3106 01f0 3B       		.uleb128 0x3b
 3107 01f1 05       		.uleb128 0x5
 3108 01f2 49       		.uleb128 0x49
 3109 01f3 13       		.uleb128 0x13
 3110 01f4 3F       		.uleb128 0x3f
 3111 01f5 0C       		.uleb128 0xc
 3112 01f6 3C       		.uleb128 0x3c
 3113 01f7 0C       		.uleb128 0xc
 3114 01f8 00       		.byte	0x0
ARM GAS  C:\Users\DNIEL~1\AppData\Local\Temp\cccvHhse.s 			page 56


 3115 01f9 00       		.byte	0x0
 3116 01fa 00       		.byte	0x0
 3117              		.section	.debug_pubnames,"",%progbits
 3118 0000 0D010000 		.4byte	0x10d
 3119 0004 0200     		.2byte	0x2
 3120 0006 00000000 		.4byte	.Ldebug_info0
 3121 000a E60B0000 		.4byte	0xbe6
 3122 000e 2B080000 		.4byte	0x82b
 3123 0012 73706949 		.ascii	"spiInit\000"
 3123      6E697400 
 3124 001a 3F080000 		.4byte	0x83f
 3125 001e 7370694F 		.ascii	"spiObjectInit\000"
 3125      626A6563 
 3125      74496E69 
 3125      7400
 3126 002c 67080000 		.4byte	0x867
 3127 0030 73706953 		.ascii	"spiStart\000"
 3127      74617274 
 3127      00
 3128 0039 9F080000 		.4byte	0x89f
 3129 003d 73706953 		.ascii	"spiStop\000"
 3129      746F7000 
 3130 0045 C8080000 		.4byte	0x8c8
 3131 0049 73706953 		.ascii	"spiSelect\000"
 3131      656C6563 
 3131      7400
 3132 0053 F1080000 		.4byte	0x8f1
 3133 0057 73706955 		.ascii	"spiUnselect\000"
 3133      6E73656C 
 3133      65637400 
 3134 0063 1A090000 		.4byte	0x91a
 3135 0067 73706953 		.ascii	"spiStartIgnore\000"
 3135      74617274 
 3135      49676E6F 
 3135      726500
 3136 0076 50090000 		.4byte	0x950
 3137 007a 73706953 		.ascii	"spiStartExchange\000"
 3137      74617274 
 3137      45786368 
 3137      616E6765 
 3137      00
 3138 008b AB090000 		.4byte	0x9ab
 3139 008f 73706953 		.ascii	"spiStartSend\000"
 3139      74617274 
 3139      53656E64 
 3139      00
 3140 009c F0090000 		.4byte	0x9f0
 3141 00a0 73706953 		.ascii	"spiStartReceive\000"
 3141      74617274 
 3141      52656365 
 3141      69766500 
 3142 00b0 390A0000 		.4byte	0xa39
 3143 00b4 73706949 		.ascii	"spiIgnore\000"
 3143      676E6F72 
 3143      6500
 3144 00be 720A0000 		.4byte	0xa72
 3145 00c2 73706945 		.ascii	"spiExchange\000"
ARM GAS  C:\Users\DNIEL~1\AppData\Local\Temp\cccvHhse.s 			page 57


 3145      78636861 
 3145      6E676500 
 3146 00ce CB0A0000 		.4byte	0xacb
 3147 00d2 73706953 		.ascii	"spiSend\000"
 3147      656E6400 
 3148 00da 140B0000 		.4byte	0xb14
 3149 00de 73706952 		.ascii	"spiReceive\000"
 3149      65636569 
 3149      766500
 3150 00e9 5D0B0000 		.4byte	0xb5d
 3151 00ed 73706941 		.ascii	"spiAcquireBus\000"
 3151      63717569 
 3151      72654275 
 3151      7300
 3152 00fb 870B0000 		.4byte	0xb87
 3153 00ff 73706952 		.ascii	"spiReleaseBus\000"
 3153      656C6561 
 3153      73654275 
 3153      7300
 3154 010d 00000000 		.4byte	0x0
 3155              		.section	.debug_pubtypes,"",%progbits
 3156 0000 D9010000 		.4byte	0x1d9
 3157 0004 0200     		.2byte	0x2
 3158 0006 00000000 		.4byte	.Ldebug_info0
 3159 000a E60B0000 		.4byte	0xbe6
 3160 000e 30000000 		.4byte	0x30
 3161 0012 73697A65 		.ascii	"size_t\000"
 3161      5F7400
 3162 0019 49000000 		.4byte	0x49
 3163 001d 75696E74 		.ascii	"uint8_t\000"
 3163      385F7400 
 3164 0025 62000000 		.4byte	0x62
 3165 0029 75696E74 		.ascii	"uint16_t\000"
 3165      31365F74 
 3165      00
 3166 0032 74000000 		.4byte	0x74
 3167 0036 696E7433 		.ascii	"int32_t\000"
 3167      325F7400 
 3168 003e 86000000 		.4byte	0x86
 3169 0042 75696E74 		.ascii	"uint32_t\000"
 3169      33325F74 
 3169      00
 3170 004b AD000000 		.4byte	0xad
 3171 004f 746D6F64 		.ascii	"tmode_t\000"
 3171      655F7400 
 3172 0057 B8000000 		.4byte	0xb8
 3173 005b 74737461 		.ascii	"tstate_t\000"
 3173      74655F74 
 3173      00
 3174 0064 C3000000 		.4byte	0xc3
 3175 0068 74726566 		.ascii	"trefs_t\000"
 3175      735F7400 
 3176 0070 CE000000 		.4byte	0xce
 3177 0074 74736C69 		.ascii	"tslices_t\000"
 3177      6365735F 
 3177      7400
 3178 007e D9000000 		.4byte	0xd9
ARM GAS  C:\Users\DNIEL~1\AppData\Local\Temp\cccvHhse.s 			page 58


 3179 0082 74707269 		.ascii	"tprio_t\000"
 3179      6F5F7400 
 3180 008a E4000000 		.4byte	0xe4
 3181 008e 6D73675F 		.ascii	"msg_t\000"
 3181      7400
 3182 0094 EF000000 		.4byte	0xef
 3183 0098 6576656E 		.ascii	"eventmask_t\000"
 3183      746D6173 
 3183      6B5F7400 
 3184 00a4 FA000000 		.4byte	0xfa
 3185 00a8 73797374 		.ascii	"systime_t\000"
 3185      696D655F 
 3185      7400
 3186 00b2 05010000 		.4byte	0x105
 3187 00b6 54687265 		.ascii	"Thread\000"
 3187      616400
 3188 00bd 60020000 		.4byte	0x260
 3189 00c1 54687265 		.ascii	"ThreadsQueue\000"
 3189      61647351 
 3189      75657565 
 3189      00
 3190 00ce 82020000 		.4byte	0x282
 3191 00d2 54687265 		.ascii	"ThreadsList\000"
 3191      6164734C 
 3191      69737400 
 3192 00de 8D020000 		.4byte	0x28d
 3193 00e2 72656761 		.ascii	"regarm_t\000"
 3193      726D5F74 
 3193      00
 3194 00eb 9A020000 		.4byte	0x29a
 3195 00ef 696E7463 		.ascii	"intctx\000"
 3195      747800
 3196 00f6 28030000 		.4byte	0x328
 3197 00fa 636F6E74 		.ascii	"context\000"
 3197      65787400 
 3198 0102 B2030000 		.4byte	0x3b2
 3199 0106 52656164 		.ascii	"ReadyList\000"
 3199      794C6973 
 3199      7400
 3200 0110 BD030000 		.4byte	0x3bd
 3201 0114 4D757465 		.ascii	"Mutex\000"
 3201      7800
 3202 011a FA030000 		.4byte	0x3fa
 3203 011e 4D757465 		.ascii	"Mutex\000"
 3203      7800
 3204 0124 10010000 		.4byte	0x110
 3205 0128 54687265 		.ascii	"Thread\000"
 3205      616400
 3206 012f A2040000 		.4byte	0x4a2
 3207 0133 444D415F 		.ascii	"DMA_Channel_TypeDef\000"
 3207      4368616E 
 3207      6E656C5F 
 3207      54797065 
 3207      44656600 
 3208 0147 21050000 		.4byte	0x521
 3209 014b 4750494F 		.ascii	"GPIO_TypeDef\000"
 3209      5F547970 
ARM GAS  C:\Users\DNIEL~1\AppData\Local\Temp\cccvHhse.s 			page 59


 3209      65446566 
 3209      00
 3210 0158 43060000 		.4byte	0x643
 3211 015c 5350495F 		.ascii	"SPI_TypeDef\000"
 3211      54797065 
 3211      44656600 
 3212 0168 AA060000 		.4byte	0x6aa
 3213 016c 73746D33 		.ascii	"stm32_dma_stream_t\000"
 3213      325F646D 
 3213      615F7374 
 3213      7265616D 
 3213      5F7400
 3214 017f B5060000 		.4byte	0x6b5
 3215 0183 696F706F 		.ascii	"ioportid_t\000"
 3215      72746964 
 3215      5F7400
 3216 018e F8060000 		.4byte	0x6f8
 3217 0192 73706973 		.ascii	"spistate_t\000"
 3217      74617465 
 3217      5F7400
 3218 019d 03070000 		.4byte	0x703
 3219 01a1 53504944 		.ascii	"SPIDriver\000"
 3219      72697665 
 3219      7200
 3220 01ab A4070000 		.4byte	0x7a4
 3221 01af 73706963 		.ascii	"spicallback_t\000"
 3221      616C6C62 
 3221      61636B5F 
 3221      7400
 3222 01bd 0E080000 		.4byte	0x80e
 3223 01c1 53504943 		.ascii	"SPIConfig\000"
 3223      6F6E6669 
 3223      6700
 3224 01cb 0F070000 		.4byte	0x70f
 3225 01cf 53504944 		.ascii	"SPIDriver\000"
 3225      72697665 
 3225      7200
 3226 01d9 00000000 		.4byte	0x0
 3227              		.section	.debug_aranges,"",%progbits
 3228 0000 94000000 		.4byte	0x94
 3229 0004 0200     		.2byte	0x2
 3230 0006 00000000 		.4byte	.Ldebug_info0
 3231 000a 04       		.byte	0x4
 3232 000b 00       		.byte	0x0
 3233 000c 0000     		.2byte	0x0
 3234 000e 0000     		.2byte	0x0
 3235 0010 00000000 		.4byte	.LFB56
 3236 0014 04000000 		.4byte	.LFE56-.LFB56
 3237 0018 00000000 		.4byte	.LFB57
 3238 001c 10000000 		.4byte	.LFE57-.LFB57
 3239 0020 00000000 		.4byte	.LFB58
 3240 0024 18000000 		.4byte	.LFE58-.LFB58
 3241 0028 00000000 		.4byte	.LFB59
 3242 002c 1C000000 		.4byte	.LFE59-.LFB59
 3243 0030 00000000 		.4byte	.LFB60
 3244 0034 10000000 		.4byte	.LFE60-.LFB60
 3245 0038 00000000 		.4byte	.LFB61
ARM GAS  C:\Users\DNIEL~1\AppData\Local\Temp\cccvHhse.s 			page 60


 3246 003c 10000000 		.4byte	.LFE61-.LFB61
 3247 0040 00000000 		.4byte	.LFB62
 3248 0044 14000000 		.4byte	.LFE62-.LFB62
 3249 0048 00000000 		.4byte	.LFB63
 3250 004c 18000000 		.4byte	.LFE63-.LFB63
 3251 0050 00000000 		.4byte	.LFB64
 3252 0054 14000000 		.4byte	.LFE64-.LFB64
 3253 0058 00000000 		.4byte	.LFB65
 3254 005c 14000000 		.4byte	.LFE65-.LFB65
 3255 0060 00000000 		.4byte	.LFB66
 3256 0064 28000000 		.4byte	.LFE66-.LFB66
 3257 0068 00000000 		.4byte	.LFB67
 3258 006c 2C000000 		.4byte	.LFE67-.LFB67
 3259 0070 00000000 		.4byte	.LFB68
 3260 0074 28000000 		.4byte	.LFE68-.LFB68
 3261 0078 00000000 		.4byte	.LFB69
 3262 007c 28000000 		.4byte	.LFE69-.LFB69
 3263 0080 00000000 		.4byte	.LFB70
 3264 0084 06000000 		.4byte	.LFE70-.LFB70
 3265 0088 00000000 		.4byte	.LFB71
 3266 008c 04000000 		.4byte	.LFE71-.LFB71
 3267 0090 00000000 		.4byte	0x0
 3268 0094 00000000 		.4byte	0x0
 3269              		.section	.debug_ranges,"",%progbits
 3270              	.Ldebug_ranges0:
 3271 0000 00000000 		.4byte	.LFB56
 3272 0004 04000000 		.4byte	.LFE56
 3273 0008 00000000 		.4byte	.LFB57
 3274 000c 10000000 		.4byte	.LFE57
 3275 0010 00000000 		.4byte	.LFB58
 3276 0014 18000000 		.4byte	.LFE58
 3277 0018 00000000 		.4byte	.LFB59
 3278 001c 1C000000 		.4byte	.LFE59
 3279 0020 00000000 		.4byte	.LFB60
 3280 0024 10000000 		.4byte	.LFE60
 3281 0028 00000000 		.4byte	.LFB61
 3282 002c 10000000 		.4byte	.LFE61
 3283 0030 00000000 		.4byte	.LFB62
 3284 0034 14000000 		.4byte	.LFE62
 3285 0038 00000000 		.4byte	.LFB63
 3286 003c 18000000 		.4byte	.LFE63
 3287 0040 00000000 		.4byte	.LFB64
 3288 0044 14000000 		.4byte	.LFE64
 3289 0048 00000000 		.4byte	.LFB65
 3290 004c 14000000 		.4byte	.LFE65
 3291 0050 00000000 		.4byte	.LFB66
 3292 0054 28000000 		.4byte	.LFE66
 3293 0058 00000000 		.4byte	.LFB67
 3294 005c 2C000000 		.4byte	.LFE67
 3295 0060 00000000 		.4byte	.LFB68
 3296 0064 28000000 		.4byte	.LFE68
 3297 0068 00000000 		.4byte	.LFB69
 3298 006c 28000000 		.4byte	.LFE69
 3299 0070 00000000 		.4byte	.LFB70
 3300 0074 06000000 		.4byte	.LFE70
 3301 0078 00000000 		.4byte	.LFB71
 3302 007c 04000000 		.4byte	.LFE71
ARM GAS  C:\Users\DNIEL~1\AppData\Local\Temp\cccvHhse.s 			page 61


 3303 0080 00000000 		.4byte	0x0
 3304 0084 00000000 		.4byte	0x0
 3305              		.section	.debug_str,"MS",%progbits,1
 3306              	.LASF104:
 3307 0000 646D6172 		.ascii	"dmarx\000"
 3307      7800
 3308              	.LASF2:
 3309 0006 73697A65 		.ascii	"size_t\000"
 3309      5F7400
 3310              	.LASF59:
 3311 000d 7264796D 		.ascii	"rdymsg\000"
 3311      736700
 3312              	.LASF96:
 3313 0014 5350495F 		.ascii	"SPI_ACTIVE\000"
 3313      41435449 
 3313      564500
 3314              	.LASF116:
 3315 001f 73706953 		.ascii	"spiStop\000"
 3315      746F7000 
 3316              	.LASF122:
 3317 0027 72786275 		.ascii	"rxbuf\000"
 3317      6600
 3318              	.LASF135:
 3319 002d 433A5C44 		.ascii	"C:\\Dani\\MegaLux\\Repo\\LuxControl\\LuxControl\\lu"
 3319      616E695C 
 3319      4D656761 
 3319      4C75785C 
 3319      5265706F 
 3320 005a 78636F6E 		.ascii	"xcontrol\\firmware\000"
 3320      74726F6C 
 3320      5C666972 
 3320      6D776172 
 3320      6500
 3321              	.LASF111:
 3322 006c 73737061 		.ascii	"sspad\000"
 3322      6400
 3323              	.LASF13:
 3324 0072 6C6F6E67 		.ascii	"long long unsigned int\000"
 3324      206C6F6E 
 3324      6720756E 
 3324      7369676E 
 3324      65642069 
 3325              	.LASF75:
 3326 0089 43524350 		.ascii	"CRCPR\000"
 3326      5200
 3327              	.LASF60:
 3328 008f 65786974 		.ascii	"exitcode\000"
 3328      636F6465 
 3328      00
 3329              	.LASF90:
 3330 0098 76656374 		.ascii	"vector\000"
 3330      6F7200
 3331              	.LASF99:
 3332 009f 53504944 		.ascii	"SPIDriver\000"
 3332      72697665 
 3332      7200
 3333              	.LASF110:
ARM GAS  C:\Users\DNIEL~1\AppData\Local\Temp\cccvHhse.s 			page 62


 3334 00a9 7373706F 		.ascii	"ssport\000"
 3334      727400
 3335              	.LASF132:
 3336 00b0 49544D5F 		.ascii	"ITM_RxBuffer\000"
 3336      52784275 
 3336      66666572 
 3336      00
 3337              	.LASF26:
 3338 00bd 705F7072 		.ascii	"p_prio\000"
 3338      696F00
 3339              	.LASF12:
 3340 00c4 6C6F6E67 		.ascii	"long long int\000"
 3340      206C6F6E 
 3340      6720696E 
 3340      7400
 3341              	.LASF1:
 3342 00d2 7369676E 		.ascii	"signed char\000"
 3342      65642063 
 3342      68617200 
 3343              	.LASF68:
 3344 00de 42535252 		.ascii	"BSRR\000"
 3344      00
 3345              	.LASF94:
 3346 00e3 5350495F 		.ascii	"SPI_STOP\000"
 3346      53544F50 
 3346      00
 3347              	.LASF42:
 3348 00ec 705F6D70 		.ascii	"p_mpool\000"
 3348      6F6F6C00 
 3349              	.LASF56:
 3350 00f4 6D5F7175 		.ascii	"m_queue\000"
 3350      65756500 
 3351              	.LASF18:
 3352 00fc 74736C69 		.ascii	"tslices_t\000"
 3352      6365735F 
 3352      7400
 3353              	.LASF108:
 3354 0106 73706963 		.ascii	"spicallback_t\000"
 3354      616C6C62 
 3354      61636B5F 
 3354      7400
 3355              	.LASF100:
 3356 0114 73746174 		.ascii	"state\000"
 3356      6500
 3357              	.LASF9:
 3358 011a 6C6F6E67 		.ascii	"long int\000"
 3358      20696E74 
 3358      00
 3359              	.LASF134:
 3360 0123 2E2E2F2E 		.ascii	"../../../ChibiOS/os/hal/src/spi.c\000"
 3360      2E2F2E2E 
 3360      2F436869 
 3360      62694F53 
 3360      2F6F732F 
 3361              	.LASF16:
 3362 0145 74737461 		.ascii	"tstate_t\000"
 3362      74655F74 
ARM GAS  C:\Users\DNIEL~1\AppData\Local\Temp\cccvHhse.s 			page 63


 3362      00
 3363              	.LASF124:
 3364 014e 73706953 		.ascii	"spiStartReceive\000"
 3364      74617274 
 3364      52656365 
 3364      69766500 
 3365              	.LASF102:
 3366 015e 74687265 		.ascii	"thread\000"
 3366      616400
 3367              	.LASF6:
 3368 0165 75696E74 		.ascii	"uint16_t\000"
 3368      31365F74 
 3368      00
 3369              	.LASF35:
 3370 016e 705F7469 		.ascii	"p_time\000"
 3370      6D6500
 3371              	.LASF119:
 3372 0175 73706953 		.ascii	"spiStartIgnore\000"
 3372      74617274 
 3372      49676E6F 
 3372      726500
 3373              	.LASF28:
 3374 0184 705F6E65 		.ascii	"p_newer\000"
 3374      77657200 
 3375              	.LASF109:
 3376 018c 656E645F 		.ascii	"end_cb\000"
 3376      636200
 3377              	.LASF106:
 3378 0193 7278646D 		.ascii	"rxdmamode\000"
 3378      616D6F64 
 3378      6500
 3379              	.LASF105:
 3380 019d 646D6174 		.ascii	"dmatx\000"
 3380      7800
 3381              	.LASF51:
 3382 01a3 725F6E65 		.ascii	"r_newer\000"
 3382      77657200 
 3383              	.LASF45:
 3384 01ab 72656761 		.ascii	"regarm_t\000"
 3384      726D5F74 
 3384      00
 3385              	.LASF89:
 3386 01b4 73656C66 		.ascii	"selfindex\000"
 3386      696E6465 
 3386      7800
 3387              	.LASF118:
 3388 01be 73706955 		.ascii	"spiUnselect\000"
 3388      6E73656C 
 3388      65637400 
 3389              	.LASF0:
 3390 01ca 756E7369 		.ascii	"unsigned int\000"
 3390      676E6564 
 3390      20696E74 
 3390      00
 3391              	.LASF121:
 3392 01d7 74786275 		.ascii	"txbuf\000"
 3392      6600
ARM GAS  C:\Users\DNIEL~1\AppData\Local\Temp\cccvHhse.s 			page 64


 3393              	.LASF128:
 3394 01dd 73706952 		.ascii	"spiReceive\000"
 3394      65636569 
 3394      766500
 3395              	.LASF65:
 3396 01e8 43504152 		.ascii	"CPAR\000"
 3396      00
 3397              	.LASF37:
 3398 01ed 705F6D73 		.ascii	"p_msgqueue\000"
 3398      67717565 
 3398      756500
 3399              	.LASF70:
 3400 01f8 4750494F 		.ascii	"GPIO_TypeDef\000"
 3400      5F547970 
 3400      65446566 
 3400      00
 3401              	.LASF69:
 3402 0205 4C434B52 		.ascii	"LCKR\000"
 3402      00
 3403              	.LASF88:
 3404 020a 69736869 		.ascii	"ishift\000"
 3404      667400
 3405              	.LASF123:
 3406 0211 73706953 		.ascii	"spiStartSend\000"
 3406      74617274 
 3406      53656E64 
 3406      00
 3407              	.LASF7:
 3408 021e 73686F72 		.ascii	"short unsigned int\000"
 3408      7420756E 
 3408      7369676E 
 3408      65642069 
 3408      6E7400
 3409              	.LASF20:
 3410 0231 6D73675F 		.ascii	"msg_t\000"
 3410      7400
 3411              	.LASF15:
 3412 0237 746D6F64 		.ascii	"tmode_t\000"
 3412      655F7400 
 3413              	.LASF44:
 3414 023f 54687265 		.ascii	"ThreadsList\000"
 3414      6164734C 
 3414      69737400 
 3415              	.LASF21:
 3416 024b 6576656E 		.ascii	"eventmask_t\000"
 3416      746D6173 
 3416      6B5F7400 
 3417              	.LASF54:
 3418 0257 52656164 		.ascii	"ReadyList\000"
 3418      794C6973 
 3418      7400
 3419              	.LASF136:
 3420 0261 73706949 		.ascii	"spiInit\000"
 3420      6E697400 
 3421              	.LASF23:
 3422 0269 54687265 		.ascii	"Thread\000"
 3422      616400
ARM GAS  C:\Users\DNIEL~1\AppData\Local\Temp\cccvHhse.s 			page 65


 3423              	.LASF49:
 3424 0270 725F7072 		.ascii	"r_prio\000"
 3424      696F00
 3425              	.LASF126:
 3426 0277 73706945 		.ascii	"spiExchange\000"
 3426      78636861 
 3426      6E676500 
 3427              	.LASF83:
 3428 0283 49325350 		.ascii	"I2SPR\000"
 3428      5200
 3429              	.LASF55:
 3430 0289 4D757465 		.ascii	"Mutex\000"
 3430      7800
 3431              	.LASF81:
 3432 028f 49325343 		.ascii	"I2SCFGR\000"
 3432      46475200 
 3433              	.LASF129:
 3434 0297 73706941 		.ascii	"spiAcquireBus\000"
 3434      63717569 
 3434      72654275 
 3434      7300
 3435              	.LASF29:
 3436 02a5 705F6F6C 		.ascii	"p_older\000"
 3436      64657200 
 3437              	.LASF50:
 3438 02ad 725F6374 		.ascii	"r_ctx\000"
 3438      7800
 3439              	.LASF43:
 3440 02b3 54687265 		.ascii	"ThreadsQueue\000"
 3440      61647351 
 3440      75657565 
 3440      00
 3441              	.LASF107:
 3442 02c0 7478646D 		.ascii	"txdmamode\000"
 3442      616D6F64 
 3442      6500
 3443              	.LASF53:
 3444 02ca 725F6375 		.ascii	"r_current\000"
 3444      7272656E 
 3444      7400
 3445              	.LASF52:
 3446 02d4 725F6F6C 		.ascii	"r_older\000"
 3446      64657200 
 3447              	.LASF67:
 3448 02dc 444D415F 		.ascii	"DMA_Channel_TypeDef\000"
 3448      4368616E 
 3448      6E656C5F 
 3448      54797065 
 3448      44656600 
 3449              	.LASF79:
 3450 02f0 54584352 		.ascii	"TXCRCR\000"
 3450      435200
 3451              	.LASF71:
 3452 02f7 52455345 		.ascii	"RESERVED0\000"
 3452      52564544 
 3452      3000
 3453              	.LASF72:
ARM GAS  C:\Users\DNIEL~1\AppData\Local\Temp\cccvHhse.s 			page 66


 3454 0301 52455345 		.ascii	"RESERVED1\000"
 3454      52564544 
 3454      3100
 3455              	.LASF73:
 3456 030b 52455345 		.ascii	"RESERVED2\000"
 3456      52564544 
 3456      3200
 3457              	.LASF74:
 3458 0315 52455345 		.ascii	"RESERVED3\000"
 3458      52564544 
 3458      3300
 3459              	.LASF76:
 3460 031f 52455345 		.ascii	"RESERVED4\000"
 3460      52564544 
 3460      3400
 3461              	.LASF25:
 3462 0329 705F7072 		.ascii	"p_prev\000"
 3462      657600
 3463              	.LASF80:
 3464 0330 52455345 		.ascii	"RESERVED6\000"
 3464      52564544 
 3464      3600
 3465              	.LASF82:
 3466 033a 52455345 		.ascii	"RESERVED7\000"
 3466      52564544 
 3466      3700
 3467              	.LASF84:
 3468 0344 52455345 		.ascii	"RESERVED8\000"
 3468      52564544 
 3468      3800
 3469              	.LASF19:
 3470 034e 74707269 		.ascii	"tprio_t\000"
 3470      6F5F7400 
 3471              	.LASF103:
 3472 0356 6D757465 		.ascii	"mutex\000"
 3472      7800
 3473              	.LASF14:
 3474 035c 5F426F6F 		.ascii	"_Bool\000"
 3474      6C00
 3475              	.LASF8:
 3476 0362 696E7433 		.ascii	"int32_t\000"
 3476      325F7400 
 3477              	.LASF4:
 3478 036a 756E7369 		.ascii	"unsigned char\000"
 3478      676E6564 
 3478      20636861 
 3478      7200
 3479              	.LASF91:
 3480 0378 73746D33 		.ascii	"stm32_dma_stream_t\000"
 3480      325F646D 
 3480      615F7374 
 3480      7265616D 
 3480      5F7400
 3481              	.LASF40:
 3482 038b 705F6D74 		.ascii	"p_mtxlist\000"
 3482      786C6973 
 3482      7400
ARM GAS  C:\Users\DNIEL~1\AppData\Local\Temp\cccvHhse.s 			page 67


 3483              	.LASF5:
 3484 0395 73686F72 		.ascii	"short int\000"
 3484      7420696E 
 3484      7400
 3485              	.LASF31:
 3486 039f 705F7374 		.ascii	"p_state\000"
 3486      61746500 
 3487              	.LASF34:
 3488 03a7 705F7072 		.ascii	"p_preempt\000"
 3488      65656D70 
 3488      7400
 3489              	.LASF113:
 3490 03b1 7370694F 		.ascii	"spiObjectInit\000"
 3490      626A6563 
 3490      74496E69 
 3490      7400
 3491              	.LASF62:
 3492 03bf 65776D61 		.ascii	"ewmask\000"
 3492      736B00
 3493              	.LASF24:
 3494 03c6 705F6E65 		.ascii	"p_next\000"
 3494      787400
 3495              	.LASF32:
 3496 03cd 705F666C 		.ascii	"p_flags\000"
 3496      61677300 
 3497              	.LASF86:
 3498 03d5 6368616E 		.ascii	"channel\000"
 3498      6E656C00 
 3499              	.LASF39:
 3500 03dd 705F6570 		.ascii	"p_epending\000"
 3500      656E6469 
 3500      6E6700
 3501              	.LASF87:
 3502 03e8 69666372 		.ascii	"ifcr\000"
 3502      00
 3503              	.LASF78:
 3504 03ed 52455345 		.ascii	"RESERVED5\000"
 3504      52564544 
 3504      3500
 3505              	.LASF10:
 3506 03f7 75696E74 		.ascii	"uint32_t\000"
 3506      33325F74 
 3506      00
 3507              	.LASF48:
 3508 0400 725F7175 		.ascii	"r_queue\000"
 3508      65756500 
 3509              	.LASF17:
 3510 0408 74726566 		.ascii	"trefs_t\000"
 3510      735F7400 
 3511              	.LASF11:
 3512 0410 6C6F6E67 		.ascii	"long unsigned int\000"
 3512      20756E73 
 3512      69676E65 
 3512      6420696E 
 3512      7400
 3513              	.LASF85:
 3514 0422 5350495F 		.ascii	"SPI_TypeDef\000"
ARM GAS  C:\Users\DNIEL~1\AppData\Local\Temp\cccvHhse.s 			page 68


 3514      54797065 
 3514      44656600 
 3515              	.LASF63:
 3516 042e 63686172 		.ascii	"char\000"
 3516      00
 3517              	.LASF97:
 3518 0433 5350495F 		.ascii	"SPI_COMPLETE\000"
 3518      434F4D50 
 3518      4C455445 
 3518      00
 3519              	.LASF101:
 3520 0440 636F6E66 		.ascii	"config\000"
 3520      696700
 3521              	.LASF98:
 3522 0447 73706973 		.ascii	"spistate_t\000"
 3522      74617465 
 3522      5F7400
 3523              	.LASF58:
 3524 0452 6D5F6E65 		.ascii	"m_next\000"
 3524      787400
 3525              	.LASF22:
 3526 0459 73797374 		.ascii	"systime_t\000"
 3526      696D655F 
 3526      7400
 3527              	.LASF41:
 3528 0463 705F7265 		.ascii	"p_realprio\000"
 3528      616C7072 
 3528      696F00
 3529              	.LASF130:
 3530 046e 73706952 		.ascii	"spiReleaseBus\000"
 3530      656C6561 
 3530      73654275 
 3530      7300
 3531              	.LASF125:
 3532 047c 73706949 		.ascii	"spiIgnore\000"
 3532      676E6F72 
 3532      6500
 3533              	.LASF92:
 3534 0486 696F706F 		.ascii	"ioportid_t\000"
 3534      72746964 
 3534      5F7400
 3535              	.LASF47:
 3536 0491 636F6E74 		.ascii	"context\000"
 3536      65787400 
 3537              	.LASF114:
 3538 0499 73706953 		.ascii	"spiStart\000"
 3538      74617274 
 3538      00
 3539              	.LASF117:
 3540 04a2 73706953 		.ascii	"spiSelect\000"
 3540      656C6563 
 3540      7400
 3541              	.LASF46:
 3542 04ac 696E7463 		.ascii	"intctx\000"
 3542      747800
 3543              	.LASF95:
 3544 04b3 5350495F 		.ascii	"SPI_READY\000"
ARM GAS  C:\Users\DNIEL~1\AppData\Local\Temp\cccvHhse.s 			page 69


 3544      52454144 
 3544      5900
 3545              	.LASF93:
 3546 04bd 5350495F 		.ascii	"SPI_UNINIT\000"
 3546      554E494E 
 3546      495400
 3547              	.LASF33:
 3548 04c8 705F7265 		.ascii	"p_refs\000"
 3548      667300
 3549              	.LASF120:
 3550 04cf 73706953 		.ascii	"spiStartExchange\000"
 3550      74617274 
 3550      45786368 
 3550      616E6765 
 3550      00
 3551              	.LASF64:
 3552 04e0 434E4454 		.ascii	"CNDTR\000"
 3552      5200
 3553              	.LASF66:
 3554 04e6 434D4152 		.ascii	"CMAR\000"
 3554      00
 3555              	.LASF77:
 3556 04eb 52584352 		.ascii	"RXCRCR\000"
 3556      435200
 3557              	.LASF131:
 3558 04f2 726C6973 		.ascii	"rlist\000"
 3558      7400
 3559              	.LASF3:
 3560 04f8 75696E74 		.ascii	"uint8_t\000"
 3560      385F7400 
 3561              	.LASF115:
 3562 0500 73706970 		.ascii	"spip\000"
 3562      00
 3563              	.LASF61:
 3564 0505 77746F62 		.ascii	"wtobjp\000"
 3564      6A7000
 3565              	.LASF133:
 3566 050c 474E5520 		.ascii	"GNU C 4.5.2\000"
 3566      4320342E 
 3566      352E3200 
 3567              	.LASF30:
 3568 0518 705F6E61 		.ascii	"p_name\000"
 3568      6D6500
 3569              	.LASF127:
 3570 051f 73706953 		.ascii	"spiSend\000"
 3570      656E6400 
 3571              	.LASF112:
 3572 0527 53504943 		.ascii	"SPIConfig\000"
 3572      6F6E6669 
 3572      6700
 3573              	.LASF38:
 3574 0531 705F6D73 		.ascii	"p_msg\000"
 3574      6700
 3575              	.LASF57:
 3576 0537 6D5F6F77 		.ascii	"m_owner\000"
 3576      6E657200 
 3577              	.LASF27:
ARM GAS  C:\Users\DNIEL~1\AppData\Local\Temp\cccvHhse.s 			page 70


 3578 053f 705F6374 		.ascii	"p_ctx\000"
 3578      7800
 3579              	.LASF36:
 3580 0545 705F7761 		.ascii	"p_waiting\000"
 3580      6974696E 
 3580      6700
 3581              		.ident	"GCC: (Sourcery G++ Lite 2011.03-42) 4.5.2"
ARM GAS  C:\Users\DNIEL~1\AppData\Local\Temp\cccvHhse.s 			page 71


DEFINED SYMBOLS
                            *ABS*:00000000 spi.c
C:\Users\DNIEL~1\AppData\Local\Temp\cccvHhse.s:24     .text.spiInit:00000000 $t
C:\Users\DNIEL~1\AppData\Local\Temp\cccvHhse.s:30     .text.spiInit:00000000 spiInit
C:\Users\DNIEL~1\AppData\Local\Temp\cccvHhse.s:45     .text.spiObjectInit:00000000 $t
C:\Users\DNIEL~1\AppData\Local\Temp\cccvHhse.s:51     .text.spiObjectInit:00000000 spiObjectInit
C:\Users\DNIEL~1\AppData\Local\Temp\cccvHhse.s:78     .text.spiStart:00000000 $t
C:\Users\DNIEL~1\AppData\Local\Temp\cccvHhse.s:84     .text.spiStart:00000000 spiStart
C:\Users\DNIEL~1\AppData\Local\Temp\cccvHhse.s:122    .text.spiStop:00000000 $t
C:\Users\DNIEL~1\AppData\Local\Temp\cccvHhse.s:128    .text.spiStop:00000000 spiStop
C:\Users\DNIEL~1\AppData\Local\Temp\cccvHhse.s:167    .text.spiSelect:00000000 $t
C:\Users\DNIEL~1\AppData\Local\Temp\cccvHhse.s:173    .text.spiSelect:00000000 spiSelect
C:\Users\DNIEL~1\AppData\Local\Temp\cccvHhse.s:204    .text.spiUnselect:00000000 $t
C:\Users\DNIEL~1\AppData\Local\Temp\cccvHhse.s:210    .text.spiUnselect:00000000 spiUnselect
C:\Users\DNIEL~1\AppData\Local\Temp\cccvHhse.s:241    .text.spiStartIgnore:00000000 $t
C:\Users\DNIEL~1\AppData\Local\Temp\cccvHhse.s:247    .text.spiStartIgnore:00000000 spiStartIgnore
C:\Users\DNIEL~1\AppData\Local\Temp\cccvHhse.s:280    .text.spiStartExchange:00000000 $t
C:\Users\DNIEL~1\AppData\Local\Temp\cccvHhse.s:286    .text.spiStartExchange:00000000 spiStartExchange
C:\Users\DNIEL~1\AppData\Local\Temp\cccvHhse.s:325    .text.spiStartSend:00000000 $t
C:\Users\DNIEL~1\AppData\Local\Temp\cccvHhse.s:331    .text.spiStartSend:00000000 spiStartSend
C:\Users\DNIEL~1\AppData\Local\Temp\cccvHhse.s:364    .text.spiStartReceive:00000000 $t
C:\Users\DNIEL~1\AppData\Local\Temp\cccvHhse.s:370    .text.spiStartReceive:00000000 spiStartReceive
C:\Users\DNIEL~1\AppData\Local\Temp\cccvHhse.s:403    .text.spiIgnore:00000000 $t
C:\Users\DNIEL~1\AppData\Local\Temp\cccvHhse.s:409    .text.spiIgnore:00000000 spiIgnore
C:\Users\DNIEL~1\AppData\Local\Temp\cccvHhse.s:449    .text.spiIgnore:00000024 $d
C:\Users\DNIEL~1\AppData\Local\Temp\cccvHhse.s:454    .text.spiExchange:00000000 $t
C:\Users\DNIEL~1\AppData\Local\Temp\cccvHhse.s:460    .text.spiExchange:00000000 spiExchange
C:\Users\DNIEL~1\AppData\Local\Temp\cccvHhse.s:506    .text.spiExchange:00000028 $d
C:\Users\DNIEL~1\AppData\Local\Temp\cccvHhse.s:511    .text.spiSend:00000000 $t
C:\Users\DNIEL~1\AppData\Local\Temp\cccvHhse.s:517    .text.spiSend:00000000 spiSend
C:\Users\DNIEL~1\AppData\Local\Temp\cccvHhse.s:557    .text.spiSend:00000024 $d
C:\Users\DNIEL~1\AppData\Local\Temp\cccvHhse.s:562    .text.spiReceive:00000000 $t
C:\Users\DNIEL~1\AppData\Local\Temp\cccvHhse.s:568    .text.spiReceive:00000000 spiReceive
C:\Users\DNIEL~1\AppData\Local\Temp\cccvHhse.s:608    .text.spiReceive:00000024 $d
C:\Users\DNIEL~1\AppData\Local\Temp\cccvHhse.s:613    .text.spiAcquireBus:00000000 $t
C:\Users\DNIEL~1\AppData\Local\Temp\cccvHhse.s:619    .text.spiAcquireBus:00000000 spiAcquireBus
C:\Users\DNIEL~1\AppData\Local\Temp\cccvHhse.s:637    .text.spiReleaseBus:00000000 $t
C:\Users\DNIEL~1\AppData\Local\Temp\cccvHhse.s:643    .text.spiReleaseBus:00000000 spiReleaseBus
                     .debug_frame:00000010 $d
C:\Users\DNIEL~1\AppData\Local\Temp\cccvHhse.s:453    .text.spiIgnore:00000028 $t
C:\Users\DNIEL~1\AppData\Local\Temp\cccvHhse.s:510    .text.spiExchange:0000002c $t
C:\Users\DNIEL~1\AppData\Local\Temp\cccvHhse.s:561    .text.spiSend:00000028 $t
C:\Users\DNIEL~1\AppData\Local\Temp\cccvHhse.s:612    .text.spiReceive:00000028 $t

UNDEFINED SYMBOLS
spi_lld_init
chMtxInit
_port_lock
spi_lld_start
_port_unlock
spi_lld_unselect
spi_lld_stop
spi_lld_select
spi_lld_ignore
spi_lld_exchange
spi_lld_send
spi_lld_receive
ARM GAS  C:\Users\DNIEL~1\AppData\Local\Temp\cccvHhse.s 			page 72


chSchGoSleepS
rlist
chMtxLock
chMtxUnlock
