ARM GAS  C:\Users\DNIEL~1\AppData\Local\Temp\cc0CNsVc.s 			page 1


   1              		.syntax unified
   2              		.cpu cortex-m3
   3              		.fpu softvfp
   4              		.eabi_attribute 20, 1
   5              		.eabi_attribute 21, 1
   6              		.eabi_attribute 23, 3
   7              		.eabi_attribute 24, 1
   8              		.eabi_attribute 25, 1
   9              		.eabi_attribute 26, 1
  10              		.eabi_attribute 30, 2
  11              		.eabi_attribute 18, 4
  12              		.thumb
  13              		.file	"spi_comm.c"
  14              		.section	.debug_abbrev,"",%progbits
  15              	.Ldebug_abbrev0:
  16              		.section	.debug_info,"",%progbits
  17              	.Ldebug_info0:
  18              		.section	.debug_line,"",%progbits
  19              	.Ldebug_line0:
  20 0000 7B030000 		.text
  20      0200D302 
  20      00000201 
  20      FB0E0D00 
  20      01010101 
  21              	.Ltext0:
  22              		.cfi_sections	.debug_frame
  23              		.section	.text.SPISendData,"ax",%progbits
  24              		.align	2
  25              		.p2align 4,,15
  26              		.global	SPISendData
  27              		.thumb
  28              		.thumb_func
  29              		.type	SPISendData, %function
  30              	SPISendData:
  31              	.LFB62:
  32              		.file 1 "src/spi_comm.c"
  33              		.loc 1 90 0
  34              		.cfi_startproc
  35              		@ args = 0, pretend = 0, frame = 0
  36              		@ frame_needed = 0, uses_anonymous_args = 0
  37              	.LVL0:
  38 0000 F8B5     		push	{r3, r4, r5, r6, r7, lr}
  39              	.LCFI0:
  40              		.cfi_def_cfa_offset 24
  41              		.loc 1 92 0
  42 0002 124C     		ldr	r4, .L2
  43              		.cfi_offset 14, -4
  44              		.cfi_offset 7, -8
  45              		.cfi_offset 6, -12
  46              		.cfi_offset 5, -16
  47              		.cfi_offset 4, -20
  48              		.cfi_offset 3, -24
  49              		.loc 1 90 0
  50 0004 0646     		mov	r6, r0
  51              		.loc 1 92 0
  52 0006 2046     		mov	r0, r4
  53              	.LVL1:
ARM GAS  C:\Users\DNIEL~1\AppData\Local\Temp\cc0CNsVc.s 			page 2


  54              		.loc 1 90 0
  55 0008 1746     		mov	r7, r2
  56 000a 0D46     		mov	r5, r1
  57              		.loc 1 92 0
  58 000c FFF7FEFF 		bl	spiAcquireBus
  59              	.LVL2:
  60              		.loc 1 93 0
  61 0010 2046     		mov	r0, r4
  62 0012 0F49     		ldr	r1, .L2+4
  63 0014 FFF7FEFF 		bl	spiStart
  64              		.loc 1 94 0
  65 0018 2046     		mov	r0, r4
  66 001a FFF7FEFF 		bl	spiSelect
  67              		.loc 1 96 0
  68 001e 2046     		mov	r0, r4
  69 0020 3946     		mov	r1, r7
  70 0022 3246     		mov	r2, r6
  71 0024 FFF7FEFF 		bl	spiSend
  72              		.loc 1 97 0
  73 0028 0221     		movs	r1, #2
  74 002a 0A4A     		ldr	r2, .L2+8
  75 002c 2B46     		mov	r3, r5
  76 002e 2046     		mov	r0, r4
  77 0030 FFF7FEFF 		bl	spiExchange
  78              		.loc 1 99 0
  79 0034 2046     		mov	r0, r4
  80 0036 FFF7FEFF 		bl	spiUnselect
  81              		.loc 1 100 0
  82 003a 2046     		mov	r0, r4
  83 003c FFF7FEFF 		bl	spiStop
  84              		.loc 1 101 0
  85 0040 2046     		mov	r0, r4
  86 0042 FFF7FEFF 		bl	spiReleaseBus
  87              		.loc 1 104 0
  88 0046 0020     		movs	r0, #0
  89 0048 F8BD     		pop	{r3, r4, r5, r6, r7, pc}
  90              	.L3:
  91 004a 00BF     		.align	2
  92              	.L2:
  93 004c 00000000 		.word	SPID1
  94 0050 00000000 		.word	.LANCHOR0
  95 0054 00000000 		.word	.LANCHOR1
  96              		.cfi_endproc
  97              	.LFE62:
  98              		.size	SPISendData, .-SPISendData
  99 0058 AFF30080 		.section	.text.SPV1020CURR_IN,"ax",%progbits
  99      AFF30080 
 100              		.align	2
 101              		.p2align 4,,15
 102              		.global	SPV1020CURR_IN
 103              		.thumb
 104              		.thumb_func
 105              		.type	SPV1020CURR_IN, %function
 106              	SPV1020CURR_IN:
 107              	.LFB61:
 108              		.loc 1 80 0
 109              		.cfi_startproc
ARM GAS  C:\Users\DNIEL~1\AppData\Local\Temp\cc0CNsVc.s 			page 3


 110              		@ args = 0, pretend = 0, frame = 8
 111              		@ frame_needed = 0, uses_anonymous_args = 0
 112 0000 00B5     		push	{lr}
 113              	.LCFI1:
 114              		.cfi_def_cfa_offset 4
 115 0002 83B0     		sub	sp, sp, #12
 116              	.LCFI2:
 117              		.cfi_def_cfa_offset 16
 118              		.loc 1 83 0
 119 0004 02A8     		add	r0, sp, #8
 120 0006 0423     		movs	r3, #4
 121 0008 20F8043D 		strh	r3, [r0, #-4]!	@ movhi
 122              	.LVL3:
 123              		.loc 1 85 0
 124 000c 0DF10601 		add	r1, sp, #6
 125 0010 0122     		movs	r2, #1
 126              		.cfi_offset 14, -4
 127 0012 FFF7FEFF 		bl	SPISendData
 128              	.LVL4:
 129              		.loc 1 88 0
 130 0016 BDF80600 		ldrh	r0, [sp, #6]
 131 001a 03B0     		add	sp, sp, #12
 132 001c 00BD     		pop	{pc}
 133              		.cfi_endproc
 134              	.LFE61:
 135              		.size	SPV1020CURR_IN, .-SPV1020CURR_IN
 136 001e 00BF     		.section	.text.SPV1020PWM,"ax",%progbits
 137              		.align	2
 138              		.p2align 4,,15
 139              		.global	SPV1020PWM
 140              		.thumb
 141              		.thumb_func
 142              		.type	SPV1020PWM, %function
 143              	SPV1020PWM:
 144              	.LFB60:
 145              		.loc 1 70 0
 146              		.cfi_startproc
 147              		@ args = 0, pretend = 0, frame = 8
 148              		@ frame_needed = 0, uses_anonymous_args = 0
 149 0000 00B5     		push	{lr}
 150              	.LCFI3:
 151              		.cfi_def_cfa_offset 4
 152 0002 83B0     		sub	sp, sp, #12
 153              	.LCFI4:
 154              		.cfi_def_cfa_offset 16
 155              		.loc 1 73 0
 156 0004 02A8     		add	r0, sp, #8
 157 0006 0623     		movs	r3, #6
 158 0008 20F8043D 		strh	r3, [r0, #-4]!	@ movhi
 159              	.LVL5:
 160              		.loc 1 75 0
 161 000c 0DF10601 		add	r1, sp, #6
 162 0010 0122     		movs	r2, #1
 163              		.cfi_offset 14, -4
 164 0012 FFF7FEFF 		bl	SPISendData
 165              	.LVL6:
 166              		.loc 1 78 0
ARM GAS  C:\Users\DNIEL~1\AppData\Local\Temp\cc0CNsVc.s 			page 4


 167 0016 BDF80600 		ldrh	r0, [sp, #6]
 168 001a 03B0     		add	sp, sp, #12
 169 001c 00BD     		pop	{pc}
 170              		.cfi_endproc
 171              	.LFE60:
 172              		.size	SPV1020PWM, .-SPV1020PWM
 173 001e 00BF     		.section	.text.SPV1020STATUS,"ax",%progbits
 174              		.align	2
 175              		.p2align 4,,15
 176              		.global	SPV1020STATUS
 177              		.thumb
 178              		.thumb_func
 179              		.type	SPV1020STATUS, %function
 180              	SPV1020STATUS:
 181              	.LFB59:
 182              		.loc 1 60 0
 183              		.cfi_startproc
 184              		@ args = 0, pretend = 0, frame = 8
 185              		@ frame_needed = 0, uses_anonymous_args = 0
 186 0000 00B5     		push	{lr}
 187              	.LCFI5:
 188              		.cfi_def_cfa_offset 4
 189 0002 83B0     		sub	sp, sp, #12
 190              	.LCFI6:
 191              		.cfi_def_cfa_offset 16
 192              		.loc 1 63 0
 193 0004 02A8     		add	r0, sp, #8
 194 0006 0723     		movs	r3, #7
 195 0008 20F8043D 		strh	r3, [r0, #-4]!	@ movhi
 196              	.LVL7:
 197              		.loc 1 65 0
 198 000c 0DF10601 		add	r1, sp, #6
 199 0010 0122     		movs	r2, #1
 200              		.cfi_offset 14, -4
 201 0012 FFF7FEFF 		bl	SPISendData
 202              	.LVL8:
 203              		.loc 1 68 0
 204 0016 BDF80600 		ldrh	r0, [sp, #6]
 205 001a 03B0     		add	sp, sp, #12
 206 001c 00BD     		pop	{pc}
 207              		.cfi_endproc
 208              	.LFE59:
 209              		.size	SPV1020STATUS, .-SPV1020STATUS
 210 001e 00BF     		.section	.text.SPV1020VIN,"ax",%progbits
 211              		.align	2
 212              		.p2align 4,,15
 213              		.global	SPV1020VIN
 214              		.thumb
 215              		.thumb_func
 216              		.type	SPV1020VIN, %function
 217              	SPV1020VIN:
 218              	.LFB58:
 219              		.loc 1 50 0
 220              		.cfi_startproc
 221              		@ args = 0, pretend = 0, frame = 8
 222              		@ frame_needed = 0, uses_anonymous_args = 0
 223 0000 00B5     		push	{lr}
ARM GAS  C:\Users\DNIEL~1\AppData\Local\Temp\cc0CNsVc.s 			page 5


 224              	.LCFI7:
 225              		.cfi_def_cfa_offset 4
 226 0002 83B0     		sub	sp, sp, #12
 227              	.LCFI8:
 228              		.cfi_def_cfa_offset 16
 229              		.loc 1 53 0
 230 0004 02A8     		add	r0, sp, #8
 231 0006 0523     		movs	r3, #5
 232 0008 20F8043D 		strh	r3, [r0, #-4]!	@ movhi
 233              	.LVL9:
 234              		.loc 1 55 0
 235 000c 0DF10601 		add	r1, sp, #6
 236 0010 0122     		movs	r2, #1
 237              		.cfi_offset 14, -4
 238 0012 FFF7FEFF 		bl	SPISendData
 239              	.LVL10:
 240              		.loc 1 58 0
 241 0016 BDF80600 		ldrh	r0, [sp, #6]
 242 001a 03B0     		add	sp, sp, #12
 243 001c 00BD     		pop	{pc}
 244              		.cfi_endproc
 245              	.LFE58:
 246              		.size	SPV1020VIN, .-SPV1020VIN
 247 001e 00BF     		.section	.text.SPV1020TURN_ON,"ax",%progbits
 248              		.align	2
 249              		.p2align 4,,15
 250              		.global	SPV1020TURN_ON
 251              		.thumb
 252              		.thumb_func
 253              		.type	SPV1020TURN_ON, %function
 254              	SPV1020TURN_ON:
 255              	.LFB57:
 256              		.loc 1 40 0
 257              		.cfi_startproc
 258              		@ args = 0, pretend = 0, frame = 8
 259              		@ frame_needed = 0, uses_anonymous_args = 0
 260 0000 00B5     		push	{lr}
 261              	.LCFI9:
 262              		.cfi_def_cfa_offset 4
 263 0002 83B0     		sub	sp, sp, #12
 264              	.LCFI10:
 265              		.cfi_def_cfa_offset 16
 266              		.loc 1 43 0
 267 0004 02A8     		add	r0, sp, #8
 268 0006 0323     		movs	r3, #3
 269 0008 20F8043D 		strh	r3, [r0, #-4]!	@ movhi
 270              	.LVL11:
 271              		.loc 1 45 0
 272 000c 0DF10601 		add	r1, sp, #6
 273 0010 0122     		movs	r2, #1
 274              		.cfi_offset 14, -4
 275 0012 FFF7FEFF 		bl	SPISendData
 276              	.LVL12:
 277              		.loc 1 48 0
 278 0016 BDF80600 		ldrh	r0, [sp, #6]
 279 001a 03B0     		add	sp, sp, #12
 280 001c 00BD     		pop	{pc}
ARM GAS  C:\Users\DNIEL~1\AppData\Local\Temp\cc0CNsVc.s 			page 6


 281              		.cfi_endproc
 282              	.LFE57:
 283              		.size	SPV1020TURN_ON, .-SPV1020TURN_ON
 284 001e 00BF     		.section	.text.SPV1020SHUT_DOWN,"ax",%progbits
 285              		.align	2
 286              		.p2align 4,,15
 287              		.global	SPV1020SHUT_DOWN
 288              		.thumb
 289              		.thumb_func
 290              		.type	SPV1020SHUT_DOWN, %function
 291              	SPV1020SHUT_DOWN:
 292              	.LFB56:
 293              		.loc 1 30 0
 294              		.cfi_startproc
 295              		@ args = 0, pretend = 0, frame = 8
 296              		@ frame_needed = 0, uses_anonymous_args = 0
 297 0000 00B5     		push	{lr}
 298              	.LCFI11:
 299              		.cfi_def_cfa_offset 4
 300 0002 83B0     		sub	sp, sp, #12
 301              	.LCFI12:
 302              		.cfi_def_cfa_offset 16
 303              		.loc 1 33 0
 304 0004 02A8     		add	r0, sp, #8
 305 0006 0223     		movs	r3, #2
 306 0008 20F8043D 		strh	r3, [r0, #-4]!	@ movhi
 307              	.LVL13:
 308              		.loc 1 35 0
 309 000c 0DF10601 		add	r1, sp, #6
 310 0010 0122     		movs	r2, #1
 311              		.cfi_offset 14, -4
 312 0012 FFF7FEFF 		bl	SPISendData
 313              	.LVL14:
 314              		.loc 1 38 0
 315 0016 BDF80600 		ldrh	r0, [sp, #6]
 316 001a 03B0     		add	sp, sp, #12
 317 001c 00BD     		pop	{pc}
 318              		.cfi_endproc
 319              	.LFE56:
 320              		.size	SPV1020SHUT_DOWN, .-SPV1020SHUT_DOWN
 321 001e 00BF     		.section	.text.spi_commInit,"ax",%progbits
 322              		.align	2
 323              		.p2align 4,,15
 324              		.global	spi_commInit
 325              		.thumb
 326              		.thumb_func
 327              		.type	spi_commInit, %function
 328              	spi_commInit:
 329              	.LFB63:
 330              		.loc 1 106 0
 331              		.cfi_startproc
 332              		@ args = 0, pretend = 0, frame = 8
 333              		@ frame_needed = 0, uses_anonymous_args = 0
 334 0000 10B5     		push	{r4, lr}
 335              	.LCFI13:
 336              		.cfi_def_cfa_offset 8
 337 0002 82B0     		sub	sp, sp, #8
ARM GAS  C:\Users\DNIEL~1\AppData\Local\Temp\cc0CNsVc.s 			page 7


 338              	.LCFI14:
 339              		.cfi_def_cfa_offset 16
 340              		.loc 1 111 0
 341 0004 0123     		movs	r3, #1
 342 0006 064C     		ldr	r4, .L11
 343              		.cfi_offset 14, -4
 344              		.cfi_offset 4, -8
 345              		.loc 1 109 0
 346 0008 0322     		movs	r2, #3
 347 000a 02A8     		add	r0, sp, #8
 348 000c 40F8042D 		str	r2, [r0, #-4]!
 349              	.LVL15:
 350              		.loc 1 114 0
 351 0010 6946     		mov	r1, sp
 352 0012 1A46     		mov	r2, r3
 353              		.loc 1 111 0
 354 0014 2370     		strb	r3, [r4, #0]
 355              		.loc 1 112 0
 356 0016 6370     		strb	r3, [r4, #1]
 357              		.loc 1 114 0
 358 0018 FFF7FEFF 		bl	SPISendData
 359              		.loc 1 115 0
 360 001c 02B0     		add	sp, sp, #8
 361 001e 10BD     		pop	{r4, pc}
 362              	.L12:
 363              		.align	2
 364              	.L11:
 365 0020 00000000 		.word	.LANCHOR1
 366              		.cfi_endproc
 367              	.LFE63:
 368              		.size	spi_commInit, .-spi_commInit
 369 0024 AFF30080 		.section	.bss.txbuf_nop,"aw",%nobits
 369      AFF30080 
 369      AFF30080 
 370              		.align	2
 371              		.set	.LANCHOR1,. + 0
 372              		.type	txbuf_nop, %object
 373              		.size	txbuf_nop, 2
 374              	txbuf_nop:
 375 0000 0000     		.space	2
 376 0002 0000     		.section	.rodata.ls_spicfg_cs1,"a",%progbits
 377              		.align	2
 378              		.set	.LANCHOR0,. + 0
 379              		.type	ls_spicfg_cs1, %object
 380              		.size	ls_spicfg_cs1, 12
 381              	ls_spicfg_cs1:
 382 0000 00000000 		.word	0
 383 0004 00080140 		.word	1073809408
 384 0008 0A00     		.short	10
 385 000a 3000     		.short	48
 386              		.text
 387              	.Letext0:
 388              		.section	.debug_loc,"",%progbits
 389              	.Ldebug_loc0:
 390              	.LLST0:
 391 0000 00000000 		.4byte	.LFB62
 392 0004 02000000 		.4byte	.LCFI0
ARM GAS  C:\Users\DNIEL~1\AppData\Local\Temp\cc0CNsVc.s 			page 8


 393 0008 0200     		.2byte	0x2
 394 000a 7D       		.byte	0x7d
 395 000b 00       		.sleb128 0
 396 000c 02000000 		.4byte	.LCFI0
 397 0010 58000000 		.4byte	.LFE62
 398 0014 0200     		.2byte	0x2
 399 0016 7D       		.byte	0x7d
 400 0017 18       		.sleb128 24
 401 0018 00000000 		.4byte	0x0
 402 001c 00000000 		.4byte	0x0
 403              	.LLST1:
 404 0020 00000000 		.4byte	.LVL0
 405 0024 08000000 		.4byte	.LVL1
 406 0028 0100     		.2byte	0x1
 407 002a 50       		.byte	0x50
 408 002b 08000000 		.4byte	.LVL1
 409 002f 58000000 		.4byte	.LFE62
 410 0033 0100     		.2byte	0x1
 411 0035 56       		.byte	0x56
 412 0036 00000000 		.4byte	0x0
 413 003a 00000000 		.4byte	0x0
 414              	.LLST2:
 415 003e 00000000 		.4byte	.LVL0
 416 0042 0F000000 		.4byte	.LVL2-1
 417 0046 0100     		.2byte	0x1
 418 0048 51       		.byte	0x51
 419 0049 0F000000 		.4byte	.LVL2-1
 420 004d 58000000 		.4byte	.LFE62
 421 0051 0100     		.2byte	0x1
 422 0053 55       		.byte	0x55
 423 0054 00000000 		.4byte	0x0
 424 0058 00000000 		.4byte	0x0
 425              	.LLST3:
 426 005c 00000000 		.4byte	.LVL0
 427 0060 0F000000 		.4byte	.LVL2-1
 428 0064 0100     		.2byte	0x1
 429 0066 52       		.byte	0x52
 430 0067 0F000000 		.4byte	.LVL2-1
 431 006b 58000000 		.4byte	.LFE62
 432 006f 0100     		.2byte	0x1
 433 0071 57       		.byte	0x57
 434 0072 00000000 		.4byte	0x0
 435 0076 00000000 		.4byte	0x0
 436              	.LLST4:
 437 007a 00000000 		.4byte	.LFB61
 438 007e 02000000 		.4byte	.LCFI1
 439 0082 0200     		.2byte	0x2
 440 0084 7D       		.byte	0x7d
 441 0085 00       		.sleb128 0
 442 0086 02000000 		.4byte	.LCFI1
 443 008a 04000000 		.4byte	.LCFI2
 444 008e 0200     		.2byte	0x2
 445 0090 7D       		.byte	0x7d
 446 0091 04       		.sleb128 4
 447 0092 04000000 		.4byte	.LCFI2
 448 0096 1E000000 		.4byte	.LFE61
 449 009a 0200     		.2byte	0x2
ARM GAS  C:\Users\DNIEL~1\AppData\Local\Temp\cc0CNsVc.s 			page 9


 450 009c 7D       		.byte	0x7d
 451 009d 10       		.sleb128 16
 452 009e 00000000 		.4byte	0x0
 453 00a2 00000000 		.4byte	0x0
 454              	.LLST5:
 455 00a6 00000000 		.4byte	.LFB60
 456 00aa 02000000 		.4byte	.LCFI3
 457 00ae 0200     		.2byte	0x2
 458 00b0 7D       		.byte	0x7d
 459 00b1 00       		.sleb128 0
 460 00b2 02000000 		.4byte	.LCFI3
 461 00b6 04000000 		.4byte	.LCFI4
 462 00ba 0200     		.2byte	0x2
 463 00bc 7D       		.byte	0x7d
 464 00bd 04       		.sleb128 4
 465 00be 04000000 		.4byte	.LCFI4
 466 00c2 1E000000 		.4byte	.LFE60
 467 00c6 0200     		.2byte	0x2
 468 00c8 7D       		.byte	0x7d
 469 00c9 10       		.sleb128 16
 470 00ca 00000000 		.4byte	0x0
 471 00ce 00000000 		.4byte	0x0
 472              	.LLST6:
 473 00d2 00000000 		.4byte	.LFB59
 474 00d6 02000000 		.4byte	.LCFI5
 475 00da 0200     		.2byte	0x2
 476 00dc 7D       		.byte	0x7d
 477 00dd 00       		.sleb128 0
 478 00de 02000000 		.4byte	.LCFI5
 479 00e2 04000000 		.4byte	.LCFI6
 480 00e6 0200     		.2byte	0x2
 481 00e8 7D       		.byte	0x7d
 482 00e9 04       		.sleb128 4
 483 00ea 04000000 		.4byte	.LCFI6
 484 00ee 1E000000 		.4byte	.LFE59
 485 00f2 0200     		.2byte	0x2
 486 00f4 7D       		.byte	0x7d
 487 00f5 10       		.sleb128 16
 488 00f6 00000000 		.4byte	0x0
 489 00fa 00000000 		.4byte	0x0
 490              	.LLST7:
 491 00fe 00000000 		.4byte	.LFB58
 492 0102 02000000 		.4byte	.LCFI7
 493 0106 0200     		.2byte	0x2
 494 0108 7D       		.byte	0x7d
 495 0109 00       		.sleb128 0
 496 010a 02000000 		.4byte	.LCFI7
 497 010e 04000000 		.4byte	.LCFI8
 498 0112 0200     		.2byte	0x2
 499 0114 7D       		.byte	0x7d
 500 0115 04       		.sleb128 4
 501 0116 04000000 		.4byte	.LCFI8
 502 011a 1E000000 		.4byte	.LFE58
 503 011e 0200     		.2byte	0x2
 504 0120 7D       		.byte	0x7d
 505 0121 10       		.sleb128 16
 506 0122 00000000 		.4byte	0x0
ARM GAS  C:\Users\DNIEL~1\AppData\Local\Temp\cc0CNsVc.s 			page 10


 507 0126 00000000 		.4byte	0x0
 508              	.LLST8:
 509 012a 00000000 		.4byte	.LFB57
 510 012e 02000000 		.4byte	.LCFI9
 511 0132 0200     		.2byte	0x2
 512 0134 7D       		.byte	0x7d
 513 0135 00       		.sleb128 0
 514 0136 02000000 		.4byte	.LCFI9
 515 013a 04000000 		.4byte	.LCFI10
 516 013e 0200     		.2byte	0x2
 517 0140 7D       		.byte	0x7d
 518 0141 04       		.sleb128 4
 519 0142 04000000 		.4byte	.LCFI10
 520 0146 1E000000 		.4byte	.LFE57
 521 014a 0200     		.2byte	0x2
 522 014c 7D       		.byte	0x7d
 523 014d 10       		.sleb128 16
 524 014e 00000000 		.4byte	0x0
 525 0152 00000000 		.4byte	0x0
 526              	.LLST9:
 527 0156 00000000 		.4byte	.LFB56
 528 015a 02000000 		.4byte	.LCFI11
 529 015e 0200     		.2byte	0x2
 530 0160 7D       		.byte	0x7d
 531 0161 00       		.sleb128 0
 532 0162 02000000 		.4byte	.LCFI11
 533 0166 04000000 		.4byte	.LCFI12
 534 016a 0200     		.2byte	0x2
 535 016c 7D       		.byte	0x7d
 536 016d 04       		.sleb128 4
 537 016e 04000000 		.4byte	.LCFI12
 538 0172 1E000000 		.4byte	.LFE56
 539 0176 0200     		.2byte	0x2
 540 0178 7D       		.byte	0x7d
 541 0179 10       		.sleb128 16
 542 017a 00000000 		.4byte	0x0
 543 017e 00000000 		.4byte	0x0
 544              	.LLST10:
 545 0182 00000000 		.4byte	.LFB63
 546 0186 02000000 		.4byte	.LCFI13
 547 018a 0200     		.2byte	0x2
 548 018c 7D       		.byte	0x7d
 549 018d 00       		.sleb128 0
 550 018e 02000000 		.4byte	.LCFI13
 551 0192 04000000 		.4byte	.LCFI14
 552 0196 0200     		.2byte	0x2
 553 0198 7D       		.byte	0x7d
 554 0199 08       		.sleb128 8
 555 019a 04000000 		.4byte	.LCFI14
 556 019e 24000000 		.4byte	.LFE63
 557 01a2 0200     		.2byte	0x2
 558 01a4 7D       		.byte	0x7d
 559 01a5 10       		.sleb128 16
 560 01a6 00000000 		.4byte	0x0
 561 01aa 00000000 		.4byte	0x0
 562              		.file 2 "c:\\program files (x86)\\codesourcery\\sourcery g++ lite\\bin\\../lib/gcc/arm-none-eabi/4
 563              		.file 3 "c:\\program files (x86)\\codesourcery\\sourcery g++ lite\\bin\\../lib/gcc/arm-none-eabi/4
ARM GAS  C:\Users\DNIEL~1\AppData\Local\Temp\cc0CNsVc.s 			page 11


 564              		.file 4 "../../../ChibiOS/os/ports/GCC/ARMCMx/chtypes.h"
 565              		.file 5 "../../../ChibiOS/os/kernel/include/chlists.h"
 566              		.file 6 "../../../ChibiOS/os/kernel/include/chthreads.h"
 567              		.file 7 "../../../ChibiOS/os/ports/GCC/ARMCMx/chcore_v7m.h"
 568              		.file 8 "../../../ChibiOS/os/kernel/include/chmtx.h"
 569              		.file 9 "../../../ChibiOS/os/hal/platforms/STM32F1xx/stm32f10x.h"
 570              		.file 10 "../../../ChibiOS/os/hal/platforms/STM32F1xx/stm32_dma.h"
 571              		.file 11 "../../../ChibiOS/os/hal/platforms/STM32/GPIOv1/pal_lld.h"
 572              		.file 12 "../../../ChibiOS/os/hal/include/spi.h"
 573              		.file 13 "../../../ChibiOS/os/hal/platforms/STM32/SPIv1/spi_lld.h"
 574              		.file 14 "../../../ChibiOS/os/ports/common/ARMCMx/CMSIS/include/core_cm3.h"
 575              		.section	.debug_info
 576 0000 2A0A0000 		.4byte	0xa2a
 577 0004 0200     		.2byte	0x2
 578 0006 00000000 		.4byte	.Ldebug_abbrev0
 579 000a 04       		.byte	0x4
 580 000b 01       		.uleb128 0x1
 581 000c 8F040000 		.4byte	.LASF120
 582 0010 01       		.byte	0x1
 583 0011 33000000 		.4byte	.LASF121
 584 0015 48000000 		.4byte	.LASF122
 585 0019 00000000 		.4byte	0x0
 586 001d 00000000 		.4byte	0x0
 587 0021 00000000 		.4byte	.Ldebug_ranges0+0x0
 588 0025 00000000 		.4byte	.Ldebug_line0
 589 0029 02       		.uleb128 0x2
 590 002a 04       		.byte	0x4
 591 002b 05       		.byte	0x5
 592 002c 696E7400 		.ascii	"int\000"
 593 0030 03       		.uleb128 0x3
 594 0031 0E000000 		.4byte	.LASF2
 595 0035 02       		.byte	0x2
 596 0036 D3       		.byte	0xd3
 597 0037 3B000000 		.4byte	0x3b
 598 003b 04       		.uleb128 0x4
 599 003c 04       		.byte	0x4
 600 003d 07       		.byte	0x7
 601 003e A0010000 		.4byte	.LASF0
 602 0042 04       		.uleb128 0x4
 603 0043 01       		.byte	0x1
 604 0044 06       		.byte	0x6
 605 0045 1C000000 		.4byte	.LASF1
 606 0049 03       		.uleb128 0x3
 607 004a 80040000 		.4byte	.LASF3
 608 004e 03       		.byte	0x3
 609 004f 2A       		.byte	0x2a
 610 0050 54000000 		.4byte	0x54
 611 0054 04       		.uleb128 0x4
 612 0055 01       		.byte	0x1
 613 0056 08       		.byte	0x8
 614 0057 22030000 		.4byte	.LASF4
 615 005b 04       		.uleb128 0x4
 616 005c 02       		.byte	0x2
 617 005d 05       		.byte	0x5
 618 005e 4F030000 		.4byte	.LASF5
 619 0062 03       		.uleb128 0x3
 620 0063 45010000 		.4byte	.LASF6
ARM GAS  C:\Users\DNIEL~1\AppData\Local\Temp\cc0CNsVc.s 			page 12


 621 0067 03       		.byte	0x3
 622 0068 36       		.byte	0x36
 623 0069 6D000000 		.4byte	0x6d
 624 006d 04       		.uleb128 0x4
 625 006e 02       		.byte	0x2
 626 006f 07       		.byte	0x7
 627 0070 F2010000 		.4byte	.LASF7
 628 0074 03       		.uleb128 0x3
 629 0075 1A030000 		.4byte	.LASF8
 630 0079 03       		.byte	0x3
 631 007a 4F       		.byte	0x4f
 632 007b 7F000000 		.4byte	0x7f
 633 007f 04       		.uleb128 0x4
 634 0080 04       		.byte	0x4
 635 0081 05       		.byte	0x5
 636 0082 22010000 		.4byte	.LASF9
 637 0086 03       		.uleb128 0x3
 638 0087 B6030000 		.4byte	.LASF10
 639 008b 03       		.byte	0x3
 640 008c 50       		.byte	0x50
 641 008d 91000000 		.4byte	0x91
 642 0091 04       		.uleb128 0x4
 643 0092 04       		.byte	0x4
 644 0093 07       		.byte	0x7
 645 0094 DA030000 		.4byte	.LASF11
 646 0098 04       		.uleb128 0x4
 647 0099 08       		.byte	0x8
 648 009a 05       		.byte	0x5
 649 009b DF000000 		.4byte	.LASF12
 650 009f 04       		.uleb128 0x4
 651 00a0 08       		.byte	0x8
 652 00a1 07       		.byte	0x7
 653 00a2 8D000000 		.4byte	.LASF13
 654 00a6 04       		.uleb128 0x4
 655 00a7 01       		.byte	0x1
 656 00a8 02       		.byte	0x2
 657 00a9 14030000 		.4byte	.LASF14
 658 00ad 03       		.uleb128 0x3
 659 00ae 22020000 		.4byte	.LASF15
 660 00b2 04       		.byte	0x4
 661 00b3 2C       		.byte	0x2c
 662 00b4 49000000 		.4byte	0x49
 663 00b8 03       		.uleb128 0x3
 664 00b9 2B010000 		.4byte	.LASF16
 665 00bd 04       		.byte	0x4
 666 00be 2D       		.byte	0x2d
 667 00bf 49000000 		.4byte	0x49
 668 00c3 03       		.uleb128 0x3
 669 00c4 06000000 		.4byte	.LASF17
 670 00c8 04       		.byte	0x4
 671 00c9 2E       		.byte	0x2e
 672 00ca 49000000 		.4byte	0x49
 673 00ce 03       		.uleb128 0x3
 674 00cf 12010000 		.4byte	.LASF18
 675 00d3 04       		.byte	0x4
 676 00d4 2F       		.byte	0x2f
 677 00d5 49000000 		.4byte	0x49
ARM GAS  C:\Users\DNIEL~1\AppData\Local\Temp\cc0CNsVc.s 			page 13


 678 00d9 03       		.uleb128 0x3
 679 00da 06030000 		.4byte	.LASF19
 680 00de 04       		.byte	0x4
 681 00df 30       		.byte	0x30
 682 00e0 86000000 		.4byte	0x86
 683 00e4 03       		.uleb128 0x3
 684 00e5 11020000 		.4byte	.LASF20
 685 00e9 04       		.byte	0x4
 686 00ea 31       		.byte	0x31
 687 00eb 74000000 		.4byte	0x74
 688 00ef 03       		.uleb128 0x3
 689 00f0 36020000 		.4byte	.LASF21
 690 00f4 04       		.byte	0x4
 691 00f5 33       		.byte	0x33
 692 00f6 86000000 		.4byte	0x86
 693 00fa 03       		.uleb128 0x3
 694 00fb 23040000 		.4byte	.LASF22
 695 00ff 04       		.byte	0x4
 696 0100 35       		.byte	0x35
 697 0101 86000000 		.4byte	0x86
 698 0105 03       		.uleb128 0x3
 699 0106 4F020000 		.4byte	.LASF23
 700 010a 05       		.byte	0x5
 701 010b 2A       		.byte	0x2a
 702 010c 10010000 		.4byte	0x110
 703 0110 05       		.uleb128 0x5
 704 0111 4F020000 		.4byte	.LASF23
 705 0115 48       		.byte	0x48
 706 0116 06       		.byte	0x6
 707 0117 5E       		.byte	0x5e
 708 0118 35020000 		.4byte	0x235
 709 011c 06       		.uleb128 0x6
 710 011d 85030000 		.4byte	.LASF24
 711 0121 06       		.byte	0x6
 712 0122 5F       		.byte	0x5f
 713 0123 5A020000 		.4byte	0x25a
 714 0127 02       		.byte	0x2
 715 0128 23       		.byte	0x23
 716 0129 00       		.uleb128 0x0
 717 012a 06       		.uleb128 0x6
 718 012b E1020000 		.4byte	.LASF25
 719 012f 06       		.byte	0x6
 720 0130 61       		.byte	0x61
 721 0131 5A020000 		.4byte	0x25a
 722 0135 02       		.byte	0x2
 723 0136 23       		.byte	0x23
 724 0137 04       		.uleb128 0x4
 725 0138 06       		.uleb128 0x6
 726 0139 D8000000 		.4byte	.LASF26
 727 013d 06       		.byte	0x6
 728 013e 63       		.byte	0x63
 729 013f D9000000 		.4byte	0xd9
 730 0143 02       		.byte	0x2
 731 0144 23       		.byte	0x23
 732 0145 08       		.uleb128 0x8
 733 0146 06       		.uleb128 0x6
 734 0147 BA040000 		.4byte	.LASF27
ARM GAS  C:\Users\DNIEL~1\AppData\Local\Temp\cc0CNsVc.s 			page 14


 735 014b 06       		.byte	0x6
 736 014c 64       		.byte	0x64
 737 014d 28030000 		.4byte	0x328
 738 0151 02       		.byte	0x2
 739 0152 23       		.byte	0x23
 740 0153 0C       		.uleb128 0xc
 741 0154 06       		.uleb128 0x6
 742 0155 4E010000 		.4byte	.LASF28
 743 0159 06       		.byte	0x6
 744 015a 66       		.byte	0x66
 745 015b 5A020000 		.4byte	0x25a
 746 015f 02       		.byte	0x2
 747 0160 23       		.byte	0x23
 748 0161 10       		.uleb128 0x10
 749 0162 06       		.uleb128 0x6
 750 0163 75020000 		.4byte	.LASF29
 751 0167 06       		.byte	0x6
 752 0168 67       		.byte	0x67
 753 0169 5A020000 		.4byte	0x25a
 754 016d 02       		.byte	0x2
 755 016e 23       		.byte	0x23
 756 016f 14       		.uleb128 0x14
 757 0170 06       		.uleb128 0x6
 758 0171 9B040000 		.4byte	.LASF30
 759 0175 06       		.byte	0x6
 760 0176 6E       		.byte	0x6e
 761 0177 D2030000 		.4byte	0x3d2
 762 017b 02       		.byte	0x2
 763 017c 23       		.byte	0x23
 764 017d 18       		.uleb128 0x18
 765 017e 06       		.uleb128 0x6
 766 017f 59030000 		.4byte	.LASF31
 767 0183 06       		.byte	0x6
 768 0184 79       		.byte	0x79
 769 0185 B8000000 		.4byte	0xb8
 770 0189 02       		.byte	0x2
 771 018a 23       		.byte	0x23
 772 018b 1C       		.uleb128 0x1c
 773 018c 06       		.uleb128 0x6
 774 018d 8C030000 		.4byte	.LASF32
 775 0191 06       		.byte	0x6
 776 0192 7D       		.byte	0x7d
 777 0193 AD000000 		.4byte	0xad
 778 0197 02       		.byte	0x2
 779 0198 23       		.byte	0x23
 780 0199 1D       		.uleb128 0x1d
 781 019a 06       		.uleb128 0x6
 782 019b 67040000 		.4byte	.LASF33
 783 019f 06       		.byte	0x6
 784 01a0 82       		.byte	0x82
 785 01a1 C3000000 		.4byte	0xc3
 786 01a5 02       		.byte	0x2
 787 01a6 23       		.byte	0x23
 788 01a7 1E       		.uleb128 0x1e
 789 01a8 06       		.uleb128 0x6
 790 01a9 74030000 		.4byte	.LASF34
 791 01ad 06       		.byte	0x6
ARM GAS  C:\Users\DNIEL~1\AppData\Local\Temp\cc0CNsVc.s 			page 15


 792 01ae 88       		.byte	0x88
 793 01af CE000000 		.4byte	0xce
 794 01b3 02       		.byte	0x2
 795 01b4 23       		.byte	0x23
 796 01b5 1F       		.uleb128 0x1f
 797 01b6 06       		.uleb128 0x6
 798 01b7 B3010000 		.4byte	.LASF35
 799 01bb 06       		.byte	0x6
 800 01bc 8F       		.byte	0x8f
 801 01bd 50030000 		.4byte	0x350
 802 01c1 02       		.byte	0x2
 803 01c2 23       		.byte	0x23
 804 01c3 20       		.uleb128 0x20
 805 01c4 07       		.uleb128 0x7
 806 01c5 705F7500 		.ascii	"p_u\000"
 807 01c9 06       		.byte	0x6
 808 01ca B4       		.byte	0xb4
 809 01cb 9D030000 		.4byte	0x39d
 810 01cf 02       		.byte	0x2
 811 01d0 23       		.byte	0x23
 812 01d1 24       		.uleb128 0x24
 813 01d2 06       		.uleb128 0x6
 814 01d3 C0040000 		.4byte	.LASF36
 815 01d7 06       		.byte	0x6
 816 01d8 B9       		.byte	0xb9
 817 01d9 82020000 		.4byte	0x282
 818 01dd 02       		.byte	0x2
 819 01de 23       		.byte	0x23
 820 01df 28       		.uleb128 0x28
 821 01e0 06       		.uleb128 0x6
 822 01e1 BF010000 		.4byte	.LASF37
 823 01e5 06       		.byte	0x6
 824 01e6 BF       		.byte	0xbf
 825 01e7 60020000 		.4byte	0x260
 826 01eb 02       		.byte	0x2
 827 01ec 23       		.byte	0x23
 828 01ed 2C       		.uleb128 0x2c
 829 01ee 06       		.uleb128 0x6
 830 01ef AC040000 		.4byte	.LASF38
 831 01f3 06       		.byte	0x6
 832 01f4 C3       		.byte	0xc3
 833 01f5 E4000000 		.4byte	0xe4
 834 01f9 02       		.byte	0x2
 835 01fa 23       		.byte	0x23
 836 01fb 34       		.uleb128 0x34
 837 01fc 06       		.uleb128 0x6
 838 01fd 9C030000 		.4byte	.LASF39
 839 0201 06       		.byte	0x6
 840 0202 C9       		.byte	0xc9
 841 0203 EF000000 		.4byte	0xef
 842 0207 02       		.byte	0x2
 843 0208 23       		.byte	0x23
 844 0209 38       		.uleb128 0x38
 845 020a 06       		.uleb128 0x6
 846 020b 45030000 		.4byte	.LASF40
 847 020f 06       		.byte	0x6
 848 0210 D0       		.byte	0xd0
ARM GAS  C:\Users\DNIEL~1\AppData\Local\Temp\cc0CNsVc.s 			page 16


 849 0211 E4030000 		.4byte	0x3e4
 850 0215 02       		.byte	0x2
 851 0216 23       		.byte	0x23
 852 0217 3C       		.uleb128 0x3c
 853 0218 06       		.uleb128 0x6
 854 0219 2D040000 		.4byte	.LASF41
 855 021d 06       		.byte	0x6
 856 021e D4       		.byte	0xd4
 857 021f D9000000 		.4byte	0xd9
 858 0223 02       		.byte	0x2
 859 0224 23       		.byte	0x23
 860 0225 40       		.uleb128 0x40
 861 0226 06       		.uleb128 0x6
 862 0227 02010000 		.4byte	.LASF42
 863 022b 06       		.byte	0x6
 864 022c DA       		.byte	0xda
 865 022d 98020000 		.4byte	0x298
 866 0231 02       		.byte	0x2
 867 0232 23       		.byte	0x23
 868 0233 44       		.uleb128 0x44
 869 0234 00       		.byte	0x0
 870 0235 08       		.uleb128 0x8
 871 0236 08       		.byte	0x8
 872 0237 05       		.byte	0x5
 873 0238 61       		.byte	0x61
 874 0239 5A020000 		.4byte	0x25a
 875 023d 06       		.uleb128 0x6
 876 023e 85030000 		.4byte	.LASF24
 877 0242 05       		.byte	0x5
 878 0243 62       		.byte	0x62
 879 0244 5A020000 		.4byte	0x25a
 880 0248 02       		.byte	0x2
 881 0249 23       		.byte	0x23
 882 024a 00       		.uleb128 0x0
 883 024b 06       		.uleb128 0x6
 884 024c E1020000 		.4byte	.LASF25
 885 0250 05       		.byte	0x5
 886 0251 64       		.byte	0x64
 887 0252 5A020000 		.4byte	0x25a
 888 0256 02       		.byte	0x2
 889 0257 23       		.byte	0x23
 890 0258 04       		.uleb128 0x4
 891 0259 00       		.byte	0x0
 892 025a 09       		.uleb128 0x9
 893 025b 04       		.byte	0x4
 894 025c 05010000 		.4byte	0x105
 895 0260 03       		.uleb128 0x3
 896 0261 7D020000 		.4byte	.LASF43
 897 0265 05       		.byte	0x5
 898 0266 66       		.byte	0x66
 899 0267 35020000 		.4byte	0x235
 900 026b 08       		.uleb128 0x8
 901 026c 04       		.byte	0x4
 902 026d 05       		.byte	0x5
 903 026e 6B       		.byte	0x6b
 904 026f 82020000 		.4byte	0x282
 905 0273 06       		.uleb128 0x6
ARM GAS  C:\Users\DNIEL~1\AppData\Local\Temp\cc0CNsVc.s 			page 17


 906 0274 85030000 		.4byte	.LASF24
 907 0278 05       		.byte	0x5
 908 0279 6D       		.byte	0x6d
 909 027a 5A020000 		.4byte	0x25a
 910 027e 02       		.byte	0x2
 911 027f 23       		.byte	0x23
 912 0280 00       		.uleb128 0x0
 913 0281 00       		.byte	0x0
 914 0282 03       		.uleb128 0x3
 915 0283 2A020000 		.4byte	.LASF44
 916 0287 05       		.byte	0x5
 917 0288 70       		.byte	0x70
 918 0289 6B020000 		.4byte	0x26b
 919 028d 03       		.uleb128 0x3
 920 028e 71010000 		.4byte	.LASF45
 921 0292 07       		.byte	0x7
 922 0293 E5       		.byte	0xe5
 923 0294 98020000 		.4byte	0x298
 924 0298 0A       		.uleb128 0xa
 925 0299 04       		.byte	0x4
 926 029a 0B       		.uleb128 0xb
 927 029b 4B040000 		.4byte	.LASF46
 928 029f 24       		.byte	0x24
 929 02a0 07       		.byte	0x7
 930 02a1 0C01     		.2byte	0x10c
 931 02a3 28030000 		.4byte	0x328
 932 02a7 0C       		.uleb128 0xc
 933 02a8 723400   		.ascii	"r4\000"
 934 02ab 07       		.byte	0x7
 935 02ac 1F01     		.2byte	0x11f
 936 02ae 8D020000 		.4byte	0x28d
 937 02b2 02       		.byte	0x2
 938 02b3 23       		.byte	0x23
 939 02b4 00       		.uleb128 0x0
 940 02b5 0C       		.uleb128 0xc
 941 02b6 723500   		.ascii	"r5\000"
 942 02b9 07       		.byte	0x7
 943 02ba 2001     		.2byte	0x120
 944 02bc 8D020000 		.4byte	0x28d
 945 02c0 02       		.byte	0x2
 946 02c1 23       		.byte	0x23
 947 02c2 04       		.uleb128 0x4
 948 02c3 0C       		.uleb128 0xc
 949 02c4 723600   		.ascii	"r6\000"
 950 02c7 07       		.byte	0x7
 951 02c8 2101     		.2byte	0x121
 952 02ca 8D020000 		.4byte	0x28d
 953 02ce 02       		.byte	0x2
 954 02cf 23       		.byte	0x23
 955 02d0 08       		.uleb128 0x8
 956 02d1 0C       		.uleb128 0xc
 957 02d2 723700   		.ascii	"r7\000"
 958 02d5 07       		.byte	0x7
 959 02d6 2201     		.2byte	0x122
 960 02d8 8D020000 		.4byte	0x28d
 961 02dc 02       		.byte	0x2
 962 02dd 23       		.byte	0x23
ARM GAS  C:\Users\DNIEL~1\AppData\Local\Temp\cc0CNsVc.s 			page 18


 963 02de 0C       		.uleb128 0xc
 964 02df 0C       		.uleb128 0xc
 965 02e0 723800   		.ascii	"r8\000"
 966 02e3 07       		.byte	0x7
 967 02e4 2301     		.2byte	0x123
 968 02e6 8D020000 		.4byte	0x28d
 969 02ea 02       		.byte	0x2
 970 02eb 23       		.byte	0x23
 971 02ec 10       		.uleb128 0x10
 972 02ed 0C       		.uleb128 0xc
 973 02ee 723900   		.ascii	"r9\000"
 974 02f1 07       		.byte	0x7
 975 02f2 2401     		.2byte	0x124
 976 02f4 8D020000 		.4byte	0x28d
 977 02f8 02       		.byte	0x2
 978 02f9 23       		.byte	0x23
 979 02fa 14       		.uleb128 0x14
 980 02fb 0C       		.uleb128 0xc
 981 02fc 72313000 		.ascii	"r10\000"
 982 0300 07       		.byte	0x7
 983 0301 2501     		.2byte	0x125
 984 0303 8D020000 		.4byte	0x28d
 985 0307 02       		.byte	0x2
 986 0308 23       		.byte	0x23
 987 0309 18       		.uleb128 0x18
 988 030a 0C       		.uleb128 0xc
 989 030b 72313100 		.ascii	"r11\000"
 990 030f 07       		.byte	0x7
 991 0310 2601     		.2byte	0x126
 992 0312 8D020000 		.4byte	0x28d
 993 0316 02       		.byte	0x2
 994 0317 23       		.byte	0x23
 995 0318 1C       		.uleb128 0x1c
 996 0319 0C       		.uleb128 0xc
 997 031a 6C7200   		.ascii	"lr\000"
 998 031d 07       		.byte	0x7
 999 031e 2701     		.2byte	0x127
 1000 0320 8D020000 		.4byte	0x28d
 1001 0324 02       		.byte	0x2
 1002 0325 23       		.byte	0x23
 1003 0326 20       		.uleb128 0x20
 1004 0327 00       		.byte	0x0
 1005 0328 0B       		.uleb128 0xb
 1006 0329 43040000 		.4byte	.LASF47
 1007 032d 04       		.byte	0x4
 1008 032e 07       		.byte	0x7
 1009 032f 3101     		.2byte	0x131
 1010 0331 45030000 		.4byte	0x345
 1011 0335 0C       		.uleb128 0xc
 1012 0336 72313300 		.ascii	"r13\000"
 1013 033a 07       		.byte	0x7
 1014 033b 3201     		.2byte	0x132
 1015 033d 45030000 		.4byte	0x345
 1016 0341 02       		.byte	0x2
 1017 0342 23       		.byte	0x23
 1018 0343 00       		.uleb128 0x0
 1019 0344 00       		.byte	0x0
ARM GAS  C:\Users\DNIEL~1\AppData\Local\Temp\cc0CNsVc.s 			page 19


 1020 0345 09       		.uleb128 0x9
 1021 0346 04       		.byte	0x4
 1022 0347 9A020000 		.4byte	0x29a
 1023 034b 0D       		.uleb128 0xd
 1024 034c 86000000 		.4byte	0x86
 1025 0350 0D       		.uleb128 0xd
 1026 0351 FA000000 		.4byte	0xfa
 1027 0355 05       		.uleb128 0x5
 1028 0356 67020000 		.4byte	.LASF48
 1029 035a 10       		.byte	0x10
 1030 035b 08       		.byte	0x8
 1031 035c 2C       		.byte	0x2c
 1032 035d 8C030000 		.4byte	0x38c
 1033 0361 06       		.uleb128 0x6
 1034 0362 0A010000 		.4byte	.LASF49
 1035 0366 08       		.byte	0x8
 1036 0367 2D       		.byte	0x2d
 1037 0368 60020000 		.4byte	0x260
 1038 036c 02       		.byte	0x2
 1039 036d 23       		.byte	0x23
 1040 036e 00       		.uleb128 0x0
 1041 036f 06       		.uleb128 0x6
 1042 0370 B2040000 		.4byte	.LASF50
 1043 0374 08       		.byte	0x8
 1044 0375 2F       		.byte	0x2f
 1045 0376 5A020000 		.4byte	0x25a
 1046 037a 02       		.byte	0x2
 1047 037b 23       		.byte	0x23
 1048 037c 08       		.uleb128 0x8
 1049 037d 06       		.uleb128 0x6
 1050 037e 1C040000 		.4byte	.LASF51
 1051 0382 08       		.byte	0x8
 1052 0383 31       		.byte	0x31
 1053 0384 8C030000 		.4byte	0x38c
 1054 0388 02       		.byte	0x2
 1055 0389 23       		.byte	0x23
 1056 038a 0C       		.uleb128 0xc
 1057 038b 00       		.byte	0x0
 1058 038c 09       		.uleb128 0x9
 1059 038d 04       		.byte	0x4
 1060 038e 55030000 		.4byte	0x355
 1061 0392 03       		.uleb128 0x3
 1062 0393 67020000 		.4byte	.LASF48
 1063 0397 08       		.byte	0x8
 1064 0398 33       		.byte	0x33
 1065 0399 55030000 		.4byte	0x355
 1066 039d 0E       		.uleb128 0xe
 1067 039e 04       		.byte	0x4
 1068 039f 06       		.byte	0x6
 1069 03a0 96       		.byte	0x96
 1070 03a1 D2030000 		.4byte	0x3d2
 1071 03a5 0F       		.uleb128 0xf
 1072 03a6 15000000 		.4byte	.LASF52
 1073 03aa 06       		.byte	0x6
 1074 03ab 9D       		.byte	0x9d
 1075 03ac E4000000 		.4byte	0xe4
 1076 03b0 0F       		.uleb128 0xf
ARM GAS  C:\Users\DNIEL~1\AppData\Local\Temp\cc0CNsVc.s 			page 20


 1077 03b1 AA000000 		.4byte	.LASF53
 1078 03b5 06       		.byte	0x6
 1079 03b6 A4       		.byte	0xa4
 1080 03b7 E4000000 		.4byte	0xe4
 1081 03bb 0F       		.uleb128 0xf
 1082 03bc 88040000 		.4byte	.LASF54
 1083 03c0 06       		.byte	0x6
 1084 03c1 AB       		.byte	0xab
 1085 03c2 98020000 		.4byte	0x298
 1086 03c6 0F       		.uleb128 0xf
 1087 03c7 7E030000 		.4byte	.LASF55
 1088 03cb 06       		.byte	0x6
 1089 03cc B2       		.byte	0xb2
 1090 03cd EF000000 		.4byte	0xef
 1091 03d1 00       		.byte	0x0
 1092 03d2 09       		.uleb128 0x9
 1093 03d3 04       		.byte	0x4
 1094 03d4 D8030000 		.4byte	0x3d8
 1095 03d8 10       		.uleb128 0x10
 1096 03d9 DD030000 		.4byte	0x3dd
 1097 03dd 04       		.uleb128 0x4
 1098 03de 01       		.byte	0x1
 1099 03df 08       		.byte	0x8
 1100 03e0 F8030000 		.4byte	.LASF56
 1101 03e4 09       		.uleb128 0x9
 1102 03e5 04       		.byte	0x4
 1103 03e6 92030000 		.4byte	0x392
 1104 03ea 09       		.uleb128 0x9
 1105 03eb 04       		.byte	0x4
 1106 03ec 49000000 		.4byte	0x49
 1107 03f0 0D       		.uleb128 0xd
 1108 03f1 62000000 		.4byte	0x62
 1109 03f5 0D       		.uleb128 0xd
 1110 03f6 74000000 		.4byte	0x74
 1111 03fa 11       		.uleb128 0x11
 1112 03fb 10       		.byte	0x10
 1113 03fc 09       		.byte	0x9
 1114 03fd 2D03     		.2byte	0x32d
 1115 03ff 40040000 		.4byte	0x440
 1116 0403 0C       		.uleb128 0xc
 1117 0404 43435200 		.ascii	"CCR\000"
 1118 0408 09       		.byte	0x9
 1119 0409 2F03     		.2byte	0x32f
 1120 040b 4B030000 		.4byte	0x34b
 1121 040f 02       		.byte	0x2
 1122 0410 23       		.byte	0x23
 1123 0411 00       		.uleb128 0x0
 1124 0412 12       		.uleb128 0x12
 1125 0413 6E040000 		.4byte	.LASF57
 1126 0417 09       		.byte	0x9
 1127 0418 3003     		.2byte	0x330
 1128 041a 4B030000 		.4byte	0x34b
 1129 041e 02       		.byte	0x2
 1130 041f 23       		.byte	0x23
 1131 0420 04       		.uleb128 0x4
 1132 0421 12       		.uleb128 0x12
 1133 0422 BA010000 		.4byte	.LASF58
ARM GAS  C:\Users\DNIEL~1\AppData\Local\Temp\cc0CNsVc.s 			page 21


 1134 0426 09       		.byte	0x9
 1135 0427 3103     		.2byte	0x331
 1136 0429 4B030000 		.4byte	0x34b
 1137 042d 02       		.byte	0x2
 1138 042e 23       		.byte	0x23
 1139 042f 08       		.uleb128 0x8
 1140 0430 12       		.uleb128 0x12
 1141 0431 74040000 		.4byte	.LASF59
 1142 0435 09       		.byte	0x9
 1143 0436 3203     		.2byte	0x332
 1144 0438 4B030000 		.4byte	0x34b
 1145 043c 02       		.byte	0x2
 1146 043d 23       		.byte	0x23
 1147 043e 0C       		.uleb128 0xc
 1148 043f 00       		.byte	0x0
 1149 0440 13       		.uleb128 0x13
 1150 0441 94020000 		.4byte	.LASF60
 1151 0445 09       		.byte	0x9
 1152 0446 3303     		.2byte	0x333
 1153 0448 FA030000 		.4byte	0x3fa
 1154 044c 11       		.uleb128 0x11
 1155 044d 1C       		.byte	0x1c
 1156 044e 09       		.byte	0x9
 1157 044f F803     		.2byte	0x3f8
 1158 0451 BF040000 		.4byte	0x4bf
 1159 0455 0C       		.uleb128 0xc
 1160 0456 43524C00 		.ascii	"CRL\000"
 1161 045a 09       		.byte	0x9
 1162 045b FA03     		.2byte	0x3fa
 1163 045d 4B030000 		.4byte	0x34b
 1164 0461 02       		.byte	0x2
 1165 0462 23       		.byte	0x23
 1166 0463 00       		.uleb128 0x0
 1167 0464 0C       		.uleb128 0xc
 1168 0465 43524800 		.ascii	"CRH\000"
 1169 0469 09       		.byte	0x9
 1170 046a FB03     		.2byte	0x3fb
 1171 046c 4B030000 		.4byte	0x34b
 1172 0470 02       		.byte	0x2
 1173 0471 23       		.byte	0x23
 1174 0472 04       		.uleb128 0x4
 1175 0473 0C       		.uleb128 0xc
 1176 0474 49445200 		.ascii	"IDR\000"
 1177 0478 09       		.byte	0x9
 1178 0479 FC03     		.2byte	0x3fc
 1179 047b 4B030000 		.4byte	0x34b
 1180 047f 02       		.byte	0x2
 1181 0480 23       		.byte	0x23
 1182 0481 08       		.uleb128 0x8
 1183 0482 0C       		.uleb128 0xc
 1184 0483 4F445200 		.ascii	"ODR\000"
 1185 0487 09       		.byte	0x9
 1186 0488 FD03     		.2byte	0x3fd
 1187 048a 4B030000 		.4byte	0x34b
 1188 048e 02       		.byte	0x2
 1189 048f 23       		.byte	0x23
 1190 0490 0C       		.uleb128 0xc
ARM GAS  C:\Users\DNIEL~1\AppData\Local\Temp\cc0CNsVc.s 			page 22


 1191 0491 12       		.uleb128 0x12
 1192 0492 ED000000 		.4byte	.LASF61
 1193 0496 09       		.byte	0x9
 1194 0497 FE03     		.2byte	0x3fe
 1195 0499 4B030000 		.4byte	0x34b
 1196 049d 02       		.byte	0x2
 1197 049e 23       		.byte	0x23
 1198 049f 10       		.uleb128 0x10
 1199 04a0 0C       		.uleb128 0xc
 1200 04a1 42525200 		.ascii	"BRR\000"
 1201 04a5 09       		.byte	0x9
 1202 04a6 FF03     		.2byte	0x3ff
 1203 04a8 4B030000 		.4byte	0x34b
 1204 04ac 02       		.byte	0x2
 1205 04ad 23       		.byte	0x23
 1206 04ae 14       		.uleb128 0x14
 1207 04af 12       		.uleb128 0x12
 1208 04b0 E6010000 		.4byte	.LASF62
 1209 04b4 09       		.byte	0x9
 1210 04b5 0004     		.2byte	0x400
 1211 04b7 4B030000 		.4byte	0x34b
 1212 04bb 02       		.byte	0x2
 1213 04bc 23       		.byte	0x23
 1214 04bd 18       		.uleb128 0x18
 1215 04be 00       		.byte	0x0
 1216 04bf 13       		.uleb128 0x13
 1217 04c0 CA010000 		.4byte	.LASF63
 1218 04c4 09       		.byte	0x9
 1219 04c5 0104     		.2byte	0x401
 1220 04c7 4C040000 		.4byte	0x44c
 1221 04cb 11       		.uleb128 0x11
 1222 04cc 24       		.byte	0x24
 1223 04cd 09       		.byte	0x9
 1224 04ce 9704     		.2byte	0x497
 1225 04d0 E1050000 		.4byte	0x5e1
 1226 04d4 0C       		.uleb128 0xc
 1227 04d5 43523100 		.ascii	"CR1\000"
 1228 04d9 09       		.byte	0x9
 1229 04da 9904     		.2byte	0x499
 1230 04dc F0030000 		.4byte	0x3f0
 1231 04e0 02       		.byte	0x2
 1232 04e1 23       		.byte	0x23
 1233 04e2 00       		.uleb128 0x0
 1234 04e3 12       		.uleb128 0x12
 1235 04e4 AF020000 		.4byte	.LASF64
 1236 04e8 09       		.byte	0x9
 1237 04e9 9A04     		.2byte	0x49a
 1238 04eb 62000000 		.4byte	0x62
 1239 04ef 02       		.byte	0x2
 1240 04f0 23       		.byte	0x23
 1241 04f1 02       		.uleb128 0x2
 1242 04f2 0C       		.uleb128 0xc
 1243 04f3 43523200 		.ascii	"CR2\000"
 1244 04f7 09       		.byte	0x9
 1245 04f8 9B04     		.2byte	0x49b
 1246 04fa F0030000 		.4byte	0x3f0
 1247 04fe 02       		.byte	0x2
ARM GAS  C:\Users\DNIEL~1\AppData\Local\Temp\cc0CNsVc.s 			page 23


 1248 04ff 23       		.byte	0x23
 1249 0500 04       		.uleb128 0x4
 1250 0501 12       		.uleb128 0x12
 1251 0502 B9020000 		.4byte	.LASF65
 1252 0506 09       		.byte	0x9
 1253 0507 9C04     		.2byte	0x49c
 1254 0509 62000000 		.4byte	0x62
 1255 050d 02       		.byte	0x2
 1256 050e 23       		.byte	0x23
 1257 050f 06       		.uleb128 0x6
 1258 0510 0C       		.uleb128 0xc
 1259 0511 535200   		.ascii	"SR\000"
 1260 0514 09       		.byte	0x9
 1261 0515 9D04     		.2byte	0x49d
 1262 0517 F0030000 		.4byte	0x3f0
 1263 051b 02       		.byte	0x2
 1264 051c 23       		.byte	0x23
 1265 051d 08       		.uleb128 0x8
 1266 051e 12       		.uleb128 0x12
 1267 051f C3020000 		.4byte	.LASF66
 1268 0523 09       		.byte	0x9
 1269 0524 9E04     		.2byte	0x49e
 1270 0526 62000000 		.4byte	0x62
 1271 052a 02       		.byte	0x2
 1272 052b 23       		.byte	0x23
 1273 052c 0A       		.uleb128 0xa
 1274 052d 0C       		.uleb128 0xc
 1275 052e 445200   		.ascii	"DR\000"
 1276 0531 09       		.byte	0x9
 1277 0532 9F04     		.2byte	0x49f
 1278 0534 F0030000 		.4byte	0x3f0
 1279 0538 02       		.byte	0x2
 1280 0539 23       		.byte	0x23
 1281 053a 0C       		.uleb128 0xc
 1282 053b 12       		.uleb128 0x12
 1283 053c CD020000 		.4byte	.LASF67
 1284 0540 09       		.byte	0x9
 1285 0541 A004     		.2byte	0x4a0
 1286 0543 62000000 		.4byte	0x62
 1287 0547 02       		.byte	0x2
 1288 0548 23       		.byte	0x23
 1289 0549 0E       		.uleb128 0xe
 1290 054a 12       		.uleb128 0x12
 1291 054b A4000000 		.4byte	.LASF68
 1292 054f 09       		.byte	0x9
 1293 0550 A104     		.2byte	0x4a1
 1294 0552 F0030000 		.4byte	0x3f0
 1295 0556 02       		.byte	0x2
 1296 0557 23       		.byte	0x23
 1297 0558 10       		.uleb128 0x10
 1298 0559 12       		.uleb128 0x12
 1299 055a D7020000 		.4byte	.LASF69
 1300 055e 09       		.byte	0x9
 1301 055f A204     		.2byte	0x4a2
 1302 0561 62000000 		.4byte	0x62
 1303 0565 02       		.byte	0x2
 1304 0566 23       		.byte	0x23
ARM GAS  C:\Users\DNIEL~1\AppData\Local\Temp\cc0CNsVc.s 			page 24


 1305 0567 12       		.uleb128 0x12
 1306 0568 12       		.uleb128 0x12
 1307 0569 79040000 		.4byte	.LASF70
 1308 056d 09       		.byte	0x9
 1309 056e A304     		.2byte	0x4a3
 1310 0570 F0030000 		.4byte	0x3f0
 1311 0574 02       		.byte	0x2
 1312 0575 23       		.byte	0x23
 1313 0576 14       		.uleb128 0x14
 1314 0577 12       		.uleb128 0x12
 1315 0578 AC030000 		.4byte	.LASF71
 1316 057c 09       		.byte	0x9
 1317 057d A404     		.2byte	0x4a4
 1318 057f 62000000 		.4byte	0x62
 1319 0583 02       		.byte	0x2
 1320 0584 23       		.byte	0x23
 1321 0585 16       		.uleb128 0x16
 1322 0586 12       		.uleb128 0x12
 1323 0587 A8020000 		.4byte	.LASF72
 1324 058b 09       		.byte	0x9
 1325 058c A504     		.2byte	0x4a5
 1326 058e F0030000 		.4byte	0x3f0
 1327 0592 02       		.byte	0x2
 1328 0593 23       		.byte	0x23
 1329 0594 18       		.uleb128 0x18
 1330 0595 12       		.uleb128 0x12
 1331 0596 E8020000 		.4byte	.LASF73
 1332 059a 09       		.byte	0x9
 1333 059b A604     		.2byte	0x4a6
 1334 059d 62000000 		.4byte	0x62
 1335 05a1 02       		.byte	0x2
 1336 05a2 23       		.byte	0x23
 1337 05a3 1A       		.uleb128 0x1a
 1338 05a4 12       		.uleb128 0x12
 1339 05a5 6D020000 		.4byte	.LASF74
 1340 05a9 09       		.byte	0x9
 1341 05aa A704     		.2byte	0x4a7
 1342 05ac F0030000 		.4byte	0x3f0
 1343 05b0 02       		.byte	0x2
 1344 05b1 23       		.byte	0x23
 1345 05b2 1C       		.uleb128 0x1c
 1346 05b3 12       		.uleb128 0x12
 1347 05b4 F2020000 		.4byte	.LASF75
 1348 05b8 09       		.byte	0x9
 1349 05b9 A804     		.2byte	0x4a8
 1350 05bb 62000000 		.4byte	0x62
 1351 05bf 02       		.byte	0x2
 1352 05c0 23       		.byte	0x23
 1353 05c1 1E       		.uleb128 0x1e
 1354 05c2 12       		.uleb128 0x12
 1355 05c3 61020000 		.4byte	.LASF76
 1356 05c7 09       		.byte	0x9
 1357 05c8 A904     		.2byte	0x4a9
 1358 05ca F0030000 		.4byte	0x3f0
 1359 05ce 02       		.byte	0x2
 1360 05cf 23       		.byte	0x23
 1361 05d0 20       		.uleb128 0x20
ARM GAS  C:\Users\DNIEL~1\AppData\Local\Temp\cc0CNsVc.s 			page 25


 1362 05d1 12       		.uleb128 0x12
 1363 05d2 FC020000 		.4byte	.LASF77
 1364 05d6 09       		.byte	0x9
 1365 05d7 AA04     		.2byte	0x4aa
 1366 05d9 62000000 		.4byte	0x62
 1367 05dd 02       		.byte	0x2
 1368 05de 23       		.byte	0x23
 1369 05df 22       		.uleb128 0x22
 1370 05e0 00       		.byte	0x0
 1371 05e1 13       		.uleb128 0x13
 1372 05e2 EC030000 		.4byte	.LASF78
 1373 05e6 09       		.byte	0x9
 1374 05e7 AB04     		.2byte	0x4ab
 1375 05e9 CB040000 		.4byte	0x4cb
 1376 05ed 08       		.uleb128 0x8
 1377 05ee 0C       		.byte	0xc
 1378 05ef 0A       		.byte	0xa
 1379 05f0 C1       		.byte	0xc1
 1380 05f1 3C060000 		.4byte	0x63c
 1381 05f5 06       		.uleb128 0x6
 1382 05f6 94030000 		.4byte	.LASF79
 1383 05fa 0A       		.byte	0xa
 1384 05fb C2       		.byte	0xc2
 1385 05fc 3C060000 		.4byte	0x63c
 1386 0600 02       		.byte	0x2
 1387 0601 23       		.byte	0x23
 1388 0602 00       		.uleb128 0x0
 1389 0603 06       		.uleb128 0x6
 1390 0604 A7030000 		.4byte	.LASF80
 1391 0608 0A       		.byte	0xa
 1392 0609 C3       		.byte	0xc3
 1393 060a 42060000 		.4byte	0x642
 1394 060e 02       		.byte	0x2
 1395 060f 23       		.byte	0x23
 1396 0610 04       		.uleb128 0x4
 1397 0611 06       		.uleb128 0x6
 1398 0612 EB010000 		.4byte	.LASF81
 1399 0616 0A       		.byte	0xa
 1400 0617 C4       		.byte	0xc4
 1401 0618 49000000 		.4byte	0x49
 1402 061c 02       		.byte	0x2
 1403 061d 23       		.byte	0x23
 1404 061e 08       		.uleb128 0x8
 1405 061f 06       		.uleb128 0x6
 1406 0620 7A010000 		.4byte	.LASF82
 1407 0624 0A       		.byte	0xa
 1408 0625 C6       		.byte	0xc6
 1409 0626 49000000 		.4byte	0x49
 1410 062a 02       		.byte	0x2
 1411 062b 23       		.byte	0x23
 1412 062c 09       		.uleb128 0x9
 1413 062d 06       		.uleb128 0x6
 1414 062e B3000000 		.4byte	.LASF83
 1415 0632 0A       		.byte	0xa
 1416 0633 C7       		.byte	0xc7
 1417 0634 49000000 		.4byte	0x49
 1418 0638 02       		.byte	0x2
ARM GAS  C:\Users\DNIEL~1\AppData\Local\Temp\cc0CNsVc.s 			page 26


 1419 0639 23       		.byte	0x23
 1420 063a 0A       		.uleb128 0xa
 1421 063b 00       		.byte	0x0
 1422 063c 09       		.uleb128 0x9
 1423 063d 04       		.byte	0x4
 1424 063e 40040000 		.4byte	0x440
 1425 0642 09       		.uleb128 0x9
 1426 0643 04       		.byte	0x4
 1427 0644 4B030000 		.4byte	0x34b
 1428 0648 03       		.uleb128 0x3
 1429 0649 61030000 		.4byte	.LASF84
 1430 064d 0A       		.byte	0xa
 1431 064e C8       		.byte	0xc8
 1432 064f ED050000 		.4byte	0x5ed
 1433 0653 03       		.uleb128 0x3
 1434 0654 38040000 		.4byte	.LASF85
 1435 0658 0B       		.byte	0xb
 1436 0659 7A       		.byte	0x7a
 1437 065a 5E060000 		.4byte	0x65e
 1438 065e 09       		.uleb128 0x9
 1439 065f 04       		.byte	0x4
 1440 0660 BF040000 		.4byte	0x4bf
 1441 0664 09       		.uleb128 0x9
 1442 0665 04       		.byte	0x4
 1443 0666 6A060000 		.4byte	0x66a
 1444 066a 10       		.uleb128 0x10
 1445 066b 48060000 		.4byte	0x648
 1446 066f 14       		.uleb128 0x14
 1447 0670 01       		.byte	0x1
 1448 0671 0C       		.byte	0xc
 1449 0672 55       		.byte	0x55
 1450 0673 96060000 		.4byte	0x696
 1451 0677 15       		.uleb128 0x15
 1452 0678 5C040000 		.4byte	.LASF86
 1453 067c 00       		.sleb128 0
 1454 067d 15       		.uleb128 0x15
 1455 067e F9000000 		.4byte	.LASF87
 1456 0682 01       		.sleb128 1
 1457 0683 15       		.uleb128 0x15
 1458 0684 52040000 		.4byte	.LASF88
 1459 0688 02       		.sleb128 2
 1460 0689 15       		.uleb128 0x15
 1461 068a 28000000 		.4byte	.LASF89
 1462 068e 03       		.sleb128 3
 1463 068f 15       		.uleb128 0x15
 1464 0690 FD030000 		.4byte	.LASF90
 1465 0694 04       		.sleb128 4
 1466 0695 00       		.byte	0x0
 1467 0696 03       		.uleb128 0x3
 1468 0697 11040000 		.4byte	.LASF91
 1469 069b 0C       		.byte	0xc
 1470 069c 5B       		.byte	0x5b
 1471 069d 6F060000 		.4byte	0x66f
 1472 06a1 13       		.uleb128 0x13
 1473 06a2 BA000000 		.4byte	.LASF92
 1474 06a6 0D       		.byte	0xd
 1475 06a7 E701     		.2byte	0x1e7
ARM GAS  C:\Users\DNIEL~1\AppData\Local\Temp\cc0CNsVc.s 			page 27


 1476 06a9 AD060000 		.4byte	0x6ad
 1477 06ad 0B       		.uleb128 0xb
 1478 06ae BA000000 		.4byte	.LASF92
 1479 06b2 30       		.byte	0x30
 1480 06b3 0D       		.byte	0xd
 1481 06b4 0B02     		.2byte	0x20b
 1482 06b6 42070000 		.4byte	0x742
 1483 06ba 12       		.uleb128 0x12
 1484 06bb 1C010000 		.4byte	.LASF93
 1485 06bf 0D       		.byte	0xd
 1486 06c0 0F02     		.2byte	0x20f
 1487 06c2 96060000 		.4byte	0x696
 1488 06c6 02       		.byte	0x2
 1489 06c7 23       		.byte	0x23
 1490 06c8 00       		.uleb128 0x0
 1491 06c9 12       		.uleb128 0x12
 1492 06ca 0A040000 		.4byte	.LASF94
 1493 06ce 0D       		.byte	0xd
 1494 06cf 1302     		.2byte	0x213
 1495 06d1 B8070000 		.4byte	0x7b8
 1496 06d5 02       		.byte	0x2
 1497 06d6 23       		.byte	0x23
 1498 06d7 04       		.uleb128 0x4
 1499 06d8 12       		.uleb128 0x12
 1500 06d9 3E010000 		.4byte	.LASF95
 1501 06dd 0D       		.byte	0xd
 1502 06de 1802     		.2byte	0x218
 1503 06e0 5A020000 		.4byte	0x25a
 1504 06e4 02       		.byte	0x2
 1505 06e5 23       		.byte	0x23
 1506 06e6 08       		.uleb128 0x8
 1507 06e7 12       		.uleb128 0x12
 1508 06e8 0E030000 		.4byte	.LASF96
 1509 06ec 0D       		.byte	0xd
 1510 06ed 1F02     		.2byte	0x21f
 1511 06ef 92030000 		.4byte	0x392
 1512 06f3 02       		.byte	0x2
 1513 06f4 23       		.byte	0x23
 1514 06f5 0C       		.uleb128 0xc
 1515 06f6 0C       		.uleb128 0xc
 1516 06f7 73706900 		.ascii	"spi\000"
 1517 06fb 0D       		.byte	0xd
 1518 06fc 2B02     		.2byte	0x22b
 1519 06fe C3070000 		.4byte	0x7c3
 1520 0702 02       		.byte	0x2
 1521 0703 23       		.byte	0x23
 1522 0704 1C       		.uleb128 0x1c
 1523 0705 12       		.uleb128 0x12
 1524 0706 00000000 		.4byte	.LASF97
 1525 070a 0D       		.byte	0xd
 1526 070b 2F02     		.2byte	0x22f
 1527 070d 64060000 		.4byte	0x664
 1528 0711 02       		.byte	0x2
 1529 0712 23       		.byte	0x23
 1530 0713 20       		.uleb128 0x20
 1531 0714 12       		.uleb128 0x12
 1532 0715 6B010000 		.4byte	.LASF98
ARM GAS  C:\Users\DNIEL~1\AppData\Local\Temp\cc0CNsVc.s 			page 28


 1533 0719 0D       		.byte	0xd
 1534 071a 3302     		.2byte	0x233
 1535 071c 64060000 		.4byte	0x664
 1536 0720 02       		.byte	0x2
 1537 0721 23       		.byte	0x23
 1538 0722 24       		.uleb128 0x24
 1539 0723 12       		.uleb128 0x12
 1540 0724 34010000 		.4byte	.LASF99
 1541 0728 0D       		.byte	0xd
 1542 0729 3702     		.2byte	0x237
 1543 072b 86000000 		.4byte	0x86
 1544 072f 02       		.byte	0x2
 1545 0730 23       		.byte	0x23
 1546 0731 28       		.uleb128 0x28
 1547 0732 12       		.uleb128 0x12
 1548 0733 8A020000 		.4byte	.LASF100
 1549 0737 0D       		.byte	0xd
 1550 0738 3B02     		.2byte	0x23b
 1551 073a 86000000 		.4byte	0x86
 1552 073e 02       		.byte	0x2
 1553 073f 23       		.byte	0x23
 1554 0740 2C       		.uleb128 0x2c
 1555 0741 00       		.byte	0x0
 1556 0742 13       		.uleb128 0x13
 1557 0743 92010000 		.4byte	.LASF101
 1558 0747 0D       		.byte	0xd
 1559 0748 EF01     		.2byte	0x1ef
 1560 074a 4E070000 		.4byte	0x74e
 1561 074e 09       		.uleb128 0x9
 1562 074f 04       		.byte	0x4
 1563 0750 54070000 		.4byte	0x754
 1564 0754 16       		.uleb128 0x16
 1565 0755 01       		.byte	0x1
 1566 0756 60070000 		.4byte	0x760
 1567 075a 17       		.uleb128 0x17
 1568 075b 60070000 		.4byte	0x760
 1569 075f 00       		.byte	0x0
 1570 0760 09       		.uleb128 0x9
 1571 0761 04       		.byte	0x4
 1572 0762 A1060000 		.4byte	0x6a1
 1573 0766 11       		.uleb128 0x11
 1574 0767 0C       		.byte	0xc
 1575 0768 0D       		.byte	0xd
 1576 0769 F401     		.2byte	0x1f4
 1577 076b AC070000 		.4byte	0x7ac
 1578 076f 12       		.uleb128 0x12
 1579 0770 56010000 		.4byte	.LASF102
 1580 0774 0D       		.byte	0xd
 1581 0775 F801     		.2byte	0x1f8
 1582 0777 42070000 		.4byte	0x742
 1583 077b 02       		.byte	0x2
 1584 077c 23       		.byte	0x23
 1585 077d 00       		.uleb128 0x0
 1586 077e 12       		.uleb128 0x12
 1587 077f C4000000 		.4byte	.LASF103
 1588 0783 0D       		.byte	0xd
 1589 0784 FD01     		.2byte	0x1fd
ARM GAS  C:\Users\DNIEL~1\AppData\Local\Temp\cc0CNsVc.s 			page 29


 1590 0786 53060000 		.4byte	0x653
 1591 078a 02       		.byte	0x2
 1592 078b 23       		.byte	0x23
 1593 078c 04       		.uleb128 0x4
 1594 078d 12       		.uleb128 0x12
 1595 078e 87000000 		.4byte	.LASF104
 1596 0792 0D       		.byte	0xd
 1597 0793 0102     		.2byte	0x201
 1598 0795 62000000 		.4byte	0x62
 1599 0799 02       		.byte	0x2
 1600 079a 23       		.byte	0x23
 1601 079b 08       		.uleb128 0x8
 1602 079c 0C       		.uleb128 0xc
 1603 079d 63723100 		.ascii	"cr1\000"
 1604 07a1 0D       		.byte	0xd
 1605 07a2 0502     		.2byte	0x205
 1606 07a4 62000000 		.4byte	0x62
 1607 07a8 02       		.byte	0x2
 1608 07a9 23       		.byte	0x23
 1609 07aa 0A       		.uleb128 0xa
 1610 07ab 00       		.byte	0x0
 1611 07ac 13       		.uleb128 0x13
 1612 07ad A2040000 		.4byte	.LASF105
 1613 07b1 0D       		.byte	0xd
 1614 07b2 0602     		.2byte	0x206
 1615 07b4 66070000 		.4byte	0x766
 1616 07b8 09       		.uleb128 0x9
 1617 07b9 04       		.byte	0x4
 1618 07ba BE070000 		.4byte	0x7be
 1619 07be 10       		.uleb128 0x10
 1620 07bf AC070000 		.4byte	0x7ac
 1621 07c3 09       		.uleb128 0x9
 1622 07c4 04       		.byte	0x4
 1623 07c5 E1050000 		.4byte	0x5e1
 1624 07c9 18       		.uleb128 0x18
 1625 07ca 01       		.byte	0x1
 1626 07cb 05020000 		.4byte	.LASF108
 1627 07cf 01       		.byte	0x1
 1628 07d0 5A       		.byte	0x5a
 1629 07d1 01       		.byte	0x1
 1630 07d2 29000000 		.4byte	0x29
 1631 07d6 00000000 		.4byte	.LFB62
 1632 07da 58000000 		.4byte	.LFE62
 1633 07de 00000000 		.4byte	.LLST0
 1634 07e2 13080000 		.4byte	0x813
 1635 07e6 19       		.uleb128 0x19
 1636 07e7 747800   		.ascii	"tx\000"
 1637 07ea 01       		.byte	0x1
 1638 07eb 5A       		.byte	0x5a
 1639 07ec EA030000 		.4byte	0x3ea
 1640 07f0 20000000 		.4byte	.LLST1
 1641 07f4 1A       		.uleb128 0x1a
 1642 07f5 42000000 		.4byte	.LASF106
 1643 07f9 01       		.byte	0x1
 1644 07fa 5A       		.byte	0x5a
 1645 07fb 13080000 		.4byte	0x813
 1646 07ff 3E000000 		.4byte	.LLST2
ARM GAS  C:\Users\DNIEL~1\AppData\Local\Temp\cc0CNsVc.s 			page 30


 1647 0803 1A       		.uleb128 0x1a
 1648 0804 F2000000 		.4byte	.LASF107
 1649 0808 01       		.byte	0x1
 1650 0809 5A       		.byte	0x5a
 1651 080a 30000000 		.4byte	0x30
 1652 080e 5C000000 		.4byte	.LLST3
 1653 0812 00       		.byte	0x0
 1654 0813 09       		.uleb128 0x9
 1655 0814 04       		.byte	0x4
 1656 0815 62000000 		.4byte	0x62
 1657 0819 18       		.uleb128 0x18
 1658 081a 01       		.byte	0x1
 1659 081b D7010000 		.4byte	.LASF109
 1660 081f 01       		.byte	0x1
 1661 0820 50       		.byte	0x50
 1662 0821 01       		.byte	0x1
 1663 0822 62000000 		.4byte	0x62
 1664 0826 00000000 		.4byte	.LFB61
 1665 082a 1E000000 		.4byte	.LFE61
 1666 082e 7A000000 		.4byte	.LLST4
 1667 0832 51080000 		.4byte	0x851
 1668 0836 1B       		.uleb128 0x1b
 1669 0837 727800   		.ascii	"rx\000"
 1670 083a 01       		.byte	0x1
 1671 083b 51       		.byte	0x51
 1672 083c 62000000 		.4byte	0x62
 1673 0840 02       		.byte	0x2
 1674 0841 91       		.byte	0x91
 1675 0842 76       		.sleb128 -10
 1676 0843 1B       		.uleb128 0x1b
 1677 0844 747800   		.ascii	"tx\000"
 1678 0847 01       		.byte	0x1
 1679 0848 51       		.byte	0x51
 1680 0849 62000000 		.4byte	0x62
 1681 084d 02       		.byte	0x2
 1682 084e 70       		.byte	0x70
 1683 084f 7C       		.sleb128 -4
 1684 0850 00       		.byte	0x0
 1685 0851 18       		.uleb128 0x18
 1686 0852 01       		.byte	0x1
 1687 0853 17020000 		.4byte	.LASF110
 1688 0857 01       		.byte	0x1
 1689 0858 46       		.byte	0x46
 1690 0859 01       		.byte	0x1
 1691 085a 62000000 		.4byte	0x62
 1692 085e 00000000 		.4byte	.LFB60
 1693 0862 1E000000 		.4byte	.LFE60
 1694 0866 A6000000 		.4byte	.LLST5
 1695 086a 89080000 		.4byte	0x889
 1696 086e 1B       		.uleb128 0x1b
 1697 086f 727800   		.ascii	"rx\000"
 1698 0872 01       		.byte	0x1
 1699 0873 47       		.byte	0x47
 1700 0874 62000000 		.4byte	0x62
 1701 0878 02       		.byte	0x2
 1702 0879 91       		.byte	0x91
 1703 087a 76       		.sleb128 -10
ARM GAS  C:\Users\DNIEL~1\AppData\Local\Temp\cc0CNsVc.s 			page 31


 1704 087b 1B       		.uleb128 0x1b
 1705 087c 747800   		.ascii	"tx\000"
 1706 087f 01       		.byte	0x1
 1707 0880 47       		.byte	0x47
 1708 0881 62000000 		.4byte	0x62
 1709 0885 02       		.byte	0x2
 1710 0886 70       		.byte	0x70
 1711 0887 7C       		.sleb128 -4
 1712 0888 00       		.byte	0x0
 1713 0889 18       		.uleb128 0x18
 1714 088a 01       		.byte	0x1
 1715 088b 5D010000 		.4byte	.LASF111
 1716 088f 01       		.byte	0x1
 1717 0890 3C       		.byte	0x3c
 1718 0891 01       		.byte	0x1
 1719 0892 62000000 		.4byte	0x62
 1720 0896 00000000 		.4byte	.LFB59
 1721 089a 1E000000 		.4byte	.LFE59
 1722 089e D2000000 		.4byte	.LLST6
 1723 08a2 C1080000 		.4byte	0x8c1
 1724 08a6 1B       		.uleb128 0x1b
 1725 08a7 727800   		.ascii	"rx\000"
 1726 08aa 01       		.byte	0x1
 1727 08ab 3D       		.byte	0x3d
 1728 08ac 62000000 		.4byte	0x62
 1729 08b0 02       		.byte	0x2
 1730 08b1 91       		.byte	0x91
 1731 08b2 76       		.sleb128 -10
 1732 08b3 1B       		.uleb128 0x1b
 1733 08b4 747800   		.ascii	"tx\000"
 1734 08b7 01       		.byte	0x1
 1735 08b8 3D       		.byte	0x3d
 1736 08b9 62000000 		.4byte	0x62
 1737 08bd 02       		.byte	0x2
 1738 08be 70       		.byte	0x70
 1739 08bf 7C       		.sleb128 -4
 1740 08c0 00       		.byte	0x0
 1741 08c1 18       		.uleb128 0x18
 1742 08c2 01       		.byte	0x1
 1743 08c3 56020000 		.4byte	.LASF112
 1744 08c7 01       		.byte	0x1
 1745 08c8 32       		.byte	0x32
 1746 08c9 01       		.byte	0x1
 1747 08ca 62000000 		.4byte	0x62
 1748 08ce 00000000 		.4byte	.LFB58
 1749 08d2 1E000000 		.4byte	.LFE58
 1750 08d6 FE000000 		.4byte	.LLST7
 1751 08da F9080000 		.4byte	0x8f9
 1752 08de 1B       		.uleb128 0x1b
 1753 08df 727800   		.ascii	"rx\000"
 1754 08e2 01       		.byte	0x1
 1755 08e3 33       		.byte	0x33
 1756 08e4 62000000 		.4byte	0x62
 1757 08e8 02       		.byte	0x2
 1758 08e9 91       		.byte	0x91
 1759 08ea 76       		.sleb128 -10
 1760 08eb 1B       		.uleb128 0x1b
ARM GAS  C:\Users\DNIEL~1\AppData\Local\Temp\cc0CNsVc.s 			page 32


 1761 08ec 747800   		.ascii	"tx\000"
 1762 08ef 01       		.byte	0x1
 1763 08f0 33       		.byte	0x33
 1764 08f1 62000000 		.4byte	0x62
 1765 08f5 02       		.byte	0x2
 1766 08f6 70       		.byte	0x70
 1767 08f7 7C       		.sleb128 -4
 1768 08f8 00       		.byte	0x0
 1769 08f9 18       		.uleb128 0x18
 1770 08fa 01       		.byte	0x1
 1771 08fb 30030000 		.4byte	.LASF113
 1772 08ff 01       		.byte	0x1
 1773 0900 28       		.byte	0x28
 1774 0901 01       		.byte	0x1
 1775 0902 62000000 		.4byte	0x62
 1776 0906 00000000 		.4byte	.LFB57
 1777 090a 1E000000 		.4byte	.LFE57
 1778 090e 2A010000 		.4byte	.LLST8
 1779 0912 31090000 		.4byte	0x931
 1780 0916 1B       		.uleb128 0x1b
 1781 0917 727800   		.ascii	"rx\000"
 1782 091a 01       		.byte	0x1
 1783 091b 29       		.byte	0x29
 1784 091c 62000000 		.4byte	0x62
 1785 0920 02       		.byte	0x2
 1786 0921 91       		.byte	0x91
 1787 0922 76       		.sleb128 -10
 1788 0923 1B       		.uleb128 0x1b
 1789 0924 747800   		.ascii	"tx\000"
 1790 0927 01       		.byte	0x1
 1791 0928 29       		.byte	0x29
 1792 0929 62000000 		.4byte	0x62
 1793 092d 02       		.byte	0x2
 1794 092e 70       		.byte	0x70
 1795 092f 7C       		.sleb128 -4
 1796 0930 00       		.byte	0x0
 1797 0931 18       		.uleb128 0x18
 1798 0932 01       		.byte	0x1
 1799 0933 C9030000 		.4byte	.LASF114
 1800 0937 01       		.byte	0x1
 1801 0938 1E       		.byte	0x1e
 1802 0939 01       		.byte	0x1
 1803 093a 62000000 		.4byte	0x62
 1804 093e 00000000 		.4byte	.LFB56
 1805 0942 1E000000 		.4byte	.LFE56
 1806 0946 56010000 		.4byte	.LLST9
 1807 094a 69090000 		.4byte	0x969
 1808 094e 1B       		.uleb128 0x1b
 1809 094f 727800   		.ascii	"rx\000"
 1810 0952 01       		.byte	0x1
 1811 0953 1F       		.byte	0x1f
 1812 0954 62000000 		.4byte	0x62
 1813 0958 02       		.byte	0x2
 1814 0959 91       		.byte	0x91
 1815 095a 76       		.sleb128 -10
 1816 095b 1B       		.uleb128 0x1b
 1817 095c 747800   		.ascii	"tx\000"
ARM GAS  C:\Users\DNIEL~1\AppData\Local\Temp\cc0CNsVc.s 			page 33


 1818 095f 01       		.byte	0x1
 1819 0960 1F       		.byte	0x1f
 1820 0961 62000000 		.4byte	0x62
 1821 0965 02       		.byte	0x2
 1822 0966 70       		.byte	0x70
 1823 0967 7C       		.sleb128 -4
 1824 0968 00       		.byte	0x0
 1825 0969 1C       		.uleb128 0x1c
 1826 096a 01       		.byte	0x1
 1827 096b 42020000 		.4byte	.LASF123
 1828 096f 01       		.byte	0x1
 1829 0970 6A       		.byte	0x6a
 1830 0971 01       		.byte	0x1
 1831 0972 00000000 		.4byte	.LFB63
 1832 0976 24000000 		.4byte	.LFE63
 1833 097a 82010000 		.4byte	.LLST10
 1834 097e 9D090000 		.4byte	0x99d
 1835 0982 1B       		.uleb128 0x1b
 1836 0983 747800   		.ascii	"tx\000"
 1837 0986 01       		.byte	0x1
 1838 0987 6B       		.byte	0x6b
 1839 0988 29000000 		.4byte	0x29
 1840 098c 02       		.byte	0x2
 1841 098d 70       		.byte	0x70
 1842 098e 7C       		.sleb128 -4
 1843 098f 1B       		.uleb128 0x1b
 1844 0990 727800   		.ascii	"rx\000"
 1845 0993 01       		.byte	0x1
 1846 0994 6B       		.byte	0x6b
 1847 0995 29000000 		.4byte	0x29
 1848 0999 02       		.byte	0x2
 1849 099a 91       		.byte	0x91
 1850 099b 70       		.sleb128 -16
 1851 099c 00       		.byte	0x0
 1852 099d 1D       		.uleb128 0x1d
 1853 099e CB000000 		.4byte	.LASF115
 1854 09a2 0E       		.byte	0xe
 1855 09a3 0706     		.2byte	0x607
 1856 09a5 F5030000 		.4byte	0x3f5
 1857 09a9 01       		.byte	0x1
 1858 09aa 01       		.byte	0x1
 1859 09ab 1D       		.uleb128 0x1d
 1860 09ac 3F030000 		.4byte	.LASF116
 1861 09b0 0D       		.byte	0xd
 1862 09b1 4702     		.2byte	0x247
 1863 09b3 A1060000 		.4byte	0x6a1
 1864 09b7 01       		.byte	0x1
 1865 09b8 01       		.byte	0x1
 1866 09b9 1E       		.uleb128 0x1e
 1867 09ba 84010000 		.4byte	.LASF117
 1868 09be 01       		.byte	0x1
 1869 09bf 13       		.byte	0x13
 1870 09c0 BE070000 		.4byte	0x7be
 1871 09c4 05       		.byte	0x5
 1872 09c5 03       		.byte	0x3
 1873 09c6 00000000 		.4byte	ls_spicfg_cs1
 1874 09ca 1F       		.uleb128 0x1f
ARM GAS  C:\Users\DNIEL~1\AppData\Local\Temp\cc0CNsVc.s 			page 34


 1875 09cb AD010000 		.4byte	.LASF118
 1876 09cf 01       		.byte	0x1
 1877 09d0 1A       		.byte	0x1a
 1878 09d1 49000000 		.4byte	0x49
 1879 09d5 20       		.uleb128 0x20
 1880 09d6 62000000 		.4byte	0x62
 1881 09da E5090000 		.4byte	0x9e5
 1882 09de 21       		.uleb128 0x21
 1883 09df 3B000000 		.4byte	0x3b
 1884 09e3 01       		.byte	0x1
 1885 09e4 00       		.byte	0x0
 1886 09e5 1F       		.uleb128 0x1f
 1887 09e6 42000000 		.4byte	.LASF106
 1888 09ea 01       		.byte	0x1
 1889 09eb 1B       		.byte	0x1b
 1890 09ec D5090000 		.4byte	0x9d5
 1891 09f0 20       		.uleb128 0x20
 1892 09f1 49000000 		.4byte	0x49
 1893 09f5 000A0000 		.4byte	0xa00
 1894 09f9 21       		.uleb128 0x21
 1895 09fa 3B000000 		.4byte	0x3b
 1896 09fe 01       		.byte	0x1
 1897 09ff 00       		.byte	0x0
 1898 0a00 1E       		.uleb128 0x1e
 1899 0a01 BF030000 		.4byte	.LASF119
 1900 0a05 01       		.byte	0x1
 1901 0a06 1C       		.byte	0x1c
 1902 0a07 F0090000 		.4byte	0x9f0
 1903 0a0b 05       		.byte	0x5
 1904 0a0c 03       		.byte	0x3
 1905 0a0d 00000000 		.4byte	txbuf_nop
 1906 0a11 1D       		.uleb128 0x1d
 1907 0a12 CB000000 		.4byte	.LASF115
 1908 0a16 0E       		.byte	0xe
 1909 0a17 0706     		.2byte	0x607
 1910 0a19 F5030000 		.4byte	0x3f5
 1911 0a1d 01       		.byte	0x1
 1912 0a1e 01       		.byte	0x1
 1913 0a1f 1D       		.uleb128 0x1d
 1914 0a20 3F030000 		.4byte	.LASF116
 1915 0a24 0D       		.byte	0xd
 1916 0a25 4702     		.2byte	0x247
 1917 0a27 A1060000 		.4byte	0x6a1
 1918 0a2b 01       		.byte	0x1
 1919 0a2c 01       		.byte	0x1
 1920 0a2d 00       		.byte	0x0
 1921              		.section	.debug_abbrev
 1922 0000 01       		.uleb128 0x1
 1923 0001 11       		.uleb128 0x11
 1924 0002 01       		.byte	0x1
 1925 0003 25       		.uleb128 0x25
 1926 0004 0E       		.uleb128 0xe
 1927 0005 13       		.uleb128 0x13
 1928 0006 0B       		.uleb128 0xb
 1929 0007 03       		.uleb128 0x3
 1930 0008 0E       		.uleb128 0xe
 1931 0009 1B       		.uleb128 0x1b
ARM GAS  C:\Users\DNIEL~1\AppData\Local\Temp\cc0CNsVc.s 			page 35


 1932 000a 0E       		.uleb128 0xe
 1933 000b 11       		.uleb128 0x11
 1934 000c 01       		.uleb128 0x1
 1935 000d 52       		.uleb128 0x52
 1936 000e 01       		.uleb128 0x1
 1937 000f 55       		.uleb128 0x55
 1938 0010 06       		.uleb128 0x6
 1939 0011 10       		.uleb128 0x10
 1940 0012 06       		.uleb128 0x6
 1941 0013 00       		.byte	0x0
 1942 0014 00       		.byte	0x0
 1943 0015 02       		.uleb128 0x2
 1944 0016 24       		.uleb128 0x24
 1945 0017 00       		.byte	0x0
 1946 0018 0B       		.uleb128 0xb
 1947 0019 0B       		.uleb128 0xb
 1948 001a 3E       		.uleb128 0x3e
 1949 001b 0B       		.uleb128 0xb
 1950 001c 03       		.uleb128 0x3
 1951 001d 08       		.uleb128 0x8
 1952 001e 00       		.byte	0x0
 1953 001f 00       		.byte	0x0
 1954 0020 03       		.uleb128 0x3
 1955 0021 16       		.uleb128 0x16
 1956 0022 00       		.byte	0x0
 1957 0023 03       		.uleb128 0x3
 1958 0024 0E       		.uleb128 0xe
 1959 0025 3A       		.uleb128 0x3a
 1960 0026 0B       		.uleb128 0xb
 1961 0027 3B       		.uleb128 0x3b
 1962 0028 0B       		.uleb128 0xb
 1963 0029 49       		.uleb128 0x49
 1964 002a 13       		.uleb128 0x13
 1965 002b 00       		.byte	0x0
 1966 002c 00       		.byte	0x0
 1967 002d 04       		.uleb128 0x4
 1968 002e 24       		.uleb128 0x24
 1969 002f 00       		.byte	0x0
 1970 0030 0B       		.uleb128 0xb
 1971 0031 0B       		.uleb128 0xb
 1972 0032 3E       		.uleb128 0x3e
 1973 0033 0B       		.uleb128 0xb
 1974 0034 03       		.uleb128 0x3
 1975 0035 0E       		.uleb128 0xe
 1976 0036 00       		.byte	0x0
 1977 0037 00       		.byte	0x0
 1978 0038 05       		.uleb128 0x5
 1979 0039 13       		.uleb128 0x13
 1980 003a 01       		.byte	0x1
 1981 003b 03       		.uleb128 0x3
 1982 003c 0E       		.uleb128 0xe
 1983 003d 0B       		.uleb128 0xb
 1984 003e 0B       		.uleb128 0xb
 1985 003f 3A       		.uleb128 0x3a
 1986 0040 0B       		.uleb128 0xb
 1987 0041 3B       		.uleb128 0x3b
 1988 0042 0B       		.uleb128 0xb
ARM GAS  C:\Users\DNIEL~1\AppData\Local\Temp\cc0CNsVc.s 			page 36


 1989 0043 01       		.uleb128 0x1
 1990 0044 13       		.uleb128 0x13
 1991 0045 00       		.byte	0x0
 1992 0046 00       		.byte	0x0
 1993 0047 06       		.uleb128 0x6
 1994 0048 0D       		.uleb128 0xd
 1995 0049 00       		.byte	0x0
 1996 004a 03       		.uleb128 0x3
 1997 004b 0E       		.uleb128 0xe
 1998 004c 3A       		.uleb128 0x3a
 1999 004d 0B       		.uleb128 0xb
 2000 004e 3B       		.uleb128 0x3b
 2001 004f 0B       		.uleb128 0xb
 2002 0050 49       		.uleb128 0x49
 2003 0051 13       		.uleb128 0x13
 2004 0052 38       		.uleb128 0x38
 2005 0053 0A       		.uleb128 0xa
 2006 0054 00       		.byte	0x0
 2007 0055 00       		.byte	0x0
 2008 0056 07       		.uleb128 0x7
 2009 0057 0D       		.uleb128 0xd
 2010 0058 00       		.byte	0x0
 2011 0059 03       		.uleb128 0x3
 2012 005a 08       		.uleb128 0x8
 2013 005b 3A       		.uleb128 0x3a
 2014 005c 0B       		.uleb128 0xb
 2015 005d 3B       		.uleb128 0x3b
 2016 005e 0B       		.uleb128 0xb
 2017 005f 49       		.uleb128 0x49
 2018 0060 13       		.uleb128 0x13
 2019 0061 38       		.uleb128 0x38
 2020 0062 0A       		.uleb128 0xa
 2021 0063 00       		.byte	0x0
 2022 0064 00       		.byte	0x0
 2023 0065 08       		.uleb128 0x8
 2024 0066 13       		.uleb128 0x13
 2025 0067 01       		.byte	0x1
 2026 0068 0B       		.uleb128 0xb
 2027 0069 0B       		.uleb128 0xb
 2028 006a 3A       		.uleb128 0x3a
 2029 006b 0B       		.uleb128 0xb
 2030 006c 3B       		.uleb128 0x3b
 2031 006d 0B       		.uleb128 0xb
 2032 006e 01       		.uleb128 0x1
 2033 006f 13       		.uleb128 0x13
 2034 0070 00       		.byte	0x0
 2035 0071 00       		.byte	0x0
 2036 0072 09       		.uleb128 0x9
 2037 0073 0F       		.uleb128 0xf
 2038 0074 00       		.byte	0x0
 2039 0075 0B       		.uleb128 0xb
 2040 0076 0B       		.uleb128 0xb
 2041 0077 49       		.uleb128 0x49
 2042 0078 13       		.uleb128 0x13
 2043 0079 00       		.byte	0x0
 2044 007a 00       		.byte	0x0
 2045 007b 0A       		.uleb128 0xa
ARM GAS  C:\Users\DNIEL~1\AppData\Local\Temp\cc0CNsVc.s 			page 37


 2046 007c 0F       		.uleb128 0xf
 2047 007d 00       		.byte	0x0
 2048 007e 0B       		.uleb128 0xb
 2049 007f 0B       		.uleb128 0xb
 2050 0080 00       		.byte	0x0
 2051 0081 00       		.byte	0x0
 2052 0082 0B       		.uleb128 0xb
 2053 0083 13       		.uleb128 0x13
 2054 0084 01       		.byte	0x1
 2055 0085 03       		.uleb128 0x3
 2056 0086 0E       		.uleb128 0xe
 2057 0087 0B       		.uleb128 0xb
 2058 0088 0B       		.uleb128 0xb
 2059 0089 3A       		.uleb128 0x3a
 2060 008a 0B       		.uleb128 0xb
 2061 008b 3B       		.uleb128 0x3b
 2062 008c 05       		.uleb128 0x5
 2063 008d 01       		.uleb128 0x1
 2064 008e 13       		.uleb128 0x13
 2065 008f 00       		.byte	0x0
 2066 0090 00       		.byte	0x0
 2067 0091 0C       		.uleb128 0xc
 2068 0092 0D       		.uleb128 0xd
 2069 0093 00       		.byte	0x0
 2070 0094 03       		.uleb128 0x3
 2071 0095 08       		.uleb128 0x8
 2072 0096 3A       		.uleb128 0x3a
 2073 0097 0B       		.uleb128 0xb
 2074 0098 3B       		.uleb128 0x3b
 2075 0099 05       		.uleb128 0x5
 2076 009a 49       		.uleb128 0x49
 2077 009b 13       		.uleb128 0x13
 2078 009c 38       		.uleb128 0x38
 2079 009d 0A       		.uleb128 0xa
 2080 009e 00       		.byte	0x0
 2081 009f 00       		.byte	0x0
 2082 00a0 0D       		.uleb128 0xd
 2083 00a1 35       		.uleb128 0x35
 2084 00a2 00       		.byte	0x0
 2085 00a3 49       		.uleb128 0x49
 2086 00a4 13       		.uleb128 0x13
 2087 00a5 00       		.byte	0x0
 2088 00a6 00       		.byte	0x0
 2089 00a7 0E       		.uleb128 0xe
 2090 00a8 17       		.uleb128 0x17
 2091 00a9 01       		.byte	0x1
 2092 00aa 0B       		.uleb128 0xb
 2093 00ab 0B       		.uleb128 0xb
 2094 00ac 3A       		.uleb128 0x3a
 2095 00ad 0B       		.uleb128 0xb
 2096 00ae 3B       		.uleb128 0x3b
 2097 00af 0B       		.uleb128 0xb
 2098 00b0 01       		.uleb128 0x1
 2099 00b1 13       		.uleb128 0x13
 2100 00b2 00       		.byte	0x0
 2101 00b3 00       		.byte	0x0
 2102 00b4 0F       		.uleb128 0xf
ARM GAS  C:\Users\DNIEL~1\AppData\Local\Temp\cc0CNsVc.s 			page 38


 2103 00b5 0D       		.uleb128 0xd
 2104 00b6 00       		.byte	0x0
 2105 00b7 03       		.uleb128 0x3
 2106 00b8 0E       		.uleb128 0xe
 2107 00b9 3A       		.uleb128 0x3a
 2108 00ba 0B       		.uleb128 0xb
 2109 00bb 3B       		.uleb128 0x3b
 2110 00bc 0B       		.uleb128 0xb
 2111 00bd 49       		.uleb128 0x49
 2112 00be 13       		.uleb128 0x13
 2113 00bf 00       		.byte	0x0
 2114 00c0 00       		.byte	0x0
 2115 00c1 10       		.uleb128 0x10
 2116 00c2 26       		.uleb128 0x26
 2117 00c3 00       		.byte	0x0
 2118 00c4 49       		.uleb128 0x49
 2119 00c5 13       		.uleb128 0x13
 2120 00c6 00       		.byte	0x0
 2121 00c7 00       		.byte	0x0
 2122 00c8 11       		.uleb128 0x11
 2123 00c9 13       		.uleb128 0x13
 2124 00ca 01       		.byte	0x1
 2125 00cb 0B       		.uleb128 0xb
 2126 00cc 0B       		.uleb128 0xb
 2127 00cd 3A       		.uleb128 0x3a
 2128 00ce 0B       		.uleb128 0xb
 2129 00cf 3B       		.uleb128 0x3b
 2130 00d0 05       		.uleb128 0x5
 2131 00d1 01       		.uleb128 0x1
 2132 00d2 13       		.uleb128 0x13
 2133 00d3 00       		.byte	0x0
 2134 00d4 00       		.byte	0x0
 2135 00d5 12       		.uleb128 0x12
 2136 00d6 0D       		.uleb128 0xd
 2137 00d7 00       		.byte	0x0
 2138 00d8 03       		.uleb128 0x3
 2139 00d9 0E       		.uleb128 0xe
 2140 00da 3A       		.uleb128 0x3a
 2141 00db 0B       		.uleb128 0xb
 2142 00dc 3B       		.uleb128 0x3b
 2143 00dd 05       		.uleb128 0x5
 2144 00de 49       		.uleb128 0x49
 2145 00df 13       		.uleb128 0x13
 2146 00e0 38       		.uleb128 0x38
 2147 00e1 0A       		.uleb128 0xa
 2148 00e2 00       		.byte	0x0
 2149 00e3 00       		.byte	0x0
 2150 00e4 13       		.uleb128 0x13
 2151 00e5 16       		.uleb128 0x16
 2152 00e6 00       		.byte	0x0
 2153 00e7 03       		.uleb128 0x3
 2154 00e8 0E       		.uleb128 0xe
 2155 00e9 3A       		.uleb128 0x3a
 2156 00ea 0B       		.uleb128 0xb
 2157 00eb 3B       		.uleb128 0x3b
 2158 00ec 05       		.uleb128 0x5
 2159 00ed 49       		.uleb128 0x49
ARM GAS  C:\Users\DNIEL~1\AppData\Local\Temp\cc0CNsVc.s 			page 39


 2160 00ee 13       		.uleb128 0x13
 2161 00ef 00       		.byte	0x0
 2162 00f0 00       		.byte	0x0
 2163 00f1 14       		.uleb128 0x14
 2164 00f2 04       		.uleb128 0x4
 2165 00f3 01       		.byte	0x1
 2166 00f4 0B       		.uleb128 0xb
 2167 00f5 0B       		.uleb128 0xb
 2168 00f6 3A       		.uleb128 0x3a
 2169 00f7 0B       		.uleb128 0xb
 2170 00f8 3B       		.uleb128 0x3b
 2171 00f9 0B       		.uleb128 0xb
 2172 00fa 01       		.uleb128 0x1
 2173 00fb 13       		.uleb128 0x13
 2174 00fc 00       		.byte	0x0
 2175 00fd 00       		.byte	0x0
 2176 00fe 15       		.uleb128 0x15
 2177 00ff 28       		.uleb128 0x28
 2178 0100 00       		.byte	0x0
 2179 0101 03       		.uleb128 0x3
 2180 0102 0E       		.uleb128 0xe
 2181 0103 1C       		.uleb128 0x1c
 2182 0104 0D       		.uleb128 0xd
 2183 0105 00       		.byte	0x0
 2184 0106 00       		.byte	0x0
 2185 0107 16       		.uleb128 0x16
 2186 0108 15       		.uleb128 0x15
 2187 0109 01       		.byte	0x1
 2188 010a 27       		.uleb128 0x27
 2189 010b 0C       		.uleb128 0xc
 2190 010c 01       		.uleb128 0x1
 2191 010d 13       		.uleb128 0x13
 2192 010e 00       		.byte	0x0
 2193 010f 00       		.byte	0x0
 2194 0110 17       		.uleb128 0x17
 2195 0111 05       		.uleb128 0x5
 2196 0112 00       		.byte	0x0
 2197 0113 49       		.uleb128 0x49
 2198 0114 13       		.uleb128 0x13
 2199 0115 00       		.byte	0x0
 2200 0116 00       		.byte	0x0
 2201 0117 18       		.uleb128 0x18
 2202 0118 2E       		.uleb128 0x2e
 2203 0119 01       		.byte	0x1
 2204 011a 3F       		.uleb128 0x3f
 2205 011b 0C       		.uleb128 0xc
 2206 011c 03       		.uleb128 0x3
 2207 011d 0E       		.uleb128 0xe
 2208 011e 3A       		.uleb128 0x3a
 2209 011f 0B       		.uleb128 0xb
 2210 0120 3B       		.uleb128 0x3b
 2211 0121 0B       		.uleb128 0xb
 2212 0122 27       		.uleb128 0x27
 2213 0123 0C       		.uleb128 0xc
 2214 0124 49       		.uleb128 0x49
 2215 0125 13       		.uleb128 0x13
 2216 0126 11       		.uleb128 0x11
ARM GAS  C:\Users\DNIEL~1\AppData\Local\Temp\cc0CNsVc.s 			page 40


 2217 0127 01       		.uleb128 0x1
 2218 0128 12       		.uleb128 0x12
 2219 0129 01       		.uleb128 0x1
 2220 012a 40       		.uleb128 0x40
 2221 012b 06       		.uleb128 0x6
 2222 012c 01       		.uleb128 0x1
 2223 012d 13       		.uleb128 0x13
 2224 012e 00       		.byte	0x0
 2225 012f 00       		.byte	0x0
 2226 0130 19       		.uleb128 0x19
 2227 0131 05       		.uleb128 0x5
 2228 0132 00       		.byte	0x0
 2229 0133 03       		.uleb128 0x3
 2230 0134 08       		.uleb128 0x8
 2231 0135 3A       		.uleb128 0x3a
 2232 0136 0B       		.uleb128 0xb
 2233 0137 3B       		.uleb128 0x3b
 2234 0138 0B       		.uleb128 0xb
 2235 0139 49       		.uleb128 0x49
 2236 013a 13       		.uleb128 0x13
 2237 013b 02       		.uleb128 0x2
 2238 013c 06       		.uleb128 0x6
 2239 013d 00       		.byte	0x0
 2240 013e 00       		.byte	0x0
 2241 013f 1A       		.uleb128 0x1a
 2242 0140 05       		.uleb128 0x5
 2243 0141 00       		.byte	0x0
 2244 0142 03       		.uleb128 0x3
 2245 0143 0E       		.uleb128 0xe
 2246 0144 3A       		.uleb128 0x3a
 2247 0145 0B       		.uleb128 0xb
 2248 0146 3B       		.uleb128 0x3b
 2249 0147 0B       		.uleb128 0xb
 2250 0148 49       		.uleb128 0x49
 2251 0149 13       		.uleb128 0x13
 2252 014a 02       		.uleb128 0x2
 2253 014b 06       		.uleb128 0x6
 2254 014c 00       		.byte	0x0
 2255 014d 00       		.byte	0x0
 2256 014e 1B       		.uleb128 0x1b
 2257 014f 34       		.uleb128 0x34
 2258 0150 00       		.byte	0x0
 2259 0151 03       		.uleb128 0x3
 2260 0152 08       		.uleb128 0x8
 2261 0153 3A       		.uleb128 0x3a
 2262 0154 0B       		.uleb128 0xb
 2263 0155 3B       		.uleb128 0x3b
 2264 0156 0B       		.uleb128 0xb
 2265 0157 49       		.uleb128 0x49
 2266 0158 13       		.uleb128 0x13
 2267 0159 02       		.uleb128 0x2
 2268 015a 0A       		.uleb128 0xa
 2269 015b 00       		.byte	0x0
 2270 015c 00       		.byte	0x0
 2271 015d 1C       		.uleb128 0x1c
 2272 015e 2E       		.uleb128 0x2e
 2273 015f 01       		.byte	0x1
ARM GAS  C:\Users\DNIEL~1\AppData\Local\Temp\cc0CNsVc.s 			page 41


 2274 0160 3F       		.uleb128 0x3f
 2275 0161 0C       		.uleb128 0xc
 2276 0162 03       		.uleb128 0x3
 2277 0163 0E       		.uleb128 0xe
 2278 0164 3A       		.uleb128 0x3a
 2279 0165 0B       		.uleb128 0xb
 2280 0166 3B       		.uleb128 0x3b
 2281 0167 0B       		.uleb128 0xb
 2282 0168 27       		.uleb128 0x27
 2283 0169 0C       		.uleb128 0xc
 2284 016a 11       		.uleb128 0x11
 2285 016b 01       		.uleb128 0x1
 2286 016c 12       		.uleb128 0x12
 2287 016d 01       		.uleb128 0x1
 2288 016e 40       		.uleb128 0x40
 2289 016f 06       		.uleb128 0x6
 2290 0170 01       		.uleb128 0x1
 2291 0171 13       		.uleb128 0x13
 2292 0172 00       		.byte	0x0
 2293 0173 00       		.byte	0x0
 2294 0174 1D       		.uleb128 0x1d
 2295 0175 34       		.uleb128 0x34
 2296 0176 00       		.byte	0x0
 2297 0177 03       		.uleb128 0x3
 2298 0178 0E       		.uleb128 0xe
 2299 0179 3A       		.uleb128 0x3a
 2300 017a 0B       		.uleb128 0xb
 2301 017b 3B       		.uleb128 0x3b
 2302 017c 05       		.uleb128 0x5
 2303 017d 49       		.uleb128 0x49
 2304 017e 13       		.uleb128 0x13
 2305 017f 3F       		.uleb128 0x3f
 2306 0180 0C       		.uleb128 0xc
 2307 0181 3C       		.uleb128 0x3c
 2308 0182 0C       		.uleb128 0xc
 2309 0183 00       		.byte	0x0
 2310 0184 00       		.byte	0x0
 2311 0185 1E       		.uleb128 0x1e
 2312 0186 34       		.uleb128 0x34
 2313 0187 00       		.byte	0x0
 2314 0188 03       		.uleb128 0x3
 2315 0189 0E       		.uleb128 0xe
 2316 018a 3A       		.uleb128 0x3a
 2317 018b 0B       		.uleb128 0xb
 2318 018c 3B       		.uleb128 0x3b
 2319 018d 0B       		.uleb128 0xb
 2320 018e 49       		.uleb128 0x49
 2321 018f 13       		.uleb128 0x13
 2322 0190 02       		.uleb128 0x2
 2323 0191 0A       		.uleb128 0xa
 2324 0192 00       		.byte	0x0
 2325 0193 00       		.byte	0x0
 2326 0194 1F       		.uleb128 0x1f
 2327 0195 34       		.uleb128 0x34
 2328 0196 00       		.byte	0x0
 2329 0197 03       		.uleb128 0x3
 2330 0198 0E       		.uleb128 0xe
ARM GAS  C:\Users\DNIEL~1\AppData\Local\Temp\cc0CNsVc.s 			page 42


 2331 0199 3A       		.uleb128 0x3a
 2332 019a 0B       		.uleb128 0xb
 2333 019b 3B       		.uleb128 0x3b
 2334 019c 0B       		.uleb128 0xb
 2335 019d 49       		.uleb128 0x49
 2336 019e 13       		.uleb128 0x13
 2337 019f 00       		.byte	0x0
 2338 01a0 00       		.byte	0x0
 2339 01a1 20       		.uleb128 0x20
 2340 01a2 01       		.uleb128 0x1
 2341 01a3 01       		.byte	0x1
 2342 01a4 49       		.uleb128 0x49
 2343 01a5 13       		.uleb128 0x13
 2344 01a6 01       		.uleb128 0x1
 2345 01a7 13       		.uleb128 0x13
 2346 01a8 00       		.byte	0x0
 2347 01a9 00       		.byte	0x0
 2348 01aa 21       		.uleb128 0x21
 2349 01ab 21       		.uleb128 0x21
 2350 01ac 00       		.byte	0x0
 2351 01ad 49       		.uleb128 0x49
 2352 01ae 13       		.uleb128 0x13
 2353 01af 2F       		.uleb128 0x2f
 2354 01b0 0B       		.uleb128 0xb
 2355 01b1 00       		.byte	0x0
 2356 01b2 00       		.byte	0x0
 2357 01b3 00       		.byte	0x0
 2358              		.section	.debug_pubnames,"",%progbits
 2359 0000 9A000000 		.4byte	0x9a
 2360 0004 0200     		.2byte	0x2
 2361 0006 00000000 		.4byte	.Ldebug_info0
 2362 000a 2E0A0000 		.4byte	0xa2e
 2363 000e C9070000 		.4byte	0x7c9
 2364 0012 53504953 		.ascii	"SPISendData\000"
 2364      656E6444 
 2364      61746100 
 2365 001e 19080000 		.4byte	0x819
 2366 0022 53505631 		.ascii	"SPV1020CURR_IN\000"
 2366      30323043 
 2366      5552525F 
 2366      494E00
 2367 0031 51080000 		.4byte	0x851
 2368 0035 53505631 		.ascii	"SPV1020PWM\000"
 2368      30323050 
 2368      574D00
 2369 0040 89080000 		.4byte	0x889
 2370 0044 53505631 		.ascii	"SPV1020STATUS\000"
 2370      30323053 
 2370      54415455 
 2370      5300
 2371 0052 C1080000 		.4byte	0x8c1
 2372 0056 53505631 		.ascii	"SPV1020VIN\000"
 2372      30323056 
 2372      494E00
 2373 0061 F9080000 		.4byte	0x8f9
 2374 0065 53505631 		.ascii	"SPV1020TURN_ON\000"
 2374      30323054 
ARM GAS  C:\Users\DNIEL~1\AppData\Local\Temp\cc0CNsVc.s 			page 43


 2374      55524E5F 
 2374      4F4E00
 2375 0074 31090000 		.4byte	0x931
 2376 0078 53505631 		.ascii	"SPV1020SHUT_DOWN\000"
 2376      30323053 
 2376      4855545F 
 2376      444F574E 
 2376      00
 2377 0089 69090000 		.4byte	0x969
 2378 008d 7370695F 		.ascii	"spi_commInit\000"
 2378      636F6D6D 
 2378      496E6974 
 2378      00
 2379 009a 00000000 		.4byte	0x0
 2380              		.section	.debug_pubtypes,"",%progbits
 2381 0000 CB010000 		.4byte	0x1cb
 2382 0004 0200     		.2byte	0x2
 2383 0006 00000000 		.4byte	.Ldebug_info0
 2384 000a 2E0A0000 		.4byte	0xa2e
 2385 000e 30000000 		.4byte	0x30
 2386 0012 73697A65 		.ascii	"size_t\000"
 2386      5F7400
 2387 0019 49000000 		.4byte	0x49
 2388 001d 75696E74 		.ascii	"uint8_t\000"
 2388      385F7400 
 2389 0025 62000000 		.4byte	0x62
 2390 0029 75696E74 		.ascii	"uint16_t\000"
 2390      31365F74 
 2390      00
 2391 0032 74000000 		.4byte	0x74
 2392 0036 696E7433 		.ascii	"int32_t\000"
 2392      325F7400 
 2393 003e 86000000 		.4byte	0x86
 2394 0042 75696E74 		.ascii	"uint32_t\000"
 2394      33325F74 
 2394      00
 2395 004b AD000000 		.4byte	0xad
 2396 004f 746D6F64 		.ascii	"tmode_t\000"
 2396      655F7400 
 2397 0057 B8000000 		.4byte	0xb8
 2398 005b 74737461 		.ascii	"tstate_t\000"
 2398      74655F74 
 2398      00
 2399 0064 C3000000 		.4byte	0xc3
 2400 0068 74726566 		.ascii	"trefs_t\000"
 2400      735F7400 
 2401 0070 CE000000 		.4byte	0xce
 2402 0074 74736C69 		.ascii	"tslices_t\000"
 2402      6365735F 
 2402      7400
 2403 007e D9000000 		.4byte	0xd9
 2404 0082 74707269 		.ascii	"tprio_t\000"
 2404      6F5F7400 
 2405 008a E4000000 		.4byte	0xe4
 2406 008e 6D73675F 		.ascii	"msg_t\000"
 2406      7400
 2407 0094 EF000000 		.4byte	0xef
ARM GAS  C:\Users\DNIEL~1\AppData\Local\Temp\cc0CNsVc.s 			page 44


 2408 0098 6576656E 		.ascii	"eventmask_t\000"
 2408      746D6173 
 2408      6B5F7400 
 2409 00a4 FA000000 		.4byte	0xfa
 2410 00a8 73797374 		.ascii	"systime_t\000"
 2410      696D655F 
 2410      7400
 2411 00b2 05010000 		.4byte	0x105
 2412 00b6 54687265 		.ascii	"Thread\000"
 2412      616400
 2413 00bd 60020000 		.4byte	0x260
 2414 00c1 54687265 		.ascii	"ThreadsQueue\000"
 2414      61647351 
 2414      75657565 
 2414      00
 2415 00ce 82020000 		.4byte	0x282
 2416 00d2 54687265 		.ascii	"ThreadsList\000"
 2416      6164734C 
 2416      69737400 
 2417 00de 8D020000 		.4byte	0x28d
 2418 00e2 72656761 		.ascii	"regarm_t\000"
 2418      726D5F74 
 2418      00
 2419 00eb 9A020000 		.4byte	0x29a
 2420 00ef 696E7463 		.ascii	"intctx\000"
 2420      747800
 2421 00f6 28030000 		.4byte	0x328
 2422 00fa 636F6E74 		.ascii	"context\000"
 2422      65787400 
 2423 0102 55030000 		.4byte	0x355
 2424 0106 4D757465 		.ascii	"Mutex\000"
 2424      7800
 2425 010c 92030000 		.4byte	0x392
 2426 0110 4D757465 		.ascii	"Mutex\000"
 2426      7800
 2427 0116 10010000 		.4byte	0x110
 2428 011a 54687265 		.ascii	"Thread\000"
 2428      616400
 2429 0121 40040000 		.4byte	0x440
 2430 0125 444D415F 		.ascii	"DMA_Channel_TypeDef\000"
 2430      4368616E 
 2430      6E656C5F 
 2430      54797065 
 2430      44656600 
 2431 0139 BF040000 		.4byte	0x4bf
 2432 013d 4750494F 		.ascii	"GPIO_TypeDef\000"
 2432      5F547970 
 2432      65446566 
 2432      00
 2433 014a E1050000 		.4byte	0x5e1
 2434 014e 5350495F 		.ascii	"SPI_TypeDef\000"
 2434      54797065 
 2434      44656600 
 2435 015a 48060000 		.4byte	0x648
 2436 015e 73746D33 		.ascii	"stm32_dma_stream_t\000"
 2436      325F646D 
 2436      615F7374 
ARM GAS  C:\Users\DNIEL~1\AppData\Local\Temp\cc0CNsVc.s 			page 45


 2436      7265616D 
 2436      5F7400
 2437 0171 53060000 		.4byte	0x653
 2438 0175 696F706F 		.ascii	"ioportid_t\000"
 2438      72746964 
 2438      5F7400
 2439 0180 96060000 		.4byte	0x696
 2440 0184 73706973 		.ascii	"spistate_t\000"
 2440      74617465 
 2440      5F7400
 2441 018f A1060000 		.4byte	0x6a1
 2442 0193 53504944 		.ascii	"SPIDriver\000"
 2442      72697665 
 2442      7200
 2443 019d 42070000 		.4byte	0x742
 2444 01a1 73706963 		.ascii	"spicallback_t\000"
 2444      616C6C62 
 2444      61636B5F 
 2444      7400
 2445 01af AC070000 		.4byte	0x7ac
 2446 01b3 53504943 		.ascii	"SPIConfig\000"
 2446      6F6E6669 
 2446      6700
 2447 01bd AD060000 		.4byte	0x6ad
 2448 01c1 53504944 		.ascii	"SPIDriver\000"
 2448      72697665 
 2448      7200
 2449 01cb 00000000 		.4byte	0x0
 2450              		.section	.debug_aranges,"",%progbits
 2451 0000 54000000 		.4byte	0x54
 2452 0004 0200     		.2byte	0x2
 2453 0006 00000000 		.4byte	.Ldebug_info0
 2454 000a 04       		.byte	0x4
 2455 000b 00       		.byte	0x0
 2456 000c 0000     		.2byte	0x0
 2457 000e 0000     		.2byte	0x0
 2458 0010 00000000 		.4byte	.LFB62
 2459 0014 58000000 		.4byte	.LFE62-.LFB62
 2460 0018 00000000 		.4byte	.LFB61
 2461 001c 1E000000 		.4byte	.LFE61-.LFB61
 2462 0020 00000000 		.4byte	.LFB60
 2463 0024 1E000000 		.4byte	.LFE60-.LFB60
 2464 0028 00000000 		.4byte	.LFB59
 2465 002c 1E000000 		.4byte	.LFE59-.LFB59
 2466 0030 00000000 		.4byte	.LFB58
 2467 0034 1E000000 		.4byte	.LFE58-.LFB58
 2468 0038 00000000 		.4byte	.LFB57
 2469 003c 1E000000 		.4byte	.LFE57-.LFB57
 2470 0040 00000000 		.4byte	.LFB56
 2471 0044 1E000000 		.4byte	.LFE56-.LFB56
 2472 0048 00000000 		.4byte	.LFB63
 2473 004c 24000000 		.4byte	.LFE63-.LFB63
 2474 0050 00000000 		.4byte	0x0
 2475 0054 00000000 		.4byte	0x0
 2476              		.section	.debug_ranges,"",%progbits
 2477              	.Ldebug_ranges0:
 2478 0000 00000000 		.4byte	.LFB62
ARM GAS  C:\Users\DNIEL~1\AppData\Local\Temp\cc0CNsVc.s 			page 46


 2479 0004 58000000 		.4byte	.LFE62
 2480 0008 00000000 		.4byte	.LFB61
 2481 000c 1E000000 		.4byte	.LFE61
 2482 0010 00000000 		.4byte	.LFB60
 2483 0014 1E000000 		.4byte	.LFE60
 2484 0018 00000000 		.4byte	.LFB59
 2485 001c 1E000000 		.4byte	.LFE59
 2486 0020 00000000 		.4byte	.LFB58
 2487 0024 1E000000 		.4byte	.LFE58
 2488 0028 00000000 		.4byte	.LFB57
 2489 002c 1E000000 		.4byte	.LFE57
 2490 0030 00000000 		.4byte	.LFB56
 2491 0034 1E000000 		.4byte	.LFE56
 2492 0038 00000000 		.4byte	.LFB63
 2493 003c 24000000 		.4byte	.LFE63
 2494 0040 00000000 		.4byte	0x0
 2495 0044 00000000 		.4byte	0x0
 2496              		.section	.debug_str,"MS",%progbits,1
 2497              	.LASF97:
 2498 0000 646D6172 		.ascii	"dmarx\000"
 2498      7800
 2499              	.LASF17:
 2500 0006 74726566 		.ascii	"trefs_t\000"
 2500      735F7400 
 2501              	.LASF2:
 2502 000e 73697A65 		.ascii	"size_t\000"
 2502      5F7400
 2503              	.LASF52:
 2504 0015 7264796D 		.ascii	"rdymsg\000"
 2504      736700
 2505              	.LASF1:
 2506 001c 7369676E 		.ascii	"signed char\000"
 2506      65642063 
 2506      68617200 
 2507              	.LASF89:
 2508 0028 5350495F 		.ascii	"SPI_ACTIVE\000"
 2508      41435449 
 2508      564500
 2509              	.LASF121:
 2510 0033 7372632F 		.ascii	"src/spi_comm.c\000"
 2510      7370695F 
 2510      636F6D6D 
 2510      2E6300
 2511              	.LASF106:
 2512 0042 72786275 		.ascii	"rxbuf\000"
 2512      6600
 2513              	.LASF122:
 2514 0048 433A5C44 		.ascii	"C:\\Dani\\MegaLux\\Repo\\LuxControl\\LuxControl\\lu"
 2514      616E695C 
 2514      4D656761 
 2514      4C75785C 
 2514      5265706F 
 2515 0075 78636F6E 		.ascii	"xcontrol\\firmware\000"
 2515      74726F6C 
 2515      5C666972 
 2515      6D776172 
 2515      6500
ARM GAS  C:\Users\DNIEL~1\AppData\Local\Temp\cc0CNsVc.s 			page 47


 2516              	.LASF104:
 2517 0087 73737061 		.ascii	"sspad\000"
 2517      6400
 2518              	.LASF13:
 2519 008d 6C6F6E67 		.ascii	"long long unsigned int\000"
 2519      206C6F6E 
 2519      6720756E 
 2519      7369676E 
 2519      65642069 
 2520              	.LASF68:
 2521 00a4 43524350 		.ascii	"CRCPR\000"
 2521      5200
 2522              	.LASF53:
 2523 00aa 65786974 		.ascii	"exitcode\000"
 2523      636F6465 
 2523      00
 2524              	.LASF83:
 2525 00b3 76656374 		.ascii	"vector\000"
 2525      6F7200
 2526              	.LASF92:
 2527 00ba 53504944 		.ascii	"SPIDriver\000"
 2527      72697665 
 2527      7200
 2528              	.LASF103:
 2529 00c4 7373706F 		.ascii	"ssport\000"
 2529      727400
 2530              	.LASF115:
 2531 00cb 49544D5F 		.ascii	"ITM_RxBuffer\000"
 2531      52784275 
 2531      66666572 
 2531      00
 2532              	.LASF26:
 2533 00d8 705F7072 		.ascii	"p_prio\000"
 2533      696F00
 2534              	.LASF12:
 2535 00df 6C6F6E67 		.ascii	"long long int\000"
 2535      206C6F6E 
 2535      6720696E 
 2535      7400
 2536              	.LASF61:
 2537 00ed 42535252 		.ascii	"BSRR\000"
 2537      00
 2538              	.LASF107:
 2539 00f2 74787369 		.ascii	"txsize\000"
 2539      7A6500
 2540              	.LASF87:
 2541 00f9 5350495F 		.ascii	"SPI_STOP\000"
 2541      53544F50 
 2541      00
 2542              	.LASF42:
 2543 0102 705F6D70 		.ascii	"p_mpool\000"
 2543      6F6F6C00 
 2544              	.LASF49:
 2545 010a 6D5F7175 		.ascii	"m_queue\000"
 2545      65756500 
 2546              	.LASF18:
 2547 0112 74736C69 		.ascii	"tslices_t\000"
ARM GAS  C:\Users\DNIEL~1\AppData\Local\Temp\cc0CNsVc.s 			page 48


 2547      6365735F 
 2547      7400
 2548              	.LASF93:
 2549 011c 73746174 		.ascii	"state\000"
 2549      6500
 2550              	.LASF9:
 2551 0122 6C6F6E67 		.ascii	"long int\000"
 2551      20696E74 
 2551      00
 2552              	.LASF16:
 2553 012b 74737461 		.ascii	"tstate_t\000"
 2553      74655F74 
 2553      00
 2554              	.LASF99:
 2555 0134 7278646D 		.ascii	"rxdmamode\000"
 2555      616D6F64 
 2555      6500
 2556              	.LASF95:
 2557 013e 74687265 		.ascii	"thread\000"
 2557      616400
 2558              	.LASF6:
 2559 0145 75696E74 		.ascii	"uint16_t\000"
 2559      31365F74 
 2559      00
 2560              	.LASF28:
 2561 014e 705F6E65 		.ascii	"p_newer\000"
 2561      77657200 
 2562              	.LASF102:
 2563 0156 656E645F 		.ascii	"end_cb\000"
 2563      636200
 2564              	.LASF111:
 2565 015d 53505631 		.ascii	"SPV1020STATUS\000"
 2565      30323053 
 2565      54415455 
 2565      5300
 2566              	.LASF98:
 2567 016b 646D6174 		.ascii	"dmatx\000"
 2567      7800
 2568              	.LASF45:
 2569 0171 72656761 		.ascii	"regarm_t\000"
 2569      726D5F74 
 2569      00
 2570              	.LASF82:
 2571 017a 73656C66 		.ascii	"selfindex\000"
 2571      696E6465 
 2571      7800
 2572              	.LASF117:
 2573 0184 6C735F73 		.ascii	"ls_spicfg_cs1\000"
 2573      70696366 
 2573      675F6373 
 2573      3100
 2574              	.LASF101:
 2575 0192 73706963 		.ascii	"spicallback_t\000"
 2575      616C6C62 
 2575      61636B5F 
 2575      7400
 2576              	.LASF0:
ARM GAS  C:\Users\DNIEL~1\AppData\Local\Temp\cc0CNsVc.s 			page 49


 2577 01a0 756E7369 		.ascii	"unsigned int\000"
 2577      676E6564 
 2577      20696E74 
 2577      00
 2578              	.LASF118:
 2579 01ad 74786275 		.ascii	"txbuf\000"
 2579      6600
 2580              	.LASF35:
 2581 01b3 705F7469 		.ascii	"p_time\000"
 2581      6D6500
 2582              	.LASF58:
 2583 01ba 43504152 		.ascii	"CPAR\000"
 2583      00
 2584              	.LASF37:
 2585 01bf 705F6D73 		.ascii	"p_msgqueue\000"
 2585      67717565 
 2585      756500
 2586              	.LASF63:
 2587 01ca 4750494F 		.ascii	"GPIO_TypeDef\000"
 2587      5F547970 
 2587      65446566 
 2587      00
 2588              	.LASF109:
 2589 01d7 53505631 		.ascii	"SPV1020CURR_IN\000"
 2589      30323043 
 2589      5552525F 
 2589      494E00
 2590              	.LASF62:
 2591 01e6 4C434B52 		.ascii	"LCKR\000"
 2591      00
 2592              	.LASF81:
 2593 01eb 69736869 		.ascii	"ishift\000"
 2593      667400
 2594              	.LASF7:
 2595 01f2 73686F72 		.ascii	"short unsigned int\000"
 2595      7420756E 
 2595      7369676E 
 2595      65642069 
 2595      6E7400
 2596              	.LASF108:
 2597 0205 53504953 		.ascii	"SPISendData\000"
 2597      656E6444 
 2597      61746100 
 2598              	.LASF20:
 2599 0211 6D73675F 		.ascii	"msg_t\000"
 2599      7400
 2600              	.LASF110:
 2601 0217 53505631 		.ascii	"SPV1020PWM\000"
 2601      30323050 
 2601      574D00
 2602              	.LASF15:
 2603 0222 746D6F64 		.ascii	"tmode_t\000"
 2603      655F7400 
 2604              	.LASF44:
 2605 022a 54687265 		.ascii	"ThreadsList\000"
 2605      6164734C 
 2605      69737400 
ARM GAS  C:\Users\DNIEL~1\AppData\Local\Temp\cc0CNsVc.s 			page 50


 2606              	.LASF21:
 2607 0236 6576656E 		.ascii	"eventmask_t\000"
 2607      746D6173 
 2607      6B5F7400 
 2608              	.LASF123:
 2609 0242 7370695F 		.ascii	"spi_commInit\000"
 2609      636F6D6D 
 2609      496E6974 
 2609      00
 2610              	.LASF23:
 2611 024f 54687265 		.ascii	"Thread\000"
 2611      616400
 2612              	.LASF112:
 2613 0256 53505631 		.ascii	"SPV1020VIN\000"
 2613      30323056 
 2613      494E00
 2614              	.LASF76:
 2615 0261 49325350 		.ascii	"I2SPR\000"
 2615      5200
 2616              	.LASF48:
 2617 0267 4D757465 		.ascii	"Mutex\000"
 2617      7800
 2618              	.LASF74:
 2619 026d 49325343 		.ascii	"I2SCFGR\000"
 2619      46475200 
 2620              	.LASF29:
 2621 0275 705F6F6C 		.ascii	"p_older\000"
 2621      64657200 
 2622              	.LASF43:
 2623 027d 54687265 		.ascii	"ThreadsQueue\000"
 2623      61647351 
 2623      75657565 
 2623      00
 2624              	.LASF100:
 2625 028a 7478646D 		.ascii	"txdmamode\000"
 2625      616D6F64 
 2625      6500
 2626              	.LASF60:
 2627 0294 444D415F 		.ascii	"DMA_Channel_TypeDef\000"
 2627      4368616E 
 2627      6E656C5F 
 2627      54797065 
 2627      44656600 
 2628              	.LASF72:
 2629 02a8 54584352 		.ascii	"TXCRCR\000"
 2629      435200
 2630              	.LASF64:
 2631 02af 52455345 		.ascii	"RESERVED0\000"
 2631      52564544 
 2631      3000
 2632              	.LASF65:
 2633 02b9 52455345 		.ascii	"RESERVED1\000"
 2633      52564544 
 2633      3100
 2634              	.LASF66:
 2635 02c3 52455345 		.ascii	"RESERVED2\000"
 2635      52564544 
ARM GAS  C:\Users\DNIEL~1\AppData\Local\Temp\cc0CNsVc.s 			page 51


 2635      3200
 2636              	.LASF67:
 2637 02cd 52455345 		.ascii	"RESERVED3\000"
 2637      52564544 
 2637      3300
 2638              	.LASF69:
 2639 02d7 52455345 		.ascii	"RESERVED4\000"
 2639      52564544 
 2639      3400
 2640              	.LASF25:
 2641 02e1 705F7072 		.ascii	"p_prev\000"
 2641      657600
 2642              	.LASF73:
 2643 02e8 52455345 		.ascii	"RESERVED6\000"
 2643      52564544 
 2643      3600
 2644              	.LASF75:
 2645 02f2 52455345 		.ascii	"RESERVED7\000"
 2645      52564544 
 2645      3700
 2646              	.LASF77:
 2647 02fc 52455345 		.ascii	"RESERVED8\000"
 2647      52564544 
 2647      3800
 2648              	.LASF19:
 2649 0306 74707269 		.ascii	"tprio_t\000"
 2649      6F5F7400 
 2650              	.LASF96:
 2651 030e 6D757465 		.ascii	"mutex\000"
 2651      7800
 2652              	.LASF14:
 2653 0314 5F426F6F 		.ascii	"_Bool\000"
 2653      6C00
 2654              	.LASF8:
 2655 031a 696E7433 		.ascii	"int32_t\000"
 2655      325F7400 
 2656              	.LASF4:
 2657 0322 756E7369 		.ascii	"unsigned char\000"
 2657      676E6564 
 2657      20636861 
 2657      7200
 2658              	.LASF113:
 2659 0330 53505631 		.ascii	"SPV1020TURN_ON\000"
 2659      30323054 
 2659      55524E5F 
 2659      4F4E00
 2660              	.LASF116:
 2661 033f 53504944 		.ascii	"SPID1\000"
 2661      3100
 2662              	.LASF40:
 2663 0345 705F6D74 		.ascii	"p_mtxlist\000"
 2663      786C6973 
 2663      7400
 2664              	.LASF5:
 2665 034f 73686F72 		.ascii	"short int\000"
 2665      7420696E 
 2665      7400
ARM GAS  C:\Users\DNIEL~1\AppData\Local\Temp\cc0CNsVc.s 			page 52


 2666              	.LASF31:
 2667 0359 705F7374 		.ascii	"p_state\000"
 2667      61746500 
 2668              	.LASF84:
 2669 0361 73746D33 		.ascii	"stm32_dma_stream_t\000"
 2669      325F646D 
 2669      615F7374 
 2669      7265616D 
 2669      5F7400
 2670              	.LASF34:
 2671 0374 705F7072 		.ascii	"p_preempt\000"
 2671      65656D70 
 2671      7400
 2672              	.LASF55:
 2673 037e 65776D61 		.ascii	"ewmask\000"
 2673      736B00
 2674              	.LASF24:
 2675 0385 705F6E65 		.ascii	"p_next\000"
 2675      787400
 2676              	.LASF32:
 2677 038c 705F666C 		.ascii	"p_flags\000"
 2677      61677300 
 2678              	.LASF79:
 2679 0394 6368616E 		.ascii	"channel\000"
 2679      6E656C00 
 2680              	.LASF39:
 2681 039c 705F6570 		.ascii	"p_epending\000"
 2681      656E6469 
 2681      6E6700
 2682              	.LASF80:
 2683 03a7 69666372 		.ascii	"ifcr\000"
 2683      00
 2684              	.LASF71:
 2685 03ac 52455345 		.ascii	"RESERVED5\000"
 2685      52564544 
 2685      3500
 2686              	.LASF10:
 2687 03b6 75696E74 		.ascii	"uint32_t\000"
 2687      33325F74 
 2687      00
 2688              	.LASF119:
 2689 03bf 74786275 		.ascii	"txbuf_nop\000"
 2689      665F6E6F 
 2689      7000
 2690              	.LASF114:
 2691 03c9 53505631 		.ascii	"SPV1020SHUT_DOWN\000"
 2691      30323053 
 2691      4855545F 
 2691      444F574E 
 2691      00
 2692              	.LASF11:
 2693 03da 6C6F6E67 		.ascii	"long unsigned int\000"
 2693      20756E73 
 2693      69676E65 
 2693      6420696E 
 2693      7400
 2694              	.LASF78:
ARM GAS  C:\Users\DNIEL~1\AppData\Local\Temp\cc0CNsVc.s 			page 53


 2695 03ec 5350495F 		.ascii	"SPI_TypeDef\000"
 2695      54797065 
 2695      44656600 
 2696              	.LASF56:
 2697 03f8 63686172 		.ascii	"char\000"
 2697      00
 2698              	.LASF90:
 2699 03fd 5350495F 		.ascii	"SPI_COMPLETE\000"
 2699      434F4D50 
 2699      4C455445 
 2699      00
 2700              	.LASF94:
 2701 040a 636F6E66 		.ascii	"config\000"
 2701      696700
 2702              	.LASF91:
 2703 0411 73706973 		.ascii	"spistate_t\000"
 2703      74617465 
 2703      5F7400
 2704              	.LASF51:
 2705 041c 6D5F6E65 		.ascii	"m_next\000"
 2705      787400
 2706              	.LASF22:
 2707 0423 73797374 		.ascii	"systime_t\000"
 2707      696D655F 
 2707      7400
 2708              	.LASF41:
 2709 042d 705F7265 		.ascii	"p_realprio\000"
 2709      616C7072 
 2709      696F00
 2710              	.LASF85:
 2711 0438 696F706F 		.ascii	"ioportid_t\000"
 2711      72746964 
 2711      5F7400
 2712              	.LASF47:
 2713 0443 636F6E74 		.ascii	"context\000"
 2713      65787400 
 2714              	.LASF46:
 2715 044b 696E7463 		.ascii	"intctx\000"
 2715      747800
 2716              	.LASF88:
 2717 0452 5350495F 		.ascii	"SPI_READY\000"
 2717      52454144 
 2717      5900
 2718              	.LASF86:
 2719 045c 5350495F 		.ascii	"SPI_UNINIT\000"
 2719      554E494E 
 2719      495400
 2720              	.LASF33:
 2721 0467 705F7265 		.ascii	"p_refs\000"
 2721      667300
 2722              	.LASF57:
 2723 046e 434E4454 		.ascii	"CNDTR\000"
 2723      5200
 2724              	.LASF59:
 2725 0474 434D4152 		.ascii	"CMAR\000"
 2725      00
 2726              	.LASF70:
ARM GAS  C:\Users\DNIEL~1\AppData\Local\Temp\cc0CNsVc.s 			page 54


 2727 0479 52584352 		.ascii	"RXCRCR\000"
 2727      435200
 2728              	.LASF3:
 2729 0480 75696E74 		.ascii	"uint8_t\000"
 2729      385F7400 
 2730              	.LASF54:
 2731 0488 77746F62 		.ascii	"wtobjp\000"
 2731      6A7000
 2732              	.LASF120:
 2733 048f 474E5520 		.ascii	"GNU C 4.5.2\000"
 2733      4320342E 
 2733      352E3200 
 2734              	.LASF30:
 2735 049b 705F6E61 		.ascii	"p_name\000"
 2735      6D6500
 2736              	.LASF105:
 2737 04a2 53504943 		.ascii	"SPIConfig\000"
 2737      6F6E6669 
 2737      6700
 2738              	.LASF38:
 2739 04ac 705F6D73 		.ascii	"p_msg\000"
 2739      6700
 2740              	.LASF50:
 2741 04b2 6D5F6F77 		.ascii	"m_owner\000"
 2741      6E657200 
 2742              	.LASF27:
 2743 04ba 705F6374 		.ascii	"p_ctx\000"
 2743      7800
 2744              	.LASF36:
 2745 04c0 705F7761 		.ascii	"p_waiting\000"
 2745      6974696E 
 2745      6700
 2746              		.ident	"GCC: (Sourcery G++ Lite 2011.03-42) 4.5.2"
ARM GAS  C:\Users\DNIEL~1\AppData\Local\Temp\cc0CNsVc.s 			page 55


DEFINED SYMBOLS
                            *ABS*:00000000 spi_comm.c
C:\Users\DNIEL~1\AppData\Local\Temp\cc0CNsVc.s:24     .text.SPISendData:00000000 $t
C:\Users\DNIEL~1\AppData\Local\Temp\cc0CNsVc.s:30     .text.SPISendData:00000000 SPISendData
C:\Users\DNIEL~1\AppData\Local\Temp\cc0CNsVc.s:93     .text.SPISendData:0000004c $d
C:\Users\DNIEL~1\AppData\Local\Temp\cc0CNsVc.s:100    .text.SPV1020CURR_IN:00000000 $t
C:\Users\DNIEL~1\AppData\Local\Temp\cc0CNsVc.s:106    .text.SPV1020CURR_IN:00000000 SPV1020CURR_IN
C:\Users\DNIEL~1\AppData\Local\Temp\cc0CNsVc.s:137    .text.SPV1020PWM:00000000 $t
C:\Users\DNIEL~1\AppData\Local\Temp\cc0CNsVc.s:143    .text.SPV1020PWM:00000000 SPV1020PWM
C:\Users\DNIEL~1\AppData\Local\Temp\cc0CNsVc.s:174    .text.SPV1020STATUS:00000000 $t
C:\Users\DNIEL~1\AppData\Local\Temp\cc0CNsVc.s:180    .text.SPV1020STATUS:00000000 SPV1020STATUS
C:\Users\DNIEL~1\AppData\Local\Temp\cc0CNsVc.s:211    .text.SPV1020VIN:00000000 $t
C:\Users\DNIEL~1\AppData\Local\Temp\cc0CNsVc.s:217    .text.SPV1020VIN:00000000 SPV1020VIN
C:\Users\DNIEL~1\AppData\Local\Temp\cc0CNsVc.s:248    .text.SPV1020TURN_ON:00000000 $t
C:\Users\DNIEL~1\AppData\Local\Temp\cc0CNsVc.s:254    .text.SPV1020TURN_ON:00000000 SPV1020TURN_ON
C:\Users\DNIEL~1\AppData\Local\Temp\cc0CNsVc.s:285    .text.SPV1020SHUT_DOWN:00000000 $t
C:\Users\DNIEL~1\AppData\Local\Temp\cc0CNsVc.s:291    .text.SPV1020SHUT_DOWN:00000000 SPV1020SHUT_DOWN
C:\Users\DNIEL~1\AppData\Local\Temp\cc0CNsVc.s:322    .text.spi_commInit:00000000 $t
C:\Users\DNIEL~1\AppData\Local\Temp\cc0CNsVc.s:328    .text.spi_commInit:00000000 spi_commInit
C:\Users\DNIEL~1\AppData\Local\Temp\cc0CNsVc.s:365    .text.spi_commInit:00000020 $d
C:\Users\DNIEL~1\AppData\Local\Temp\cc0CNsVc.s:370    .bss.txbuf_nop:00000000 $d
C:\Users\DNIEL~1\AppData\Local\Temp\cc0CNsVc.s:374    .bss.txbuf_nop:00000000 txbuf_nop
C:\Users\DNIEL~1\AppData\Local\Temp\cc0CNsVc.s:377    .rodata.ls_spicfg_cs1:00000000 $d
C:\Users\DNIEL~1\AppData\Local\Temp\cc0CNsVc.s:381    .rodata.ls_spicfg_cs1:00000000 ls_spicfg_cs1
                     .debug_frame:00000010 $d
C:\Users\DNIEL~1\AppData\Local\Temp\cc0CNsVc.s:99     .text.SPISendData:00000058 $t
C:\Users\DNIEL~1\AppData\Local\Temp\cc0CNsVc.s:369    .text.spi_commInit:00000024 $t

UNDEFINED SYMBOLS
spiAcquireBus
spiStart
spiSelect
spiSend
spiExchange
spiUnselect
spiStop
spiReleaseBus
SPID1
