ARM GAS  C:\Users\DNIEL~1\AppData\Local\Temp\ccTozYXj.s 			page 1


   1              		.syntax unified
   2              		.cpu cortex-m3
   3              		.fpu softvfp
   4              		.eabi_attribute 20, 1
   5              		.eabi_attribute 21, 1
   6              		.eabi_attribute 23, 3
   7              		.eabi_attribute 24, 1
   8              		.eabi_attribute 25, 1
   9              		.eabi_attribute 26, 1
  10              		.eabi_attribute 30, 2
  11              		.eabi_attribute 18, 4
  12              		.thumb
  13              		.file	"spi_lld.c"
  14              		.section	.debug_abbrev,"",%progbits
  15              	.Ldebug_abbrev0:
  16              		.section	.debug_info,"",%progbits
  17              	.Ldebug_info0:
  18              		.section	.debug_line,"",%progbits
  19              	.Ldebug_line0:
  20 0000 76040000 		.text
  20      0200CE02 
  20      00000201 
  20      FB0E0D00 
  20      01010101 
  21              	.Ltext0:
  22              		.cfi_sections	.debug_frame
  23              		.section	.text.spi_lld_serve_tx_interrupt,"ax",%progbits
  24              		.align	2
  25              		.p2align 4,,15
  26              		.thumb
  27              		.thumb_func
  28              		.type	spi_lld_serve_tx_interrupt, %function
  29              	spi_lld_serve_tx_interrupt:
  30              	.LFB57:
  31              		.file 1 "../../../ChibiOS/os/hal/platforms/STM32/SPIv1/spi_lld.c"
  32              		.loc 1 159 0
  33              		.cfi_startproc
  34              		@ args = 0, pretend = 0, frame = 0
  35              		@ frame_needed = 0, uses_anonymous_args = 0
  36              		@ link register save eliminated.
  37              	.LVL0:
  38              		.loc 1 164 0
  39 0000 11F0080F 		tst	r1, #8
  40 0004 00D1     		bne	.L4
  41 0006 7047     		bx	lr
  42              	.L4:
  43              		.loc 1 171 0
  44              		.loc 1 165 0
  45 0008 FFF7FEBF 		b	port_halt
  46              		.cfi_endproc
  47              	.LFE57:
  48              		.size	spi_lld_serve_tx_interrupt, .-spi_lld_serve_tx_interrupt
  49 000c AFF30080 		.section	.text.spi_lld_serve_rx_interrupt,"ax",%progbits
  50              		.align	2
  51              		.p2align 4,,15
  52              		.thumb
  53              		.thumb_func
ARM GAS  C:\Users\DNIEL~1\AppData\Local\Temp\ccTozYXj.s 			page 2


  54              		.type	spi_lld_serve_rx_interrupt, %function
  55              	spi_lld_serve_rx_interrupt:
  56              	.LFB56:
  57              		.loc 1 133 0
  58              		.cfi_startproc
  59              		@ args = 0, pretend = 0, frame = 0
  60              		@ frame_needed = 0, uses_anonymous_args = 0
  61              	.LVL1:
  62              		.loc 1 137 0
  63 0000 11F0080F 		tst	r1, #8
  64              		.loc 1 133 0
  65 0004 70B5     		push	{r4, r5, r6, lr}
  66              	.LCFI0:
  67              		.cfi_def_cfa_offset 16
  68              		.loc 1 133 0
  69 0006 0446     		mov	r4, r0
  70              		.cfi_offset 14, -4
  71              		.cfi_offset 6, -8
  72              		.cfi_offset 5, -12
  73              		.cfi_offset 4, -16
  74              		.loc 1 137 0
  75 0008 31D1     		bne	.L10
  76              	.LVL2:
  77              	.L6:
  78              		.loc 1 145 0
  79 000a 626A     		ldr	r2, [r4, #36]
  80              		.loc 1 146 0
  81 000c 236A     		ldr	r3, [r4, #32]
  82              		.loc 1 145 0
  83 000e 1068     		ldr	r0, [r2, #0]
  84 0010 5568     		ldr	r5, [r2, #4]
  85 0012 0668     		ldr	r6, [r0, #0]
  86 0014 0F21     		movs	r1, #15
  87 0016 26F00F06 		bic	r6, r6, #15
  88 001a 0660     		str	r6, [r0, #0]
  89 001c 107A     		ldrb	r0, [r2, #8]	@ zero_extendqisi2
  90              		.loc 1 146 0
  91 001e 1A68     		ldr	r2, [r3, #0]
  92              		.loc 1 145 0
  93 0020 11FA00F0 		lsls	r0, r1, r0
  94 0024 2860     		str	r0, [r5, #0]
  95              		.loc 1 146 0
  96 0026 1568     		ldr	r5, [r2, #0]
  97              		.loc 1 150 0
  98 0028 6068     		ldr	r0, [r4, #4]
  99              		.loc 1 146 0
 100 002a 25F00F05 		bic	r5, r5, #15
 101 002e 1560     		str	r5, [r2, #0]
 102 0030 1D7A     		ldrb	r5, [r3, #8]	@ zero_extendqisi2
 103 0032 5A68     		ldr	r2, [r3, #4]
 104 0034 A940     		lsls	r1, r1, r5
 105              		.loc 1 150 0
 106 0036 0368     		ldr	r3, [r0, #0]
 107              		.loc 1 146 0
 108 0038 1160     		str	r1, [r2, #0]
 109              		.loc 1 150 0
 110 003a ABB1     		cbz	r3, .L7
ARM GAS  C:\Users\DNIEL~1\AppData\Local\Temp\ccTozYXj.s 			page 3


 111              		.loc 1 150 0 is_stmt 0 discriminator 1
 112 003c 0421     		movs	r1, #4
 113 003e 2170     		strb	r1, [r4, #0]
 114 0040 2046     		mov	r0, r4
 115 0042 9847     		blx	r3
 116 0044 94F800C0 		ldrb	ip, [r4, #0]	@ zero_extendqisi2
 117 0048 BCF1040F 		cmp	ip, #4
 118 004c 0CD0     		beq	.L7
 119              	.L8:
 120              		.loc 1 150 0 discriminator 4
 121              	@ 150 "../../../ChibiOS/os/hal/platforms/STM32/SPIv1/spi_lld.c" 1
 122 004e FFF7FEFF 		bl      _port_lock
 123              	@ 0 "" 2
 124              		.thumb
 125 0052 A368     		ldr	r3, [r4, #8]
 126 0054 2BB1     		cbz	r3, .L9
 127              	.LVL3:
 128              	.LBB2:
 129              		.loc 1 150 0 discriminator 5
 130 0056 0022     		movs	r2, #0
 131 0058 A260     		str	r2, [r4, #8]
 132 005a 1846     		mov	r0, r3
 133 005c 5A62     		str	r2, [r3, #36]
 134 005e FFF7FEFF 		bl	chSchReadyI
 135              	.LVL4:
 136              	.L9:
 137              	.LBE2:
 138              		.loc 1 150 0 discriminator 6
 139              	@ 150 "../../../ChibiOS/os/hal/platforms/STM32/SPIv1/spi_lld.c" 1
 140 0062 FFF7FEFF 		bl      _port_unlock
 141              	@ 0 "" 2
 142              		.loc 1 151 0 is_stmt 1 discriminator 6
 143              		.thumb
 144 0066 70BD     		pop	{r4, r5, r6, pc}
 145              	.L7:
 146              		.loc 1 150 0 discriminator 2
 147 0068 0223     		movs	r3, #2
 148 006a 2370     		strb	r3, [r4, #0]
 149 006c EFE7     		b	.L8
 150              	.LVL5:
 151              	.L10:
 152              		.loc 1 138 0
 153 006e FFF7FEFF 		bl	port_halt
 154              	.LVL6:
 155 0072 CAE7     		b	.L6
 156              		.cfi_endproc
 157              	.LFE56:
 158              		.size	spi_lld_serve_rx_interrupt, .-spi_lld_serve_rx_interrupt
 159 0074 AFF30080 		.section	.text.spi_lld_init,"ax",%progbits
 159      AFF30080 
 159      AFF30080 
 160              		.align	2
 161              		.p2align 4,,15
 162              		.global	spi_lld_init
 163              		.thumb
 164              		.thumb_func
 165              		.type	spi_lld_init, %function
ARM GAS  C:\Users\DNIEL~1\AppData\Local\Temp\ccTozYXj.s 			page 4


 166              	spi_lld_init:
 167              	.LFB58:
 168              		.loc 1 186 0
 169              		.cfi_startproc
 170              		@ args = 0, pretend = 0, frame = 0
 171              		@ frame_needed = 0, uses_anonymous_args = 0
 172 0000 10B5     		push	{r4, lr}
 173              	.LCFI1:
 174              		.cfi_def_cfa_offset 8
 175              		.loc 1 188 0
 176 0002 0B4A     		ldr	r2, .L12
 177              		.loc 1 191 0
 178 0004 0B4C     		ldr	r4, .L12+4
 179              		.cfi_offset 14, -4
 180              		.cfi_offset 4, -8
 181              		.loc 1 188 0
 182 0006 4FF0FF3C 		mov	ip, #-1	@ movhi
 183              		.loc 1 191 0
 184 000a 2046     		mov	r0, r4
 185              		.loc 1 188 0
 186 000c A2F800C0 		strh	ip, [r2, #0]	@ movhi
 187              		.loc 1 191 0
 188 0010 FFF7FEFF 		bl	spiObjectInit
 189              		.loc 1 193 0
 190 0014 084B     		ldr	r3, .L12+8
 191              		.loc 1 192 0
 192 0016 0949     		ldr	r1, .L12+12
 193              		.loc 1 194 0
 194 0018 03F10C02 		add	r2, r3, #12
 195              		.loc 1 193 0
 196 001c 2362     		str	r3, [r4, #32]
 197              		.loc 1 195 0
 198 001e 41F20A00 		movw	r0, #4106
 199              		.loc 1 201 0
 200 0022 41F21803 		movw	r3, #4120
 201              		.loc 1 192 0
 202 0026 E161     		str	r1, [r4, #28]
 203              		.loc 1 194 0
 204 0028 6262     		str	r2, [r4, #36]
 205              		.loc 1 195 0
 206 002a A062     		str	r0, [r4, #40]
 207              		.loc 1 201 0
 208 002c E362     		str	r3, [r4, #44]
 209              		.loc 1 297 0
 210 002e 10BD     		pop	{r4, pc}
 211              	.L13:
 212              		.align	2
 213              	.L12:
 214 0030 00000000 		.word	.LANCHOR0
 215 0034 00000000 		.word	.LANCHOR1
 216 0038 0C000000 		.word	_stm32_dma_streams+12
 217 003c 00300140 		.word	1073819648
 218              		.cfi_endproc
 219              	.LFE58:
 220              		.size	spi_lld_init, .-spi_lld_init
 221              		.section	.text.spi_lld_start,"ax",%progbits
 222              		.align	2
ARM GAS  C:\Users\DNIEL~1\AppData\Local\Temp\ccTozYXj.s 			page 5


 223              		.p2align 4,,15
 224              		.global	spi_lld_start
 225              		.thumb
 226              		.thumb_func
 227              		.type	spi_lld_start, %function
 228              	spi_lld_start:
 229              	.LFB59:
 230              		.loc 1 306 0
 231              		.cfi_startproc
 232              		@ args = 0, pretend = 0, frame = 0
 233              		@ frame_needed = 0, uses_anonymous_args = 0
 234              	.LVL7:
 235              		.loc 1 309 0
 236 0000 0378     		ldrb	r3, [r0, #0]	@ zero_extendqisi2
 237              		.loc 1 306 0
 238 0002 10B5     		push	{r4, lr}
 239              	.LCFI2:
 240              		.cfi_def_cfa_offset 8
 241              		.loc 1 309 0
 242 0004 012B     		cmp	r3, #1
 243              		.loc 1 306 0
 244 0006 0446     		mov	r4, r0
 245              		.cfi_offset 14, -4
 246              		.cfi_offset 4, -8
 247              		.loc 1 309 0
 248 0008 20D0     		beq	.L20
 249 000a C369     		ldr	r3, [r0, #28]
 250              	.LVL8:
 251              	.L15:
 252              		.loc 1 413 0
 253 000c 6268     		ldr	r2, [r4, #4]
 254              		.loc 1 416 0
 255 000e A06A     		ldr	r0, [r4, #40]
 256              		.loc 1 413 0
 257 0010 5289     		ldrh	r2, [r2, #10]
 258              		.loc 1 418 0
 259 0012 E16A     		ldr	r1, [r4, #44]
 260              		.loc 1 413 0
 261 0014 12F4006F 		tst	r2, #2048
 262              		.loc 1 416 0
 263 0018 20F47060 		bic	r0, r0, #3840
 264              		.loc 1 418 0
 265 001c 21F47061 		bic	r1, r1, #3840
 266              		.loc 1 423 0
 267 0020 1CBF     		itt	ne
 268 0022 40F4A060 		orrne	r0, r0, #1280
 269              		.loc 1 425 0
 270 0026 41F4A061 		orrne	r1, r1, #1280
 271              		.loc 1 422 0
 272 002a A062     		str	r0, [r4, #40]
 273              		.loc 1 424 0
 274 002c E162     		str	r1, [r4, #44]
 275              		.loc 1 429 0
 276 002e 42F4417C 		orr	ip, r2, #772
 277              		.loc 1 428 0
 278 0032 0020     		movs	r0, #0
 279              		.loc 1 431 0
ARM GAS  C:\Users\DNIEL~1\AppData\Local\Temp\ccTozYXj.s 			page 6


 280 0034 0721     		movs	r1, #7
 281              		.loc 1 428 0
 282 0036 1880     		strh	r0, [r3, #0]	@ movhi
 283              		.loc 1 429 0
 284 0038 A3F800C0 		strh	ip, [r3, #0]	@ movhi
 285              		.loc 1 431 0
 286 003c 9980     		strh	r1, [r3, #4]	@ movhi
 287              		.loc 1 432 0
 288 003e 1A88     		ldrh	r2, [r3, #0]
 289 0040 90B2     		uxth	r0, r2
 290 0042 40F0400C 		orr	ip, r0, #64
 291 0046 A3F800C0 		strh	ip, [r3, #0]	@ movhi
 292              		.loc 1 433 0
 293 004a 10BD     		pop	{r4, pc}
 294              	.L20:
 295              		.loc 1 311 0
 296 004c 0F49     		ldr	r1, .L22
 297 004e 8842     		cmp	r0, r1
 298 0050 09D0     		beq	.L21
 299              	.L16:
 300              		.loc 1 408 0
 301 0052 216A     		ldr	r1, [r4, #32]
 302              		.loc 1 409 0
 303 0054 626A     		ldr	r2, [r4, #36]
 304              		.loc 1 408 0
 305 0056 E369     		ldr	r3, [r4, #28]
 306 0058 0868     		ldr	r0, [r1, #0]
 307              		.loc 1 409 0
 308 005a 1168     		ldr	r1, [r2, #0]
 309              		.loc 1 408 0
 310 005c 03F10C02 		add	r2, r3, #12
 311 0060 8260     		str	r2, [r0, #8]
 312              		.loc 1 409 0
 313 0062 8A60     		str	r2, [r1, #8]
 314 0064 D2E7     		b	.L15
 315              	.L21:
 316              	.LBB3:
 317              		.loc 1 313 0
 318 0066 0346     		mov	r3, r0
 319 0068 0A21     		movs	r1, #10
 320 006a 094A     		ldr	r2, .L22+4
 321 006c 006A     		ldr	r0, [r0, #32]
 322 006e FFF7FEFF 		bl	dmaStreamAllocate
 323              		.loc 1 318 0
 324 0072 084A     		ldr	r2, .L22+8
 325 0074 2346     		mov	r3, r4
 326 0076 606A     		ldr	r0, [r4, #36]
 327 0078 0A21     		movs	r1, #10
 328 007a FFF7FEFF 		bl	dmaStreamAllocate
 329              		.loc 1 323 0
 330 007e 0648     		ldr	r0, .L22+12
 331 0080 8369     		ldr	r3, [r0, #24]
 332 0082 43F48052 		orr	r2, r3, #4096
 333 0086 8261     		str	r2, [r0, #24]
 334 0088 E3E7     		b	.L16
 335              	.L23:
 336 008a 00BF     		.align	2
ARM GAS  C:\Users\DNIEL~1\AppData\Local\Temp\ccTozYXj.s 			page 7


 337              	.L22:
 338 008c 00000000 		.word	.LANCHOR1
 339 0090 00000000 		.word	spi_lld_serve_rx_interrupt
 340 0094 00000000 		.word	spi_lld_serve_tx_interrupt
 341 0098 00100240 		.word	1073876992
 342              	.LBE3:
 343              		.cfi_endproc
 344              	.LFE59:
 345              		.size	spi_lld_start, .-spi_lld_start
 346 009c AFF30080 		.section	.text.spi_lld_stop,"ax",%progbits
 347              		.align	2
 348              		.p2align 4,,15
 349              		.global	spi_lld_stop
 350              		.thumb
 351              		.thumb_func
 352              		.type	spi_lld_stop, %function
 353              	spi_lld_stop:
 354              	.LFB60:
 355              		.loc 1 442 0
 356              		.cfi_startproc
 357              		@ args = 0, pretend = 0, frame = 0
 358              		@ frame_needed = 0, uses_anonymous_args = 0
 359              	.LVL9:
 360              		.loc 1 445 0
 361 0000 0378     		ldrb	r3, [r0, #0]	@ zero_extendqisi2
 362              		.loc 1 442 0
 363 0002 10B5     		push	{r4, lr}
 364              	.LCFI3:
 365              		.cfi_def_cfa_offset 8
 366              		.loc 1 445 0
 367 0004 022B     		cmp	r3, #2
 368              		.loc 1 442 0
 369 0006 0446     		mov	r4, r0
 370              		.cfi_offset 14, -4
 371              		.cfi_offset 4, -8
 372              		.loc 1 445 0
 373 0008 00D0     		beq	.L26
 374              	.LVL10:
 375              	.L24:
 376 000a 10BD     		pop	{r4, pc}
 377              	.L26:
 378              		.loc 1 448 0
 379 000c C169     		ldr	r1, [r0, #28]
 380 000e 0022     		movs	r2, #0
 381              		.loc 1 450 0
 382 0010 006A     		ldr	r0, [r0, #32]
 383              		.loc 1 448 0
 384 0012 0A80     		strh	r2, [r1, #0]	@ movhi
 385              		.loc 1 449 0
 386 0014 8A80     		strh	r2, [r1, #4]	@ movhi
 387              		.loc 1 450 0
 388 0016 FFF7FEFF 		bl	dmaStreamRelease
 389              		.loc 1 451 0
 390 001a 606A     		ldr	r0, [r4, #36]
 391 001c FFF7FEFF 		bl	dmaStreamRelease
 392              		.loc 1 454 0
 393 0020 0448     		ldr	r0, .L27
ARM GAS  C:\Users\DNIEL~1\AppData\Local\Temp\ccTozYXj.s 			page 8


 394 0022 8442     		cmp	r4, r0
 395 0024 F1D1     		bne	.L24
 396              		.loc 1 455 0
 397 0026 044B     		ldr	r3, .L27+4
 398 0028 9A69     		ldr	r2, [r3, #24]
 399 002a 22F48050 		bic	r0, r2, #4096
 400 002e 9861     		str	r0, [r3, #24]
 401 0030 EBE7     		b	.L24
 402              	.L28:
 403 0032 00BF     		.align	2
 404              	.L27:
 405 0034 00000000 		.word	.LANCHOR1
 406 0038 00100240 		.word	1073876992
 407              		.cfi_endproc
 408              	.LFE60:
 409              		.size	spi_lld_stop, .-spi_lld_stop
 410 003c AFF30080 		.section	.text.spi_lld_select,"ax",%progbits
 411              		.align	2
 412              		.p2align 4,,15
 413              		.global	spi_lld_select
 414              		.thumb
 415              		.thumb_func
 416              		.type	spi_lld_select, %function
 417              	spi_lld_select:
 418              	.LFB61:
 419              		.loc 1 487 0
 420              		.cfi_startproc
 421              		@ args = 0, pretend = 0, frame = 0
 422              		@ frame_needed = 0, uses_anonymous_args = 0
 423              		@ link register save eliminated.
 424              	.LVL11:
 425              		.loc 1 489 0
 426 0000 4268     		ldr	r2, [r0, #4]
 427 0002 0121     		movs	r1, #1
 428 0004 1089     		ldrh	r0, [r2, #8]
 429              	.LVL12:
 430 0006 5368     		ldr	r3, [r2, #4]
 431 0008 11FA00F2 		lsls	r2, r1, r0
 432 000c 5A61     		str	r2, [r3, #20]
 433              		.loc 1 490 0
 434 000e 7047     		bx	lr
 435              		.cfi_endproc
 436              	.LFE61:
 437              		.size	spi_lld_select, .-spi_lld_select
 438              		.section	.text.spi_lld_unselect,"ax",%progbits
 439              		.align	2
 440              		.p2align 4,,15
 441              		.global	spi_lld_unselect
 442              		.thumb
 443              		.thumb_func
 444              		.type	spi_lld_unselect, %function
 445              	spi_lld_unselect:
 446              	.LFB62:
 447              		.loc 1 500 0
 448              		.cfi_startproc
 449              		@ args = 0, pretend = 0, frame = 0
 450              		@ frame_needed = 0, uses_anonymous_args = 0
ARM GAS  C:\Users\DNIEL~1\AppData\Local\Temp\ccTozYXj.s 			page 9


 451              		@ link register save eliminated.
 452              	.LVL13:
 453              		.loc 1 502 0
 454 0000 4268     		ldr	r2, [r0, #4]
 455 0002 0121     		movs	r1, #1
 456 0004 1089     		ldrh	r0, [r2, #8]
 457              	.LVL14:
 458 0006 5368     		ldr	r3, [r2, #4]
 459 0008 11FA00F2 		lsls	r2, r1, r0
 460 000c 1A61     		str	r2, [r3, #16]
 461              		.loc 1 503 0
 462 000e 7047     		bx	lr
 463              		.cfi_endproc
 464              	.LFE62:
 465              		.size	spi_lld_unselect, .-spi_lld_unselect
 466              		.section	.text.spi_lld_ignore,"ax",%progbits
 467              		.align	2
 468              		.p2align 4,,15
 469              		.global	spi_lld_ignore
 470              		.thumb
 471              		.thumb_func
 472              		.type	spi_lld_ignore, %function
 473              	spi_lld_ignore:
 474              	.LFB63:
 475              		.loc 1 516 0
 476              		.cfi_startproc
 477              		@ args = 0, pretend = 0, frame = 0
 478              		@ frame_needed = 0, uses_anonymous_args = 0
 479              		@ link register save eliminated.
 480              	.LVL15:
 481              		.loc 1 518 0
 482 0000 036A     		ldr	r3, [r0, #32]
 483              		.loc 1 516 0
 484 0002 30B4     		push	{r4, r5}
 485              	.LCFI4:
 486              		.cfi_def_cfa_offset 8
 487              		.loc 1 522 0
 488 0004 456A     		ldr	r5, [r0, #36]
 489              		.cfi_offset 5, -4
 490              		.cfi_offset 4, -8
 491              		.loc 1 520 0
 492 0006 846A     		ldr	r4, [r0, #40]
 493              		.loc 1 518 0
 494 0008 1A68     		ldr	r2, [r3, #0]
 495              		.loc 1 522 0
 496 000a 2B68     		ldr	r3, [r5, #0]
 497              		.loc 1 518 0
 498 000c 094D     		ldr	r5, .L32
 499              		.loc 1 524 0
 500 000e C06A     		ldr	r0, [r0, #44]
 501              	.LVL16:
 502              		.loc 1 518 0
 503 0010 D560     		str	r5, [r2, #12]
 504              		.loc 1 519 0
 505 0012 5160     		str	r1, [r2, #4]
 506              		.loc 1 520 0
 507 0014 1460     		str	r4, [r2, #0]
ARM GAS  C:\Users\DNIEL~1\AppData\Local\Temp\ccTozYXj.s 			page 10


 508              		.loc 1 522 0
 509 0016 084C     		ldr	r4, .L32+4
 510 0018 DC60     		str	r4, [r3, #12]
 511              		.loc 1 523 0
 512 001a 5960     		str	r1, [r3, #4]
 513              		.loc 1 524 0
 514 001c 1860     		str	r0, [r3, #0]
 515              		.loc 1 526 0
 516 001e 1068     		ldr	r0, [r2, #0]
 517 0020 40F00101 		orr	r1, r0, #1
 518              	.LVL17:
 519 0024 1160     		str	r1, [r2, #0]
 520              		.loc 1 527 0
 521 0026 1868     		ldr	r0, [r3, #0]
 522 0028 40F00102 		orr	r2, r0, #1
 523              	.LVL18:
 524 002c 1A60     		str	r2, [r3, #0]
 525              		.loc 1 528 0
 526 002e 30BC     		pop	{r4, r5}
 527 0030 7047     		bx	lr
 528              	.L33:
 529 0032 00BF     		.align	2
 530              	.L32:
 531 0034 00000000 		.word	.LANCHOR2
 532 0038 00000000 		.word	.LANCHOR0
 533              		.cfi_endproc
 534              	.LFE63:
 535              		.size	spi_lld_ignore, .-spi_lld_ignore
 536 003c AFF30080 		.section	.text.spi_lld_exchange,"ax",%progbits
 537              		.align	2
 538              		.p2align 4,,15
 539              		.global	spi_lld_exchange
 540              		.thumb
 541              		.thumb_func
 542              		.type	spi_lld_exchange, %function
 543              	spi_lld_exchange:
 544              	.LFB64:
 545              		.loc 1 546 0
 546              		.cfi_startproc
 547              		@ args = 0, pretend = 0, frame = 0
 548              		@ frame_needed = 0, uses_anonymous_args = 0
 549              		@ link register save eliminated.
 550              	.LVL19:
 551 0000 F0B4     		push	{r4, r5, r6, r7}
 552              	.LCFI5:
 553              		.cfi_def_cfa_offset 16
 554              		.loc 1 548 0
 555 0002 046A     		ldr	r4, [r0, #32]
 556              		.cfi_offset 7, -4
 557              		.cfi_offset 6, -8
 558              		.cfi_offset 5, -12
 559              		.cfi_offset 4, -16
 560              		.loc 1 552 0
 561 0004 476A     		ldr	r7, [r0, #36]
 562              		.loc 1 550 0
 563 0006 866A     		ldr	r6, [r0, #40]
 564              		.loc 1 554 0
ARM GAS  C:\Users\DNIEL~1\AppData\Local\Temp\ccTozYXj.s 			page 11


 565 0008 C56A     		ldr	r5, [r0, #44]
 566              		.loc 1 548 0
 567 000a 2468     		ldr	r4, [r4, #0]
 568              		.loc 1 552 0
 569 000c 3868     		ldr	r0, [r7, #0]
 570              	.LVL20:
 571              		.loc 1 550 0
 572 000e 46F08006 		orr	r6, r6, #128
 573              		.loc 1 554 0
 574 0012 45F08005 		orr	r5, r5, #128
 575              		.loc 1 548 0
 576 0016 E360     		str	r3, [r4, #12]
 577              		.loc 1 549 0
 578 0018 6160     		str	r1, [r4, #4]
 579              		.loc 1 550 0
 580 001a 2660     		str	r6, [r4, #0]
 581              		.loc 1 552 0
 582 001c C260     		str	r2, [r0, #12]
 583              		.loc 1 553 0
 584 001e 4160     		str	r1, [r0, #4]
 585              		.loc 1 554 0
 586 0020 0560     		str	r5, [r0, #0]
 587              		.loc 1 556 0
 588 0022 2368     		ldr	r3, [r4, #0]
 589              	.LVL21:
 590 0024 43F00102 		orr	r2, r3, #1
 591              	.LVL22:
 592 0028 2260     		str	r2, [r4, #0]
 593              		.loc 1 557 0
 594 002a 0168     		ldr	r1, [r0, #0]
 595              	.LVL23:
 596 002c 41F00103 		orr	r3, r1, #1
 597 0030 0360     		str	r3, [r0, #0]
 598              		.loc 1 558 0
 599 0032 F0BC     		pop	{r4, r5, r6, r7}
 600 0034 7047     		bx	lr
 601              		.cfi_endproc
 602              	.LFE64:
 603              		.size	spi_lld_exchange, .-spi_lld_exchange
 604 0036 00BFAFF3 		.section	.text.spi_lld_send,"ax",%progbits
 604      0080AFF3 
 604      0080
 605              		.align	2
 606              		.p2align 4,,15
 607              		.global	spi_lld_send
 608              		.thumb
 609              		.thumb_func
 610              		.type	spi_lld_send, %function
 611              	spi_lld_send:
 612              	.LFB65:
 613              		.loc 1 573 0
 614              		.cfi_startproc
 615              		@ args = 0, pretend = 0, frame = 0
 616              		@ frame_needed = 0, uses_anonymous_args = 0
 617              		@ link register save eliminated.
 618              	.LVL24:
 619 0000 70B4     		push	{r4, r5, r6}
ARM GAS  C:\Users\DNIEL~1\AppData\Local\Temp\ccTozYXj.s 			page 12


 620              	.LCFI6:
 621              		.cfi_def_cfa_offset 12
 622              		.loc 1 579 0
 623 0002 466A     		ldr	r6, [r0, #36]
 624              		.cfi_offset 6, -4
 625              		.cfi_offset 5, -8
 626              		.cfi_offset 4, -12
 627              		.loc 1 575 0
 628 0004 046A     		ldr	r4, [r0, #32]
 629              		.loc 1 581 0
 630 0006 C56A     		ldr	r5, [r0, #44]
 631              		.loc 1 579 0
 632 0008 3368     		ldr	r3, [r6, #0]
 633              		.loc 1 575 0
 634 000a 2468     		ldr	r4, [r4, #0]
 635              		.loc 1 577 0
 636 000c 806A     		ldr	r0, [r0, #40]
 637              	.LVL25:
 638              		.loc 1 575 0
 639 000e 094E     		ldr	r6, .L36
 640              		.loc 1 581 0
 641 0010 45F08005 		orr	r5, r5, #128
 642              		.loc 1 575 0
 643 0014 E660     		str	r6, [r4, #12]
 644              		.loc 1 576 0
 645 0016 6160     		str	r1, [r4, #4]
 646              		.loc 1 577 0
 647 0018 2060     		str	r0, [r4, #0]
 648              		.loc 1 579 0
 649 001a DA60     		str	r2, [r3, #12]
 650              		.loc 1 580 0
 651 001c 5960     		str	r1, [r3, #4]
 652              		.loc 1 581 0
 653 001e 1D60     		str	r5, [r3, #0]
 654              		.loc 1 583 0
 655 0020 2268     		ldr	r2, [r4, #0]
 656              	.LVL26:
 657 0022 42F00101 		orr	r1, r2, #1
 658              	.LVL27:
 659 0026 2160     		str	r1, [r4, #0]
 660              		.loc 1 584 0
 661 0028 1868     		ldr	r0, [r3, #0]
 662 002a 40F00102 		orr	r2, r0, #1
 663 002e 1A60     		str	r2, [r3, #0]
 664              		.loc 1 585 0
 665 0030 70BC     		pop	{r4, r5, r6}
 666 0032 7047     		bx	lr
 667              	.L37:
 668              		.align	2
 669              	.L36:
 670 0034 00000000 		.word	.LANCHOR2
 671              		.cfi_endproc
 672              	.LFE65:
 673              		.size	spi_lld_send, .-spi_lld_send
 674 0038 AFF30080 		.section	.text.spi_lld_receive,"ax",%progbits
 674      AFF30080 
 675              		.align	2
ARM GAS  C:\Users\DNIEL~1\AppData\Local\Temp\ccTozYXj.s 			page 13


 676              		.p2align 4,,15
 677              		.global	spi_lld_receive
 678              		.thumb
 679              		.thumb_func
 680              		.type	spi_lld_receive, %function
 681              	spi_lld_receive:
 682              	.LFB66:
 683              		.loc 1 600 0
 684              		.cfi_startproc
 685              		@ args = 0, pretend = 0, frame = 0
 686              		@ frame_needed = 0, uses_anonymous_args = 0
 687              		@ link register save eliminated.
 688              	.LVL28:
 689 0000 30B4     		push	{r4, r5}
 690              	.LCFI7:
 691              		.cfi_def_cfa_offset 8
 692              		.loc 1 602 0
 693 0002 046A     		ldr	r4, [r0, #32]
 694              		.cfi_offset 5, -4
 695              		.cfi_offset 4, -8
 696              		.loc 1 606 0
 697 0004 436A     		ldr	r3, [r0, #36]
 698              		.loc 1 602 0
 699 0006 2468     		ldr	r4, [r4, #0]
 700              		.loc 1 604 0
 701 0008 856A     		ldr	r5, [r0, #40]
 702              		.loc 1 606 0
 703 000a 1B68     		ldr	r3, [r3, #0]
 704              		.loc 1 608 0
 705 000c C06A     		ldr	r0, [r0, #44]
 706              	.LVL29:
 707              		.loc 1 602 0
 708 000e E260     		str	r2, [r4, #12]
 709              		.loc 1 606 0
 710 0010 084A     		ldr	r2, .L39
 711              	.LVL30:
 712              		.loc 1 604 0
 713 0012 45F08005 		orr	r5, r5, #128
 714              		.loc 1 603 0
 715 0016 6160     		str	r1, [r4, #4]
 716              		.loc 1 604 0
 717 0018 2560     		str	r5, [r4, #0]
 718              		.loc 1 606 0
 719 001a DA60     		str	r2, [r3, #12]
 720              		.loc 1 607 0
 721 001c 5960     		str	r1, [r3, #4]
 722              		.loc 1 608 0
 723 001e 1860     		str	r0, [r3, #0]
 724              		.loc 1 610 0
 725 0020 2268     		ldr	r2, [r4, #0]
 726 0022 42F00101 		orr	r1, r2, #1
 727              	.LVL31:
 728 0026 2160     		str	r1, [r4, #0]
 729              		.loc 1 611 0
 730 0028 1868     		ldr	r0, [r3, #0]
 731 002a 40F00102 		orr	r2, r0, #1
 732 002e 1A60     		str	r2, [r3, #0]
ARM GAS  C:\Users\DNIEL~1\AppData\Local\Temp\ccTozYXj.s 			page 14


 733              		.loc 1 612 0
 734 0030 30BC     		pop	{r4, r5}
 735 0032 7047     		bx	lr
 736              	.L40:
 737              		.align	2
 738              	.L39:
 739 0034 00000000 		.word	.LANCHOR0
 740              		.cfi_endproc
 741              	.LFE66:
 742              		.size	spi_lld_receive, .-spi_lld_receive
 743 0038 AFF30080 		.section	.text.spi_lld_polled_exchange,"ax",%progbits
 743      AFF30080 
 744              		.align	2
 745              		.p2align 4,,15
 746              		.global	spi_lld_polled_exchange
 747              		.thumb
 748              		.thumb_func
 749              		.type	spi_lld_polled_exchange, %function
 750              	spi_lld_polled_exchange:
 751              	.LFB67:
 752              		.loc 1 626 0
 753              		.cfi_startproc
 754              		@ args = 0, pretend = 0, frame = 0
 755              		@ frame_needed = 0, uses_anonymous_args = 0
 756              		@ link register save eliminated.
 757              	.LVL32:
 758              		.loc 1 628 0
 759 0000 C369     		ldr	r3, [r0, #28]
 760 0002 9981     		strh	r1, [r3, #12]	@ movhi
 761              	.L42:
 762              		.loc 1 629 0 discriminator 1
 763 0004 1A89     		ldrh	r2, [r3, #8]
 764 0006 12F0010F 		tst	r2, #1
 765 000a FBD0     		beq	.L42
 766              		.loc 1 631 0
 767 000c 9889     		ldrh	r0, [r3, #12]
 768              	.LVL33:
 769              		.loc 1 632 0
 770 000e 80B2     		uxth	r0, r0
 771 0010 7047     		bx	lr
 772              		.cfi_endproc
 773              	.LFE67:
 774              		.size	spi_lld_polled_exchange, .-spi_lld_polled_exchange
 775              		.global	SPID1
 776 0012 00BFAFF3 		.section	.bss.dummytx,"aw",%nobits
 776      0080AFF3 
 776      0080AFF3 
 776      0080
 777              		.align	1
 778              		.set	.LANCHOR0,. + 0
 779              		.type	dummytx, %object
 780              		.size	dummytx, 2
 781              	dummytx:
 782 0000 0000     		.space	2
 783              		.section	.bss.SPID1,"aw",%nobits
 784              		.align	2
 785              		.set	.LANCHOR1,. + 0
ARM GAS  C:\Users\DNIEL~1\AppData\Local\Temp\ccTozYXj.s 			page 15


 786              		.type	SPID1, %object
 787              		.size	SPID1, 48
 788              	SPID1:
 789 0000 00000000 		.space	48
 789      00000000 
 789      00000000 
 789      00000000 
 789      00000000 
 790              		.section	.bss.dummyrx,"aw",%nobits
 791              		.align	1
 792              		.set	.LANCHOR2,. + 0
 793              		.type	dummyrx, %object
 794              		.size	dummyrx, 2
 795              	dummyrx:
 796 0000 0000     		.space	2
 797              		.text
 798              	.Letext0:
 799              		.section	.debug_loc,"",%progbits
 800              	.Ldebug_loc0:
 801              	.LLST0:
 802 0000 00000000 		.4byte	.LFB56
 803 0004 06000000 		.4byte	.LCFI0
 804 0008 0200     		.2byte	0x2
 805 000a 7D       		.byte	0x7d
 806 000b 00       		.sleb128 0
 807 000c 06000000 		.4byte	.LCFI0
 808 0010 74000000 		.4byte	.LFE56
 809 0014 0200     		.2byte	0x2
 810 0016 7D       		.byte	0x7d
 811 0017 10       		.sleb128 16
 812 0018 00000000 		.4byte	0x0
 813 001c 00000000 		.4byte	0x0
 814              	.LLST1:
 815 0020 00000000 		.4byte	.LVL1
 816 0024 0A000000 		.4byte	.LVL2
 817 0028 0100     		.2byte	0x1
 818 002a 50       		.byte	0x50
 819 002b 0A000000 		.4byte	.LVL2
 820 002f 74000000 		.4byte	.LFE56
 821 0033 0100     		.2byte	0x1
 822 0035 54       		.byte	0x54
 823 0036 00000000 		.4byte	0x0
 824 003a 00000000 		.4byte	0x0
 825              	.LLST2:
 826 003e 00000000 		.4byte	.LVL1
 827 0042 0A000000 		.4byte	.LVL2
 828 0046 0100     		.2byte	0x1
 829 0048 51       		.byte	0x51
 830 0049 6E000000 		.4byte	.LVL5
 831 004d 71000000 		.4byte	.LVL6-1
 832 0051 0100     		.2byte	0x1
 833 0053 51       		.byte	0x51
 834 0054 00000000 		.4byte	0x0
 835 0058 00000000 		.4byte	0x0
 836              	.LLST3:
 837 005c 56000000 		.4byte	.LVL3
 838 0060 61000000 		.4byte	.LVL4-1
ARM GAS  C:\Users\DNIEL~1\AppData\Local\Temp\ccTozYXj.s 			page 16


 839 0064 0200     		.2byte	0x2
 840 0066 74       		.byte	0x74
 841 0067 08       		.sleb128 8
 842 0068 00000000 		.4byte	0x0
 843 006c 00000000 		.4byte	0x0
 844              	.LLST4:
 845 0070 00000000 		.4byte	.LFB58
 846 0074 02000000 		.4byte	.LCFI1
 847 0078 0200     		.2byte	0x2
 848 007a 7D       		.byte	0x7d
 849 007b 00       		.sleb128 0
 850 007c 02000000 		.4byte	.LCFI1
 851 0080 40000000 		.4byte	.LFE58
 852 0084 0200     		.2byte	0x2
 853 0086 7D       		.byte	0x7d
 854 0087 08       		.sleb128 8
 855 0088 00000000 		.4byte	0x0
 856 008c 00000000 		.4byte	0x0
 857              	.LLST5:
 858 0090 00000000 		.4byte	.LFB59
 859 0094 04000000 		.4byte	.LCFI2
 860 0098 0200     		.2byte	0x2
 861 009a 7D       		.byte	0x7d
 862 009b 00       		.sleb128 0
 863 009c 04000000 		.4byte	.LCFI2
 864 00a0 9C000000 		.4byte	.LFE59
 865 00a4 0200     		.2byte	0x2
 866 00a6 7D       		.byte	0x7d
 867 00a7 08       		.sleb128 8
 868 00a8 00000000 		.4byte	0x0
 869 00ac 00000000 		.4byte	0x0
 870              	.LLST6:
 871 00b0 00000000 		.4byte	.LVL7
 872 00b4 0C000000 		.4byte	.LVL8
 873 00b8 0100     		.2byte	0x1
 874 00ba 50       		.byte	0x50
 875 00bb 0C000000 		.4byte	.LVL8
 876 00bf 9C000000 		.4byte	.LFE59
 877 00c3 0100     		.2byte	0x1
 878 00c5 54       		.byte	0x54
 879 00c6 00000000 		.4byte	0x0
 880 00ca 00000000 		.4byte	0x0
 881              	.LLST7:
 882 00ce 00000000 		.4byte	.LFB60
 883 00d2 04000000 		.4byte	.LCFI3
 884 00d6 0200     		.2byte	0x2
 885 00d8 7D       		.byte	0x7d
 886 00d9 00       		.sleb128 0
 887 00da 04000000 		.4byte	.LCFI3
 888 00de 3C000000 		.4byte	.LFE60
 889 00e2 0200     		.2byte	0x2
 890 00e4 7D       		.byte	0x7d
 891 00e5 08       		.sleb128 8
 892 00e6 00000000 		.4byte	0x0
 893 00ea 00000000 		.4byte	0x0
 894              	.LLST8:
 895 00ee 00000000 		.4byte	.LVL9
ARM GAS  C:\Users\DNIEL~1\AppData\Local\Temp\ccTozYXj.s 			page 17


 896 00f2 0A000000 		.4byte	.LVL10
 897 00f6 0100     		.2byte	0x1
 898 00f8 50       		.byte	0x50
 899 00f9 0A000000 		.4byte	.LVL10
 900 00fd 3C000000 		.4byte	.LFE60
 901 0101 0100     		.2byte	0x1
 902 0103 54       		.byte	0x54
 903 0104 00000000 		.4byte	0x0
 904 0108 00000000 		.4byte	0x0
 905              	.LLST9:
 906 010c 00000000 		.4byte	.LVL11
 907 0110 06000000 		.4byte	.LVL12
 908 0114 0100     		.2byte	0x1
 909 0116 50       		.byte	0x50
 910 0117 00000000 		.4byte	0x0
 911 011b 00000000 		.4byte	0x0
 912              	.LLST10:
 913 011f 00000000 		.4byte	.LVL13
 914 0123 06000000 		.4byte	.LVL14
 915 0127 0100     		.2byte	0x1
 916 0129 50       		.byte	0x50
 917 012a 00000000 		.4byte	0x0
 918 012e 00000000 		.4byte	0x0
 919              	.LLST11:
 920 0132 00000000 		.4byte	.LFB63
 921 0136 04000000 		.4byte	.LCFI4
 922 013a 0200     		.2byte	0x2
 923 013c 7D       		.byte	0x7d
 924 013d 00       		.sleb128 0
 925 013e 04000000 		.4byte	.LCFI4
 926 0142 3C000000 		.4byte	.LFE63
 927 0146 0200     		.2byte	0x2
 928 0148 7D       		.byte	0x7d
 929 0149 08       		.sleb128 8
 930 014a 00000000 		.4byte	0x0
 931 014e 00000000 		.4byte	0x0
 932              	.LLST12:
 933 0152 00000000 		.4byte	.LVL15
 934 0156 10000000 		.4byte	.LVL16
 935 015a 0100     		.2byte	0x1
 936 015c 50       		.byte	0x50
 937 015d 00000000 		.4byte	0x0
 938 0161 00000000 		.4byte	0x0
 939              	.LLST13:
 940 0165 00000000 		.4byte	.LVL15
 941 0169 24000000 		.4byte	.LVL17
 942 016d 0100     		.2byte	0x1
 943 016f 51       		.byte	0x51
 944 0170 24000000 		.4byte	.LVL17
 945 0174 2C000000 		.4byte	.LVL18
 946 0178 0200     		.2byte	0x2
 947 017a 72       		.byte	0x72
 948 017b 04       		.sleb128 4
 949 017c 2C000000 		.4byte	.LVL18
 950 0180 3C000000 		.4byte	.LFE63
 951 0184 0200     		.2byte	0x2
 952 0186 73       		.byte	0x73
ARM GAS  C:\Users\DNIEL~1\AppData\Local\Temp\ccTozYXj.s 			page 18


 953 0187 04       		.sleb128 4
 954 0188 00000000 		.4byte	0x0
 955 018c 00000000 		.4byte	0x0
 956              	.LLST14:
 957 0190 00000000 		.4byte	.LFB64
 958 0194 02000000 		.4byte	.LCFI5
 959 0198 0200     		.2byte	0x2
 960 019a 7D       		.byte	0x7d
 961 019b 00       		.sleb128 0
 962 019c 02000000 		.4byte	.LCFI5
 963 01a0 36000000 		.4byte	.LFE64
 964 01a4 0200     		.2byte	0x2
 965 01a6 7D       		.byte	0x7d
 966 01a7 10       		.sleb128 16
 967 01a8 00000000 		.4byte	0x0
 968 01ac 00000000 		.4byte	0x0
 969              	.LLST15:
 970 01b0 00000000 		.4byte	.LVL19
 971 01b4 0E000000 		.4byte	.LVL20
 972 01b8 0100     		.2byte	0x1
 973 01ba 50       		.byte	0x50
 974 01bb 00000000 		.4byte	0x0
 975 01bf 00000000 		.4byte	0x0
 976              	.LLST16:
 977 01c3 00000000 		.4byte	.LVL19
 978 01c7 2C000000 		.4byte	.LVL23
 979 01cb 0100     		.2byte	0x1
 980 01cd 51       		.byte	0x51
 981 01ce 2C000000 		.4byte	.LVL23
 982 01d2 36000000 		.4byte	.LFE64
 983 01d6 0200     		.2byte	0x2
 984 01d8 74       		.byte	0x74
 985 01d9 04       		.sleb128 4
 986 01da 00000000 		.4byte	0x0
 987 01de 00000000 		.4byte	0x0
 988              	.LLST17:
 989 01e2 00000000 		.4byte	.LVL19
 990 01e6 28000000 		.4byte	.LVL22
 991 01ea 0100     		.2byte	0x1
 992 01ec 52       		.byte	0x52
 993 01ed 28000000 		.4byte	.LVL22
 994 01f1 36000000 		.4byte	.LFE64
 995 01f5 0500     		.2byte	0x5
 996 01f7 77       		.byte	0x77
 997 01f8 00       		.sleb128 0
 998 01f9 06       		.byte	0x6
 999 01fa 23       		.byte	0x23
 1000 01fb 0C       		.uleb128 0xc
 1001 01fc 00000000 		.4byte	0x0
 1002 0200 00000000 		.4byte	0x0
 1003              	.LLST18:
 1004 0204 00000000 		.4byte	.LVL19
 1005 0208 24000000 		.4byte	.LVL21
 1006 020c 0100     		.2byte	0x1
 1007 020e 53       		.byte	0x53
 1008 020f 24000000 		.4byte	.LVL21
 1009 0213 36000000 		.4byte	.LFE64
ARM GAS  C:\Users\DNIEL~1\AppData\Local\Temp\ccTozYXj.s 			page 19


 1010 0217 0200     		.2byte	0x2
 1011 0219 74       		.byte	0x74
 1012 021a 0C       		.sleb128 12
 1013 021b 00000000 		.4byte	0x0
 1014 021f 00000000 		.4byte	0x0
 1015              	.LLST19:
 1016 0223 00000000 		.4byte	.LFB65
 1017 0227 02000000 		.4byte	.LCFI6
 1018 022b 0200     		.2byte	0x2
 1019 022d 7D       		.byte	0x7d
 1020 022e 00       		.sleb128 0
 1021 022f 02000000 		.4byte	.LCFI6
 1022 0233 38000000 		.4byte	.LFE65
 1023 0237 0200     		.2byte	0x2
 1024 0239 7D       		.byte	0x7d
 1025 023a 0C       		.sleb128 12
 1026 023b 00000000 		.4byte	0x0
 1027 023f 00000000 		.4byte	0x0
 1028              	.LLST20:
 1029 0243 00000000 		.4byte	.LVL24
 1030 0247 0E000000 		.4byte	.LVL25
 1031 024b 0100     		.2byte	0x1
 1032 024d 50       		.byte	0x50
 1033 024e 00000000 		.4byte	0x0
 1034 0252 00000000 		.4byte	0x0
 1035              	.LLST21:
 1036 0256 00000000 		.4byte	.LVL24
 1037 025a 26000000 		.4byte	.LVL27
 1038 025e 0100     		.2byte	0x1
 1039 0260 51       		.byte	0x51
 1040 0261 26000000 		.4byte	.LVL27
 1041 0265 38000000 		.4byte	.LFE65
 1042 0269 0200     		.2byte	0x2
 1043 026b 74       		.byte	0x74
 1044 026c 04       		.sleb128 4
 1045 026d 00000000 		.4byte	0x0
 1046 0271 00000000 		.4byte	0x0
 1047              	.LLST22:
 1048 0275 00000000 		.4byte	.LVL24
 1049 0279 22000000 		.4byte	.LVL26
 1050 027d 0100     		.2byte	0x1
 1051 027f 52       		.byte	0x52
 1052 0280 22000000 		.4byte	.LVL26
 1053 0284 38000000 		.4byte	.LFE65
 1054 0288 0200     		.2byte	0x2
 1055 028a 73       		.byte	0x73
 1056 028b 0C       		.sleb128 12
 1057 028c 00000000 		.4byte	0x0
 1058 0290 00000000 		.4byte	0x0
 1059              	.LLST23:
 1060 0294 00000000 		.4byte	.LFB66
 1061 0298 02000000 		.4byte	.LCFI7
 1062 029c 0200     		.2byte	0x2
 1063 029e 7D       		.byte	0x7d
 1064 029f 00       		.sleb128 0
 1065 02a0 02000000 		.4byte	.LCFI7
 1066 02a4 38000000 		.4byte	.LFE66
ARM GAS  C:\Users\DNIEL~1\AppData\Local\Temp\ccTozYXj.s 			page 20


 1067 02a8 0200     		.2byte	0x2
 1068 02aa 7D       		.byte	0x7d
 1069 02ab 08       		.sleb128 8
 1070 02ac 00000000 		.4byte	0x0
 1071 02b0 00000000 		.4byte	0x0
 1072              	.LLST24:
 1073 02b4 00000000 		.4byte	.LVL28
 1074 02b8 0E000000 		.4byte	.LVL29
 1075 02bc 0100     		.2byte	0x1
 1076 02be 50       		.byte	0x50
 1077 02bf 00000000 		.4byte	0x0
 1078 02c3 00000000 		.4byte	0x0
 1079              	.LLST25:
 1080 02c7 00000000 		.4byte	.LVL28
 1081 02cb 26000000 		.4byte	.LVL31
 1082 02cf 0100     		.2byte	0x1
 1083 02d1 51       		.byte	0x51
 1084 02d2 26000000 		.4byte	.LVL31
 1085 02d6 38000000 		.4byte	.LFE66
 1086 02da 0200     		.2byte	0x2
 1087 02dc 74       		.byte	0x74
 1088 02dd 04       		.sleb128 4
 1089 02de 00000000 		.4byte	0x0
 1090 02e2 00000000 		.4byte	0x0
 1091              	.LLST26:
 1092 02e6 00000000 		.4byte	.LVL28
 1093 02ea 12000000 		.4byte	.LVL30
 1094 02ee 0100     		.2byte	0x1
 1095 02f0 52       		.byte	0x52
 1096 02f1 12000000 		.4byte	.LVL30
 1097 02f5 38000000 		.4byte	.LFE66
 1098 02f9 0200     		.2byte	0x2
 1099 02fb 74       		.byte	0x74
 1100 02fc 0C       		.sleb128 12
 1101 02fd 00000000 		.4byte	0x0
 1102 0301 00000000 		.4byte	0x0
 1103              	.LLST27:
 1104 0305 00000000 		.4byte	.LVL32
 1105 0309 0E000000 		.4byte	.LVL33
 1106 030d 0100     		.2byte	0x1
 1107 030f 50       		.byte	0x50
 1108 0310 00000000 		.4byte	0x0
 1109 0314 00000000 		.4byte	0x0
 1110              		.file 2 "c:\\program files (x86)\\codesourcery\\sourcery g++ lite\\bin\\../lib/gcc/arm-none-eabi/4
 1111              		.file 3 "c:\\program files (x86)\\codesourcery\\sourcery g++ lite\\bin\\../lib/gcc/arm-none-eabi/4
 1112              		.file 4 "../../../ChibiOS/os/ports/GCC/ARMCMx/chtypes.h"
 1113              		.file 5 "../../../ChibiOS/os/kernel/include/chlists.h"
 1114              		.file 6 "../../../ChibiOS/os/kernel/include/chthreads.h"
 1115              		.file 7 "../../../ChibiOS/os/ports/GCC/ARMCMx/chcore_v7m.h"
 1116              		.file 8 "../../../ChibiOS/os/kernel/include/chmtx.h"
 1117              		.file 9 "../../../ChibiOS/os/hal/platforms/STM32F1xx/stm32f10x.h"
 1118              		.file 10 "../../../ChibiOS/os/hal/platforms/STM32F1xx/stm32_dma.h"
 1119              		.file 11 "../../../ChibiOS/os/hal/platforms/STM32/GPIOv1/pal_lld.h"
 1120              		.file 12 "../../../ChibiOS/os/hal/include/spi.h"
 1121              		.file 13 "../../../ChibiOS/os/hal/platforms/STM32/SPIv1/spi_lld.h"
 1122              		.file 14 "../../../ChibiOS/os/ports/common/ARMCMx/CMSIS/include/core_cm3.h"
 1123              		.section	.debug_info
ARM GAS  C:\Users\DNIEL~1\AppData\Local\Temp\ccTozYXj.s 			page 21


 1124 0000 F20B0000 		.4byte	0xbf2
 1125 0004 0200     		.2byte	0x2
 1126 0006 00000000 		.4byte	.Ldebug_abbrev0
 1127 000a 04       		.byte	0x4
 1128 000b 01       		.uleb128 0x1
 1129 000c 39010000 		.4byte	.LASF137
 1130 0010 01       		.byte	0x1
 1131 0011 6A050000 		.4byte	.LASF138
 1132 0015 44000000 		.4byte	.LASF139
 1133 0019 00000000 		.4byte	0x0
 1134 001d 00000000 		.4byte	0x0
 1135 0021 00000000 		.4byte	.Ldebug_ranges0+0x0
 1136 0025 00000000 		.4byte	.Ldebug_line0
 1137 0029 02       		.uleb128 0x2
 1138 002a 04       		.byte	0x4
 1139 002b 05       		.byte	0x5
 1140 002c 696E7400 		.ascii	"int\000"
 1141 0030 03       		.uleb128 0x3
 1142 0031 00000000 		.4byte	.LASF2
 1143 0035 02       		.byte	0x2
 1144 0036 D3       		.byte	0xd3
 1145 0037 3B000000 		.4byte	0x3b
 1146 003b 04       		.uleb128 0x4
 1147 003c 04       		.byte	0x4
 1148 003d 07       		.byte	0x7
 1149 003e 00020000 		.4byte	.LASF0
 1150 0042 04       		.uleb128 0x4
 1151 0043 01       		.byte	0x1
 1152 0044 06       		.byte	0x6
 1153 0045 08010000 		.4byte	.LASF1
 1154 0049 03       		.uleb128 0x3
 1155 004a 2E050000 		.4byte	.LASF3
 1156 004e 03       		.byte	0x3
 1157 004f 2A       		.byte	0x2a
 1158 0050 54000000 		.4byte	0x54
 1159 0054 04       		.uleb128 0x4
 1160 0055 01       		.byte	0x1
 1161 0056 08       		.byte	0x8
 1162 0057 BD030000 		.4byte	.LASF4
 1163 005b 04       		.uleb128 0x4
 1164 005c 02       		.byte	0x2
 1165 005d 05       		.byte	0x5
 1166 005e FE030000 		.4byte	.LASF5
 1167 0062 03       		.uleb128 0x3
 1168 0063 A3010000 		.4byte	.LASF6
 1169 0067 03       		.byte	0x3
 1170 0068 36       		.byte	0x36
 1171 0069 6D000000 		.4byte	0x6d
 1172 006d 04       		.uleb128 0x4
 1173 006e 02       		.byte	0x2
 1174 006f 07       		.byte	0x7
 1175 0070 75020000 		.4byte	.LASF7
 1176 0074 03       		.uleb128 0x3
 1177 0075 B5030000 		.4byte	.LASF8
 1178 0079 03       		.byte	0x3
 1179 007a 4F       		.byte	0x4f
 1180 007b 7F000000 		.4byte	0x7f
ARM GAS  C:\Users\DNIEL~1\AppData\Local\Temp\ccTozYXj.s 			page 22


 1181 007f 04       		.uleb128 0x4
 1182 0080 04       		.byte	0x4
 1183 0081 05       		.byte	0x5
 1184 0082 55010000 		.4byte	.LASF9
 1185 0086 03       		.uleb128 0x3
 1186 0087 4B040000 		.4byte	.LASF10
 1187 008b 03       		.byte	0x3
 1188 008c 50       		.byte	0x50
 1189 008d 91000000 		.4byte	0x91
 1190 0091 04       		.uleb128 0x4
 1191 0092 04       		.byte	0x4
 1192 0093 07       		.byte	0x7
 1193 0094 5C040000 		.4byte	.LASF11
 1194 0098 04       		.uleb128 0x4
 1195 0099 08       		.byte	0x8
 1196 009a 05       		.byte	0x5
 1197 009b FA000000 		.4byte	.LASF12
 1198 009f 04       		.uleb128 0x4
 1199 00a0 08       		.byte	0x8
 1200 00a1 07       		.byte	0x7
 1201 00a2 89000000 		.4byte	.LASF13
 1202 00a6 03       		.uleb128 0x3
 1203 00a7 2A010000 		.4byte	.LASF14
 1204 00ab 04       		.byte	0x4
 1205 00ac 2B       		.byte	0x2b
 1206 00ad B1000000 		.4byte	0xb1
 1207 00b1 04       		.uleb128 0x4
 1208 00b2 01       		.byte	0x1
 1209 00b3 02       		.byte	0x2
 1210 00b4 AF030000 		.4byte	.LASF15
 1211 00b8 03       		.uleb128 0x3
 1212 00b9 96020000 		.4byte	.LASF16
 1213 00bd 04       		.byte	0x4
 1214 00be 2C       		.byte	0x2c
 1215 00bf 49000000 		.4byte	0x49
 1216 00c3 03       		.uleb128 0x3
 1217 00c4 82010000 		.4byte	.LASF17
 1218 00c8 04       		.byte	0x4
 1219 00c9 2D       		.byte	0x2d
 1220 00ca 49000000 		.4byte	0x49
 1221 00ce 03       		.uleb128 0x3
 1222 00cf 54040000 		.4byte	.LASF18
 1223 00d3 04       		.byte	0x4
 1224 00d4 2E       		.byte	0x2e
 1225 00d5 49000000 		.4byte	0x49
 1226 00d9 03       		.uleb128 0x3
 1227 00da 45010000 		.4byte	.LASF19
 1228 00de 04       		.byte	0x4
 1229 00df 2F       		.byte	0x2f
 1230 00e0 49000000 		.4byte	0x49
 1231 00e4 03       		.uleb128 0x3
 1232 00e5 A1030000 		.4byte	.LASF20
 1233 00e9 04       		.byte	0x4
 1234 00ea 30       		.byte	0x30
 1235 00eb 86000000 		.4byte	0x86
 1236 00ef 03       		.uleb128 0x3
 1237 00f0 88020000 		.4byte	.LASF21
ARM GAS  C:\Users\DNIEL~1\AppData\Local\Temp\ccTozYXj.s 			page 23


 1238 00f4 04       		.byte	0x4
 1239 00f5 31       		.byte	0x31
 1240 00f6 74000000 		.4byte	0x74
 1241 00fa 03       		.uleb128 0x3
 1242 00fb AA020000 		.4byte	.LASF22
 1243 00ff 04       		.byte	0x4
 1244 0100 33       		.byte	0x33
 1245 0101 86000000 		.4byte	0x86
 1246 0105 03       		.uleb128 0x3
 1247 0106 A5040000 		.4byte	.LASF23
 1248 010a 04       		.byte	0x4
 1249 010b 35       		.byte	0x35
 1250 010c 86000000 		.4byte	0x86
 1251 0110 03       		.uleb128 0x3
 1252 0111 C8020000 		.4byte	.LASF24
 1253 0115 05       		.byte	0x5
 1254 0116 2A       		.byte	0x2a
 1255 0117 1B010000 		.4byte	0x11b
 1256 011b 05       		.uleb128 0x5
 1257 011c C8020000 		.4byte	.LASF24
 1258 0120 48       		.byte	0x48
 1259 0121 06       		.byte	0x6
 1260 0122 5E       		.byte	0x5e
 1261 0123 40020000 		.4byte	0x240
 1262 0127 06       		.uleb128 0x6
 1263 0128 F3020000 		.4byte	.LASF25
 1264 012c 06       		.byte	0x6
 1265 012d 5F       		.byte	0x5f
 1266 012e 65020000 		.4byte	0x265
 1267 0132 02       		.byte	0x2
 1268 0133 23       		.byte	0x23
 1269 0134 00       		.uleb128 0x0
 1270 0135 06       		.uleb128 0x6
 1271 0136 7C030000 		.4byte	.LASF26
 1272 013a 06       		.byte	0x6
 1273 013b 61       		.byte	0x61
 1274 013c 65020000 		.4byte	0x265
 1275 0140 02       		.byte	0x2
 1276 0141 23       		.byte	0x23
 1277 0142 04       		.uleb128 0x4
 1278 0143 06       		.uleb128 0x6
 1279 0144 F3000000 		.4byte	.LASF27
 1280 0148 06       		.byte	0x6
 1281 0149 63       		.byte	0x63
 1282 014a E4000000 		.4byte	0xe4
 1283 014e 02       		.byte	0x2
 1284 014f 23       		.byte	0x23
 1285 0150 08       		.uleb128 0x8
 1286 0151 06       		.uleb128 0x6
 1287 0152 BA050000 		.4byte	.LASF28
 1288 0156 06       		.byte	0x6
 1289 0157 64       		.byte	0x64
 1290 0158 33030000 		.4byte	0x333
 1291 015c 02       		.byte	0x2
 1292 015d 23       		.byte	0x23
 1293 015e 0C       		.uleb128 0xc
 1294 015f 06       		.uleb128 0x6
ARM GAS  C:\Users\DNIEL~1\AppData\Local\Temp\ccTozYXj.s 			page 24


 1295 0160 B3010000 		.4byte	.LASF29
 1296 0164 06       		.byte	0x6
 1297 0165 66       		.byte	0x66
 1298 0166 65020000 		.4byte	0x265
 1299 016a 02       		.byte	0x2
 1300 016b 23       		.byte	0x23
 1301 016c 10       		.uleb128 0x10
 1302 016d 06       		.uleb128 0x6
 1303 016e 07030000 		.4byte	.LASF30
 1304 0172 06       		.byte	0x6
 1305 0173 67       		.byte	0x67
 1306 0174 65020000 		.4byte	0x265
 1307 0178 02       		.byte	0x2
 1308 0179 23       		.byte	0x23
 1309 017a 14       		.uleb128 0x14
 1310 017b 06       		.uleb128 0x6
 1311 017c 63050000 		.4byte	.LASF31
 1312 0180 06       		.byte	0x6
 1313 0181 6E       		.byte	0x6e
 1314 0182 DD030000 		.4byte	0x3dd
 1315 0186 02       		.byte	0x2
 1316 0187 23       		.byte	0x23
 1317 0188 18       		.uleb128 0x18
 1318 0189 06       		.uleb128 0x6
 1319 018a EC030000 		.4byte	.LASF32
 1320 018e 06       		.byte	0x6
 1321 018f 79       		.byte	0x79
 1322 0190 C3000000 		.4byte	0xc3
 1323 0194 02       		.byte	0x2
 1324 0195 23       		.byte	0x23
 1325 0196 1C       		.uleb128 0x1c
 1326 0197 06       		.uleb128 0x6
 1327 0198 19040000 		.4byte	.LASF33
 1328 019c 06       		.byte	0x6
 1329 019d 7D       		.byte	0x7d
 1330 019e B8000000 		.4byte	0xb8
 1331 01a2 02       		.byte	0x2
 1332 01a3 23       		.byte	0x23
 1333 01a4 1D       		.uleb128 0x1d
 1334 01a5 06       		.uleb128 0x6
 1335 01a6 9C010000 		.4byte	.LASF34
 1336 01aa 06       		.byte	0x6
 1337 01ab 82       		.byte	0x82
 1338 01ac CE000000 		.4byte	0xce
 1339 01b0 02       		.byte	0x2
 1340 01b1 23       		.byte	0x23
 1341 01b2 1E       		.uleb128 0x1e
 1342 01b3 06       		.uleb128 0x6
 1343 01b4 08040000 		.4byte	.LASF35
 1344 01b8 06       		.byte	0x6
 1345 01b9 88       		.byte	0x88
 1346 01ba D9000000 		.4byte	0xd9
 1347 01be 02       		.byte	0x2
 1348 01bf 23       		.byte	0x23
 1349 01c0 1F       		.uleb128 0x1f
 1350 01c1 06       		.uleb128 0x6
 1351 01c2 AC010000 		.4byte	.LASF36
ARM GAS  C:\Users\DNIEL~1\AppData\Local\Temp\ccTozYXj.s 			page 25


 1352 01c6 06       		.byte	0x6
 1353 01c7 8F       		.byte	0x8f
 1354 01c8 5B030000 		.4byte	0x35b
 1355 01cc 02       		.byte	0x2
 1356 01cd 23       		.byte	0x23
 1357 01ce 20       		.uleb128 0x20
 1358 01cf 07       		.uleb128 0x7
 1359 01d0 705F7500 		.ascii	"p_u\000"
 1360 01d4 06       		.byte	0x6
 1361 01d5 B4       		.byte	0xb4
 1362 01d6 A8030000 		.4byte	0x3a8
 1363 01da 02       		.byte	0x2
 1364 01db 23       		.byte	0x23
 1365 01dc 24       		.uleb128 0x24
 1366 01dd 06       		.uleb128 0x6
 1367 01de C0050000 		.4byte	.LASF37
 1368 01e2 06       		.byte	0x6
 1369 01e3 B9       		.byte	0xb9
 1370 01e4 8D020000 		.4byte	0x28d
 1371 01e8 02       		.byte	0x2
 1372 01e9 23       		.byte	0x23
 1373 01ea 28       		.uleb128 0x28
 1374 01eb 06       		.uleb128 0x6
 1375 01ec 3D020000 		.4byte	.LASF38
 1376 01f0 06       		.byte	0x6
 1377 01f1 BF       		.byte	0xbf
 1378 01f2 6B020000 		.4byte	0x26b
 1379 01f6 02       		.byte	0x2
 1380 01f7 23       		.byte	0x23
 1381 01f8 2C       		.uleb128 0x2c
 1382 01f9 06       		.uleb128 0x6
 1383 01fa AC050000 		.4byte	.LASF39
 1384 01fe 06       		.byte	0x6
 1385 01ff C3       		.byte	0xc3
 1386 0200 EF000000 		.4byte	0xef
 1387 0204 02       		.byte	0x2
 1388 0205 23       		.byte	0x23
 1389 0206 34       		.uleb128 0x34
 1390 0207 06       		.uleb128 0x6
 1391 0208 31040000 		.4byte	.LASF40
 1392 020c 06       		.byte	0x6
 1393 020d C9       		.byte	0xc9
 1394 020e FA000000 		.4byte	0xfa
 1395 0212 02       		.byte	0x2
 1396 0213 23       		.byte	0x23
 1397 0214 38       		.uleb128 0x38
 1398 0215 06       		.uleb128 0x6
 1399 0216 F4030000 		.4byte	.LASF41
 1400 021a 06       		.byte	0x6
 1401 021b D0       		.byte	0xd0
 1402 021c EF030000 		.4byte	0x3ef
 1403 0220 02       		.byte	0x2
 1404 0221 23       		.byte	0x23
 1405 0222 3C       		.uleb128 0x3c
 1406 0223 06       		.uleb128 0x6
 1407 0224 AF040000 		.4byte	.LASF42
 1408 0228 06       		.byte	0x6
ARM GAS  C:\Users\DNIEL~1\AppData\Local\Temp\ccTozYXj.s 			page 26


 1409 0229 D4       		.byte	0xd4
 1410 022a E4000000 		.4byte	0xe4
 1411 022e 02       		.byte	0x2
 1412 022f 23       		.byte	0x23
 1413 0230 40       		.uleb128 0x40
 1414 0231 06       		.uleb128 0x6
 1415 0232 22010000 		.4byte	.LASF43
 1416 0236 06       		.byte	0x6
 1417 0237 DA       		.byte	0xda
 1418 0238 A3020000 		.4byte	0x2a3
 1419 023c 02       		.byte	0x2
 1420 023d 23       		.byte	0x23
 1421 023e 44       		.uleb128 0x44
 1422 023f 00       		.byte	0x0
 1423 0240 08       		.uleb128 0x8
 1424 0241 08       		.byte	0x8
 1425 0242 05       		.byte	0x5
 1426 0243 61       		.byte	0x61
 1427 0244 65020000 		.4byte	0x265
 1428 0248 06       		.uleb128 0x6
 1429 0249 F3020000 		.4byte	.LASF25
 1430 024d 05       		.byte	0x5
 1431 024e 62       		.byte	0x62
 1432 024f 65020000 		.4byte	0x265
 1433 0253 02       		.byte	0x2
 1434 0254 23       		.byte	0x23
 1435 0255 00       		.uleb128 0x0
 1436 0256 06       		.uleb128 0x6
 1437 0257 7C030000 		.4byte	.LASF26
 1438 025b 05       		.byte	0x5
 1439 025c 64       		.byte	0x64
 1440 025d 65020000 		.4byte	0x265
 1441 0261 02       		.byte	0x2
 1442 0262 23       		.byte	0x23
 1443 0263 04       		.uleb128 0x4
 1444 0264 00       		.byte	0x0
 1445 0265 09       		.uleb128 0x9
 1446 0266 04       		.byte	0x4
 1447 0267 10010000 		.4byte	0x110
 1448 026b 03       		.uleb128 0x3
 1449 026c 0F030000 		.4byte	.LASF44
 1450 0270 05       		.byte	0x5
 1451 0271 66       		.byte	0x66
 1452 0272 40020000 		.4byte	0x240
 1453 0276 08       		.uleb128 0x8
 1454 0277 04       		.byte	0x4
 1455 0278 05       		.byte	0x5
 1456 0279 6B       		.byte	0x6b
 1457 027a 8D020000 		.4byte	0x28d
 1458 027e 06       		.uleb128 0x6
 1459 027f F3020000 		.4byte	.LASF25
 1460 0283 05       		.byte	0x5
 1461 0284 6D       		.byte	0x6d
 1462 0285 65020000 		.4byte	0x265
 1463 0289 02       		.byte	0x2
 1464 028a 23       		.byte	0x23
 1465 028b 00       		.uleb128 0x0
ARM GAS  C:\Users\DNIEL~1\AppData\Local\Temp\ccTozYXj.s 			page 27


 1466 028c 00       		.byte	0x0
 1467 028d 03       		.uleb128 0x3
 1468 028e 9E020000 		.4byte	.LASF45
 1469 0292 05       		.byte	0x5
 1470 0293 70       		.byte	0x70
 1471 0294 76020000 		.4byte	0x276
 1472 0298 03       		.uleb128 0x3
 1473 0299 D2010000 		.4byte	.LASF46
 1474 029d 07       		.byte	0x7
 1475 029e E5       		.byte	0xe5
 1476 029f A3020000 		.4byte	0x2a3
 1477 02a3 0A       		.uleb128 0xa
 1478 02a4 04       		.byte	0x4
 1479 02a5 0B       		.uleb128 0xb
 1480 02a6 E3040000 		.4byte	.LASF47
 1481 02aa 24       		.byte	0x24
 1482 02ab 07       		.byte	0x7
 1483 02ac 0C01     		.2byte	0x10c
 1484 02ae 33030000 		.4byte	0x333
 1485 02b2 0C       		.uleb128 0xc
 1486 02b3 723400   		.ascii	"r4\000"
 1487 02b6 07       		.byte	0x7
 1488 02b7 1F01     		.2byte	0x11f
 1489 02b9 98020000 		.4byte	0x298
 1490 02bd 02       		.byte	0x2
 1491 02be 23       		.byte	0x23
 1492 02bf 00       		.uleb128 0x0
 1493 02c0 0C       		.uleb128 0xc
 1494 02c1 723500   		.ascii	"r5\000"
 1495 02c4 07       		.byte	0x7
 1496 02c5 2001     		.2byte	0x120
 1497 02c7 98020000 		.4byte	0x298
 1498 02cb 02       		.byte	0x2
 1499 02cc 23       		.byte	0x23
 1500 02cd 04       		.uleb128 0x4
 1501 02ce 0C       		.uleb128 0xc
 1502 02cf 723600   		.ascii	"r6\000"
 1503 02d2 07       		.byte	0x7
 1504 02d3 2101     		.2byte	0x121
 1505 02d5 98020000 		.4byte	0x298
 1506 02d9 02       		.byte	0x2
 1507 02da 23       		.byte	0x23
 1508 02db 08       		.uleb128 0x8
 1509 02dc 0C       		.uleb128 0xc
 1510 02dd 723700   		.ascii	"r7\000"
 1511 02e0 07       		.byte	0x7
 1512 02e1 2201     		.2byte	0x122
 1513 02e3 98020000 		.4byte	0x298
 1514 02e7 02       		.byte	0x2
 1515 02e8 23       		.byte	0x23
 1516 02e9 0C       		.uleb128 0xc
 1517 02ea 0C       		.uleb128 0xc
 1518 02eb 723800   		.ascii	"r8\000"
 1519 02ee 07       		.byte	0x7
 1520 02ef 2301     		.2byte	0x123
 1521 02f1 98020000 		.4byte	0x298
 1522 02f5 02       		.byte	0x2
ARM GAS  C:\Users\DNIEL~1\AppData\Local\Temp\ccTozYXj.s 			page 28


 1523 02f6 23       		.byte	0x23
 1524 02f7 10       		.uleb128 0x10
 1525 02f8 0C       		.uleb128 0xc
 1526 02f9 723900   		.ascii	"r9\000"
 1527 02fc 07       		.byte	0x7
 1528 02fd 2401     		.2byte	0x124
 1529 02ff 98020000 		.4byte	0x298
 1530 0303 02       		.byte	0x2
 1531 0304 23       		.byte	0x23
 1532 0305 14       		.uleb128 0x14
 1533 0306 0C       		.uleb128 0xc
 1534 0307 72313000 		.ascii	"r10\000"
 1535 030b 07       		.byte	0x7
 1536 030c 2501     		.2byte	0x125
 1537 030e 98020000 		.4byte	0x298
 1538 0312 02       		.byte	0x2
 1539 0313 23       		.byte	0x23
 1540 0314 18       		.uleb128 0x18
 1541 0315 0C       		.uleb128 0xc
 1542 0316 72313100 		.ascii	"r11\000"
 1543 031a 07       		.byte	0x7
 1544 031b 2601     		.2byte	0x126
 1545 031d 98020000 		.4byte	0x298
 1546 0321 02       		.byte	0x2
 1547 0322 23       		.byte	0x23
 1548 0323 1C       		.uleb128 0x1c
 1549 0324 0C       		.uleb128 0xc
 1550 0325 6C7200   		.ascii	"lr\000"
 1551 0328 07       		.byte	0x7
 1552 0329 2701     		.2byte	0x127
 1553 032b 98020000 		.4byte	0x298
 1554 032f 02       		.byte	0x2
 1555 0330 23       		.byte	0x23
 1556 0331 20       		.uleb128 0x20
 1557 0332 00       		.byte	0x0
 1558 0333 0B       		.uleb128 0xb
 1559 0334 6D020000 		.4byte	.LASF48
 1560 0338 04       		.byte	0x4
 1561 0339 07       		.byte	0x7
 1562 033a 3101     		.2byte	0x131
 1563 033c 50030000 		.4byte	0x350
 1564 0340 0C       		.uleb128 0xc
 1565 0341 72313300 		.ascii	"r13\000"
 1566 0345 07       		.byte	0x7
 1567 0346 3201     		.2byte	0x132
 1568 0348 50030000 		.4byte	0x350
 1569 034c 02       		.byte	0x2
 1570 034d 23       		.byte	0x23
 1571 034e 00       		.uleb128 0x0
 1572 034f 00       		.byte	0x0
 1573 0350 09       		.uleb128 0x9
 1574 0351 04       		.byte	0x4
 1575 0352 A5020000 		.4byte	0x2a5
 1576 0356 0D       		.uleb128 0xd
 1577 0357 86000000 		.4byte	0x86
 1578 035b 0D       		.uleb128 0xd
 1579 035c 05010000 		.4byte	0x105
ARM GAS  C:\Users\DNIEL~1\AppData\Local\Temp\ccTozYXj.s 			page 29


 1580 0360 05       		.uleb128 0x5
 1581 0361 E5020000 		.4byte	.LASF49
 1582 0365 10       		.byte	0x10
 1583 0366 08       		.byte	0x8
 1584 0367 2C       		.byte	0x2c
 1585 0368 97030000 		.4byte	0x397
 1586 036c 06       		.uleb128 0x6
 1587 036d 31010000 		.4byte	.LASF50
 1588 0371 08       		.byte	0x8
 1589 0372 2D       		.byte	0x2d
 1590 0373 6B020000 		.4byte	0x26b
 1591 0377 02       		.byte	0x2
 1592 0378 23       		.byte	0x23
 1593 0379 00       		.uleb128 0x0
 1594 037a 06       		.uleb128 0x6
 1595 037b B2050000 		.4byte	.LASF51
 1596 037f 08       		.byte	0x8
 1597 0380 2F       		.byte	0x2f
 1598 0381 65020000 		.4byte	0x265
 1599 0385 02       		.byte	0x2
 1600 0386 23       		.byte	0x23
 1601 0387 08       		.uleb128 0x8
 1602 0388 06       		.uleb128 0x6
 1603 0389 9E040000 		.4byte	.LASF52
 1604 038d 08       		.byte	0x8
 1605 038e 31       		.byte	0x31
 1606 038f 97030000 		.4byte	0x397
 1607 0393 02       		.byte	0x2
 1608 0394 23       		.byte	0x23
 1609 0395 0C       		.uleb128 0xc
 1610 0396 00       		.byte	0x0
 1611 0397 09       		.uleb128 0x9
 1612 0398 04       		.byte	0x4
 1613 0399 60030000 		.4byte	0x360
 1614 039d 03       		.uleb128 0x3
 1615 039e E5020000 		.4byte	.LASF49
 1616 03a2 08       		.byte	0x8
 1617 03a3 33       		.byte	0x33
 1618 03a4 60030000 		.4byte	0x360
 1619 03a8 0E       		.uleb128 0xe
 1620 03a9 04       		.byte	0x4
 1621 03aa 06       		.byte	0x6
 1622 03ab 96       		.byte	0x96
 1623 03ac DD030000 		.4byte	0x3dd
 1624 03b0 0F       		.uleb128 0xf
 1625 03b1 07000000 		.4byte	.LASF53
 1626 03b5 06       		.byte	0x6
 1627 03b6 9D       		.byte	0x9d
 1628 03b7 EF000000 		.4byte	0xef
 1629 03bb 0F       		.uleb128 0xf
 1630 03bc AC000000 		.4byte	.LASF54
 1631 03c0 06       		.byte	0x6
 1632 03c1 A4       		.byte	0xa4
 1633 03c2 EF000000 		.4byte	0xef
 1634 03c6 0F       		.uleb128 0xf
 1635 03c7 41050000 		.4byte	.LASF55
 1636 03cb 06       		.byte	0x6
ARM GAS  C:\Users\DNIEL~1\AppData\Local\Temp\ccTozYXj.s 			page 30


 1637 03cc AB       		.byte	0xab
 1638 03cd A3020000 		.4byte	0x2a3
 1639 03d1 0F       		.uleb128 0xf
 1640 03d2 12040000 		.4byte	.LASF56
 1641 03d6 06       		.byte	0x6
 1642 03d7 B2       		.byte	0xb2
 1643 03d8 FA000000 		.4byte	0xfa
 1644 03dc 00       		.byte	0x0
 1645 03dd 09       		.uleb128 0x9
 1646 03de 04       		.byte	0x4
 1647 03df E3030000 		.4byte	0x3e3
 1648 03e3 10       		.uleb128 0x10
 1649 03e4 E8030000 		.4byte	0x3e8
 1650 03e8 04       		.uleb128 0x4
 1651 03e9 01       		.byte	0x1
 1652 03ea 08       		.byte	0x8
 1653 03eb 7A040000 		.4byte	.LASF57
 1654 03ef 09       		.uleb128 0x9
 1655 03f0 04       		.byte	0x4
 1656 03f1 9D030000 		.4byte	0x39d
 1657 03f5 0D       		.uleb128 0xd
 1658 03f6 62000000 		.4byte	0x62
 1659 03fa 0D       		.uleb128 0xd
 1660 03fb 74000000 		.4byte	0x74
 1661 03ff 11       		.uleb128 0x11
 1662 0400 10       		.byte	0x10
 1663 0401 09       		.byte	0x9
 1664 0402 2D03     		.2byte	0x32d
 1665 0404 45040000 		.4byte	0x445
 1666 0408 0C       		.uleb128 0xc
 1667 0409 43435200 		.ascii	"CCR\000"
 1668 040d 09       		.byte	0x9
 1669 040e 2F03     		.2byte	0x32f
 1670 0410 56030000 		.4byte	0x356
 1671 0414 02       		.byte	0x2
 1672 0415 23       		.byte	0x23
 1673 0416 00       		.uleb128 0x0
 1674 0417 12       		.uleb128 0x12
 1675 0418 0E050000 		.4byte	.LASF58
 1676 041c 09       		.byte	0x9
 1677 041d 3003     		.2byte	0x330
 1678 041f 56030000 		.4byte	0x356
 1679 0423 02       		.byte	0x2
 1680 0424 23       		.byte	0x23
 1681 0425 04       		.uleb128 0x4
 1682 0426 12       		.uleb128 0x12
 1683 0427 29020000 		.4byte	.LASF59
 1684 042b 09       		.byte	0x9
 1685 042c 3103     		.2byte	0x331
 1686 042e 56030000 		.4byte	0x356
 1687 0432 02       		.byte	0x2
 1688 0433 23       		.byte	0x23
 1689 0434 08       		.uleb128 0x8
 1690 0435 12       		.uleb128 0x12
 1691 0436 B6020000 		.4byte	.LASF60
 1692 043a 09       		.byte	0x9
 1693 043b 3203     		.2byte	0x332
ARM GAS  C:\Users\DNIEL~1\AppData\Local\Temp\ccTozYXj.s 			page 31


 1694 043d 56030000 		.4byte	0x356
 1695 0441 02       		.byte	0x2
 1696 0442 23       		.byte	0x23
 1697 0443 0C       		.uleb128 0xc
 1698 0444 00       		.byte	0x0
 1699 0445 13       		.uleb128 0x13
 1700 0446 2F030000 		.4byte	.LASF61
 1701 044a 09       		.byte	0x9
 1702 044b 3303     		.2byte	0x333
 1703 044d FF030000 		.4byte	0x3ff
 1704 0451 11       		.uleb128 0x11
 1705 0452 1C       		.byte	0x1c
 1706 0453 09       		.byte	0x9
 1707 0454 F803     		.2byte	0x3f8
 1708 0456 C4040000 		.4byte	0x4c4
 1709 045a 0C       		.uleb128 0xc
 1710 045b 43524C00 		.ascii	"CRL\000"
 1711 045f 09       		.byte	0x9
 1712 0460 FA03     		.2byte	0x3fa
 1713 0462 56030000 		.4byte	0x356
 1714 0466 02       		.byte	0x2
 1715 0467 23       		.byte	0x23
 1716 0468 00       		.uleb128 0x0
 1717 0469 0C       		.uleb128 0xc
 1718 046a 43524800 		.ascii	"CRH\000"
 1719 046e 09       		.byte	0x9
 1720 046f FB03     		.2byte	0x3fb
 1721 0471 56030000 		.4byte	0x356
 1722 0475 02       		.byte	0x2
 1723 0476 23       		.byte	0x23
 1724 0477 04       		.uleb128 0x4
 1725 0478 0C       		.uleb128 0xc
 1726 0479 49445200 		.ascii	"IDR\000"
 1727 047d 09       		.byte	0x9
 1728 047e FC03     		.2byte	0x3fc
 1729 0480 56030000 		.4byte	0x356
 1730 0484 02       		.byte	0x2
 1731 0485 23       		.byte	0x23
 1732 0486 08       		.uleb128 0x8
 1733 0487 0C       		.uleb128 0xc
 1734 0488 4F445200 		.ascii	"ODR\000"
 1735 048c 09       		.byte	0x9
 1736 048d FD03     		.2byte	0x3fd
 1737 048f 56030000 		.4byte	0x356
 1738 0493 02       		.byte	0x2
 1739 0494 23       		.byte	0x23
 1740 0495 0C       		.uleb128 0xc
 1741 0496 12       		.uleb128 0x12
 1742 0497 14010000 		.4byte	.LASF62
 1743 049b 09       		.byte	0x9
 1744 049c FE03     		.2byte	0x3fe
 1745 049e 56030000 		.4byte	0x356
 1746 04a2 02       		.byte	0x2
 1747 04a3 23       		.byte	0x23
 1748 04a4 10       		.uleb128 0x10
 1749 04a5 0C       		.uleb128 0xc
 1750 04a6 42525200 		.ascii	"BRR\000"
ARM GAS  C:\Users\DNIEL~1\AppData\Local\Temp\ccTozYXj.s 			page 32


 1751 04aa 09       		.byte	0x9
 1752 04ab FF03     		.2byte	0x3ff
 1753 04ad 56030000 		.4byte	0x356
 1754 04b1 02       		.byte	0x2
 1755 04b2 23       		.byte	0x23
 1756 04b3 14       		.uleb128 0x14
 1757 04b4 12       		.uleb128 0x12
 1758 04b5 61020000 		.4byte	.LASF63
 1759 04b9 09       		.byte	0x9
 1760 04ba 0004     		.2byte	0x400
 1761 04bc 56030000 		.4byte	0x356
 1762 04c0 02       		.byte	0x2
 1763 04c1 23       		.byte	0x23
 1764 04c2 18       		.uleb128 0x18
 1765 04c3 00       		.byte	0x0
 1766 04c4 13       		.uleb128 0x13
 1767 04c5 48020000 		.4byte	.LASF64
 1768 04c9 09       		.byte	0x9
 1769 04ca 0104     		.2byte	0x401
 1770 04cc 51040000 		.4byte	0x451
 1771 04d0 11       		.uleb128 0x11
 1772 04d1 28       		.byte	0x28
 1773 04d2 09       		.byte	0x9
 1774 04d3 4304     		.2byte	0x443
 1775 04d5 6F050000 		.4byte	0x56f
 1776 04d9 0C       		.uleb128 0xc
 1777 04da 435200   		.ascii	"CR\000"
 1778 04dd 09       		.byte	0x9
 1779 04de 4504     		.2byte	0x445
 1780 04e0 56030000 		.4byte	0x356
 1781 04e4 02       		.byte	0x2
 1782 04e5 23       		.byte	0x23
 1783 04e6 00       		.uleb128 0x0
 1784 04e7 12       		.uleb128 0x12
 1785 04e8 24020000 		.4byte	.LASF65
 1786 04ec 09       		.byte	0x9
 1787 04ed 4604     		.2byte	0x446
 1788 04ef 56030000 		.4byte	0x356
 1789 04f3 02       		.byte	0x2
 1790 04f4 23       		.byte	0x23
 1791 04f5 04       		.uleb128 0x4
 1792 04f6 0C       		.uleb128 0xc
 1793 04f7 43495200 		.ascii	"CIR\000"
 1794 04fb 09       		.byte	0x9
 1795 04fc 4704     		.2byte	0x447
 1796 04fe 56030000 		.4byte	0x356
 1797 0502 02       		.byte	0x2
 1798 0503 23       		.byte	0x23
 1799 0504 08       		.uleb128 0x8
 1800 0505 12       		.uleb128 0x12
 1801 0506 79010000 		.4byte	.LASF66
 1802 050a 09       		.byte	0x9
 1803 050b 4804     		.2byte	0x448
 1804 050d 56030000 		.4byte	0x356
 1805 0511 02       		.byte	0x2
 1806 0512 23       		.byte	0x23
 1807 0513 0C       		.uleb128 0xc
ARM GAS  C:\Users\DNIEL~1\AppData\Local\Temp\ccTozYXj.s 			page 33


 1808 0514 12       		.uleb128 0x12
 1809 0515 26030000 		.4byte	.LASF67
 1810 0519 09       		.byte	0x9
 1811 051a 4904     		.2byte	0x449
 1812 051c 56030000 		.4byte	0x356
 1813 0520 02       		.byte	0x2
 1814 0521 23       		.byte	0x23
 1815 0522 10       		.uleb128 0x10
 1816 0523 12       		.uleb128 0x12
 1817 0524 CA050000 		.4byte	.LASF68
 1818 0528 09       		.byte	0x9
 1819 0529 4A04     		.2byte	0x44a
 1820 052b 56030000 		.4byte	0x356
 1821 052f 02       		.byte	0x2
 1822 0530 23       		.byte	0x23
 1823 0531 14       		.uleb128 0x14
 1824 0532 12       		.uleb128 0x12
 1825 0533 21040000 		.4byte	.LASF69
 1826 0537 09       		.byte	0x9
 1827 0538 4B04     		.2byte	0x44b
 1828 053a 56030000 		.4byte	0x356
 1829 053e 02       		.byte	0x2
 1830 053f 23       		.byte	0x23
 1831 0540 18       		.uleb128 0x18
 1832 0541 12       		.uleb128 0x12
 1833 0542 C1040000 		.4byte	.LASF70
 1834 0546 09       		.byte	0x9
 1835 0547 4C04     		.2byte	0x44c
 1836 0549 56030000 		.4byte	0x356
 1837 054d 02       		.byte	0x2
 1838 054e 23       		.byte	0x23
 1839 054f 1C       		.uleb128 0x1c
 1840 0550 12       		.uleb128 0x12
 1841 0551 14050000 		.4byte	.LASF71
 1842 0555 09       		.byte	0x9
 1843 0556 4D04     		.2byte	0x44d
 1844 0558 56030000 		.4byte	0x356
 1845 055c 02       		.byte	0x2
 1846 055d 23       		.byte	0x23
 1847 055e 20       		.uleb128 0x20
 1848 055f 0C       		.uleb128 0xc
 1849 0560 43535200 		.ascii	"CSR\000"
 1850 0564 09       		.byte	0x9
 1851 0565 4E04     		.2byte	0x44e
 1852 0567 56030000 		.4byte	0x356
 1853 056b 02       		.byte	0x2
 1854 056c 23       		.byte	0x23
 1855 056d 24       		.uleb128 0x24
 1856 056e 00       		.byte	0x0
 1857 056f 13       		.uleb128 0x13
 1858 0570 55020000 		.4byte	.LASF72
 1859 0574 09       		.byte	0x9
 1860 0575 5904     		.2byte	0x459
 1861 0577 D0040000 		.4byte	0x4d0
 1862 057b 11       		.uleb128 0x11
 1863 057c 24       		.byte	0x24
 1864 057d 09       		.byte	0x9
ARM GAS  C:\Users\DNIEL~1\AppData\Local\Temp\ccTozYXj.s 			page 34


 1865 057e 9704     		.2byte	0x497
 1866 0580 91060000 		.4byte	0x691
 1867 0584 0C       		.uleb128 0xc
 1868 0585 43523100 		.ascii	"CR1\000"
 1869 0589 09       		.byte	0x9
 1870 058a 9904     		.2byte	0x499
 1871 058c F5030000 		.4byte	0x3f5
 1872 0590 02       		.byte	0x2
 1873 0591 23       		.byte	0x23
 1874 0592 00       		.uleb128 0x0
 1875 0593 12       		.uleb128 0x12
 1876 0594 4A030000 		.4byte	.LASF73
 1877 0598 09       		.byte	0x9
 1878 0599 9A04     		.2byte	0x49a
 1879 059b 62000000 		.4byte	0x62
 1880 059f 02       		.byte	0x2
 1881 05a0 23       		.byte	0x23
 1882 05a1 02       		.uleb128 0x2
 1883 05a2 0C       		.uleb128 0xc
 1884 05a3 43523200 		.ascii	"CR2\000"
 1885 05a7 09       		.byte	0x9
 1886 05a8 9B04     		.2byte	0x49b
 1887 05aa F5030000 		.4byte	0x3f5
 1888 05ae 02       		.byte	0x2
 1889 05af 23       		.byte	0x23
 1890 05b0 04       		.uleb128 0x4
 1891 05b1 12       		.uleb128 0x12
 1892 05b2 54030000 		.4byte	.LASF74
 1893 05b6 09       		.byte	0x9
 1894 05b7 9C04     		.2byte	0x49c
 1895 05b9 62000000 		.4byte	0x62
 1896 05bd 02       		.byte	0x2
 1897 05be 23       		.byte	0x23
 1898 05bf 06       		.uleb128 0x6
 1899 05c0 0C       		.uleb128 0xc
 1900 05c1 535200   		.ascii	"SR\000"
 1901 05c4 09       		.byte	0x9
 1902 05c5 9D04     		.2byte	0x49d
 1903 05c7 F5030000 		.4byte	0x3f5
 1904 05cb 02       		.byte	0x2
 1905 05cc 23       		.byte	0x23
 1906 05cd 08       		.uleb128 0x8
 1907 05ce 12       		.uleb128 0x12
 1908 05cf 5E030000 		.4byte	.LASF75
 1909 05d3 09       		.byte	0x9
 1910 05d4 9E04     		.2byte	0x49e
 1911 05d6 62000000 		.4byte	0x62
 1912 05da 02       		.byte	0x2
 1913 05db 23       		.byte	0x23
 1914 05dc 0A       		.uleb128 0xa
 1915 05dd 0C       		.uleb128 0xc
 1916 05de 445200   		.ascii	"DR\000"
 1917 05e1 09       		.byte	0x9
 1918 05e2 9F04     		.2byte	0x49f
 1919 05e4 F5030000 		.4byte	0x3f5
 1920 05e8 02       		.byte	0x2
 1921 05e9 23       		.byte	0x23
ARM GAS  C:\Users\DNIEL~1\AppData\Local\Temp\ccTozYXj.s 			page 35


 1922 05ea 0C       		.uleb128 0xc
 1923 05eb 12       		.uleb128 0x12
 1924 05ec 68030000 		.4byte	.LASF76
 1925 05f0 09       		.byte	0x9
 1926 05f1 A004     		.2byte	0x4a0
 1927 05f3 62000000 		.4byte	0x62
 1928 05f7 02       		.byte	0x2
 1929 05f8 23       		.byte	0x23
 1930 05f9 0E       		.uleb128 0xe
 1931 05fa 12       		.uleb128 0x12
 1932 05fb A0000000 		.4byte	.LASF77
 1933 05ff 09       		.byte	0x9
 1934 0600 A104     		.2byte	0x4a1
 1935 0602 F5030000 		.4byte	0x3f5
 1936 0606 02       		.byte	0x2
 1937 0607 23       		.byte	0x23
 1938 0608 10       		.uleb128 0x10
 1939 0609 12       		.uleb128 0x12
 1940 060a 72030000 		.4byte	.LASF78
 1941 060e 09       		.byte	0x9
 1942 060f A204     		.2byte	0x4a2
 1943 0611 62000000 		.4byte	0x62
 1944 0615 02       		.byte	0x2
 1945 0616 23       		.byte	0x23
 1946 0617 12       		.uleb128 0x12
 1947 0618 12       		.uleb128 0x12
 1948 0619 19050000 		.4byte	.LASF79
 1949 061d 09       		.byte	0x9
 1950 061e A304     		.2byte	0x4a3
 1951 0620 F5030000 		.4byte	0x3f5
 1952 0624 02       		.byte	0x2
 1953 0625 23       		.byte	0x23
 1954 0626 14       		.uleb128 0x14
 1955 0627 12       		.uleb128 0x12
 1956 0628 41040000 		.4byte	.LASF80
 1957 062c 09       		.byte	0x9
 1958 062d A404     		.2byte	0x4a4
 1959 062f 62000000 		.4byte	0x62
 1960 0633 02       		.byte	0x2
 1961 0634 23       		.byte	0x23
 1962 0635 16       		.uleb128 0x16
 1963 0636 12       		.uleb128 0x12
 1964 0637 43030000 		.4byte	.LASF81
 1965 063b 09       		.byte	0x9
 1966 063c A504     		.2byte	0x4a5
 1967 063e F5030000 		.4byte	0x3f5
 1968 0642 02       		.byte	0x2
 1969 0643 23       		.byte	0x23
 1970 0644 18       		.uleb128 0x18
 1971 0645 12       		.uleb128 0x12
 1972 0646 83030000 		.4byte	.LASF82
 1973 064a 09       		.byte	0x9
 1974 064b A604     		.2byte	0x4a6
 1975 064d 62000000 		.4byte	0x62
 1976 0651 02       		.byte	0x2
 1977 0652 23       		.byte	0x23
 1978 0653 1A       		.uleb128 0x1a
ARM GAS  C:\Users\DNIEL~1\AppData\Local\Temp\ccTozYXj.s 			page 36


 1979 0654 12       		.uleb128 0x12
 1980 0655 EB020000 		.4byte	.LASF83
 1981 0659 09       		.byte	0x9
 1982 065a A704     		.2byte	0x4a7
 1983 065c F5030000 		.4byte	0x3f5
 1984 0660 02       		.byte	0x2
 1985 0661 23       		.byte	0x23
 1986 0662 1C       		.uleb128 0x1c
 1987 0663 12       		.uleb128 0x12
 1988 0664 8D030000 		.4byte	.LASF84
 1989 0668 09       		.byte	0x9
 1990 0669 A804     		.2byte	0x4a8
 1991 066b 62000000 		.4byte	0x62
 1992 066f 02       		.byte	0x2
 1993 0670 23       		.byte	0x23
 1994 0671 1E       		.uleb128 0x1e
 1995 0672 12       		.uleb128 0x12
 1996 0673 DF020000 		.4byte	.LASF85
 1997 0677 09       		.byte	0x9
 1998 0678 A904     		.2byte	0x4a9
 1999 067a F5030000 		.4byte	0x3f5
 2000 067e 02       		.byte	0x2
 2001 067f 23       		.byte	0x23
 2002 0680 20       		.uleb128 0x20
 2003 0681 12       		.uleb128 0x12
 2004 0682 97030000 		.4byte	.LASF86
 2005 0686 09       		.byte	0x9
 2006 0687 AA04     		.2byte	0x4aa
 2007 0689 62000000 		.4byte	0x62
 2008 068d 02       		.byte	0x2
 2009 068e 23       		.byte	0x23
 2010 068f 22       		.uleb128 0x22
 2011 0690 00       		.byte	0x0
 2012 0691 13       		.uleb128 0x13
 2013 0692 6E040000 		.4byte	.LASF87
 2014 0696 09       		.byte	0x9
 2015 0697 AB04     		.2byte	0x4ab
 2016 0699 7B050000 		.4byte	0x57b
 2017 069d 08       		.uleb128 0x8
 2018 069e 0C       		.byte	0xc
 2019 069f 0A       		.byte	0xa
 2020 06a0 C1       		.byte	0xc1
 2021 06a1 EC060000 		.4byte	0x6ec
 2022 06a5 06       		.uleb128 0x6
 2023 06a6 29040000 		.4byte	.LASF88
 2024 06aa 0A       		.byte	0xa
 2025 06ab C2       		.byte	0xc2
 2026 06ac EC060000 		.4byte	0x6ec
 2027 06b0 02       		.byte	0x2
 2028 06b1 23       		.byte	0x23
 2029 06b2 00       		.uleb128 0x0
 2030 06b3 06       		.uleb128 0x6
 2031 06b4 3C040000 		.4byte	.LASF89
 2032 06b8 0A       		.byte	0xa
 2033 06b9 C3       		.byte	0xc3
 2034 06ba F2060000 		.4byte	0x6f2
 2035 06be 02       		.byte	0x2
ARM GAS  C:\Users\DNIEL~1\AppData\Local\Temp\ccTozYXj.s 			page 37


 2036 06bf 23       		.byte	0x23
 2037 06c0 04       		.uleb128 0x4
 2038 06c1 06       		.uleb128 0x6
 2039 06c2 66020000 		.4byte	.LASF90
 2040 06c6 0A       		.byte	0xa
 2041 06c7 C4       		.byte	0xc4
 2042 06c8 49000000 		.4byte	0x49
 2043 06cc 02       		.byte	0x2
 2044 06cd 23       		.byte	0x23
 2045 06ce 08       		.uleb128 0x8
 2046 06cf 06       		.uleb128 0x6
 2047 06d0 DB010000 		.4byte	.LASF91
 2048 06d4 0A       		.byte	0xa
 2049 06d5 C6       		.byte	0xc6
 2050 06d6 49000000 		.4byte	0x49
 2051 06da 02       		.byte	0x2
 2052 06db 23       		.byte	0x23
 2053 06dc 09       		.uleb128 0x9
 2054 06dd 06       		.uleb128 0x6
 2055 06de B5000000 		.4byte	.LASF92
 2056 06e2 0A       		.byte	0xa
 2057 06e3 C7       		.byte	0xc7
 2058 06e4 49000000 		.4byte	0x49
 2059 06e8 02       		.byte	0x2
 2060 06e9 23       		.byte	0x23
 2061 06ea 0A       		.uleb128 0xa
 2062 06eb 00       		.byte	0x0
 2063 06ec 09       		.uleb128 0x9
 2064 06ed 04       		.byte	0x4
 2065 06ee 45040000 		.4byte	0x445
 2066 06f2 09       		.uleb128 0x9
 2067 06f3 04       		.byte	0x4
 2068 06f4 56030000 		.4byte	0x356
 2069 06f8 03       		.uleb128 0x3
 2070 06f9 CB030000 		.4byte	.LASF93
 2071 06fd 0A       		.byte	0xa
 2072 06fe C8       		.byte	0xc8
 2073 06ff 9D060000 		.4byte	0x69d
 2074 0703 03       		.uleb128 0x3
 2075 0704 2E020000 		.4byte	.LASF94
 2076 0708 0A       		.byte	0xa
 2077 0709 D1       		.byte	0xd1
 2078 070a 0E070000 		.4byte	0x70e
 2079 070e 09       		.uleb128 0x9
 2080 070f 04       		.byte	0x4
 2081 0710 14070000 		.4byte	0x714
 2082 0714 14       		.uleb128 0x14
 2083 0715 01       		.byte	0x1
 2084 0716 25070000 		.4byte	0x725
 2085 071a 15       		.uleb128 0x15
 2086 071b A3020000 		.4byte	0x2a3
 2087 071f 15       		.uleb128 0x15
 2088 0720 86000000 		.4byte	0x86
 2089 0724 00       		.byte	0x0
 2090 0725 03       		.uleb128 0x3
 2091 0726 31000000 		.4byte	.LASF95
 2092 072a 0B       		.byte	0xb
ARM GAS  C:\Users\DNIEL~1\AppData\Local\Temp\ccTozYXj.s 			page 38


 2093 072b 6D       		.byte	0x6d
 2094 072c 86000000 		.4byte	0x86
 2095 0730 03       		.uleb128 0x3
 2096 0731 C9040000 		.4byte	.LASF96
 2097 0735 0B       		.byte	0xb
 2098 0736 7A       		.byte	0x7a
 2099 0737 3B070000 		.4byte	0x73b
 2100 073b 09       		.uleb128 0x9
 2101 073c 04       		.byte	0x4
 2102 073d C4040000 		.4byte	0x4c4
 2103 0741 09       		.uleb128 0x9
 2104 0742 04       		.byte	0x4
 2105 0743 47070000 		.4byte	0x747
 2106 0747 10       		.uleb128 0x10
 2107 0748 F8060000 		.4byte	0x6f8
 2108 074c 16       		.uleb128 0x16
 2109 074d 01       		.byte	0x1
 2110 074e 0C       		.byte	0xc
 2111 074f 55       		.byte	0x55
 2112 0750 73070000 		.4byte	0x773
 2113 0754 17       		.uleb128 0x17
 2114 0755 F4040000 		.4byte	.LASF97
 2115 0759 00       		.sleb128 0
 2116 075a 17       		.uleb128 0x17
 2117 075b 19010000 		.4byte	.LASF98
 2118 075f 01       		.sleb128 1
 2119 0760 17       		.uleb128 0x17
 2120 0761 EA040000 		.4byte	.LASF99
 2121 0765 02       		.sleb128 2
 2122 0766 17       		.uleb128 0x17
 2123 0767 0E000000 		.4byte	.LASF100
 2124 076b 03       		.sleb128 3
 2125 076c 17       		.uleb128 0x17
 2126 076d 7F040000 		.4byte	.LASF101
 2127 0771 04       		.sleb128 4
 2128 0772 00       		.byte	0x0
 2129 0773 03       		.uleb128 0x3
 2130 0774 93040000 		.4byte	.LASF102
 2131 0778 0C       		.byte	0xc
 2132 0779 5B       		.byte	0x5b
 2133 077a 4C070000 		.4byte	0x74c
 2134 077e 13       		.uleb128 0x13
 2135 077f CF000000 		.4byte	.LASF103
 2136 0783 0D       		.byte	0xd
 2137 0784 E701     		.2byte	0x1e7
 2138 0786 8A070000 		.4byte	0x78a
 2139 078a 0B       		.uleb128 0xb
 2140 078b CF000000 		.4byte	.LASF103
 2141 078f 30       		.byte	0x30
 2142 0790 0D       		.byte	0xd
 2143 0791 0B02     		.2byte	0x20b
 2144 0793 1F080000 		.4byte	0x81f
 2145 0797 12       		.uleb128 0x12
 2146 0798 4F010000 		.4byte	.LASF104
 2147 079c 0D       		.byte	0xd
 2148 079d 0F02     		.2byte	0x20f
 2149 079f 73070000 		.4byte	0x773
ARM GAS  C:\Users\DNIEL~1\AppData\Local\Temp\ccTozYXj.s 			page 39


 2150 07a3 02       		.byte	0x2
 2151 07a4 23       		.byte	0x23
 2152 07a5 00       		.uleb128 0x0
 2153 07a6 12       		.uleb128 0x12
 2154 07a7 8C040000 		.4byte	.LASF105
 2155 07ab 0D       		.byte	0xd
 2156 07ac 1302     		.2byte	0x213
 2157 07ae 95080000 		.4byte	0x895
 2158 07b2 02       		.byte	0x2
 2159 07b3 23       		.byte	0x23
 2160 07b4 04       		.uleb128 0x4
 2161 07b5 12       		.uleb128 0x12
 2162 07b6 BA040000 		.4byte	.LASF106
 2163 07ba 0D       		.byte	0xd
 2164 07bb 1802     		.2byte	0x218
 2165 07bd 65020000 		.4byte	0x265
 2166 07c1 02       		.byte	0x2
 2167 07c2 23       		.byte	0x23
 2168 07c3 08       		.uleb128 0x8
 2169 07c4 12       		.uleb128 0x12
 2170 07c5 A9030000 		.4byte	.LASF107
 2171 07c9 0D       		.byte	0xd
 2172 07ca 1F02     		.2byte	0x21f
 2173 07cc 9D030000 		.4byte	0x39d
 2174 07d0 02       		.byte	0x2
 2175 07d1 23       		.byte	0x23
 2176 07d2 0C       		.uleb128 0xc
 2177 07d3 0C       		.uleb128 0xc
 2178 07d4 73706900 		.ascii	"spi\000"
 2179 07d8 0D       		.byte	0xd
 2180 07d9 2B02     		.2byte	0x22b
 2181 07db A0080000 		.4byte	0x8a0
 2182 07df 02       		.byte	0x2
 2183 07e0 23       		.byte	0x23
 2184 07e1 1C       		.uleb128 0x1c
 2185 07e2 12       		.uleb128 0x12
 2186 07e3 3E000000 		.4byte	.LASF108
 2187 07e7 0D       		.byte	0xd
 2188 07e8 2F02     		.2byte	0x22f
 2189 07ea 41070000 		.4byte	0x741
 2190 07ee 02       		.byte	0x2
 2191 07ef 23       		.byte	0x23
 2192 07f0 20       		.uleb128 0x20
 2193 07f1 12       		.uleb128 0x12
 2194 07f2 CC010000 		.4byte	.LASF109
 2195 07f6 0D       		.byte	0xd
 2196 07f7 3302     		.2byte	0x233
 2197 07f9 41070000 		.4byte	0x741
 2198 07fd 02       		.byte	0x2
 2199 07fe 23       		.byte	0x23
 2200 07ff 24       		.uleb128 0x24
 2201 0800 12       		.uleb128 0x12
 2202 0801 C2010000 		.4byte	.LASF110
 2203 0805 0D       		.byte	0xd
 2204 0806 3702     		.2byte	0x237
 2205 0808 86000000 		.4byte	0x86
 2206 080c 02       		.byte	0x2
ARM GAS  C:\Users\DNIEL~1\AppData\Local\Temp\ccTozYXj.s 			page 40


 2207 080d 23       		.byte	0x23
 2208 080e 28       		.uleb128 0x28
 2209 080f 12       		.uleb128 0x12
 2210 0810 1C030000 		.4byte	.LASF111
 2211 0814 0D       		.byte	0xd
 2212 0815 3B02     		.2byte	0x23b
 2213 0817 86000000 		.4byte	0x86
 2214 081b 02       		.byte	0x2
 2215 081c 23       		.byte	0x23
 2216 081d 2C       		.uleb128 0x2c
 2217 081e 00       		.byte	0x0
 2218 081f 13       		.uleb128 0x13
 2219 0820 E5010000 		.4byte	.LASF112
 2220 0824 0D       		.byte	0xd
 2221 0825 EF01     		.2byte	0x1ef
 2222 0827 2B080000 		.4byte	0x82b
 2223 082b 09       		.uleb128 0x9
 2224 082c 04       		.byte	0x4
 2225 082d 31080000 		.4byte	0x831
 2226 0831 14       		.uleb128 0x14
 2227 0832 01       		.byte	0x1
 2228 0833 3D080000 		.4byte	0x83d
 2229 0837 15       		.uleb128 0x15
 2230 0838 3D080000 		.4byte	0x83d
 2231 083c 00       		.byte	0x0
 2232 083d 09       		.uleb128 0x9
 2233 083e 04       		.byte	0x4
 2234 083f 7E070000 		.4byte	0x77e
 2235 0843 11       		.uleb128 0x11
 2236 0844 0C       		.byte	0xc
 2237 0845 0D       		.byte	0xd
 2238 0846 F401     		.2byte	0x1f4
 2239 0848 89080000 		.4byte	0x889
 2240 084c 12       		.uleb128 0x12
 2241 084d BB010000 		.4byte	.LASF113
 2242 0851 0D       		.byte	0xd
 2243 0852 F801     		.2byte	0x1f8
 2244 0854 1F080000 		.4byte	0x81f
 2245 0858 02       		.byte	0x2
 2246 0859 23       		.byte	0x23
 2247 085a 00       		.uleb128 0x0
 2248 085b 12       		.uleb128 0x12
 2249 085c D9000000 		.4byte	.LASF114
 2250 0860 0D       		.byte	0xd
 2251 0861 FD01     		.2byte	0x1fd
 2252 0863 30070000 		.4byte	0x730
 2253 0867 02       		.byte	0x2
 2254 0868 23       		.byte	0x23
 2255 0869 04       		.uleb128 0x4
 2256 086a 12       		.uleb128 0x12
 2257 086b 83000000 		.4byte	.LASF115
 2258 086f 0D       		.byte	0xd
 2259 0870 0102     		.2byte	0x201
 2260 0872 62000000 		.4byte	0x62
 2261 0876 02       		.byte	0x2
 2262 0877 23       		.byte	0x23
 2263 0878 08       		.uleb128 0x8
ARM GAS  C:\Users\DNIEL~1\AppData\Local\Temp\ccTozYXj.s 			page 41


 2264 0879 0C       		.uleb128 0xc
 2265 087a 63723100 		.ascii	"cr1\000"
 2266 087e 0D       		.byte	0xd
 2267 087f 0502     		.2byte	0x205
 2268 0881 62000000 		.4byte	0x62
 2269 0885 02       		.byte	0x2
 2270 0886 23       		.byte	0x23
 2271 0887 0A       		.uleb128 0xa
 2272 0888 00       		.byte	0x0
 2273 0889 13       		.uleb128 0x13
 2274 088a A2050000 		.4byte	.LASF116
 2275 088e 0D       		.byte	0xd
 2276 088f 0602     		.2byte	0x206
 2277 0891 43080000 		.4byte	0x843
 2278 0895 09       		.uleb128 0x9
 2279 0896 04       		.byte	0x4
 2280 0897 9B080000 		.4byte	0x89b
 2281 089b 10       		.uleb128 0x10
 2282 089c 89080000 		.4byte	0x889
 2283 08a0 09       		.uleb128 0x9
 2284 08a1 04       		.byte	0x4
 2285 08a2 91060000 		.4byte	0x691
 2286 08a6 18       		.uleb128 0x18
 2287 08a7 48050000 		.4byte	.LASF119
 2288 08ab 01       		.byte	0x1
 2289 08ac 9F       		.byte	0x9f
 2290 08ad 01       		.byte	0x1
 2291 08ae 00000000 		.4byte	.LFB57
 2292 08b2 0C000000 		.4byte	.LFE57
 2293 08b6 02       		.byte	0x2
 2294 08b7 7D       		.byte	0x7d
 2295 08b8 00       		.sleb128 0
 2296 08b9 D8080000 		.4byte	0x8d8
 2297 08bd 19       		.uleb128 0x19
 2298 08be 36050000 		.4byte	.LASF117
 2299 08c2 01       		.byte	0x1
 2300 08c3 9F       		.byte	0x9f
 2301 08c4 3D080000 		.4byte	0x83d
 2302 08c8 01       		.byte	0x1
 2303 08c9 50       		.byte	0x50
 2304 08ca 19       		.uleb128 0x19
 2305 08cb 3B050000 		.4byte	.LASF118
 2306 08cf 01       		.byte	0x1
 2307 08d0 9F       		.byte	0x9f
 2308 08d1 86000000 		.4byte	0x86
 2309 08d5 01       		.byte	0x1
 2310 08d6 51       		.byte	0x51
 2311 08d7 00       		.byte	0x0
 2312 08d8 1A       		.uleb128 0x1a
 2313 08d9 5E010000 		.4byte	.LASF120
 2314 08dd 01       		.byte	0x1
 2315 08de 85       		.byte	0x85
 2316 08df 01       		.byte	0x1
 2317 08e0 00000000 		.4byte	.LFB56
 2318 08e4 74000000 		.4byte	.LFE56
 2319 08e8 00000000 		.4byte	.LLST0
 2320 08ec 27090000 		.4byte	0x927
ARM GAS  C:\Users\DNIEL~1\AppData\Local\Temp\ccTozYXj.s 			page 42


 2321 08f0 1B       		.uleb128 0x1b
 2322 08f1 36050000 		.4byte	.LASF117
 2323 08f5 01       		.byte	0x1
 2324 08f6 85       		.byte	0x85
 2325 08f7 3D080000 		.4byte	0x83d
 2326 08fb 20000000 		.4byte	.LLST1
 2327 08ff 1B       		.uleb128 0x1b
 2328 0900 3B050000 		.4byte	.LASF118
 2329 0904 01       		.byte	0x1
 2330 0905 85       		.byte	0x85
 2331 0906 86000000 		.4byte	0x86
 2332 090a 3E000000 		.4byte	.LLST2
 2333 090e 1C       		.uleb128 0x1c
 2334 090f 56000000 		.4byte	.LBB2
 2335 0913 62000000 		.4byte	.LBE2
 2336 0917 1D       		.uleb128 0x1d
 2337 0918 747000   		.ascii	"tp\000"
 2338 091b 01       		.byte	0x1
 2339 091c 96       		.byte	0x96
 2340 091d 65020000 		.4byte	0x265
 2341 0921 5C000000 		.4byte	.LLST3
 2342 0925 00       		.byte	0x0
 2343 0926 00       		.byte	0x0
 2344 0927 1E       		.uleb128 0x1e
 2345 0928 01       		.byte	0x1
 2346 0929 BB020000 		.4byte	.LASF140
 2347 092d 01       		.byte	0x1
 2348 092e BA       		.byte	0xba
 2349 092f 01       		.byte	0x1
 2350 0930 00000000 		.4byte	.LFB58
 2351 0934 40000000 		.4byte	.LFE58
 2352 0938 70000000 		.4byte	.LLST4
 2353 093c 1F       		.uleb128 0x1f
 2354 093d 01       		.byte	0x1
 2355 093e 20050000 		.4byte	.LASF121
 2356 0942 01       		.byte	0x1
 2357 0943 3201     		.2byte	0x132
 2358 0945 01       		.byte	0x1
 2359 0946 00000000 		.4byte	.LFB59
 2360 094a 9C000000 		.4byte	.LFE59
 2361 094e 90000000 		.4byte	.LLST5
 2362 0952 7B090000 		.4byte	0x97b
 2363 0956 20       		.uleb128 0x20
 2364 0957 36050000 		.4byte	.LASF117
 2365 095b 01       		.byte	0x1
 2366 095c 3201     		.2byte	0x132
 2367 095e 3D080000 		.4byte	0x83d
 2368 0962 B0000000 		.4byte	.LLST6
 2369 0966 1C       		.uleb128 0x1c
 2370 0967 66000000 		.4byte	.LBB3
 2371 096b 9C000000 		.4byte	.LBE3
 2372 096f 21       		.uleb128 0x21
 2373 0970 6200     		.ascii	"b\000"
 2374 0972 01       		.byte	0x1
 2375 0973 3801     		.2byte	0x138
 2376 0975 A6000000 		.4byte	0xa6
 2377 0979 00       		.byte	0x0
ARM GAS  C:\Users\DNIEL~1\AppData\Local\Temp\ccTozYXj.s 			page 43


 2378 097a 00       		.byte	0x0
 2379 097b 1F       		.uleb128 0x1f
 2380 097c 01       		.byte	0x1
 2381 097d FA020000 		.4byte	.LASF122
 2382 0981 01       		.byte	0x1
 2383 0982 BA01     		.2byte	0x1ba
 2384 0984 01       		.byte	0x1
 2385 0985 00000000 		.4byte	.LFB60
 2386 0989 3C000000 		.4byte	.LFE60
 2387 098d CE000000 		.4byte	.LLST7
 2388 0991 A6090000 		.4byte	0x9a6
 2389 0995 20       		.uleb128 0x20
 2390 0996 36050000 		.4byte	.LASF117
 2391 099a 01       		.byte	0x1
 2392 099b BA01     		.2byte	0x1ba
 2393 099d 3D080000 		.4byte	0x83d
 2394 09a1 EE000000 		.4byte	.LLST8
 2395 09a5 00       		.byte	0x0
 2396 09a6 22       		.uleb128 0x22
 2397 09a7 01       		.byte	0x1
 2398 09a8 D4040000 		.4byte	.LASF123
 2399 09ac 01       		.byte	0x1
 2400 09ad E701     		.2byte	0x1e7
 2401 09af 01       		.byte	0x1
 2402 09b0 00000000 		.4byte	.LFB61
 2403 09b4 10000000 		.4byte	.LFE61
 2404 09b8 02       		.byte	0x2
 2405 09b9 7D       		.byte	0x7d
 2406 09ba 00       		.sleb128 0
 2407 09bb D0090000 		.4byte	0x9d0
 2408 09bf 20       		.uleb128 0x20
 2409 09c0 36050000 		.4byte	.LASF117
 2410 09c4 01       		.byte	0x1
 2411 09c5 E701     		.2byte	0x1e7
 2412 09c7 3D080000 		.4byte	0x83d
 2413 09cb 0C010000 		.4byte	.LLST9
 2414 09cf 00       		.byte	0x0
 2415 09d0 22       		.uleb128 0x22
 2416 09d1 01       		.byte	0x1
 2417 09d2 0D020000 		.4byte	.LASF124
 2418 09d6 01       		.byte	0x1
 2419 09d7 F401     		.2byte	0x1f4
 2420 09d9 01       		.byte	0x1
 2421 09da 00000000 		.4byte	.LFB62
 2422 09de 10000000 		.4byte	.LFE62
 2423 09e2 02       		.byte	0x2
 2424 09e3 7D       		.byte	0x7d
 2425 09e4 00       		.sleb128 0
 2426 09e5 FA090000 		.4byte	0x9fa
 2427 09e9 20       		.uleb128 0x20
 2428 09ea 36050000 		.4byte	.LASF117
 2429 09ee 01       		.byte	0x1
 2430 09ef F401     		.2byte	0x1f4
 2431 09f1 3D080000 		.4byte	0x83d
 2432 09f5 1F010000 		.4byte	.LLST10
 2433 09f9 00       		.byte	0x0
 2434 09fa 1F       		.uleb128 0x1f
ARM GAS  C:\Users\DNIEL~1\AppData\Local\Temp\ccTozYXj.s 			page 44


 2435 09fb 01       		.byte	0x1
 2436 09fc FF040000 		.4byte	.LASF125
 2437 0a00 01       		.byte	0x1
 2438 0a01 0402     		.2byte	0x204
 2439 0a03 01       		.byte	0x1
 2440 0a04 00000000 		.4byte	.LFB63
 2441 0a08 3C000000 		.4byte	.LFE63
 2442 0a0c 32010000 		.4byte	.LLST11
 2443 0a10 330A0000 		.4byte	0xa33
 2444 0a14 20       		.uleb128 0x20
 2445 0a15 36050000 		.4byte	.LASF117
 2446 0a19 01       		.byte	0x1
 2447 0a1a 0402     		.2byte	0x204
 2448 0a1c 3D080000 		.4byte	0x83d
 2449 0a20 52010000 		.4byte	.LLST12
 2450 0a24 23       		.uleb128 0x23
 2451 0a25 6E00     		.ascii	"n\000"
 2452 0a27 01       		.byte	0x1
 2453 0a28 0402     		.2byte	0x204
 2454 0a2a 30000000 		.4byte	0x30
 2455 0a2e 65010000 		.4byte	.LLST13
 2456 0a32 00       		.byte	0x0
 2457 0a33 1F       		.uleb128 0x1f
 2458 0a34 01       		.byte	0x1
 2459 0a35 8B010000 		.4byte	.LASF126
 2460 0a39 01       		.byte	0x1
 2461 0a3a 2102     		.2byte	0x221
 2462 0a3c 01       		.byte	0x1
 2463 0a3d 00000000 		.4byte	.LFB64
 2464 0a41 36000000 		.4byte	.LFE64
 2465 0a45 90010000 		.4byte	.LLST14
 2466 0a49 8C0A0000 		.4byte	0xa8c
 2467 0a4d 20       		.uleb128 0x20
 2468 0a4e 36050000 		.4byte	.LASF117
 2469 0a52 01       		.byte	0x1
 2470 0a53 2102     		.2byte	0x221
 2471 0a55 3D080000 		.4byte	0x83d
 2472 0a59 B0010000 		.4byte	.LLST15
 2473 0a5d 23       		.uleb128 0x23
 2474 0a5e 6E00     		.ascii	"n\000"
 2475 0a60 01       		.byte	0x1
 2476 0a61 2102     		.2byte	0x221
 2477 0a63 30000000 		.4byte	0x30
 2478 0a67 C3010000 		.4byte	.LLST16
 2479 0a6b 20       		.uleb128 0x20
 2480 0a6c 1E020000 		.4byte	.LASF127
 2481 0a70 01       		.byte	0x1
 2482 0a71 2202     		.2byte	0x222
 2483 0a73 8C0A0000 		.4byte	0xa8c
 2484 0a77 E2010000 		.4byte	.LLST17
 2485 0a7b 20       		.uleb128 0x20
 2486 0a7c ED000000 		.4byte	.LASF128
 2487 0a80 01       		.byte	0x1
 2488 0a81 2202     		.2byte	0x222
 2489 0a83 A3020000 		.4byte	0x2a3
 2490 0a87 04020000 		.4byte	.LLST18
 2491 0a8b 00       		.byte	0x0
ARM GAS  C:\Users\DNIEL~1\AppData\Local\Temp\ccTozYXj.s 			page 45


 2492 0a8c 09       		.uleb128 0x9
 2493 0a8d 04       		.byte	0x4
 2494 0a8e 920A0000 		.4byte	0xa92
 2495 0a92 24       		.uleb128 0x24
 2496 0a93 1F       		.uleb128 0x1f
 2497 0a94 01       		.byte	0x1
 2498 0a95 F3010000 		.4byte	.LASF129
 2499 0a99 01       		.byte	0x1
 2500 0a9a 3D02     		.2byte	0x23d
 2501 0a9c 01       		.byte	0x1
 2502 0a9d 00000000 		.4byte	.LFB65
 2503 0aa1 38000000 		.4byte	.LFE65
 2504 0aa5 23020000 		.4byte	.LLST19
 2505 0aa9 DC0A0000 		.4byte	0xadc
 2506 0aad 20       		.uleb128 0x20
 2507 0aae 36050000 		.4byte	.LASF117
 2508 0ab2 01       		.byte	0x1
 2509 0ab3 3D02     		.2byte	0x23d
 2510 0ab5 3D080000 		.4byte	0x83d
 2511 0ab9 43020000 		.4byte	.LLST20
 2512 0abd 23       		.uleb128 0x23
 2513 0abe 6E00     		.ascii	"n\000"
 2514 0ac0 01       		.byte	0x1
 2515 0ac1 3D02     		.2byte	0x23d
 2516 0ac3 30000000 		.4byte	0x30
 2517 0ac7 56020000 		.4byte	.LLST21
 2518 0acb 20       		.uleb128 0x20
 2519 0acc 1E020000 		.4byte	.LASF127
 2520 0ad0 01       		.byte	0x1
 2521 0ad1 3D02     		.2byte	0x23d
 2522 0ad3 8C0A0000 		.4byte	0xa8c
 2523 0ad7 75020000 		.4byte	.LLST22
 2524 0adb 00       		.byte	0x0
 2525 0adc 1F       		.uleb128 0x1f
 2526 0add 01       		.byte	0x1
 2527 0ade CF020000 		.4byte	.LASF130
 2528 0ae2 01       		.byte	0x1
 2529 0ae3 5802     		.2byte	0x258
 2530 0ae5 01       		.byte	0x1
 2531 0ae6 00000000 		.4byte	.LFB66
 2532 0aea 38000000 		.4byte	.LFE66
 2533 0aee 94020000 		.4byte	.LLST23
 2534 0af2 250B0000 		.4byte	0xb25
 2535 0af6 20       		.uleb128 0x20
 2536 0af7 36050000 		.4byte	.LASF117
 2537 0afb 01       		.byte	0x1
 2538 0afc 5802     		.2byte	0x258
 2539 0afe 3D080000 		.4byte	0x83d
 2540 0b02 B4020000 		.4byte	.LLST24
 2541 0b06 23       		.uleb128 0x23
 2542 0b07 6E00     		.ascii	"n\000"
 2543 0b09 01       		.byte	0x1
 2544 0b0a 5802     		.2byte	0x258
 2545 0b0c 30000000 		.4byte	0x30
 2546 0b10 C7020000 		.4byte	.LLST25
 2547 0b14 20       		.uleb128 0x20
 2548 0b15 ED000000 		.4byte	.LASF128
ARM GAS  C:\Users\DNIEL~1\AppData\Local\Temp\ccTozYXj.s 			page 46


 2549 0b19 01       		.byte	0x1
 2550 0b1a 5802     		.2byte	0x258
 2551 0b1c A3020000 		.4byte	0x2a3
 2552 0b20 E6020000 		.4byte	.LLST26
 2553 0b24 00       		.byte	0x0
 2554 0b25 25       		.uleb128 0x25
 2555 0b26 01       		.byte	0x1
 2556 0b27 19000000 		.4byte	.LASF141
 2557 0b2b 01       		.byte	0x1
 2558 0b2c 7202     		.2byte	0x272
 2559 0b2e 01       		.byte	0x1
 2560 0b2f 62000000 		.4byte	0x62
 2561 0b33 00000000 		.4byte	.LFB67
 2562 0b37 12000000 		.4byte	.LFE67
 2563 0b3b 02       		.byte	0x2
 2564 0b3c 7D       		.byte	0x7d
 2565 0b3d 00       		.sleb128 0
 2566 0b3e 610B0000 		.4byte	0xb61
 2567 0b42 20       		.uleb128 0x20
 2568 0b43 36050000 		.4byte	.LASF117
 2569 0b47 01       		.byte	0x1
 2570 0b48 7202     		.2byte	0x272
 2571 0b4a 3D080000 		.4byte	0x83d
 2572 0b4e 05030000 		.4byte	.LLST27
 2573 0b52 26       		.uleb128 0x26
 2574 0b53 A6000000 		.4byte	.LASF131
 2575 0b57 01       		.byte	0x1
 2576 0b58 7202     		.2byte	0x272
 2577 0b5a 62000000 		.4byte	0x62
 2578 0b5e 01       		.byte	0x1
 2579 0b5f 51       		.byte	0x51
 2580 0b60 00       		.byte	0x0
 2581 0b61 27       		.uleb128 0x27
 2582 0b62 E0000000 		.4byte	.LASF132
 2583 0b66 0E       		.byte	0xe
 2584 0b67 0706     		.2byte	0x607
 2585 0b69 FA030000 		.4byte	0x3fa
 2586 0b6d 01       		.byte	0x1
 2587 0b6e 01       		.byte	0x1
 2588 0b6f 28       		.uleb128 0x28
 2589 0b70 F8060000 		.4byte	0x6f8
 2590 0b74 7F0B0000 		.4byte	0xb7f
 2591 0b78 29       		.uleb128 0x29
 2592 0b79 3B000000 		.4byte	0x3b
 2593 0b7d 06       		.byte	0x6
 2594 0b7e 00       		.byte	0x0
 2595 0b7f 27       		.uleb128 0x27
 2596 0b80 BC000000 		.4byte	.LASF133
 2597 0b84 0A       		.byte	0xa
 2598 0b85 8401     		.2byte	0x184
 2599 0b87 8D0B0000 		.4byte	0xb8d
 2600 0b8b 01       		.byte	0x1
 2601 0b8c 01       		.byte	0x1
 2602 0b8d 10       		.uleb128 0x10
 2603 0b8e 6F0B0000 		.4byte	0xb6f
 2604 0b92 27       		.uleb128 0x27
 2605 0b93 DE030000 		.4byte	.LASF134
ARM GAS  C:\Users\DNIEL~1\AppData\Local\Temp\ccTozYXj.s 			page 47


 2606 0b97 0D       		.byte	0xd
 2607 0b98 4702     		.2byte	0x247
 2608 0b9a 7E070000 		.4byte	0x77e
 2609 0b9e 01       		.byte	0x1
 2610 0b9f 01       		.byte	0x1
 2611 0ba0 2A       		.uleb128 0x2a
 2612 0ba1 E4030000 		.4byte	.LASF135
 2613 0ba5 01       		.byte	0x1
 2614 0ba6 78       		.byte	0x78
 2615 0ba7 62000000 		.4byte	0x62
 2616 0bab 05       		.byte	0x5
 2617 0bac 03       		.byte	0x3
 2618 0bad 00000000 		.4byte	dummytx
 2619 0bb1 2A       		.uleb128 0x2a
 2620 0bb2 8E020000 		.4byte	.LASF136
 2621 0bb6 01       		.byte	0x1
 2622 0bb7 79       		.byte	0x79
 2623 0bb8 62000000 		.4byte	0x62
 2624 0bbc 05       		.byte	0x5
 2625 0bbd 03       		.byte	0x3
 2626 0bbe 00000000 		.4byte	dummyrx
 2627 0bc2 27       		.uleb128 0x27
 2628 0bc3 E0000000 		.4byte	.LASF132
 2629 0bc7 0E       		.byte	0xe
 2630 0bc8 0706     		.2byte	0x607
 2631 0bca FA030000 		.4byte	0x3fa
 2632 0bce 01       		.byte	0x1
 2633 0bcf 01       		.byte	0x1
 2634 0bd0 27       		.uleb128 0x27
 2635 0bd1 BC000000 		.4byte	.LASF133
 2636 0bd5 0A       		.byte	0xa
 2637 0bd6 8401     		.2byte	0x184
 2638 0bd8 DE0B0000 		.4byte	0xbde
 2639 0bdc 01       		.byte	0x1
 2640 0bdd 01       		.byte	0x1
 2641 0bde 10       		.uleb128 0x10
 2642 0bdf 6F0B0000 		.4byte	0xb6f
 2643 0be3 2B       		.uleb128 0x2b
 2644 0be4 DE030000 		.4byte	.LASF134
 2645 0be8 01       		.byte	0x1
 2646 0be9 58       		.byte	0x58
 2647 0bea 7E070000 		.4byte	0x77e
 2648 0bee 01       		.byte	0x1
 2649 0bef 05       		.byte	0x5
 2650 0bf0 03       		.byte	0x3
 2651 0bf1 00000000 		.4byte	SPID1
 2652 0bf5 00       		.byte	0x0
 2653              		.section	.debug_abbrev
 2654 0000 01       		.uleb128 0x1
 2655 0001 11       		.uleb128 0x11
 2656 0002 01       		.byte	0x1
 2657 0003 25       		.uleb128 0x25
 2658 0004 0E       		.uleb128 0xe
 2659 0005 13       		.uleb128 0x13
 2660 0006 0B       		.uleb128 0xb
 2661 0007 03       		.uleb128 0x3
 2662 0008 0E       		.uleb128 0xe
ARM GAS  C:\Users\DNIEL~1\AppData\Local\Temp\ccTozYXj.s 			page 48


 2663 0009 1B       		.uleb128 0x1b
 2664 000a 0E       		.uleb128 0xe
 2665 000b 11       		.uleb128 0x11
 2666 000c 01       		.uleb128 0x1
 2667 000d 52       		.uleb128 0x52
 2668 000e 01       		.uleb128 0x1
 2669 000f 55       		.uleb128 0x55
 2670 0010 06       		.uleb128 0x6
 2671 0011 10       		.uleb128 0x10
 2672 0012 06       		.uleb128 0x6
 2673 0013 00       		.byte	0x0
 2674 0014 00       		.byte	0x0
 2675 0015 02       		.uleb128 0x2
 2676 0016 24       		.uleb128 0x24
 2677 0017 00       		.byte	0x0
 2678 0018 0B       		.uleb128 0xb
 2679 0019 0B       		.uleb128 0xb
 2680 001a 3E       		.uleb128 0x3e
 2681 001b 0B       		.uleb128 0xb
 2682 001c 03       		.uleb128 0x3
 2683 001d 08       		.uleb128 0x8
 2684 001e 00       		.byte	0x0
 2685 001f 00       		.byte	0x0
 2686 0020 03       		.uleb128 0x3
 2687 0021 16       		.uleb128 0x16
 2688 0022 00       		.byte	0x0
 2689 0023 03       		.uleb128 0x3
 2690 0024 0E       		.uleb128 0xe
 2691 0025 3A       		.uleb128 0x3a
 2692 0026 0B       		.uleb128 0xb
 2693 0027 3B       		.uleb128 0x3b
 2694 0028 0B       		.uleb128 0xb
 2695 0029 49       		.uleb128 0x49
 2696 002a 13       		.uleb128 0x13
 2697 002b 00       		.byte	0x0
 2698 002c 00       		.byte	0x0
 2699 002d 04       		.uleb128 0x4
 2700 002e 24       		.uleb128 0x24
 2701 002f 00       		.byte	0x0
 2702 0030 0B       		.uleb128 0xb
 2703 0031 0B       		.uleb128 0xb
 2704 0032 3E       		.uleb128 0x3e
 2705 0033 0B       		.uleb128 0xb
 2706 0034 03       		.uleb128 0x3
 2707 0035 0E       		.uleb128 0xe
 2708 0036 00       		.byte	0x0
 2709 0037 00       		.byte	0x0
 2710 0038 05       		.uleb128 0x5
 2711 0039 13       		.uleb128 0x13
 2712 003a 01       		.byte	0x1
 2713 003b 03       		.uleb128 0x3
 2714 003c 0E       		.uleb128 0xe
 2715 003d 0B       		.uleb128 0xb
 2716 003e 0B       		.uleb128 0xb
 2717 003f 3A       		.uleb128 0x3a
 2718 0040 0B       		.uleb128 0xb
 2719 0041 3B       		.uleb128 0x3b
ARM GAS  C:\Users\DNIEL~1\AppData\Local\Temp\ccTozYXj.s 			page 49


 2720 0042 0B       		.uleb128 0xb
 2721 0043 01       		.uleb128 0x1
 2722 0044 13       		.uleb128 0x13
 2723 0045 00       		.byte	0x0
 2724 0046 00       		.byte	0x0
 2725 0047 06       		.uleb128 0x6
 2726 0048 0D       		.uleb128 0xd
 2727 0049 00       		.byte	0x0
 2728 004a 03       		.uleb128 0x3
 2729 004b 0E       		.uleb128 0xe
 2730 004c 3A       		.uleb128 0x3a
 2731 004d 0B       		.uleb128 0xb
 2732 004e 3B       		.uleb128 0x3b
 2733 004f 0B       		.uleb128 0xb
 2734 0050 49       		.uleb128 0x49
 2735 0051 13       		.uleb128 0x13
 2736 0052 38       		.uleb128 0x38
 2737 0053 0A       		.uleb128 0xa
 2738 0054 00       		.byte	0x0
 2739 0055 00       		.byte	0x0
 2740 0056 07       		.uleb128 0x7
 2741 0057 0D       		.uleb128 0xd
 2742 0058 00       		.byte	0x0
 2743 0059 03       		.uleb128 0x3
 2744 005a 08       		.uleb128 0x8
 2745 005b 3A       		.uleb128 0x3a
 2746 005c 0B       		.uleb128 0xb
 2747 005d 3B       		.uleb128 0x3b
 2748 005e 0B       		.uleb128 0xb
 2749 005f 49       		.uleb128 0x49
 2750 0060 13       		.uleb128 0x13
 2751 0061 38       		.uleb128 0x38
 2752 0062 0A       		.uleb128 0xa
 2753 0063 00       		.byte	0x0
 2754 0064 00       		.byte	0x0
 2755 0065 08       		.uleb128 0x8
 2756 0066 13       		.uleb128 0x13
 2757 0067 01       		.byte	0x1
 2758 0068 0B       		.uleb128 0xb
 2759 0069 0B       		.uleb128 0xb
 2760 006a 3A       		.uleb128 0x3a
 2761 006b 0B       		.uleb128 0xb
 2762 006c 3B       		.uleb128 0x3b
 2763 006d 0B       		.uleb128 0xb
 2764 006e 01       		.uleb128 0x1
 2765 006f 13       		.uleb128 0x13
 2766 0070 00       		.byte	0x0
 2767 0071 00       		.byte	0x0
 2768 0072 09       		.uleb128 0x9
 2769 0073 0F       		.uleb128 0xf
 2770 0074 00       		.byte	0x0
 2771 0075 0B       		.uleb128 0xb
 2772 0076 0B       		.uleb128 0xb
 2773 0077 49       		.uleb128 0x49
 2774 0078 13       		.uleb128 0x13
 2775 0079 00       		.byte	0x0
 2776 007a 00       		.byte	0x0
ARM GAS  C:\Users\DNIEL~1\AppData\Local\Temp\ccTozYXj.s 			page 50


 2777 007b 0A       		.uleb128 0xa
 2778 007c 0F       		.uleb128 0xf
 2779 007d 00       		.byte	0x0
 2780 007e 0B       		.uleb128 0xb
 2781 007f 0B       		.uleb128 0xb
 2782 0080 00       		.byte	0x0
 2783 0081 00       		.byte	0x0
 2784 0082 0B       		.uleb128 0xb
 2785 0083 13       		.uleb128 0x13
 2786 0084 01       		.byte	0x1
 2787 0085 03       		.uleb128 0x3
 2788 0086 0E       		.uleb128 0xe
 2789 0087 0B       		.uleb128 0xb
 2790 0088 0B       		.uleb128 0xb
 2791 0089 3A       		.uleb128 0x3a
 2792 008a 0B       		.uleb128 0xb
 2793 008b 3B       		.uleb128 0x3b
 2794 008c 05       		.uleb128 0x5
 2795 008d 01       		.uleb128 0x1
 2796 008e 13       		.uleb128 0x13
 2797 008f 00       		.byte	0x0
 2798 0090 00       		.byte	0x0
 2799 0091 0C       		.uleb128 0xc
 2800 0092 0D       		.uleb128 0xd
 2801 0093 00       		.byte	0x0
 2802 0094 03       		.uleb128 0x3
 2803 0095 08       		.uleb128 0x8
 2804 0096 3A       		.uleb128 0x3a
 2805 0097 0B       		.uleb128 0xb
 2806 0098 3B       		.uleb128 0x3b
 2807 0099 05       		.uleb128 0x5
 2808 009a 49       		.uleb128 0x49
 2809 009b 13       		.uleb128 0x13
 2810 009c 38       		.uleb128 0x38
 2811 009d 0A       		.uleb128 0xa
 2812 009e 00       		.byte	0x0
 2813 009f 00       		.byte	0x0
 2814 00a0 0D       		.uleb128 0xd
 2815 00a1 35       		.uleb128 0x35
 2816 00a2 00       		.byte	0x0
 2817 00a3 49       		.uleb128 0x49
 2818 00a4 13       		.uleb128 0x13
 2819 00a5 00       		.byte	0x0
 2820 00a6 00       		.byte	0x0
 2821 00a7 0E       		.uleb128 0xe
 2822 00a8 17       		.uleb128 0x17
 2823 00a9 01       		.byte	0x1
 2824 00aa 0B       		.uleb128 0xb
 2825 00ab 0B       		.uleb128 0xb
 2826 00ac 3A       		.uleb128 0x3a
 2827 00ad 0B       		.uleb128 0xb
 2828 00ae 3B       		.uleb128 0x3b
 2829 00af 0B       		.uleb128 0xb
 2830 00b0 01       		.uleb128 0x1
 2831 00b1 13       		.uleb128 0x13
 2832 00b2 00       		.byte	0x0
 2833 00b3 00       		.byte	0x0
ARM GAS  C:\Users\DNIEL~1\AppData\Local\Temp\ccTozYXj.s 			page 51


 2834 00b4 0F       		.uleb128 0xf
 2835 00b5 0D       		.uleb128 0xd
 2836 00b6 00       		.byte	0x0
 2837 00b7 03       		.uleb128 0x3
 2838 00b8 0E       		.uleb128 0xe
 2839 00b9 3A       		.uleb128 0x3a
 2840 00ba 0B       		.uleb128 0xb
 2841 00bb 3B       		.uleb128 0x3b
 2842 00bc 0B       		.uleb128 0xb
 2843 00bd 49       		.uleb128 0x49
 2844 00be 13       		.uleb128 0x13
 2845 00bf 00       		.byte	0x0
 2846 00c0 00       		.byte	0x0
 2847 00c1 10       		.uleb128 0x10
 2848 00c2 26       		.uleb128 0x26
 2849 00c3 00       		.byte	0x0
 2850 00c4 49       		.uleb128 0x49
 2851 00c5 13       		.uleb128 0x13
 2852 00c6 00       		.byte	0x0
 2853 00c7 00       		.byte	0x0
 2854 00c8 11       		.uleb128 0x11
 2855 00c9 13       		.uleb128 0x13
 2856 00ca 01       		.byte	0x1
 2857 00cb 0B       		.uleb128 0xb
 2858 00cc 0B       		.uleb128 0xb
 2859 00cd 3A       		.uleb128 0x3a
 2860 00ce 0B       		.uleb128 0xb
 2861 00cf 3B       		.uleb128 0x3b
 2862 00d0 05       		.uleb128 0x5
 2863 00d1 01       		.uleb128 0x1
 2864 00d2 13       		.uleb128 0x13
 2865 00d3 00       		.byte	0x0
 2866 00d4 00       		.byte	0x0
 2867 00d5 12       		.uleb128 0x12
 2868 00d6 0D       		.uleb128 0xd
 2869 00d7 00       		.byte	0x0
 2870 00d8 03       		.uleb128 0x3
 2871 00d9 0E       		.uleb128 0xe
 2872 00da 3A       		.uleb128 0x3a
 2873 00db 0B       		.uleb128 0xb
 2874 00dc 3B       		.uleb128 0x3b
 2875 00dd 05       		.uleb128 0x5
 2876 00de 49       		.uleb128 0x49
 2877 00df 13       		.uleb128 0x13
 2878 00e0 38       		.uleb128 0x38
 2879 00e1 0A       		.uleb128 0xa
 2880 00e2 00       		.byte	0x0
 2881 00e3 00       		.byte	0x0
 2882 00e4 13       		.uleb128 0x13
 2883 00e5 16       		.uleb128 0x16
 2884 00e6 00       		.byte	0x0
 2885 00e7 03       		.uleb128 0x3
 2886 00e8 0E       		.uleb128 0xe
 2887 00e9 3A       		.uleb128 0x3a
 2888 00ea 0B       		.uleb128 0xb
 2889 00eb 3B       		.uleb128 0x3b
 2890 00ec 05       		.uleb128 0x5
ARM GAS  C:\Users\DNIEL~1\AppData\Local\Temp\ccTozYXj.s 			page 52


 2891 00ed 49       		.uleb128 0x49
 2892 00ee 13       		.uleb128 0x13
 2893 00ef 00       		.byte	0x0
 2894 00f0 00       		.byte	0x0
 2895 00f1 14       		.uleb128 0x14
 2896 00f2 15       		.uleb128 0x15
 2897 00f3 01       		.byte	0x1
 2898 00f4 27       		.uleb128 0x27
 2899 00f5 0C       		.uleb128 0xc
 2900 00f6 01       		.uleb128 0x1
 2901 00f7 13       		.uleb128 0x13
 2902 00f8 00       		.byte	0x0
 2903 00f9 00       		.byte	0x0
 2904 00fa 15       		.uleb128 0x15
 2905 00fb 05       		.uleb128 0x5
 2906 00fc 00       		.byte	0x0
 2907 00fd 49       		.uleb128 0x49
 2908 00fe 13       		.uleb128 0x13
 2909 00ff 00       		.byte	0x0
 2910 0100 00       		.byte	0x0
 2911 0101 16       		.uleb128 0x16
 2912 0102 04       		.uleb128 0x4
 2913 0103 01       		.byte	0x1
 2914 0104 0B       		.uleb128 0xb
 2915 0105 0B       		.uleb128 0xb
 2916 0106 3A       		.uleb128 0x3a
 2917 0107 0B       		.uleb128 0xb
 2918 0108 3B       		.uleb128 0x3b
 2919 0109 0B       		.uleb128 0xb
 2920 010a 01       		.uleb128 0x1
 2921 010b 13       		.uleb128 0x13
 2922 010c 00       		.byte	0x0
 2923 010d 00       		.byte	0x0
 2924 010e 17       		.uleb128 0x17
 2925 010f 28       		.uleb128 0x28
 2926 0110 00       		.byte	0x0
 2927 0111 03       		.uleb128 0x3
 2928 0112 0E       		.uleb128 0xe
 2929 0113 1C       		.uleb128 0x1c
 2930 0114 0D       		.uleb128 0xd
 2931 0115 00       		.byte	0x0
 2932 0116 00       		.byte	0x0
 2933 0117 18       		.uleb128 0x18
 2934 0118 2E       		.uleb128 0x2e
 2935 0119 01       		.byte	0x1
 2936 011a 03       		.uleb128 0x3
 2937 011b 0E       		.uleb128 0xe
 2938 011c 3A       		.uleb128 0x3a
 2939 011d 0B       		.uleb128 0xb
 2940 011e 3B       		.uleb128 0x3b
 2941 011f 0B       		.uleb128 0xb
 2942 0120 27       		.uleb128 0x27
 2943 0121 0C       		.uleb128 0xc
 2944 0122 11       		.uleb128 0x11
 2945 0123 01       		.uleb128 0x1
 2946 0124 12       		.uleb128 0x12
 2947 0125 01       		.uleb128 0x1
ARM GAS  C:\Users\DNIEL~1\AppData\Local\Temp\ccTozYXj.s 			page 53


 2948 0126 40       		.uleb128 0x40
 2949 0127 0A       		.uleb128 0xa
 2950 0128 01       		.uleb128 0x1
 2951 0129 13       		.uleb128 0x13
 2952 012a 00       		.byte	0x0
 2953 012b 00       		.byte	0x0
 2954 012c 19       		.uleb128 0x19
 2955 012d 05       		.uleb128 0x5
 2956 012e 00       		.byte	0x0
 2957 012f 03       		.uleb128 0x3
 2958 0130 0E       		.uleb128 0xe
 2959 0131 3A       		.uleb128 0x3a
 2960 0132 0B       		.uleb128 0xb
 2961 0133 3B       		.uleb128 0x3b
 2962 0134 0B       		.uleb128 0xb
 2963 0135 49       		.uleb128 0x49
 2964 0136 13       		.uleb128 0x13
 2965 0137 02       		.uleb128 0x2
 2966 0138 0A       		.uleb128 0xa
 2967 0139 00       		.byte	0x0
 2968 013a 00       		.byte	0x0
 2969 013b 1A       		.uleb128 0x1a
 2970 013c 2E       		.uleb128 0x2e
 2971 013d 01       		.byte	0x1
 2972 013e 03       		.uleb128 0x3
 2973 013f 0E       		.uleb128 0xe
 2974 0140 3A       		.uleb128 0x3a
 2975 0141 0B       		.uleb128 0xb
 2976 0142 3B       		.uleb128 0x3b
 2977 0143 0B       		.uleb128 0xb
 2978 0144 27       		.uleb128 0x27
 2979 0145 0C       		.uleb128 0xc
 2980 0146 11       		.uleb128 0x11
 2981 0147 01       		.uleb128 0x1
 2982 0148 12       		.uleb128 0x12
 2983 0149 01       		.uleb128 0x1
 2984 014a 40       		.uleb128 0x40
 2985 014b 06       		.uleb128 0x6
 2986 014c 01       		.uleb128 0x1
 2987 014d 13       		.uleb128 0x13
 2988 014e 00       		.byte	0x0
 2989 014f 00       		.byte	0x0
 2990 0150 1B       		.uleb128 0x1b
 2991 0151 05       		.uleb128 0x5
 2992 0152 00       		.byte	0x0
 2993 0153 03       		.uleb128 0x3
 2994 0154 0E       		.uleb128 0xe
 2995 0155 3A       		.uleb128 0x3a
 2996 0156 0B       		.uleb128 0xb
 2997 0157 3B       		.uleb128 0x3b
 2998 0158 0B       		.uleb128 0xb
 2999 0159 49       		.uleb128 0x49
 3000 015a 13       		.uleb128 0x13
 3001 015b 02       		.uleb128 0x2
 3002 015c 06       		.uleb128 0x6
 3003 015d 00       		.byte	0x0
 3004 015e 00       		.byte	0x0
ARM GAS  C:\Users\DNIEL~1\AppData\Local\Temp\ccTozYXj.s 			page 54


 3005 015f 1C       		.uleb128 0x1c
 3006 0160 0B       		.uleb128 0xb
 3007 0161 01       		.byte	0x1
 3008 0162 11       		.uleb128 0x11
 3009 0163 01       		.uleb128 0x1
 3010 0164 12       		.uleb128 0x12
 3011 0165 01       		.uleb128 0x1
 3012 0166 00       		.byte	0x0
 3013 0167 00       		.byte	0x0
 3014 0168 1D       		.uleb128 0x1d
 3015 0169 34       		.uleb128 0x34
 3016 016a 00       		.byte	0x0
 3017 016b 03       		.uleb128 0x3
 3018 016c 08       		.uleb128 0x8
 3019 016d 3A       		.uleb128 0x3a
 3020 016e 0B       		.uleb128 0xb
 3021 016f 3B       		.uleb128 0x3b
 3022 0170 0B       		.uleb128 0xb
 3023 0171 49       		.uleb128 0x49
 3024 0172 13       		.uleb128 0x13
 3025 0173 02       		.uleb128 0x2
 3026 0174 06       		.uleb128 0x6
 3027 0175 00       		.byte	0x0
 3028 0176 00       		.byte	0x0
 3029 0177 1E       		.uleb128 0x1e
 3030 0178 2E       		.uleb128 0x2e
 3031 0179 00       		.byte	0x0
 3032 017a 3F       		.uleb128 0x3f
 3033 017b 0C       		.uleb128 0xc
 3034 017c 03       		.uleb128 0x3
 3035 017d 0E       		.uleb128 0xe
 3036 017e 3A       		.uleb128 0x3a
 3037 017f 0B       		.uleb128 0xb
 3038 0180 3B       		.uleb128 0x3b
 3039 0181 0B       		.uleb128 0xb
 3040 0182 27       		.uleb128 0x27
 3041 0183 0C       		.uleb128 0xc
 3042 0184 11       		.uleb128 0x11
 3043 0185 01       		.uleb128 0x1
 3044 0186 12       		.uleb128 0x12
 3045 0187 01       		.uleb128 0x1
 3046 0188 40       		.uleb128 0x40
 3047 0189 06       		.uleb128 0x6
 3048 018a 00       		.byte	0x0
 3049 018b 00       		.byte	0x0
 3050 018c 1F       		.uleb128 0x1f
 3051 018d 2E       		.uleb128 0x2e
 3052 018e 01       		.byte	0x1
 3053 018f 3F       		.uleb128 0x3f
 3054 0190 0C       		.uleb128 0xc
 3055 0191 03       		.uleb128 0x3
 3056 0192 0E       		.uleb128 0xe
 3057 0193 3A       		.uleb128 0x3a
 3058 0194 0B       		.uleb128 0xb
 3059 0195 3B       		.uleb128 0x3b
 3060 0196 05       		.uleb128 0x5
 3061 0197 27       		.uleb128 0x27
ARM GAS  C:\Users\DNIEL~1\AppData\Local\Temp\ccTozYXj.s 			page 55


 3062 0198 0C       		.uleb128 0xc
 3063 0199 11       		.uleb128 0x11
 3064 019a 01       		.uleb128 0x1
 3065 019b 12       		.uleb128 0x12
 3066 019c 01       		.uleb128 0x1
 3067 019d 40       		.uleb128 0x40
 3068 019e 06       		.uleb128 0x6
 3069 019f 01       		.uleb128 0x1
 3070 01a0 13       		.uleb128 0x13
 3071 01a1 00       		.byte	0x0
 3072 01a2 00       		.byte	0x0
 3073 01a3 20       		.uleb128 0x20
 3074 01a4 05       		.uleb128 0x5
 3075 01a5 00       		.byte	0x0
 3076 01a6 03       		.uleb128 0x3
 3077 01a7 0E       		.uleb128 0xe
 3078 01a8 3A       		.uleb128 0x3a
 3079 01a9 0B       		.uleb128 0xb
 3080 01aa 3B       		.uleb128 0x3b
 3081 01ab 05       		.uleb128 0x5
 3082 01ac 49       		.uleb128 0x49
 3083 01ad 13       		.uleb128 0x13
 3084 01ae 02       		.uleb128 0x2
 3085 01af 06       		.uleb128 0x6
 3086 01b0 00       		.byte	0x0
 3087 01b1 00       		.byte	0x0
 3088 01b2 21       		.uleb128 0x21
 3089 01b3 34       		.uleb128 0x34
 3090 01b4 00       		.byte	0x0
 3091 01b5 03       		.uleb128 0x3
 3092 01b6 08       		.uleb128 0x8
 3093 01b7 3A       		.uleb128 0x3a
 3094 01b8 0B       		.uleb128 0xb
 3095 01b9 3B       		.uleb128 0x3b
 3096 01ba 05       		.uleb128 0x5
 3097 01bb 49       		.uleb128 0x49
 3098 01bc 13       		.uleb128 0x13
 3099 01bd 00       		.byte	0x0
 3100 01be 00       		.byte	0x0
 3101 01bf 22       		.uleb128 0x22
 3102 01c0 2E       		.uleb128 0x2e
 3103 01c1 01       		.byte	0x1
 3104 01c2 3F       		.uleb128 0x3f
 3105 01c3 0C       		.uleb128 0xc
 3106 01c4 03       		.uleb128 0x3
 3107 01c5 0E       		.uleb128 0xe
 3108 01c6 3A       		.uleb128 0x3a
 3109 01c7 0B       		.uleb128 0xb
 3110 01c8 3B       		.uleb128 0x3b
 3111 01c9 05       		.uleb128 0x5
 3112 01ca 27       		.uleb128 0x27
 3113 01cb 0C       		.uleb128 0xc
 3114 01cc 11       		.uleb128 0x11
 3115 01cd 01       		.uleb128 0x1
 3116 01ce 12       		.uleb128 0x12
 3117 01cf 01       		.uleb128 0x1
 3118 01d0 40       		.uleb128 0x40
ARM GAS  C:\Users\DNIEL~1\AppData\Local\Temp\ccTozYXj.s 			page 56


 3119 01d1 0A       		.uleb128 0xa
 3120 01d2 01       		.uleb128 0x1
 3121 01d3 13       		.uleb128 0x13
 3122 01d4 00       		.byte	0x0
 3123 01d5 00       		.byte	0x0
 3124 01d6 23       		.uleb128 0x23
 3125 01d7 05       		.uleb128 0x5
 3126 01d8 00       		.byte	0x0
 3127 01d9 03       		.uleb128 0x3
 3128 01da 08       		.uleb128 0x8
 3129 01db 3A       		.uleb128 0x3a
 3130 01dc 0B       		.uleb128 0xb
 3131 01dd 3B       		.uleb128 0x3b
 3132 01de 05       		.uleb128 0x5
 3133 01df 49       		.uleb128 0x49
 3134 01e0 13       		.uleb128 0x13
 3135 01e1 02       		.uleb128 0x2
 3136 01e2 06       		.uleb128 0x6
 3137 01e3 00       		.byte	0x0
 3138 01e4 00       		.byte	0x0
 3139 01e5 24       		.uleb128 0x24
 3140 01e6 26       		.uleb128 0x26
 3141 01e7 00       		.byte	0x0
 3142 01e8 00       		.byte	0x0
 3143 01e9 00       		.byte	0x0
 3144 01ea 25       		.uleb128 0x25
 3145 01eb 2E       		.uleb128 0x2e
 3146 01ec 01       		.byte	0x1
 3147 01ed 3F       		.uleb128 0x3f
 3148 01ee 0C       		.uleb128 0xc
 3149 01ef 03       		.uleb128 0x3
 3150 01f0 0E       		.uleb128 0xe
 3151 01f1 3A       		.uleb128 0x3a
 3152 01f2 0B       		.uleb128 0xb
 3153 01f3 3B       		.uleb128 0x3b
 3154 01f4 05       		.uleb128 0x5
 3155 01f5 27       		.uleb128 0x27
 3156 01f6 0C       		.uleb128 0xc
 3157 01f7 49       		.uleb128 0x49
 3158 01f8 13       		.uleb128 0x13
 3159 01f9 11       		.uleb128 0x11
 3160 01fa 01       		.uleb128 0x1
 3161 01fb 12       		.uleb128 0x12
 3162 01fc 01       		.uleb128 0x1
 3163 01fd 40       		.uleb128 0x40
 3164 01fe 0A       		.uleb128 0xa
 3165 01ff 01       		.uleb128 0x1
 3166 0200 13       		.uleb128 0x13
 3167 0201 00       		.byte	0x0
 3168 0202 00       		.byte	0x0
 3169 0203 26       		.uleb128 0x26
 3170 0204 05       		.uleb128 0x5
 3171 0205 00       		.byte	0x0
 3172 0206 03       		.uleb128 0x3
 3173 0207 0E       		.uleb128 0xe
 3174 0208 3A       		.uleb128 0x3a
 3175 0209 0B       		.uleb128 0xb
ARM GAS  C:\Users\DNIEL~1\AppData\Local\Temp\ccTozYXj.s 			page 57


 3176 020a 3B       		.uleb128 0x3b
 3177 020b 05       		.uleb128 0x5
 3178 020c 49       		.uleb128 0x49
 3179 020d 13       		.uleb128 0x13
 3180 020e 02       		.uleb128 0x2
 3181 020f 0A       		.uleb128 0xa
 3182 0210 00       		.byte	0x0
 3183 0211 00       		.byte	0x0
 3184 0212 27       		.uleb128 0x27
 3185 0213 34       		.uleb128 0x34
 3186 0214 00       		.byte	0x0
 3187 0215 03       		.uleb128 0x3
 3188 0216 0E       		.uleb128 0xe
 3189 0217 3A       		.uleb128 0x3a
 3190 0218 0B       		.uleb128 0xb
 3191 0219 3B       		.uleb128 0x3b
 3192 021a 05       		.uleb128 0x5
 3193 021b 49       		.uleb128 0x49
 3194 021c 13       		.uleb128 0x13
 3195 021d 3F       		.uleb128 0x3f
 3196 021e 0C       		.uleb128 0xc
 3197 021f 3C       		.uleb128 0x3c
 3198 0220 0C       		.uleb128 0xc
 3199 0221 00       		.byte	0x0
 3200 0222 00       		.byte	0x0
 3201 0223 28       		.uleb128 0x28
 3202 0224 01       		.uleb128 0x1
 3203 0225 01       		.byte	0x1
 3204 0226 49       		.uleb128 0x49
 3205 0227 13       		.uleb128 0x13
 3206 0228 01       		.uleb128 0x1
 3207 0229 13       		.uleb128 0x13
 3208 022a 00       		.byte	0x0
 3209 022b 00       		.byte	0x0
 3210 022c 29       		.uleb128 0x29
 3211 022d 21       		.uleb128 0x21
 3212 022e 00       		.byte	0x0
 3213 022f 49       		.uleb128 0x49
 3214 0230 13       		.uleb128 0x13
 3215 0231 2F       		.uleb128 0x2f
 3216 0232 0B       		.uleb128 0xb
 3217 0233 00       		.byte	0x0
 3218 0234 00       		.byte	0x0
 3219 0235 2A       		.uleb128 0x2a
 3220 0236 34       		.uleb128 0x34
 3221 0237 00       		.byte	0x0
 3222 0238 03       		.uleb128 0x3
 3223 0239 0E       		.uleb128 0xe
 3224 023a 3A       		.uleb128 0x3a
 3225 023b 0B       		.uleb128 0xb
 3226 023c 3B       		.uleb128 0x3b
 3227 023d 0B       		.uleb128 0xb
 3228 023e 49       		.uleb128 0x49
 3229 023f 13       		.uleb128 0x13
 3230 0240 02       		.uleb128 0x2
 3231 0241 0A       		.uleb128 0xa
 3232 0242 00       		.byte	0x0
ARM GAS  C:\Users\DNIEL~1\AppData\Local\Temp\ccTozYXj.s 			page 58


 3233 0243 00       		.byte	0x0
 3234 0244 2B       		.uleb128 0x2b
 3235 0245 34       		.uleb128 0x34
 3236 0246 00       		.byte	0x0
 3237 0247 03       		.uleb128 0x3
 3238 0248 0E       		.uleb128 0xe
 3239 0249 3A       		.uleb128 0x3a
 3240 024a 0B       		.uleb128 0xb
 3241 024b 3B       		.uleb128 0x3b
 3242 024c 0B       		.uleb128 0xb
 3243 024d 49       		.uleb128 0x49
 3244 024e 13       		.uleb128 0x13
 3245 024f 3F       		.uleb128 0x3f
 3246 0250 0C       		.uleb128 0xc
 3247 0251 02       		.uleb128 0x2
 3248 0252 0A       		.uleb128 0xa
 3249 0253 00       		.byte	0x0
 3250 0254 00       		.byte	0x0
 3251 0255 00       		.byte	0x0
 3252              		.section	.debug_pubnames,"",%progbits
 3253 0000 DD000000 		.4byte	0xdd
 3254 0004 0200     		.2byte	0x2
 3255 0006 00000000 		.4byte	.Ldebug_info0
 3256 000a F60B0000 		.4byte	0xbf6
 3257 000e 27090000 		.4byte	0x927
 3258 0012 7370695F 		.ascii	"spi_lld_init\000"
 3258      6C6C645F 
 3258      696E6974 
 3258      00
 3259 001f 3C090000 		.4byte	0x93c
 3260 0023 7370695F 		.ascii	"spi_lld_start\000"
 3260      6C6C645F 
 3260      73746172 
 3260      7400
 3261 0031 7B090000 		.4byte	0x97b
 3262 0035 7370695F 		.ascii	"spi_lld_stop\000"
 3262      6C6C645F 
 3262      73746F70 
 3262      00
 3263 0042 A6090000 		.4byte	0x9a6
 3264 0046 7370695F 		.ascii	"spi_lld_select\000"
 3264      6C6C645F 
 3264      73656C65 
 3264      637400
 3265 0055 D0090000 		.4byte	0x9d0
 3266 0059 7370695F 		.ascii	"spi_lld_unselect\000"
 3266      6C6C645F 
 3266      756E7365 
 3266      6C656374 
 3266      00
 3267 006a FA090000 		.4byte	0x9fa
 3268 006e 7370695F 		.ascii	"spi_lld_ignore\000"
 3268      6C6C645F 
 3268      69676E6F 
 3268      726500
 3269 007d 330A0000 		.4byte	0xa33
 3270 0081 7370695F 		.ascii	"spi_lld_exchange\000"
ARM GAS  C:\Users\DNIEL~1\AppData\Local\Temp\ccTozYXj.s 			page 59


 3270      6C6C645F 
 3270      65786368 
 3270      616E6765 
 3270      00
 3271 0092 930A0000 		.4byte	0xa93
 3272 0096 7370695F 		.ascii	"spi_lld_send\000"
 3272      6C6C645F 
 3272      73656E64 
 3272      00
 3273 00a3 DC0A0000 		.4byte	0xadc
 3274 00a7 7370695F 		.ascii	"spi_lld_receive\000"
 3274      6C6C645F 
 3274      72656365 
 3274      69766500 
 3275 00b7 250B0000 		.4byte	0xb25
 3276 00bb 7370695F 		.ascii	"spi_lld_polled_exchange\000"
 3276      6C6C645F 
 3276      706F6C6C 
 3276      65645F65 
 3276      78636861 
 3277 00d3 E30B0000 		.4byte	0xbe3
 3278 00d7 53504944 		.ascii	"SPID1\000"
 3278      3100
 3279 00dd 00000000 		.4byte	0x0
 3280              		.section	.debug_pubtypes,"",%progbits
 3281 0000 0A020000 		.4byte	0x20a
 3282 0004 0200     		.2byte	0x2
 3283 0006 00000000 		.4byte	.Ldebug_info0
 3284 000a F60B0000 		.4byte	0xbf6
 3285 000e 30000000 		.4byte	0x30
 3286 0012 73697A65 		.ascii	"size_t\000"
 3286      5F7400
 3287 0019 49000000 		.4byte	0x49
 3288 001d 75696E74 		.ascii	"uint8_t\000"
 3288      385F7400 
 3289 0025 62000000 		.4byte	0x62
 3290 0029 75696E74 		.ascii	"uint16_t\000"
 3290      31365F74 
 3290      00
 3291 0032 74000000 		.4byte	0x74
 3292 0036 696E7433 		.ascii	"int32_t\000"
 3292      325F7400 
 3293 003e 86000000 		.4byte	0x86
 3294 0042 75696E74 		.ascii	"uint32_t\000"
 3294      33325F74 
 3294      00
 3295 004b A6000000 		.4byte	0xa6
 3296 004f 626F6F6C 		.ascii	"bool_t\000"
 3296      5F7400
 3297 0056 B8000000 		.4byte	0xb8
 3298 005a 746D6F64 		.ascii	"tmode_t\000"
 3298      655F7400 
 3299 0062 C3000000 		.4byte	0xc3
 3300 0066 74737461 		.ascii	"tstate_t\000"
 3300      74655F74 
 3300      00
 3301 006f CE000000 		.4byte	0xce
ARM GAS  C:\Users\DNIEL~1\AppData\Local\Temp\ccTozYXj.s 			page 60


 3302 0073 74726566 		.ascii	"trefs_t\000"
 3302      735F7400 
 3303 007b D9000000 		.4byte	0xd9
 3304 007f 74736C69 		.ascii	"tslices_t\000"
 3304      6365735F 
 3304      7400
 3305 0089 E4000000 		.4byte	0xe4
 3306 008d 74707269 		.ascii	"tprio_t\000"
 3306      6F5F7400 
 3307 0095 EF000000 		.4byte	0xef
 3308 0099 6D73675F 		.ascii	"msg_t\000"
 3308      7400
 3309 009f FA000000 		.4byte	0xfa
 3310 00a3 6576656E 		.ascii	"eventmask_t\000"
 3310      746D6173 
 3310      6B5F7400 
 3311 00af 05010000 		.4byte	0x105
 3312 00b3 73797374 		.ascii	"systime_t\000"
 3312      696D655F 
 3312      7400
 3313 00bd 10010000 		.4byte	0x110
 3314 00c1 54687265 		.ascii	"Thread\000"
 3314      616400
 3315 00c8 6B020000 		.4byte	0x26b
 3316 00cc 54687265 		.ascii	"ThreadsQueue\000"
 3316      61647351 
 3316      75657565 
 3316      00
 3317 00d9 8D020000 		.4byte	0x28d
 3318 00dd 54687265 		.ascii	"ThreadsList\000"
 3318      6164734C 
 3318      69737400 
 3319 00e9 98020000 		.4byte	0x298
 3320 00ed 72656761 		.ascii	"regarm_t\000"
 3320      726D5F74 
 3320      00
 3321 00f6 A5020000 		.4byte	0x2a5
 3322 00fa 696E7463 		.ascii	"intctx\000"
 3322      747800
 3323 0101 33030000 		.4byte	0x333
 3324 0105 636F6E74 		.ascii	"context\000"
 3324      65787400 
 3325 010d 60030000 		.4byte	0x360
 3326 0111 4D757465 		.ascii	"Mutex\000"
 3326      7800
 3327 0117 9D030000 		.4byte	0x39d
 3328 011b 4D757465 		.ascii	"Mutex\000"
 3328      7800
 3329 0121 1B010000 		.4byte	0x11b
 3330 0125 54687265 		.ascii	"Thread\000"
 3330      616400
 3331 012c 45040000 		.4byte	0x445
 3332 0130 444D415F 		.ascii	"DMA_Channel_TypeDef\000"
 3332      4368616E 
 3332      6E656C5F 
 3332      54797065 
 3332      44656600 
ARM GAS  C:\Users\DNIEL~1\AppData\Local\Temp\ccTozYXj.s 			page 61


 3333 0144 C4040000 		.4byte	0x4c4
 3334 0148 4750494F 		.ascii	"GPIO_TypeDef\000"
 3334      5F547970 
 3334      65446566 
 3334      00
 3335 0155 6F050000 		.4byte	0x56f
 3336 0159 5243435F 		.ascii	"RCC_TypeDef\000"
 3336      54797065 
 3336      44656600 
 3337 0165 91060000 		.4byte	0x691
 3338 0169 5350495F 		.ascii	"SPI_TypeDef\000"
 3338      54797065 
 3338      44656600 
 3339 0175 F8060000 		.4byte	0x6f8
 3340 0179 73746D33 		.ascii	"stm32_dma_stream_t\000"
 3340      325F646D 
 3340      615F7374 
 3340      7265616D 
 3340      5F7400
 3341 018c 03070000 		.4byte	0x703
 3342 0190 73746D33 		.ascii	"stm32_dmaisr_t\000"
 3342      325F646D 
 3342      61697372 
 3342      5F7400
 3343 019f 25070000 		.4byte	0x725
 3344 01a3 696F706F 		.ascii	"ioportmask_t\000"
 3344      72746D61 
 3344      736B5F74 
 3344      00
 3345 01b0 30070000 		.4byte	0x730
 3346 01b4 696F706F 		.ascii	"ioportid_t\000"
 3346      72746964 
 3346      5F7400
 3347 01bf 73070000 		.4byte	0x773
 3348 01c3 73706973 		.ascii	"spistate_t\000"
 3348      74617465 
 3348      5F7400
 3349 01ce 7E070000 		.4byte	0x77e
 3350 01d2 53504944 		.ascii	"SPIDriver\000"
 3350      72697665 
 3350      7200
 3351 01dc 1F080000 		.4byte	0x81f
 3352 01e0 73706963 		.ascii	"spicallback_t\000"
 3352      616C6C62 
 3352      61636B5F 
 3352      7400
 3353 01ee 89080000 		.4byte	0x889
 3354 01f2 53504943 		.ascii	"SPIConfig\000"
 3354      6F6E6669 
 3354      6700
 3355 01fc 8A070000 		.4byte	0x78a
 3356 0200 53504944 		.ascii	"SPIDriver\000"
 3356      72697665 
 3356      7200
 3357 020a 00000000 		.4byte	0x0
 3358              		.section	.debug_aranges,"",%progbits
 3359 0000 74000000 		.4byte	0x74
ARM GAS  C:\Users\DNIEL~1\AppData\Local\Temp\ccTozYXj.s 			page 62


 3360 0004 0200     		.2byte	0x2
 3361 0006 00000000 		.4byte	.Ldebug_info0
 3362 000a 04       		.byte	0x4
 3363 000b 00       		.byte	0x0
 3364 000c 0000     		.2byte	0x0
 3365 000e 0000     		.2byte	0x0
 3366 0010 00000000 		.4byte	.LFB57
 3367 0014 0C000000 		.4byte	.LFE57-.LFB57
 3368 0018 00000000 		.4byte	.LFB56
 3369 001c 74000000 		.4byte	.LFE56-.LFB56
 3370 0020 00000000 		.4byte	.LFB58
 3371 0024 40000000 		.4byte	.LFE58-.LFB58
 3372 0028 00000000 		.4byte	.LFB59
 3373 002c 9C000000 		.4byte	.LFE59-.LFB59
 3374 0030 00000000 		.4byte	.LFB60
 3375 0034 3C000000 		.4byte	.LFE60-.LFB60
 3376 0038 00000000 		.4byte	.LFB61
 3377 003c 10000000 		.4byte	.LFE61-.LFB61
 3378 0040 00000000 		.4byte	.LFB62
 3379 0044 10000000 		.4byte	.LFE62-.LFB62
 3380 0048 00000000 		.4byte	.LFB63
 3381 004c 3C000000 		.4byte	.LFE63-.LFB63
 3382 0050 00000000 		.4byte	.LFB64
 3383 0054 36000000 		.4byte	.LFE64-.LFB64
 3384 0058 00000000 		.4byte	.LFB65
 3385 005c 38000000 		.4byte	.LFE65-.LFB65
 3386 0060 00000000 		.4byte	.LFB66
 3387 0064 38000000 		.4byte	.LFE66-.LFB66
 3388 0068 00000000 		.4byte	.LFB67
 3389 006c 12000000 		.4byte	.LFE67-.LFB67
 3390 0070 00000000 		.4byte	0x0
 3391 0074 00000000 		.4byte	0x0
 3392              		.section	.debug_ranges,"",%progbits
 3393              	.Ldebug_ranges0:
 3394 0000 00000000 		.4byte	.LFB57
 3395 0004 0C000000 		.4byte	.LFE57
 3396 0008 00000000 		.4byte	.LFB56
 3397 000c 74000000 		.4byte	.LFE56
 3398 0010 00000000 		.4byte	.LFB58
 3399 0014 40000000 		.4byte	.LFE58
 3400 0018 00000000 		.4byte	.LFB59
 3401 001c 9C000000 		.4byte	.LFE59
 3402 0020 00000000 		.4byte	.LFB60
 3403 0024 3C000000 		.4byte	.LFE60
 3404 0028 00000000 		.4byte	.LFB61
 3405 002c 10000000 		.4byte	.LFE61
 3406 0030 00000000 		.4byte	.LFB62
 3407 0034 10000000 		.4byte	.LFE62
 3408 0038 00000000 		.4byte	.LFB63
 3409 003c 3C000000 		.4byte	.LFE63
 3410 0040 00000000 		.4byte	.LFB64
 3411 0044 36000000 		.4byte	.LFE64
 3412 0048 00000000 		.4byte	.LFB65
 3413 004c 38000000 		.4byte	.LFE65
 3414 0050 00000000 		.4byte	.LFB66
 3415 0054 38000000 		.4byte	.LFE66
 3416 0058 00000000 		.4byte	.LFB67
ARM GAS  C:\Users\DNIEL~1\AppData\Local\Temp\ccTozYXj.s 			page 63


 3417 005c 12000000 		.4byte	.LFE67
 3418 0060 00000000 		.4byte	0x0
 3419 0064 00000000 		.4byte	0x0
 3420              		.section	.debug_str,"MS",%progbits,1
 3421              	.LASF2:
 3422 0000 73697A65 		.ascii	"size_t\000"
 3422      5F7400
 3423              	.LASF53:
 3424 0007 7264796D 		.ascii	"rdymsg\000"
 3424      736700
 3425              	.LASF100:
 3426 000e 5350495F 		.ascii	"SPI_ACTIVE\000"
 3426      41435449 
 3426      564500
 3427              	.LASF141:
 3428 0019 7370695F 		.ascii	"spi_lld_polled_exchange\000"
 3428      6C6C645F 
 3428      706F6C6C 
 3428      65645F65 
 3428      78636861 
 3429              	.LASF95:
 3430 0031 696F706F 		.ascii	"ioportmask_t\000"
 3430      72746D61 
 3430      736B5F74 
 3430      00
 3431              	.LASF108:
 3432 003e 646D6172 		.ascii	"dmarx\000"
 3432      7800
 3433              	.LASF139:
 3434 0044 433A5C44 		.ascii	"C:\\Dani\\MegaLux\\Repo\\LuxControl\\LuxControl\\lu"
 3434      616E695C 
 3434      4D656761 
 3434      4C75785C 
 3434      5265706F 
 3435 0071 78636F6E 		.ascii	"xcontrol\\firmware\000"
 3435      74726F6C 
 3435      5C666972 
 3435      6D776172 
 3435      6500
 3436              	.LASF115:
 3437 0083 73737061 		.ascii	"sspad\000"
 3437      6400
 3438              	.LASF13:
 3439 0089 6C6F6E67 		.ascii	"long long unsigned int\000"
 3439      206C6F6E 
 3439      6720756E 
 3439      7369676E 
 3439      65642069 
 3440              	.LASF77:
 3441 00a0 43524350 		.ascii	"CRCPR\000"
 3441      5200
 3442              	.LASF131:
 3443 00a6 6672616D 		.ascii	"frame\000"
 3443      6500
 3444              	.LASF54:
 3445 00ac 65786974 		.ascii	"exitcode\000"
 3445      636F6465 
ARM GAS  C:\Users\DNIEL~1\AppData\Local\Temp\ccTozYXj.s 			page 64


 3445      00
 3446              	.LASF92:
 3447 00b5 76656374 		.ascii	"vector\000"
 3447      6F7200
 3448              	.LASF133:
 3449 00bc 5F73746D 		.ascii	"_stm32_dma_streams\000"
 3449      33325F64 
 3449      6D615F73 
 3449      74726561 
 3449      6D7300
 3450              	.LASF103:
 3451 00cf 53504944 		.ascii	"SPIDriver\000"
 3451      72697665 
 3451      7200
 3452              	.LASF114:
 3453 00d9 7373706F 		.ascii	"ssport\000"
 3453      727400
 3454              	.LASF132:
 3455 00e0 49544D5F 		.ascii	"ITM_RxBuffer\000"
 3455      52784275 
 3455      66666572 
 3455      00
 3456              	.LASF128:
 3457 00ed 72786275 		.ascii	"rxbuf\000"
 3457      6600
 3458              	.LASF27:
 3459 00f3 705F7072 		.ascii	"p_prio\000"
 3459      696F00
 3460              	.LASF12:
 3461 00fa 6C6F6E67 		.ascii	"long long int\000"
 3461      206C6F6E 
 3461      6720696E 
 3461      7400
 3462              	.LASF1:
 3463 0108 7369676E 		.ascii	"signed char\000"
 3463      65642063 
 3463      68617200 
 3464              	.LASF62:
 3465 0114 42535252 		.ascii	"BSRR\000"
 3465      00
 3466              	.LASF98:
 3467 0119 5350495F 		.ascii	"SPI_STOP\000"
 3467      53544F50 
 3467      00
 3468              	.LASF43:
 3469 0122 705F6D70 		.ascii	"p_mpool\000"
 3469      6F6F6C00 
 3470              	.LASF14:
 3471 012a 626F6F6C 		.ascii	"bool_t\000"
 3471      5F7400
 3472              	.LASF50:
 3473 0131 6D5F7175 		.ascii	"m_queue\000"
 3473      65756500 
 3474              	.LASF137:
 3475 0139 474E5520 		.ascii	"GNU C 4.5.2\000"
 3475      4320342E 
 3475      352E3200 
ARM GAS  C:\Users\DNIEL~1\AppData\Local\Temp\ccTozYXj.s 			page 65


 3476              	.LASF19:
 3477 0145 74736C69 		.ascii	"tslices_t\000"
 3477      6365735F 
 3477      7400
 3478              	.LASF104:
 3479 014f 73746174 		.ascii	"state\000"
 3479      6500
 3480              	.LASF9:
 3481 0155 6C6F6E67 		.ascii	"long int\000"
 3481      20696E74 
 3481      00
 3482              	.LASF120:
 3483 015e 7370695F 		.ascii	"spi_lld_serve_rx_interrupt\000"
 3483      6C6C645F 
 3483      73657276 
 3483      655F7278 
 3483      5F696E74 
 3484              	.LASF66:
 3485 0179 41504232 		.ascii	"APB2RSTR\000"
 3485      52535452 
 3485      00
 3486              	.LASF17:
 3487 0182 74737461 		.ascii	"tstate_t\000"
 3487      74655F74 
 3487      00
 3488              	.LASF126:
 3489 018b 7370695F 		.ascii	"spi_lld_exchange\000"
 3489      6C6C645F 
 3489      65786368 
 3489      616E6765 
 3489      00
 3490              	.LASF34:
 3491 019c 705F7265 		.ascii	"p_refs\000"
 3491      667300
 3492              	.LASF6:
 3493 01a3 75696E74 		.ascii	"uint16_t\000"
 3493      31365F74 
 3493      00
 3494              	.LASF36:
 3495 01ac 705F7469 		.ascii	"p_time\000"
 3495      6D6500
 3496              	.LASF29:
 3497 01b3 705F6E65 		.ascii	"p_newer\000"
 3497      77657200 
 3498              	.LASF113:
 3499 01bb 656E645F 		.ascii	"end_cb\000"
 3499      636200
 3500              	.LASF110:
 3501 01c2 7278646D 		.ascii	"rxdmamode\000"
 3501      616D6F64 
 3501      6500
 3502              	.LASF109:
 3503 01cc 646D6174 		.ascii	"dmatx\000"
 3503      7800
 3504              	.LASF46:
 3505 01d2 72656761 		.ascii	"regarm_t\000"
 3505      726D5F74 
ARM GAS  C:\Users\DNIEL~1\AppData\Local\Temp\ccTozYXj.s 			page 66


 3505      00
 3506              	.LASF91:
 3507 01db 73656C66 		.ascii	"selfindex\000"
 3507      696E6465 
 3507      7800
 3508              	.LASF112:
 3509 01e5 73706963 		.ascii	"spicallback_t\000"
 3509      616C6C62 
 3509      61636B5F 
 3509      7400
 3510              	.LASF129:
 3511 01f3 7370695F 		.ascii	"spi_lld_send\000"
 3511      6C6C645F 
 3511      73656E64 
 3511      00
 3512              	.LASF0:
 3513 0200 756E7369 		.ascii	"unsigned int\000"
 3513      676E6564 
 3513      20696E74 
 3513      00
 3514              	.LASF124:
 3515 020d 7370695F 		.ascii	"spi_lld_unselect\000"
 3515      6C6C645F 
 3515      756E7365 
 3515      6C656374 
 3515      00
 3516              	.LASF127:
 3517 021e 74786275 		.ascii	"txbuf\000"
 3517      6600
 3518              	.LASF65:
 3519 0224 43464752 		.ascii	"CFGR\000"
 3519      00
 3520              	.LASF59:
 3521 0229 43504152 		.ascii	"CPAR\000"
 3521      00
 3522              	.LASF94:
 3523 022e 73746D33 		.ascii	"stm32_dmaisr_t\000"
 3523      325F646D 
 3523      61697372 
 3523      5F7400
 3524              	.LASF38:
 3525 023d 705F6D73 		.ascii	"p_msgqueue\000"
 3525      67717565 
 3525      756500
 3526              	.LASF64:
 3527 0248 4750494F 		.ascii	"GPIO_TypeDef\000"
 3527      5F547970 
 3527      65446566 
 3527      00
 3528              	.LASF72:
 3529 0255 5243435F 		.ascii	"RCC_TypeDef\000"
 3529      54797065 
 3529      44656600 
 3530              	.LASF63:
 3531 0261 4C434B52 		.ascii	"LCKR\000"
 3531      00
 3532              	.LASF90:
ARM GAS  C:\Users\DNIEL~1\AppData\Local\Temp\ccTozYXj.s 			page 67


 3533 0266 69736869 		.ascii	"ishift\000"
 3533      667400
 3534              	.LASF48:
 3535 026d 636F6E74 		.ascii	"context\000"
 3535      65787400 
 3536              	.LASF7:
 3537 0275 73686F72 		.ascii	"short unsigned int\000"
 3537      7420756E 
 3537      7369676E 
 3537      65642069 
 3537      6E7400
 3538              	.LASF21:
 3539 0288 6D73675F 		.ascii	"msg_t\000"
 3539      7400
 3540              	.LASF136:
 3541 028e 64756D6D 		.ascii	"dummyrx\000"
 3541      79727800 
 3542              	.LASF16:
 3543 0296 746D6F64 		.ascii	"tmode_t\000"
 3543      655F7400 
 3544              	.LASF45:
 3545 029e 54687265 		.ascii	"ThreadsList\000"
 3545      6164734C 
 3545      69737400 
 3546              	.LASF22:
 3547 02aa 6576656E 		.ascii	"eventmask_t\000"
 3547      746D6173 
 3547      6B5F7400 
 3548              	.LASF60:
 3549 02b6 434D4152 		.ascii	"CMAR\000"
 3549      00
 3550              	.LASF140:
 3551 02bb 7370695F 		.ascii	"spi_lld_init\000"
 3551      6C6C645F 
 3551      696E6974 
 3551      00
 3552              	.LASF24:
 3553 02c8 54687265 		.ascii	"Thread\000"
 3553      616400
 3554              	.LASF130:
 3555 02cf 7370695F 		.ascii	"spi_lld_receive\000"
 3555      6C6C645F 
 3555      72656365 
 3555      69766500 
 3556              	.LASF85:
 3557 02df 49325350 		.ascii	"I2SPR\000"
 3557      5200
 3558              	.LASF49:
 3559 02e5 4D757465 		.ascii	"Mutex\000"
 3559      7800
 3560              	.LASF83:
 3561 02eb 49325343 		.ascii	"I2SCFGR\000"
 3561      46475200 
 3562              	.LASF25:
 3563 02f3 705F6E65 		.ascii	"p_next\000"
 3563      787400
 3564              	.LASF122:
ARM GAS  C:\Users\DNIEL~1\AppData\Local\Temp\ccTozYXj.s 			page 68


 3565 02fa 7370695F 		.ascii	"spi_lld_stop\000"
 3565      6C6C645F 
 3565      73746F70 
 3565      00
 3566              	.LASF30:
 3567 0307 705F6F6C 		.ascii	"p_older\000"
 3567      64657200 
 3568              	.LASF44:
 3569 030f 54687265 		.ascii	"ThreadsQueue\000"
 3569      61647351 
 3569      75657565 
 3569      00
 3570              	.LASF111:
 3571 031c 7478646D 		.ascii	"txdmamode\000"
 3571      616D6F64 
 3571      6500
 3572              	.LASF67:
 3573 0326 41504231 		.ascii	"APB1RSTR\000"
 3573      52535452 
 3573      00
 3574              	.LASF61:
 3575 032f 444D415F 		.ascii	"DMA_Channel_TypeDef\000"
 3575      4368616E 
 3575      6E656C5F 
 3575      54797065 
 3575      44656600 
 3576              	.LASF81:
 3577 0343 54584352 		.ascii	"TXCRCR\000"
 3577      435200
 3578              	.LASF73:
 3579 034a 52455345 		.ascii	"RESERVED0\000"
 3579      52564544 
 3579      3000
 3580              	.LASF74:
 3581 0354 52455345 		.ascii	"RESERVED1\000"
 3581      52564544 
 3581      3100
 3582              	.LASF75:
 3583 035e 52455345 		.ascii	"RESERVED2\000"
 3583      52564544 
 3583      3200
 3584              	.LASF76:
 3585 0368 52455345 		.ascii	"RESERVED3\000"
 3585      52564544 
 3585      3300
 3586              	.LASF78:
 3587 0372 52455345 		.ascii	"RESERVED4\000"
 3587      52564544 
 3587      3400
 3588              	.LASF26:
 3589 037c 705F7072 		.ascii	"p_prev\000"
 3589      657600
 3590              	.LASF82:
 3591 0383 52455345 		.ascii	"RESERVED6\000"
 3591      52564544 
 3591      3600
 3592              	.LASF84:
ARM GAS  C:\Users\DNIEL~1\AppData\Local\Temp\ccTozYXj.s 			page 69


 3593 038d 52455345 		.ascii	"RESERVED7\000"
 3593      52564544 
 3593      3700
 3594              	.LASF86:
 3595 0397 52455345 		.ascii	"RESERVED8\000"
 3595      52564544 
 3595      3800
 3596              	.LASF20:
 3597 03a1 74707269 		.ascii	"tprio_t\000"
 3597      6F5F7400 
 3598              	.LASF107:
 3599 03a9 6D757465 		.ascii	"mutex\000"
 3599      7800
 3600              	.LASF15:
 3601 03af 5F426F6F 		.ascii	"_Bool\000"
 3601      6C00
 3602              	.LASF8:
 3603 03b5 696E7433 		.ascii	"int32_t\000"
 3603      325F7400 
 3604              	.LASF4:
 3605 03bd 756E7369 		.ascii	"unsigned char\000"
 3605      676E6564 
 3605      20636861 
 3605      7200
 3606              	.LASF93:
 3607 03cb 73746D33 		.ascii	"stm32_dma_stream_t\000"
 3607      325F646D 
 3607      615F7374 
 3607      7265616D 
 3607      5F7400
 3608              	.LASF134:
 3609 03de 53504944 		.ascii	"SPID1\000"
 3609      3100
 3610              	.LASF135:
 3611 03e4 64756D6D 		.ascii	"dummytx\000"
 3611      79747800 
 3612              	.LASF32:
 3613 03ec 705F7374 		.ascii	"p_state\000"
 3613      61746500 
 3614              	.LASF41:
 3615 03f4 705F6D74 		.ascii	"p_mtxlist\000"
 3615      786C6973 
 3615      7400
 3616              	.LASF5:
 3617 03fe 73686F72 		.ascii	"short int\000"
 3617      7420696E 
 3617      7400
 3618              	.LASF35:
 3619 0408 705F7072 		.ascii	"p_preempt\000"
 3619      65656D70 
 3619      7400
 3620              	.LASF56:
 3621 0412 65776D61 		.ascii	"ewmask\000"
 3621      736B00
 3622              	.LASF33:
 3623 0419 705F666C 		.ascii	"p_flags\000"
 3623      61677300 
ARM GAS  C:\Users\DNIEL~1\AppData\Local\Temp\ccTozYXj.s 			page 70


 3624              	.LASF69:
 3625 0421 41504232 		.ascii	"APB2ENR\000"
 3625      454E5200 
 3626              	.LASF88:
 3627 0429 6368616E 		.ascii	"channel\000"
 3627      6E656C00 
 3628              	.LASF40:
 3629 0431 705F6570 		.ascii	"p_epending\000"
 3629      656E6469 
 3629      6E6700
 3630              	.LASF89:
 3631 043c 69666372 		.ascii	"ifcr\000"
 3631      00
 3632              	.LASF80:
 3633 0441 52455345 		.ascii	"RESERVED5\000"
 3633      52564544 
 3633      3500
 3634              	.LASF10:
 3635 044b 75696E74 		.ascii	"uint32_t\000"
 3635      33325F74 
 3635      00
 3636              	.LASF18:
 3637 0454 74726566 		.ascii	"trefs_t\000"
 3637      735F7400 
 3638              	.LASF11:
 3639 045c 6C6F6E67 		.ascii	"long unsigned int\000"
 3639      20756E73 
 3639      69676E65 
 3639      6420696E 
 3639      7400
 3640              	.LASF87:
 3641 046e 5350495F 		.ascii	"SPI_TypeDef\000"
 3641      54797065 
 3641      44656600 
 3642              	.LASF57:
 3643 047a 63686172 		.ascii	"char\000"
 3643      00
 3644              	.LASF101:
 3645 047f 5350495F 		.ascii	"SPI_COMPLETE\000"
 3645      434F4D50 
 3645      4C455445 
 3645      00
 3646              	.LASF105:
 3647 048c 636F6E66 		.ascii	"config\000"
 3647      696700
 3648              	.LASF102:
 3649 0493 73706973 		.ascii	"spistate_t\000"
 3649      74617465 
 3649      5F7400
 3650              	.LASF52:
 3651 049e 6D5F6E65 		.ascii	"m_next\000"
 3651      787400
 3652              	.LASF23:
 3653 04a5 73797374 		.ascii	"systime_t\000"
 3653      696D655F 
 3653      7400
 3654              	.LASF42:
ARM GAS  C:\Users\DNIEL~1\AppData\Local\Temp\ccTozYXj.s 			page 71


 3655 04af 705F7265 		.ascii	"p_realprio\000"
 3655      616C7072 
 3655      696F00
 3656              	.LASF106:
 3657 04ba 74687265 		.ascii	"thread\000"
 3657      616400
 3658              	.LASF70:
 3659 04c1 41504231 		.ascii	"APB1ENR\000"
 3659      454E5200 
 3660              	.LASF96:
 3661 04c9 696F706F 		.ascii	"ioportid_t\000"
 3661      72746964 
 3661      5F7400
 3662              	.LASF123:
 3663 04d4 7370695F 		.ascii	"spi_lld_select\000"
 3663      6C6C645F 
 3663      73656C65 
 3663      637400
 3664              	.LASF47:
 3665 04e3 696E7463 		.ascii	"intctx\000"
 3665      747800
 3666              	.LASF99:
 3667 04ea 5350495F 		.ascii	"SPI_READY\000"
 3667      52454144 
 3667      5900
 3668              	.LASF97:
 3669 04f4 5350495F 		.ascii	"SPI_UNINIT\000"
 3669      554E494E 
 3669      495400
 3670              	.LASF125:
 3671 04ff 7370695F 		.ascii	"spi_lld_ignore\000"
 3671      6C6C645F 
 3671      69676E6F 
 3671      726500
 3672              	.LASF58:
 3673 050e 434E4454 		.ascii	"CNDTR\000"
 3673      5200
 3674              	.LASF71:
 3675 0514 42444352 		.ascii	"BDCR\000"
 3675      00
 3676              	.LASF79:
 3677 0519 52584352 		.ascii	"RXCRCR\000"
 3677      435200
 3678              	.LASF121:
 3679 0520 7370695F 		.ascii	"spi_lld_start\000"
 3679      6C6C645F 
 3679      73746172 
 3679      7400
 3680              	.LASF3:
 3681 052e 75696E74 		.ascii	"uint8_t\000"
 3681      385F7400 
 3682              	.LASF117:
 3683 0536 73706970 		.ascii	"spip\000"
 3683      00
 3684              	.LASF118:
 3685 053b 666C6167 		.ascii	"flags\000"
 3685      7300
ARM GAS  C:\Users\DNIEL~1\AppData\Local\Temp\ccTozYXj.s 			page 72


 3686              	.LASF55:
 3687 0541 77746F62 		.ascii	"wtobjp\000"
 3687      6A7000
 3688              	.LASF119:
 3689 0548 7370695F 		.ascii	"spi_lld_serve_tx_interrupt\000"
 3689      6C6C645F 
 3689      73657276 
 3689      655F7478 
 3689      5F696E74 
 3690              	.LASF31:
 3691 0563 705F6E61 		.ascii	"p_name\000"
 3691      6D6500
 3692              	.LASF138:
 3693 056a 2E2E2F2E 		.ascii	"../../../ChibiOS/os/hal/platforms/STM32/SPIv1/spi_l"
 3693      2E2F2E2E 
 3693      2F436869 
 3693      62694F53 
 3693      2F6F732F 
 3694 059d 6C642E63 		.ascii	"ld.c\000"
 3694      00
 3695              	.LASF116:
 3696 05a2 53504943 		.ascii	"SPIConfig\000"
 3696      6F6E6669 
 3696      6700
 3697              	.LASF39:
 3698 05ac 705F6D73 		.ascii	"p_msg\000"
 3698      6700
 3699              	.LASF51:
 3700 05b2 6D5F6F77 		.ascii	"m_owner\000"
 3700      6E657200 
 3701              	.LASF28:
 3702 05ba 705F6374 		.ascii	"p_ctx\000"
 3702      7800
 3703              	.LASF37:
 3704 05c0 705F7761 		.ascii	"p_waiting\000"
 3704      6974696E 
 3704      6700
 3705              	.LASF68:
 3706 05ca 41484245 		.ascii	"AHBENR\000"
 3706      4E5200
 3707              		.ident	"GCC: (Sourcery G++ Lite 2011.03-42) 4.5.2"
ARM GAS  C:\Users\DNIEL~1\AppData\Local\Temp\ccTozYXj.s 			page 73


DEFINED SYMBOLS
                            *ABS*:00000000 spi_lld.c
C:\Users\DNIEL~1\AppData\Local\Temp\ccTozYXj.s:24     .text.spi_lld_serve_tx_interrupt:00000000 $t
C:\Users\DNIEL~1\AppData\Local\Temp\ccTozYXj.s:29     .text.spi_lld_serve_tx_interrupt:00000000 spi_lld_serve_tx_interrupt
C:\Users\DNIEL~1\AppData\Local\Temp\ccTozYXj.s:50     .text.spi_lld_serve_rx_interrupt:00000000 $t
C:\Users\DNIEL~1\AppData\Local\Temp\ccTozYXj.s:55     .text.spi_lld_serve_rx_interrupt:00000000 spi_lld_serve_rx_interrupt
C:\Users\DNIEL~1\AppData\Local\Temp\ccTozYXj.s:160    .text.spi_lld_init:00000000 $t
C:\Users\DNIEL~1\AppData\Local\Temp\ccTozYXj.s:166    .text.spi_lld_init:00000000 spi_lld_init
C:\Users\DNIEL~1\AppData\Local\Temp\ccTozYXj.s:214    .text.spi_lld_init:00000030 $d
C:\Users\DNIEL~1\AppData\Local\Temp\ccTozYXj.s:222    .text.spi_lld_start:00000000 $t
C:\Users\DNIEL~1\AppData\Local\Temp\ccTozYXj.s:228    .text.spi_lld_start:00000000 spi_lld_start
C:\Users\DNIEL~1\AppData\Local\Temp\ccTozYXj.s:338    .text.spi_lld_start:0000008c $d
C:\Users\DNIEL~1\AppData\Local\Temp\ccTozYXj.s:347    .text.spi_lld_stop:00000000 $t
C:\Users\DNIEL~1\AppData\Local\Temp\ccTozYXj.s:353    .text.spi_lld_stop:00000000 spi_lld_stop
C:\Users\DNIEL~1\AppData\Local\Temp\ccTozYXj.s:405    .text.spi_lld_stop:00000034 $d
C:\Users\DNIEL~1\AppData\Local\Temp\ccTozYXj.s:411    .text.spi_lld_select:00000000 $t
C:\Users\DNIEL~1\AppData\Local\Temp\ccTozYXj.s:417    .text.spi_lld_select:00000000 spi_lld_select
C:\Users\DNIEL~1\AppData\Local\Temp\ccTozYXj.s:439    .text.spi_lld_unselect:00000000 $t
C:\Users\DNIEL~1\AppData\Local\Temp\ccTozYXj.s:445    .text.spi_lld_unselect:00000000 spi_lld_unselect
C:\Users\DNIEL~1\AppData\Local\Temp\ccTozYXj.s:467    .text.spi_lld_ignore:00000000 $t
C:\Users\DNIEL~1\AppData\Local\Temp\ccTozYXj.s:473    .text.spi_lld_ignore:00000000 spi_lld_ignore
C:\Users\DNIEL~1\AppData\Local\Temp\ccTozYXj.s:531    .text.spi_lld_ignore:00000034 $d
C:\Users\DNIEL~1\AppData\Local\Temp\ccTozYXj.s:537    .text.spi_lld_exchange:00000000 $t
C:\Users\DNIEL~1\AppData\Local\Temp\ccTozYXj.s:543    .text.spi_lld_exchange:00000000 spi_lld_exchange
C:\Users\DNIEL~1\AppData\Local\Temp\ccTozYXj.s:605    .text.spi_lld_send:00000000 $t
C:\Users\DNIEL~1\AppData\Local\Temp\ccTozYXj.s:611    .text.spi_lld_send:00000000 spi_lld_send
C:\Users\DNIEL~1\AppData\Local\Temp\ccTozYXj.s:670    .text.spi_lld_send:00000034 $d
C:\Users\DNIEL~1\AppData\Local\Temp\ccTozYXj.s:675    .text.spi_lld_receive:00000000 $t
C:\Users\DNIEL~1\AppData\Local\Temp\ccTozYXj.s:681    .text.spi_lld_receive:00000000 spi_lld_receive
C:\Users\DNIEL~1\AppData\Local\Temp\ccTozYXj.s:739    .text.spi_lld_receive:00000034 $d
C:\Users\DNIEL~1\AppData\Local\Temp\ccTozYXj.s:744    .text.spi_lld_polled_exchange:00000000 $t
C:\Users\DNIEL~1\AppData\Local\Temp\ccTozYXj.s:750    .text.spi_lld_polled_exchange:00000000 spi_lld_polled_exchange
C:\Users\DNIEL~1\AppData\Local\Temp\ccTozYXj.s:788    .bss.SPID1:00000000 SPID1
C:\Users\DNIEL~1\AppData\Local\Temp\ccTozYXj.s:777    .bss.dummytx:00000000 $d
C:\Users\DNIEL~1\AppData\Local\Temp\ccTozYXj.s:781    .bss.dummytx:00000000 dummytx
C:\Users\DNIEL~1\AppData\Local\Temp\ccTozYXj.s:784    .bss.SPID1:00000000 $d
C:\Users\DNIEL~1\AppData\Local\Temp\ccTozYXj.s:791    .bss.dummyrx:00000000 $d
C:\Users\DNIEL~1\AppData\Local\Temp\ccTozYXj.s:795    .bss.dummyrx:00000000 dummyrx
                     .debug_frame:00000010 $d
C:\Users\DNIEL~1\AppData\Local\Temp\ccTozYXj.s:346    .text.spi_lld_start:0000009c $t
C:\Users\DNIEL~1\AppData\Local\Temp\ccTozYXj.s:410    .text.spi_lld_stop:0000003c $t
C:\Users\DNIEL~1\AppData\Local\Temp\ccTozYXj.s:536    .text.spi_lld_ignore:0000003c $t
C:\Users\DNIEL~1\AppData\Local\Temp\ccTozYXj.s:674    .text.spi_lld_send:00000038 $t
C:\Users\DNIEL~1\AppData\Local\Temp\ccTozYXj.s:743    .text.spi_lld_receive:00000038 $t

UNDEFINED SYMBOLS
port_halt
_port_lock
chSchReadyI
_port_unlock
spiObjectInit
_stm32_dma_streams
dmaStreamAllocate
dmaStreamRelease
