ARM GAS  C:\Users\DNIEL~1\AppData\Local\Temp\ccTozYXj.s 			page 1


   1              		.syntax unified
   2              		.cpu cortex-m3
   3              		.fpu softvfp
   4              		.eabi_attribute 20, 1
   5              		.eabi_attribute 21, 1
   6              		.eabi_attribute 23, 3
   7              		.eabi_attribute 24, 1
   8              		.eabi_attribute 25, 1
   9              		.eabi_attribute 26, 1
  10              		.eabi_attribute 30, 2
  11              		.eabi_attribute 18, 4
  12              		.thumb
  13              		.file	"spi_lld.c"
  20 0000 76040000 		.text
  20      0200CE02 
  20      00000201 
  20      FB0E0D00 
  20      01010101 
  21              	.Ltext0:
  22              		.cfi_sections	.debug_frame
  23              		.section	.text.spi_lld_serve_tx_interrupt,"ax",%progbits
  24              		.align	2
  25              		.p2align 4,,15
  26              		.thumb
  27              		.thumb_func
  28              		.type	spi_lld_serve_tx_interrupt, %function
  29              	spi_lld_serve_tx_interrupt:
  30              	.LFB57:
  31              		.file 1 "../../../ChibiOS/os/hal/platforms/STM32/SPIv1/spi_lld.c"
  32              		.loc 1 159 0
  33              		.cfi_startproc
  34              		@ args = 0, pretend = 0, frame = 0
  35              		@ frame_needed = 0, uses_anonymous_args = 0
  36              		@ link register save eliminated.
  37              	.LVL0:
  38              		.loc 1 164 0
  39 0000 11F0080F 		tst	r1, #8
  40 0004 00D1     		bne	.L4
  41 0006 7047     		bx	lr
  42              	.L4:
  43              		.loc 1 171 0
  44              		.loc 1 165 0
  45 0008 FFF7FEBF 		b	port_halt
  46              		.cfi_endproc
  47              	.LFE57:
  48              		.size	spi_lld_serve_tx_interrupt, .-spi_lld_serve_tx_interrupt
  49 000c AFF30080 		.section	.text.spi_lld_serve_rx_interrupt,"ax",%progbits
  50              		.align	2
  51              		.p2align 4,,15
  52              		.thumb
  53              		.thumb_func
ARM GAS  C:\Users\DNIEL~1\AppData\Local\Temp\ccTozYXj.s 			page 2


  54              		.type	spi_lld_serve_rx_interrupt, %function
  55              	spi_lld_serve_rx_interrupt:
  56              	.LFB56:
  57              		.loc 1 133 0
  58              		.cfi_startproc
  59              		@ args = 0, pretend = 0, frame = 0
  60              		@ frame_needed = 0, uses_anonymous_args = 0
  61              	.LVL1:
  62              		.loc 1 137 0
  63 0000 11F0080F 		tst	r1, #8
  64              		.loc 1 133 0
  65 0004 70B5     		push	{r4, r5, r6, lr}
  66              	.LCFI0:
  67              		.cfi_def_cfa_offset 16
  68              		.loc 1 133 0
  69 0006 0446     		mov	r4, r0
  70              		.cfi_offset 14, -4
  71              		.cfi_offset 6, -8
  72              		.cfi_offset 5, -12
  73              		.cfi_offset 4, -16
  74              		.loc 1 137 0
  75 0008 31D1     		bne	.L10
  76              	.LVL2:
  77              	.L6:
  78              		.loc 1 145 0
  79 000a 626A     		ldr	r2, [r4, #36]
  80              		.loc 1 146 0
  81 000c 236A     		ldr	r3, [r4, #32]
  82              		.loc 1 145 0
  83 000e 1068     		ldr	r0, [r2, #0]
  84 0010 5568     		ldr	r5, [r2, #4]
  85 0012 0668     		ldr	r6, [r0, #0]
  86 0014 0F21     		movs	r1, #15
  87 0016 26F00F06 		bic	r6, r6, #15
  88 001a 0660     		str	r6, [r0, #0]
  89 001c 107A     		ldrb	r0, [r2, #8]	@ zero_extendqisi2
  90              		.loc 1 146 0
  91 001e 1A68     		ldr	r2, [r3, #0]
  92              		.loc 1 145 0
  93 0020 11FA00F0 		lsls	r0, r1, r0
  94 0024 2860     		str	r0, [r5, #0]
  95              		.loc 1 146 0
  96 0026 1568     		ldr	r5, [r2, #0]
  97              		.loc 1 150 0
  98 0028 6068     		ldr	r0, [r4, #4]
  99              		.loc 1 146 0
 100 002a 25F00F05 		bic	r5, r5, #15
 101 002e 1560     		str	r5, [r2, #0]
 102 0030 1D7A     		ldrb	r5, [r3, #8]	@ zero_extendqisi2
 103 0032 5A68     		ldr	r2, [r3, #4]
 104 0034 A940     		lsls	r1, r1, r5
 105              		.loc 1 150 0
 106 0036 0368     		ldr	r3, [r0, #0]
 107              		.loc 1 146 0
 108 0038 1160     		str	r1, [r2, #0]
 109              		.loc 1 150 0
 110 003a ABB1     		cbz	r3, .L7
ARM GAS  C:\Users\DNIEL~1\AppData\Local\Temp\ccTozYXj.s 			page 3


 111              		.loc 1 150 0 is_stmt 0 discriminator 1
 112 003c 0421     		movs	r1, #4
 113 003e 2170     		strb	r1, [r4, #0]
 114 0040 2046     		mov	r0, r4
 115 0042 9847     		blx	r3
 116 0044 94F800C0 		ldrb	ip, [r4, #0]	@ zero_extendqisi2
 117 0048 BCF1040F 		cmp	ip, #4
 118 004c 0CD0     		beq	.L7
 119              	.L8:
 120              		.loc 1 150 0 discriminator 4
 121              	@ 150 "../../../ChibiOS/os/hal/platforms/STM32/SPIv1/spi_lld.c" 1
 122 004e FFF7FEFF 		bl      _port_lock
 123              	@ 0 "" 2
 124              		.thumb
 125 0052 A368     		ldr	r3, [r4, #8]
 126 0054 2BB1     		cbz	r3, .L9
 127              	.LVL3:
 128              	.LBB2:
 129              		.loc 1 150 0 discriminator 5
 130 0056 0022     		movs	r2, #0
 131 0058 A260     		str	r2, [r4, #8]
 132 005a 1846     		mov	r0, r3
 133 005c 5A62     		str	r2, [r3, #36]
 134 005e FFF7FEFF 		bl	chSchReadyI
 135              	.LVL4:
 136              	.L9:
 137              	.LBE2:
 138              		.loc 1 150 0 discriminator 6
 139              	@ 150 "../../../ChibiOS/os/hal/platforms/STM32/SPIv1/spi_lld.c" 1
 140 0062 FFF7FEFF 		bl      _port_unlock
 141              	@ 0 "" 2
 142              		.loc 1 151 0 is_stmt 1 discriminator 6
 143              		.thumb
 144 0066 70BD     		pop	{r4, r5, r6, pc}
 145              	.L7:
 146              		.loc 1 150 0 discriminator 2
 147 0068 0223     		movs	r3, #2
 148 006a 2370     		strb	r3, [r4, #0]
 149 006c EFE7     		b	.L8
 150              	.LVL5:
 151              	.L10:
 152              		.loc 1 138 0
 153 006e FFF7FEFF 		bl	port_halt
 154              	.LVL6:
 155 0072 CAE7     		b	.L6
 156              		.cfi_endproc
 157              	.LFE56:
 158              		.size	spi_lld_serve_rx_interrupt, .-spi_lld_serve_rx_interrupt
 159 0074 AFF30080 		.section	.text.spi_lld_init,"ax",%progbits
 159      AFF30080 
 159      AFF30080 
 160              		.align	2
 161              		.p2align 4,,15
 162              		.global	spi_lld_init
 163              		.thumb
 164              		.thumb_func
 165              		.type	spi_lld_init, %function
ARM GAS  C:\Users\DNIEL~1\AppData\Local\Temp\ccTozYXj.s 			page 4


 166              	spi_lld_init:
 167              	.LFB58:
 168              		.loc 1 186 0
 169              		.cfi_startproc
 170              		@ args = 0, pretend = 0, frame = 0
 171              		@ frame_needed = 0, uses_anonymous_args = 0
 172 0000 10B5     		push	{r4, lr}
 173              	.LCFI1:
 174              		.cfi_def_cfa_offset 8
 175              		.loc 1 188 0
 176 0002 0B4A     		ldr	r2, .L12
 177              		.loc 1 191 0
 178 0004 0B4C     		ldr	r4, .L12+4
 179              		.cfi_offset 14, -4
 180              		.cfi_offset 4, -8
 181              		.loc 1 188 0
 182 0006 4FF0FF3C 		mov	ip, #-1	@ movhi
 183              		.loc 1 191 0
 184 000a 2046     		mov	r0, r4
 185              		.loc 1 188 0
 186 000c A2F800C0 		strh	ip, [r2, #0]	@ movhi
 187              		.loc 1 191 0
 188 0010 FFF7FEFF 		bl	spiObjectInit
 189              		.loc 1 193 0
 190 0014 084B     		ldr	r3, .L12+8
 191              		.loc 1 192 0
 192 0016 0949     		ldr	r1, .L12+12
 193              		.loc 1 194 0
 194 0018 03F10C02 		add	r2, r3, #12
 195              		.loc 1 193 0
 196 001c 2362     		str	r3, [r4, #32]
 197              		.loc 1 195 0
 198 001e 41F20A00 		movw	r0, #4106
 199              		.loc 1 201 0
 200 0022 41F21803 		movw	r3, #4120
 201              		.loc 1 192 0
 202 0026 E161     		str	r1, [r4, #28]
 203              		.loc 1 194 0
 204 0028 6262     		str	r2, [r4, #36]
 205              		.loc 1 195 0
 206 002a A062     		str	r0, [r4, #40]
 207              		.loc 1 201 0
 208 002c E362     		str	r3, [r4, #44]
 209              		.loc 1 297 0
 210 002e 10BD     		pop	{r4, pc}
 211              	.L13:
 212              		.align	2
 213              	.L12:
 214 0030 00000000 		.word	.LANCHOR0
 215 0034 00000000 		.word	.LANCHOR1
 216 0038 0C000000 		.word	_stm32_dma_streams+12
 217 003c 00300140 		.word	1073819648
 218              		.cfi_endproc
 219              	.LFE58:
 220              		.size	spi_lld_init, .-spi_lld_init
 221              		.section	.text.spi_lld_start,"ax",%progbits
 222              		.align	2
ARM GAS  C:\Users\DNIEL~1\AppData\Local\Temp\ccTozYXj.s 			page 5


 223              		.p2align 4,,15
 224              		.global	spi_lld_start
 225              		.thumb
 226              		.thumb_func
 227              		.type	spi_lld_start, %function
 228              	spi_lld_start:
 229              	.LFB59:
 230              		.loc 1 306 0
 231              		.cfi_startproc
 232              		@ args = 0, pretend = 0, frame = 0
 233              		@ frame_needed = 0, uses_anonymous_args = 0
 234              	.LVL7:
 235              		.loc 1 309 0
 236 0000 0378     		ldrb	r3, [r0, #0]	@ zero_extendqisi2
 237              		.loc 1 306 0
 238 0002 10B5     		push	{r4, lr}
 239              	.LCFI2:
 240              		.cfi_def_cfa_offset 8
 241              		.loc 1 309 0
 242 0004 012B     		cmp	r3, #1
 243              		.loc 1 306 0
 244 0006 0446     		mov	r4, r0
 245              		.cfi_offset 14, -4
 246              		.cfi_offset 4, -8
 247              		.loc 1 309 0
 248 0008 20D0     		beq	.L20
 249 000a C369     		ldr	r3, [r0, #28]
 250              	.LVL8:
 251              	.L15:
 252              		.loc 1 413 0
 253 000c 6268     		ldr	r2, [r4, #4]
 254              		.loc 1 416 0
 255 000e A06A     		ldr	r0, [r4, #40]
 256              		.loc 1 413 0
 257 0010 5289     		ldrh	r2, [r2, #10]
 258              		.loc 1 418 0
 259 0012 E16A     		ldr	r1, [r4, #44]
 260              		.loc 1 413 0
 261 0014 12F4006F 		tst	r2, #2048
 262              		.loc 1 416 0
 263 0018 20F47060 		bic	r0, r0, #3840
 264              		.loc 1 418 0
 265 001c 21F47061 		bic	r1, r1, #3840
 266              		.loc 1 423 0
 267 0020 1CBF     		itt	ne
 268 0022 40F4A060 		orrne	r0, r0, #1280
 269              		.loc 1 425 0
 270 0026 41F4A061 		orrne	r1, r1, #1280
 271              		.loc 1 422 0
 272 002a A062     		str	r0, [r4, #40]
 273              		.loc 1 424 0
 274 002c E162     		str	r1, [r4, #44]
 275              		.loc 1 429 0
 276 002e 42F4417C 		orr	ip, r2, #772
 277              		.loc 1 428 0
 278 0032 0020     		movs	r0, #0
 279              		.loc 1 431 0
ARM GAS  C:\Users\DNIEL~1\AppData\Local\Temp\ccTozYXj.s 			page 6


 280 0034 0721     		movs	r1, #7
 281              		.loc 1 428 0
 282 0036 1880     		strh	r0, [r3, #0]	@ movhi
 283              		.loc 1 429 0
 284 0038 A3F800C0 		strh	ip, [r3, #0]	@ movhi
 285              		.loc 1 431 0
 286 003c 9980     		strh	r1, [r3, #4]	@ movhi
 287              		.loc 1 432 0
 288 003e 1A88     		ldrh	r2, [r3, #0]
 289 0040 90B2     		uxth	r0, r2
 290 0042 40F0400C 		orr	ip, r0, #64
 291 0046 A3F800C0 		strh	ip, [r3, #0]	@ movhi
 292              		.loc 1 433 0
 293 004a 10BD     		pop	{r4, pc}
 294              	.L20:
 295              		.loc 1 311 0
 296 004c 0F49     		ldr	r1, .L22
 297 004e 8842     		cmp	r0, r1
 298 0050 09D0     		beq	.L21
 299              	.L16:
 300              		.loc 1 408 0
 301 0052 216A     		ldr	r1, [r4, #32]
 302              		.loc 1 409 0
 303 0054 626A     		ldr	r2, [r4, #36]
 304              		.loc 1 408 0
 305 0056 E369     		ldr	r3, [r4, #28]
 306 0058 0868     		ldr	r0, [r1, #0]
 307              		.loc 1 409 0
 308 005a 1168     		ldr	r1, [r2, #0]
 309              		.loc 1 408 0
 310 005c 03F10C02 		add	r2, r3, #12
 311 0060 8260     		str	r2, [r0, #8]
 312              		.loc 1 409 0
 313 0062 8A60     		str	r2, [r1, #8]
 314 0064 D2E7     		b	.L15
 315              	.L21:
 316              	.LBB3:
 317              		.loc 1 313 0
 318 0066 0346     		mov	r3, r0
 319 0068 0A21     		movs	r1, #10
 320 006a 094A     		ldr	r2, .L22+4
 321 006c 006A     		ldr	r0, [r0, #32]
 322 006e FFF7FEFF 		bl	dmaStreamAllocate
 323              		.loc 1 318 0
 324 0072 084A     		ldr	r2, .L22+8
 325 0074 2346     		mov	r3, r4
 326 0076 606A     		ldr	r0, [r4, #36]
 327 0078 0A21     		movs	r1, #10
 328 007a FFF7FEFF 		bl	dmaStreamAllocate
 329              		.loc 1 323 0
 330 007e 0648     		ldr	r0, .L22+12
 331 0080 8369     		ldr	r3, [r0, #24]
 332 0082 43F48052 		orr	r2, r3, #4096
 333 0086 8261     		str	r2, [r0, #24]
 334 0088 E3E7     		b	.L16
 335              	.L23:
 336 008a 00BF     		.align	2
ARM GAS  C:\Users\DNIEL~1\AppData\Local\Temp\ccTozYXj.s 			page 7


 337              	.L22:
 338 008c 00000000 		.word	.LANCHOR1
 339 0090 00000000 		.word	spi_lld_serve_rx_interrupt
 340 0094 00000000 		.word	spi_lld_serve_tx_interrupt
 341 0098 00100240 		.word	1073876992
 342              	.LBE3:
 343              		.cfi_endproc
 344              	.LFE59:
 345              		.size	spi_lld_start, .-spi_lld_start
 346 009c AFF30080 		.section	.text.spi_lld_stop,"ax",%progbits
 347              		.align	2
 348              		.p2align 4,,15
 349              		.global	spi_lld_stop
 350              		.thumb
 351              		.thumb_func
 352              		.type	spi_lld_stop, %function
 353              	spi_lld_stop:
 354              	.LFB60:
 355              		.loc 1 442 0
 356              		.cfi_startproc
 357              		@ args = 0, pretend = 0, frame = 0
 358              		@ frame_needed = 0, uses_anonymous_args = 0
 359              	.LVL9:
 360              		.loc 1 445 0
 361 0000 0378     		ldrb	r3, [r0, #0]	@ zero_extendqisi2
 362              		.loc 1 442 0
 363 0002 10B5     		push	{r4, lr}
 364              	.LCFI3:
 365              		.cfi_def_cfa_offset 8
 366              		.loc 1 445 0
 367 0004 022B     		cmp	r3, #2
 368              		.loc 1 442 0
 369 0006 0446     		mov	r4, r0
 370              		.cfi_offset 14, -4
 371              		.cfi_offset 4, -8
 372              		.loc 1 445 0
 373 0008 00D0     		beq	.L26
 374              	.LVL10:
 375              	.L24:
 376 000a 10BD     		pop	{r4, pc}
 377              	.L26:
 378              		.loc 1 448 0
 379 000c C169     		ldr	r1, [r0, #28]
 380 000e 0022     		movs	r2, #0
 381              		.loc 1 450 0
 382 0010 006A     		ldr	r0, [r0, #32]
 383              		.loc 1 448 0
 384 0012 0A80     		strh	r2, [r1, #0]	@ movhi
 385              		.loc 1 449 0
 386 0014 8A80     		strh	r2, [r1, #4]	@ movhi
 387              		.loc 1 450 0
 388 0016 FFF7FEFF 		bl	dmaStreamRelease
 389              		.loc 1 451 0
 390 001a 606A     		ldr	r0, [r4, #36]
 391 001c FFF7FEFF 		bl	dmaStreamRelease
 392              		.loc 1 454 0
 393 0020 0448     		ldr	r0, .L27
ARM GAS  C:\Users\DNIEL~1\AppData\Local\Temp\ccTozYXj.s 			page 8


 394 0022 8442     		cmp	r4, r0
 395 0024 F1D1     		bne	.L24
 396              		.loc 1 455 0
 397 0026 044B     		ldr	r3, .L27+4
 398 0028 9A69     		ldr	r2, [r3, #24]
 399 002a 22F48050 		bic	r0, r2, #4096
 400 002e 9861     		str	r0, [r3, #24]
 401 0030 EBE7     		b	.L24
 402              	.L28:
 403 0032 00BF     		.align	2
 404              	.L27:
 405 0034 00000000 		.word	.LANCHOR1
 406 0038 00100240 		.word	1073876992
 407              		.cfi_endproc
 408              	.LFE60:
 409              		.size	spi_lld_stop, .-spi_lld_stop
 410 003c AFF30080 		.section	.text.spi_lld_select,"ax",%progbits
 411              		.align	2
 412              		.p2align 4,,15
 413              		.global	spi_lld_select
 414              		.thumb
 415              		.thumb_func
 416              		.type	spi_lld_select, %function
 417              	spi_lld_select:
 418              	.LFB61:
 419              		.loc 1 487 0
 420              		.cfi_startproc
 421              		@ args = 0, pretend = 0, frame = 0
 422              		@ frame_needed = 0, uses_anonymous_args = 0
 423              		@ link register save eliminated.
 424              	.LVL11:
 425              		.loc 1 489 0
 426 0000 4268     		ldr	r2, [r0, #4]
 427 0002 0121     		movs	r1, #1
 428 0004 1089     		ldrh	r0, [r2, #8]
 429              	.LVL12:
 430 0006 5368     		ldr	r3, [r2, #4]
 431 0008 11FA00F2 		lsls	r2, r1, r0
 432 000c 5A61     		str	r2, [r3, #20]
 433              		.loc 1 490 0
 434 000e 7047     		bx	lr
 435              		.cfi_endproc
 436              	.LFE61:
 437              		.size	spi_lld_select, .-spi_lld_select
 438              		.section	.text.spi_lld_unselect,"ax",%progbits
 439              		.align	2
 440              		.p2align 4,,15
 441              		.global	spi_lld_unselect
 442              		.thumb
 443              		.thumb_func
 444              		.type	spi_lld_unselect, %function
 445              	spi_lld_unselect:
 446              	.LFB62:
 447              		.loc 1 500 0
 448              		.cfi_startproc
 449              		@ args = 0, pretend = 0, frame = 0
 450              		@ frame_needed = 0, uses_anonymous_args = 0
ARM GAS  C:\Users\DNIEL~1\AppData\Local\Temp\ccTozYXj.s 			page 9


 451              		@ link register save eliminated.
 452              	.LVL13:
 453              		.loc 1 502 0
 454 0000 4268     		ldr	r2, [r0, #4]
 455 0002 0121     		movs	r1, #1
 456 0004 1089     		ldrh	r0, [r2, #8]
 457              	.LVL14:
 458 0006 5368     		ldr	r3, [r2, #4]
 459 0008 11FA00F2 		lsls	r2, r1, r0
 460 000c 1A61     		str	r2, [r3, #16]
 461              		.loc 1 503 0
 462 000e 7047     		bx	lr
 463              		.cfi_endproc
 464              	.LFE62:
 465              		.size	spi_lld_unselect, .-spi_lld_unselect
 466              		.section	.text.spi_lld_ignore,"ax",%progbits
 467              		.align	2
 468              		.p2align 4,,15
 469              		.global	spi_lld_ignore
 470              		.thumb
 471              		.thumb_func
 472              		.type	spi_lld_ignore, %function
 473              	spi_lld_ignore:
 474              	.LFB63:
 475              		.loc 1 516 0
 476              		.cfi_startproc
 477              		@ args = 0, pretend = 0, frame = 0
 478              		@ frame_needed = 0, uses_anonymous_args = 0
 479              		@ link register save eliminated.
 480              	.LVL15:
 481              		.loc 1 518 0
 482 0000 036A     		ldr	r3, [r0, #32]
 483              		.loc 1 516 0
 484 0002 30B4     		push	{r4, r5}
 485              	.LCFI4:
 486              		.cfi_def_cfa_offset 8
 487              		.loc 1 522 0
 488 0004 456A     		ldr	r5, [r0, #36]
 489              		.cfi_offset 5, -4
 490              		.cfi_offset 4, -8
 491              		.loc 1 520 0
 492 0006 846A     		ldr	r4, [r0, #40]
 493              		.loc 1 518 0
 494 0008 1A68     		ldr	r2, [r3, #0]
 495              		.loc 1 522 0
 496 000a 2B68     		ldr	r3, [r5, #0]
 497              		.loc 1 518 0
 498 000c 094D     		ldr	r5, .L32
 499              		.loc 1 524 0
 500 000e C06A     		ldr	r0, [r0, #44]
 501              	.LVL16:
 502              		.loc 1 518 0
 503 0010 D560     		str	r5, [r2, #12]
 504              		.loc 1 519 0
 505 0012 5160     		str	r1, [r2, #4]
 506              		.loc 1 520 0
 507 0014 1460     		str	r4, [r2, #0]
ARM GAS  C:\Users\DNIEL~1\AppData\Local\Temp\ccTozYXj.s 			page 10


 508              		.loc 1 522 0
 509 0016 084C     		ldr	r4, .L32+4
 510 0018 DC60     		str	r4, [r3, #12]
 511              		.loc 1 523 0
 512 001a 5960     		str	r1, [r3, #4]
 513              		.loc 1 524 0
 514 001c 1860     		str	r0, [r3, #0]
 515              		.loc 1 526 0
 516 001e 1068     		ldr	r0, [r2, #0]
 517 0020 40F00101 		orr	r1, r0, #1
 518              	.LVL17:
 519 0024 1160     		str	r1, [r2, #0]
 520              		.loc 1 527 0
 521 0026 1868     		ldr	r0, [r3, #0]
 522 0028 40F00102 		orr	r2, r0, #1
 523              	.LVL18:
 524 002c 1A60     		str	r2, [r3, #0]
 525              		.loc 1 528 0
 526 002e 30BC     		pop	{r4, r5}
 527 0030 7047     		bx	lr
 528              	.L33:
 529 0032 00BF     		.align	2
 530              	.L32:
 531 0034 00000000 		.word	.LANCHOR2
 532 0038 00000000 		.word	.LANCHOR0
 533              		.cfi_endproc
 534              	.LFE63:
 535              		.size	spi_lld_ignore, .-spi_lld_ignore
 536 003c AFF30080 		.section	.text.spi_lld_exchange,"ax",%progbits
 537              		.align	2
 538              		.p2align 4,,15
 539              		.global	spi_lld_exchange
 540              		.thumb
 541              		.thumb_func
 542              		.type	spi_lld_exchange, %function
 543              	spi_lld_exchange:
 544              	.LFB64:
 545              		.loc 1 546 0
 546              		.cfi_startproc
 547              		@ args = 0, pretend = 0, frame = 0
 548              		@ frame_needed = 0, uses_anonymous_args = 0
 549              		@ link register save eliminated.
 550              	.LVL19:
 551 0000 F0B4     		push	{r4, r5, r6, r7}
 552              	.LCFI5:
 553              		.cfi_def_cfa_offset 16
 554              		.loc 1 548 0
 555 0002 046A     		ldr	r4, [r0, #32]
 556              		.cfi_offset 7, -4
 557              		.cfi_offset 6, -8
 558              		.cfi_offset 5, -12
 559              		.cfi_offset 4, -16
 560              		.loc 1 552 0
 561 0004 476A     		ldr	r7, [r0, #36]
 562              		.loc 1 550 0
 563 0006 866A     		ldr	r6, [r0, #40]
 564              		.loc 1 554 0
ARM GAS  C:\Users\DNIEL~1\AppData\Local\Temp\ccTozYXj.s 			page 11


 565 0008 C56A     		ldr	r5, [r0, #44]
 566              		.loc 1 548 0
 567 000a 2468     		ldr	r4, [r4, #0]
 568              		.loc 1 552 0
 569 000c 3868     		ldr	r0, [r7, #0]
 570              	.LVL20:
 571              		.loc 1 550 0
 572 000e 46F08006 		orr	r6, r6, #128
 573              		.loc 1 554 0
 574 0012 45F08005 		orr	r5, r5, #128
 575              		.loc 1 548 0
 576 0016 E360     		str	r3, [r4, #12]
 577              		.loc 1 549 0
 578 0018 6160     		str	r1, [r4, #4]
 579              		.loc 1 550 0
 580 001a 2660     		str	r6, [r4, #0]
 581              		.loc 1 552 0
 582 001c C260     		str	r2, [r0, #12]
 583              		.loc 1 553 0
 584 001e 4160     		str	r1, [r0, #4]
 585              		.loc 1 554 0
 586 0020 0560     		str	r5, [r0, #0]
 587              		.loc 1 556 0
 588 0022 2368     		ldr	r3, [r4, #0]
 589              	.LVL21:
 590 0024 43F00102 		orr	r2, r3, #1
 591              	.LVL22:
 592 0028 2260     		str	r2, [r4, #0]
 593              		.loc 1 557 0
 594 002a 0168     		ldr	r1, [r0, #0]
 595              	.LVL23:
 596 002c 41F00103 		orr	r3, r1, #1
 597 0030 0360     		str	r3, [r0, #0]
 598              		.loc 1 558 0
 599 0032 F0BC     		pop	{r4, r5, r6, r7}
 600 0034 7047     		bx	lr
 601              		.cfi_endproc
 602              	.LFE64:
 603              		.size	spi_lld_exchange, .-spi_lld_exchange
 604 0036 00BFAFF3 		.section	.text.spi_lld_send,"ax",%progbits
 604      0080AFF3 
 604      0080
 605              		.align	2
 606              		.p2align 4,,15
 607              		.global	spi_lld_send
 608              		.thumb
 609              		.thumb_func
 610              		.type	spi_lld_send, %function
 611              	spi_lld_send:
 612              	.LFB65:
 613              		.loc 1 573 0
 614              		.cfi_startproc
 615              		@ args = 0, pretend = 0, frame = 0
 616              		@ frame_needed = 0, uses_anonymous_args = 0
 617              		@ link register save eliminated.
 618              	.LVL24:
 619 0000 70B4     		push	{r4, r5, r6}
ARM GAS  C:\Users\DNIEL~1\AppData\Local\Temp\ccTozYXj.s 			page 12


 620              	.LCFI6:
 621              		.cfi_def_cfa_offset 12
 622              		.loc 1 579 0
 623 0002 466A     		ldr	r6, [r0, #36]
 624              		.cfi_offset 6, -4
 625              		.cfi_offset 5, -8
 626              		.cfi_offset 4, -12
 627              		.loc 1 575 0
 628 0004 046A     		ldr	r4, [r0, #32]
 629              		.loc 1 581 0
 630 0006 C56A     		ldr	r5, [r0, #44]
 631              		.loc 1 579 0
 632 0008 3368     		ldr	r3, [r6, #0]
 633              		.loc 1 575 0
 634 000a 2468     		ldr	r4, [r4, #0]
 635              		.loc 1 577 0
 636 000c 806A     		ldr	r0, [r0, #40]
 637              	.LVL25:
 638              		.loc 1 575 0
 639 000e 094E     		ldr	r6, .L36
 640              		.loc 1 581 0
 641 0010 45F08005 		orr	r5, r5, #128
 642              		.loc 1 575 0
 643 0014 E660     		str	r6, [r4, #12]
 644              		.loc 1 576 0
 645 0016 6160     		str	r1, [r4, #4]
 646              		.loc 1 577 0
 647 0018 2060     		str	r0, [r4, #0]
 648              		.loc 1 579 0
 649 001a DA60     		str	r2, [r3, #12]
 650              		.loc 1 580 0
 651 001c 5960     		str	r1, [r3, #4]
 652              		.loc 1 581 0
 653 001e 1D60     		str	r5, [r3, #0]
 654              		.loc 1 583 0
 655 0020 2268     		ldr	r2, [r4, #0]
 656              	.LVL26:
 657 0022 42F00101 		orr	r1, r2, #1
 658              	.LVL27:
 659 0026 2160     		str	r1, [r4, #0]
 660              		.loc 1 584 0
 661 0028 1868     		ldr	r0, [r3, #0]
 662 002a 40F00102 		orr	r2, r0, #1
 663 002e 1A60     		str	r2, [r3, #0]
 664              		.loc 1 585 0
 665 0030 70BC     		pop	{r4, r5, r6}
 666 0032 7047     		bx	lr
 667              	.L37:
 668              		.align	2
 669              	.L36:
 670 0034 00000000 		.word	.LANCHOR2
 671              		.cfi_endproc
 672              	.LFE65:
 673              		.size	spi_lld_send, .-spi_lld_send
 674 0038 AFF30080 		.section	.text.spi_lld_receive,"ax",%progbits
 674      AFF30080 
 675              		.align	2
ARM GAS  C:\Users\DNIEL~1\AppData\Local\Temp\ccTozYXj.s 			page 13


 676              		.p2align 4,,15
 677              		.global	spi_lld_receive
 678              		.thumb
 679              		.thumb_func
 680              		.type	spi_lld_receive, %function
 681              	spi_lld_receive:
 682              	.LFB66:
 683              		.loc 1 600 0
 684              		.cfi_startproc
 685              		@ args = 0, pretend = 0, frame = 0
 686              		@ frame_needed = 0, uses_anonymous_args = 0
 687              		@ link register save eliminated.
 688              	.LVL28:
 689 0000 30B4     		push	{r4, r5}
 690              	.LCFI7:
 691              		.cfi_def_cfa_offset 8
 692              		.loc 1 602 0
 693 0002 046A     		ldr	r4, [r0, #32]
 694              		.cfi_offset 5, -4
 695              		.cfi_offset 4, -8
 696              		.loc 1 606 0
 697 0004 436A     		ldr	r3, [r0, #36]
 698              		.loc 1 602 0
 699 0006 2468     		ldr	r4, [r4, #0]
 700              		.loc 1 604 0
 701 0008 856A     		ldr	r5, [r0, #40]
 702              		.loc 1 606 0
 703 000a 1B68     		ldr	r3, [r3, #0]
 704              		.loc 1 608 0
 705 000c C06A     		ldr	r0, [r0, #44]
 706              	.LVL29:
 707              		.loc 1 602 0
 708 000e E260     		str	r2, [r4, #12]
 709              		.loc 1 606 0
 710 0010 084A     		ldr	r2, .L39
 711              	.LVL30:
 712              		.loc 1 604 0
 713 0012 45F08005 		orr	r5, r5, #128
 714              		.loc 1 603 0
 715 0016 6160     		str	r1, [r4, #4]
 716              		.loc 1 604 0
 717 0018 2560     		str	r5, [r4, #0]
 718              		.loc 1 606 0
 719 001a DA60     		str	r2, [r3, #12]
 720              		.loc 1 607 0
 721 001c 5960     		str	r1, [r3, #4]
 722              		.loc 1 608 0
 723 001e 1860     		str	r0, [r3, #0]
 724              		.loc 1 610 0
 725 0020 2268     		ldr	r2, [r4, #0]
 726 0022 42F00101 		orr	r1, r2, #1
 727              	.LVL31:
 728 0026 2160     		str	r1, [r4, #0]
 729              		.loc 1 611 0
 730 0028 1868     		ldr	r0, [r3, #0]
 731 002a 40F00102 		orr	r2, r0, #1
 732 002e 1A60     		str	r2, [r3, #0]
ARM GAS  C:\Users\DNIEL~1\AppData\Local\Temp\ccTozYXj.s 			page 14


 733              		.loc 1 612 0
 734 0030 30BC     		pop	{r4, r5}
 735 0032 7047     		bx	lr
 736              	.L40:
 737              		.align	2
 738              	.L39:
 739 0034 00000000 		.word	.LANCHOR0
 740              		.cfi_endproc
 741              	.LFE66:
 742              		.size	spi_lld_receive, .-spi_lld_receive
 743 0038 AFF30080 		.section	.text.spi_lld_polled_exchange,"ax",%progbits
 743      AFF30080 
 744              		.align	2
 745              		.p2align 4,,15
 746              		.global	spi_lld_polled_exchange
 747              		.thumb
 748              		.thumb_func
 749              		.type	spi_lld_polled_exchange, %function
 750              	spi_lld_polled_exchange:
 751              	.LFB67:
 752              		.loc 1 626 0
 753              		.cfi_startproc
 754              		@ args = 0, pretend = 0, frame = 0
 755              		@ frame_needed = 0, uses_anonymous_args = 0
 756              		@ link register save eliminated.
 757              	.LVL32:
 758              		.loc 1 628 0
 759 0000 C369     		ldr	r3, [r0, #28]
 760 0002 9981     		strh	r1, [r3, #12]	@ movhi
 761              	.L42:
 762              		.loc 1 629 0 discriminator 1
 763 0004 1A89     		ldrh	r2, [r3, #8]
 764 0006 12F0010F 		tst	r2, #1
 765 000a FBD0     		beq	.L42
 766              		.loc 1 631 0
 767 000c 9889     		ldrh	r0, [r3, #12]
 768              	.LVL33:
 769              		.loc 1 632 0
 770 000e 80B2     		uxth	r0, r0
 771 0010 7047     		bx	lr
 772              		.cfi_endproc
 773              	.LFE67:
 774              		.size	spi_lld_polled_exchange, .-spi_lld_polled_exchange
 775              		.global	SPID1
 776 0012 00BFAFF3 		.section	.bss.dummytx,"aw",%nobits
 776      0080AFF3 
 776      0080AFF3 
 776      0080
 777              		.align	1
 778              		.set	.LANCHOR0,. + 0
 779              		.type	dummytx, %object
 780              		.size	dummytx, 2
 781              	dummytx:
 782 0000 0000     		.space	2
 783              		.section	.bss.SPID1,"aw",%nobits
 784              		.align	2
 785              		.set	.LANCHOR1,. + 0
ARM GAS  C:\Users\DNIEL~1\AppData\Local\Temp\ccTozYXj.s 			page 15


 786              		.type	SPID1, %object
 787              		.size	SPID1, 48
 788              	SPID1:
 789 0000 00000000 		.space	48
 789      00000000 
 789      00000000 
 789      00000000 
 789      00000000 
 790              		.section	.bss.dummyrx,"aw",%nobits
 791              		.align	1
 792              		.set	.LANCHOR2,. + 0
 793              		.type	dummyrx, %object
 794              		.size	dummyrx, 2
 795              	dummyrx:
 796 0000 0000     		.space	2
 797              		.text
 798              	.Letext0: