ARM GAS  C:\Users\DNIEL~1\AppData\Local\Temp\cc0CNsVc.s 			page 1


   1              		.syntax unified
   2              		.cpu cortex-m3
   3              		.fpu softvfp
   4              		.eabi_attribute 20, 1
   5              		.eabi_attribute 21, 1
   6              		.eabi_attribute 23, 3
   7              		.eabi_attribute 24, 1
   8              		.eabi_attribute 25, 1
   9              		.eabi_attribute 26, 1
  10              		.eabi_attribute 30, 2
  11              		.eabi_attribute 18, 4
  12              		.thumb
  13              		.file	"spi_comm.c"
  20 0000 7B030000 		.text
  20      0200D302 
  20      00000201 
  20      FB0E0D00 
  20      01010101 
  21              	.Ltext0:
  22              		.cfi_sections	.debug_frame
  23              		.section	.text.SPISendData,"ax",%progbits
  24              		.align	2
  25              		.p2align 4,,15
  26              		.global	SPISendData
  27              		.thumb
  28              		.thumb_func
  29              		.type	SPISendData, %function
  30              	SPISendData:
  31              	.LFB62:
  32              		.file 1 "src/spi_comm.c"
  33              		.loc 1 90 0
  34              		.cfi_startproc
  35              		@ args = 0, pretend = 0, frame = 0
  36              		@ frame_needed = 0, uses_anonymous_args = 0
  37              	.LVL0:
  38 0000 F8B5     		push	{r3, r4, r5, r6, r7, lr}
  39              	.LCFI0:
  40              		.cfi_def_cfa_offset 24
  41              		.loc 1 92 0
  42 0002 124C     		ldr	r4, .L2
  43              		.cfi_offset 14, -4
  44              		.cfi_offset 7, -8
  45              		.cfi_offset 6, -12
  46              		.cfi_offset 5, -16
  47              		.cfi_offset 4, -20
  48              		.cfi_offset 3, -24
  49              		.loc 1 90 0
  50 0004 0646     		mov	r6, r0
  51              		.loc 1 92 0
  52 0006 2046     		mov	r0, r4
  53              	.LVL1:
ARM GAS  C:\Users\DNIEL~1\AppData\Local\Temp\cc0CNsVc.s 			page 2


  54              		.loc 1 90 0
  55 0008 1746     		mov	r7, r2
  56 000a 0D46     		mov	r5, r1
  57              		.loc 1 92 0
  58 000c FFF7FEFF 		bl	spiAcquireBus
  59              	.LVL2:
  60              		.loc 1 93 0
  61 0010 2046     		mov	r0, r4
  62 0012 0F49     		ldr	r1, .L2+4
  63 0014 FFF7FEFF 		bl	spiStart
  64              		.loc 1 94 0
  65 0018 2046     		mov	r0, r4
  66 001a FFF7FEFF 		bl	spiSelect
  67              		.loc 1 96 0
  68 001e 2046     		mov	r0, r4
  69 0020 3946     		mov	r1, r7
  70 0022 3246     		mov	r2, r6
  71 0024 FFF7FEFF 		bl	spiSend
  72              		.loc 1 97 0
  73 0028 0221     		movs	r1, #2
  74 002a 0A4A     		ldr	r2, .L2+8
  75 002c 2B46     		mov	r3, r5
  76 002e 2046     		mov	r0, r4
  77 0030 FFF7FEFF 		bl	spiExchange
  78              		.loc 1 99 0
  79 0034 2046     		mov	r0, r4
  80 0036 FFF7FEFF 		bl	spiUnselect
  81              		.loc 1 100 0
  82 003a 2046     		mov	r0, r4
  83 003c FFF7FEFF 		bl	spiStop
  84              		.loc 1 101 0
  85 0040 2046     		mov	r0, r4
  86 0042 FFF7FEFF 		bl	spiReleaseBus
  87              		.loc 1 104 0
  88 0046 0020     		movs	r0, #0
  89 0048 F8BD     		pop	{r3, r4, r5, r6, r7, pc}
  90              	.L3:
  91 004a 00BF     		.align	2
  92              	.L2:
  93 004c 00000000 		.word	SPID1
  94 0050 00000000 		.word	.LANCHOR0
  95 0054 00000000 		.word	.LANCHOR1
  96              		.cfi_endproc
  97              	.LFE62:
  98              		.size	SPISendData, .-SPISendData
  99 0058 AFF30080 		.section	.text.SPV1020CURR_IN,"ax",%progbits
  99      AFF30080 
 100              		.align	2
 101              		.p2align 4,,15
 102              		.global	SPV1020CURR_IN
 103              		.thumb
 104              		.thumb_func
 105              		.type	SPV1020CURR_IN, %function
 106              	SPV1020CURR_IN:
 107              	.LFB61:
 108              		.loc 1 80 0
 109              		.cfi_startproc
ARM GAS  C:\Users\DNIEL~1\AppData\Local\Temp\cc0CNsVc.s 			page 3


 110              		@ args = 0, pretend = 0, frame = 8
 111              		@ frame_needed = 0, uses_anonymous_args = 0
 112 0000 00B5     		push	{lr}
 113              	.LCFI1:
 114              		.cfi_def_cfa_offset 4
 115 0002 83B0     		sub	sp, sp, #12
 116              	.LCFI2:
 117              		.cfi_def_cfa_offset 16
 118              		.loc 1 83 0
 119 0004 02A8     		add	r0, sp, #8
 120 0006 0423     		movs	r3, #4
 121 0008 20F8043D 		strh	r3, [r0, #-4]!	@ movhi
 122              	.LVL3:
 123              		.loc 1 85 0
 124 000c 0DF10601 		add	r1, sp, #6
 125 0010 0122     		movs	r2, #1
 126              		.cfi_offset 14, -4
 127 0012 FFF7FEFF 		bl	SPISendData
 128              	.LVL4:
 129              		.loc 1 88 0
 130 0016 BDF80600 		ldrh	r0, [sp, #6]
 131 001a 03B0     		add	sp, sp, #12
 132 001c 00BD     		pop	{pc}
 133              		.cfi_endproc
 134              	.LFE61:
 135              		.size	SPV1020CURR_IN, .-SPV1020CURR_IN
 136 001e 00BF     		.section	.text.SPV1020PWM,"ax",%progbits
 137              		.align	2
 138              		.p2align 4,,15
 139              		.global	SPV1020PWM
 140              		.thumb
 141              		.thumb_func
 142              		.type	SPV1020PWM, %function
 143              	SPV1020PWM:
 144              	.LFB60:
 145              		.loc 1 70 0
 146              		.cfi_startproc
 147              		@ args = 0, pretend = 0, frame = 8
 148              		@ frame_needed = 0, uses_anonymous_args = 0
 149 0000 00B5     		push	{lr}
 150              	.LCFI3:
 151              		.cfi_def_cfa_offset 4
 152 0002 83B0     		sub	sp, sp, #12
 153              	.LCFI4:
 154              		.cfi_def_cfa_offset 16
 155              		.loc 1 73 0
 156 0004 02A8     		add	r0, sp, #8
 157 0006 0623     		movs	r3, #6
 158 0008 20F8043D 		strh	r3, [r0, #-4]!	@ movhi
 159              	.LVL5:
 160              		.loc 1 75 0
 161 000c 0DF10601 		add	r1, sp, #6
 162 0010 0122     		movs	r2, #1
 163              		.cfi_offset 14, -4
 164 0012 FFF7FEFF 		bl	SPISendData
 165              	.LVL6:
 166              		.loc 1 78 0
ARM GAS  C:\Users\DNIEL~1\AppData\Local\Temp\cc0CNsVc.s 			page 4


 167 0016 BDF80600 		ldrh	r0, [sp, #6]
 168 001a 03B0     		add	sp, sp, #12
 169 001c 00BD     		pop	{pc}
 170              		.cfi_endproc
 171              	.LFE60:
 172              		.size	SPV1020PWM, .-SPV1020PWM
 173 001e 00BF     		.section	.text.SPV1020STATUS,"ax",%progbits
 174              		.align	2
 175              		.p2align 4,,15
 176              		.global	SPV1020STATUS
 177              		.thumb
 178              		.thumb_func
 179              		.type	SPV1020STATUS, %function
 180              	SPV1020STATUS:
 181              	.LFB59:
 182              		.loc 1 60 0
 183              		.cfi_startproc
 184              		@ args = 0, pretend = 0, frame = 8
 185              		@ frame_needed = 0, uses_anonymous_args = 0
 186 0000 00B5     		push	{lr}
 187              	.LCFI5:
 188              		.cfi_def_cfa_offset 4
 189 0002 83B0     		sub	sp, sp, #12
 190              	.LCFI6:
 191              		.cfi_def_cfa_offset 16
 192              		.loc 1 63 0
 193 0004 02A8     		add	r0, sp, #8
 194 0006 0723     		movs	r3, #7
 195 0008 20F8043D 		strh	r3, [r0, #-4]!	@ movhi
 196              	.LVL7:
 197              		.loc 1 65 0
 198 000c 0DF10601 		add	r1, sp, #6
 199 0010 0122     		movs	r2, #1
 200              		.cfi_offset 14, -4
 201 0012 FFF7FEFF 		bl	SPISendData
 202              	.LVL8:
 203              		.loc 1 68 0
 204 0016 BDF80600 		ldrh	r0, [sp, #6]
 205 001a 03B0     		add	sp, sp, #12
 206 001c 00BD     		pop	{pc}
 207              		.cfi_endproc
 208              	.LFE59:
 209              		.size	SPV1020STATUS, .-SPV1020STATUS
 210 001e 00BF     		.section	.text.SPV1020VIN,"ax",%progbits
 211              		.align	2
 212              		.p2align 4,,15
 213              		.global	SPV1020VIN
 214              		.thumb
 215              		.thumb_func
 216              		.type	SPV1020VIN, %function
 217              	SPV1020VIN:
 218              	.LFB58:
 219              		.loc 1 50 0
 220              		.cfi_startproc
 221              		@ args = 0, pretend = 0, frame = 8
 222              		@ frame_needed = 0, uses_anonymous_args = 0
 223 0000 00B5     		push	{lr}
ARM GAS  C:\Users\DNIEL~1\AppData\Local\Temp\cc0CNsVc.s 			page 5


 224              	.LCFI7:
 225              		.cfi_def_cfa_offset 4
 226 0002 83B0     		sub	sp, sp, #12
 227              	.LCFI8:
 228              		.cfi_def_cfa_offset 16
 229              		.loc 1 53 0
 230 0004 02A8     		add	r0, sp, #8
 231 0006 0523     		movs	r3, #5
 232 0008 20F8043D 		strh	r3, [r0, #-4]!	@ movhi
 233              	.LVL9:
 234              		.loc 1 55 0
 235 000c 0DF10601 		add	r1, sp, #6
 236 0010 0122     		movs	r2, #1
 237              		.cfi_offset 14, -4
 238 0012 FFF7FEFF 		bl	SPISendData
 239              	.LVL10:
 240              		.loc 1 58 0
 241 0016 BDF80600 		ldrh	r0, [sp, #6]
 242 001a 03B0     		add	sp, sp, #12
 243 001c 00BD     		pop	{pc}
 244              		.cfi_endproc
 245              	.LFE58:
 246              		.size	SPV1020VIN, .-SPV1020VIN
 247 001e 00BF     		.section	.text.SPV1020TURN_ON,"ax",%progbits
 248              		.align	2
 249              		.p2align 4,,15
 250              		.global	SPV1020TURN_ON
 251              		.thumb
 252              		.thumb_func
 253              		.type	SPV1020TURN_ON, %function
 254              	SPV1020TURN_ON:
 255              	.LFB57:
 256              		.loc 1 40 0
 257              		.cfi_startproc
 258              		@ args = 0, pretend = 0, frame = 8
 259              		@ frame_needed = 0, uses_anonymous_args = 0
 260 0000 00B5     		push	{lr}
 261              	.LCFI9:
 262              		.cfi_def_cfa_offset 4
 263 0002 83B0     		sub	sp, sp, #12
 264              	.LCFI10:
 265              		.cfi_def_cfa_offset 16
 266              		.loc 1 43 0
 267 0004 02A8     		add	r0, sp, #8
 268 0006 0323     		movs	r3, #3
 269 0008 20F8043D 		strh	r3, [r0, #-4]!	@ movhi
 270              	.LVL11:
 271              		.loc 1 45 0
 272 000c 0DF10601 		add	r1, sp, #6
 273 0010 0122     		movs	r2, #1
 274              		.cfi_offset 14, -4
 275 0012 FFF7FEFF 		bl	SPISendData
 276              	.LVL12:
 277              		.loc 1 48 0
 278 0016 BDF80600 		ldrh	r0, [sp, #6]
 279 001a 03B0     		add	sp, sp, #12
 280 001c 00BD     		pop	{pc}
ARM GAS  C:\Users\DNIEL~1\AppData\Local\Temp\cc0CNsVc.s 			page 6


 281              		.cfi_endproc
 282              	.LFE57:
 283              		.size	SPV1020TURN_ON, .-SPV1020TURN_ON
 284 001e 00BF     		.section	.text.SPV1020SHUT_DOWN,"ax",%progbits
 285              		.align	2
 286              		.p2align 4,,15
 287              		.global	SPV1020SHUT_DOWN
 288              		.thumb
 289              		.thumb_func
 290              		.type	SPV1020SHUT_DOWN, %function
 291              	SPV1020SHUT_DOWN:
 292              	.LFB56:
 293              		.loc 1 30 0
 294              		.cfi_startproc
 295              		@ args = 0, pretend = 0, frame = 8
 296              		@ frame_needed = 0, uses_anonymous_args = 0
 297 0000 00B5     		push	{lr}
 298              	.LCFI11:
 299              		.cfi_def_cfa_offset 4
 300 0002 83B0     		sub	sp, sp, #12
 301              	.LCFI12:
 302              		.cfi_def_cfa_offset 16
 303              		.loc 1 33 0
 304 0004 02A8     		add	r0, sp, #8
 305 0006 0223     		movs	r3, #2
 306 0008 20F8043D 		strh	r3, [r0, #-4]!	@ movhi
 307              	.LVL13:
 308              		.loc 1 35 0
 309 000c 0DF10601 		add	r1, sp, #6
 310 0010 0122     		movs	r2, #1
 311              		.cfi_offset 14, -4
 312 0012 FFF7FEFF 		bl	SPISendData
 313              	.LVL14:
 314              		.loc 1 38 0
 315 0016 BDF80600 		ldrh	r0, [sp, #6]
 316 001a 03B0     		add	sp, sp, #12
 317 001c 00BD     		pop	{pc}
 318              		.cfi_endproc
 319              	.LFE56:
 320              		.size	SPV1020SHUT_DOWN, .-SPV1020SHUT_DOWN
 321 001e 00BF     		.section	.text.spi_commInit,"ax",%progbits
 322              		.align	2
 323              		.p2align 4,,15
 324              		.global	spi_commInit
 325              		.thumb
 326              		.thumb_func
 327              		.type	spi_commInit, %function
 328              	spi_commInit:
 329              	.LFB63:
 330              		.loc 1 106 0
 331              		.cfi_startproc
 332              		@ args = 0, pretend = 0, frame = 8
 333              		@ frame_needed = 0, uses_anonymous_args = 0
 334 0000 10B5     		push	{r4, lr}
 335              	.LCFI13:
 336              		.cfi_def_cfa_offset 8
 337 0002 82B0     		sub	sp, sp, #8
ARM GAS  C:\Users\DNIEL~1\AppData\Local\Temp\cc0CNsVc.s 			page 7


 338              	.LCFI14:
 339              		.cfi_def_cfa_offset 16
 340              		.loc 1 111 0
 341 0004 0123     		movs	r3, #1
 342 0006 064C     		ldr	r4, .L11
 343              		.cfi_offset 14, -4
 344              		.cfi_offset 4, -8
 345              		.loc 1 109 0
 346 0008 0322     		movs	r2, #3
 347 000a 02A8     		add	r0, sp, #8
 348 000c 40F8042D 		str	r2, [r0, #-4]!
 349              	.LVL15:
 350              		.loc 1 114 0
 351 0010 6946     		mov	r1, sp
 352 0012 1A46     		mov	r2, r3
 353              		.loc 1 111 0
 354 0014 2370     		strb	r3, [r4, #0]
 355              		.loc 1 112 0
 356 0016 6370     		strb	r3, [r4, #1]
 357              		.loc 1 114 0
 358 0018 FFF7FEFF 		bl	SPISendData
 359              		.loc 1 115 0
 360 001c 02B0     		add	sp, sp, #8
 361 001e 10BD     		pop	{r4, pc}
 362              	.L12:
 363              		.align	2
 364              	.L11:
 365 0020 00000000 		.word	.LANCHOR1
 366              		.cfi_endproc
 367              	.LFE63:
 368              		.size	spi_commInit, .-spi_commInit
 369 0024 AFF30080 		.section	.bss.txbuf_nop,"aw",%nobits
 369      AFF30080 
 369      AFF30080 
 370              		.align	2
 371              		.set	.LANCHOR1,. + 0
 372              		.type	txbuf_nop, %object
 373              		.size	txbuf_nop, 2
 374              	txbuf_nop:
 375 0000 0000     		.space	2
 376 0002 0000     		.section	.rodata.ls_spicfg_cs1,"a",%progbits
 377              		.align	2
 378              		.set	.LANCHOR0,. + 0
 379              		.type	ls_spicfg_cs1, %object
 380              		.size	ls_spicfg_cs1, 12
 381              	ls_spicfg_cs1:
 382 0000 00000000 		.word	0
 383 0004 00080140 		.word	1073809408
 384 0008 0A00     		.short	10
 385 000a 3000     		.short	48
 386              		.text
 387              	.Letext0: