ARM GAS  C:\Users\DNIEL~1\AppData\Local\Temp\cchk3wop.s 			page 1


   1              		.syntax unified
   2              		.cpu cortex-m3
   3              		.fpu softvfp
   4              		.eabi_attribute 20, 1
   5              		.eabi_attribute 21, 1
   6              		.eabi_attribute 23, 3
   7              		.eabi_attribute 24, 1
   8              		.eabi_attribute 25, 1
   9              		.eabi_attribute 26, 1
  10              		.eabi_attribute 30, 2
  11              		.eabi_attribute 18, 4
  12              		.thumb
  13              		.file	"stm32_dma.c"
  20 0000 A0020000 		.text
  20      02006901 
  20      00000201 
  20      FB0E0D00 
  20      01010101 
  21              	.Ltext0:
  22              		.cfi_sections	.debug_frame
  23              		.section	.text.Vector6C,"ax",%progbits
  24              		.align	2
  25              		.p2align 4,,15
  26              		.global	Vector6C
  27              		.thumb
  28              		.thumb_func
  29              		.type	Vector6C, %function
  30              	Vector6C:
  31              	.LFB56:
  32              		.file 1 "../../../ChibiOS/os/hal/platforms/STM32F1xx/stm32_dma.c"
  33              		.loc 1 130 0
  34              		.cfi_startproc
  35              		@ args = 0, pretend = 0, frame = 0
  36              		@ frame_needed = 0, uses_anonymous_args = 0
  37              		.loc 1 137 0
  38 0000 0748     		ldr	r0, .L4
  39              		.loc 1 135 0
  40 0002 084A     		ldr	r2, .L4+4
  41              		.loc 1 137 0
  42 0004 0368     		ldr	r3, [r0, #0]
  43              		.loc 1 130 0
  44 0006 10B5     		push	{r4, lr}
  45              	.LCFI0:
  46              		.cfi_def_cfa_offset 8
  47              		.loc 1 136 0
  48 0008 0F24     		movs	r4, #15
  49              		.cfi_offset 14, -4
  50              		.cfi_offset 4, -8
  51              		.loc 1 135 0
  52 000a 1168     		ldr	r1, [r2, #0]
  53              	.LVL0:
ARM GAS  C:\Users\DNIEL~1\AppData\Local\Temp\cchk3wop.s 			page 2


  54              		.loc 1 136 0
  55 000c 5460     		str	r4, [r2, #4]
  56              		.loc 1 137 0
  57 000e 13B1     		cbz	r3, .L2
  58              		.loc 1 138 0
  59 0010 4068     		ldr	r0, [r0, #4]
  60 0012 2140     		ands	r1, r1, r4
  61              	.LVL1:
  62 0014 9847     		blx	r3
  63              	.LVL2:
  64              	.L2:
  65              		.loc 1 141 0
  66 0016 BDE81040 		pop	{r4, lr}
  67              		.loc 1 140 0
  68 001a FFF7FEBF 		b	_port_irq_epilogue
  69              	.L5:
  70 001e 00BF     		.align	2
  71              	.L4:
  72 0020 00000000 		.word	.LANCHOR0
  73 0024 00000240 		.word	1073872896
  74              		.cfi_endproc
  75              	.LFE56:
  76              		.size	Vector6C, .-Vector6C
  77 0028 AFF30080 		.section	.text.Vector70,"ax",%progbits
  77      AFF30080 
  78              		.align	2
  79              		.p2align 4,,15
  80              		.global	Vector70
  81              		.thumb
  82              		.thumb_func
  83              		.type	Vector70, %function
  84              	Vector70:
  85              	.LFB57:
  86              		.loc 1 148 0
  87              		.cfi_startproc
  88              		@ args = 0, pretend = 0, frame = 0
  89              		@ frame_needed = 0, uses_anonymous_args = 0
  90              		.loc 1 155 0
  91 0000 0748     		ldr	r0, .L8
  92              		.loc 1 153 0
  93 0002 084A     		ldr	r2, .L8+4
  94              		.loc 1 155 0
  95 0004 8368     		ldr	r3, [r0, #8]
  96              		.loc 1 148 0
  97 0006 10B5     		push	{r4, lr}
  98              	.LCFI1:
  99              		.cfi_def_cfa_offset 8
 100              		.loc 1 154 0
 101 0008 F024     		movs	r4, #240
 102              		.cfi_offset 14, -4
 103              		.cfi_offset 4, -8
 104              		.loc 1 153 0
 105 000a 1168     		ldr	r1, [r2, #0]
 106              	.LVL3:
 107              		.loc 1 154 0
 108 000c 5460     		str	r4, [r2, #4]
 109              		.loc 1 155 0
ARM GAS  C:\Users\DNIEL~1\AppData\Local\Temp\cchk3wop.s 			page 3


 110 000e 1BB1     		cbz	r3, .L7
 111              		.loc 1 156 0
 112 0010 C068     		ldr	r0, [r0, #12]
 113 0012 C1F30311 		ubfx	r1, r1, #4, #4
 114              	.LVL4:
 115 0016 9847     		blx	r3
 116              	.L7:
 117              		.loc 1 159 0
 118 0018 BDE81040 		pop	{r4, lr}
 119              		.loc 1 158 0
 120 001c FFF7FEBF 		b	_port_irq_epilogue
 121              	.L9:
 122              		.align	2
 123              	.L8:
 124 0020 00000000 		.word	.LANCHOR0
 125 0024 00000240 		.word	1073872896
 126              		.cfi_endproc
 127              	.LFE57:
 128              		.size	Vector70, .-Vector70
 129 0028 AFF30080 		.section	.text.Vector74,"ax",%progbits
 129      AFF30080 
 130              		.align	2
 131              		.p2align 4,,15
 132              		.global	Vector74
 133              		.thumb
 134              		.thumb_func
 135              		.type	Vector74, %function
 136              	Vector74:
 137              	.LFB58:
 138              		.loc 1 166 0
 139              		.cfi_startproc
 140              		@ args = 0, pretend = 0, frame = 0
 141              		@ frame_needed = 0, uses_anonymous_args = 0
 142              		.loc 1 173 0
 143 0000 0848     		ldr	r0, .L12
 144              		.loc 1 171 0
 145 0002 094A     		ldr	r2, .L12+4
 146              		.loc 1 173 0
 147 0004 0369     		ldr	r3, [r0, #16]
 148              		.loc 1 166 0
 149 0006 10B5     		push	{r4, lr}
 150              	.LCFI2:
 151              		.cfi_def_cfa_offset 8
 152              		.loc 1 172 0
 153 0008 4FF47064 		mov	r4, #3840
 154              		.cfi_offset 14, -4
 155              		.cfi_offset 4, -8
 156              		.loc 1 171 0
 157 000c 1168     		ldr	r1, [r2, #0]
 158              	.LVL5:
 159              		.loc 1 172 0
 160 000e 5460     		str	r4, [r2, #4]
 161              		.loc 1 173 0
 162 0010 1BB1     		cbz	r3, .L11
 163              		.loc 1 174 0
 164 0012 4069     		ldr	r0, [r0, #20]
 165 0014 C1F30321 		ubfx	r1, r1, #8, #4
ARM GAS  C:\Users\DNIEL~1\AppData\Local\Temp\cchk3wop.s 			page 4


 166              	.LVL6:
 167 0018 9847     		blx	r3
 168              	.L11:
 169              		.loc 1 177 0
 170 001a BDE81040 		pop	{r4, lr}
 171              		.loc 1 176 0
 172 001e FFF7FEBF 		b	_port_irq_epilogue
 173              	.L13:
 174 0022 00BF     		.align	2
 175              	.L12:
 176 0024 00000000 		.word	.LANCHOR0
 177 0028 00000240 		.word	1073872896
 178              		.cfi_endproc
 179              	.LFE58:
 180              		.size	Vector74, .-Vector74
 181 002c AFF30080 		.section	.text.Vector78,"ax",%progbits
 182              		.align	2
 183              		.p2align 4,,15
 184              		.global	Vector78
 185              		.thumb
 186              		.thumb_func
 187              		.type	Vector78, %function
 188              	Vector78:
 189              	.LFB59:
 190              		.loc 1 184 0
 191              		.cfi_startproc
 192              		@ args = 0, pretend = 0, frame = 0
 193              		@ frame_needed = 0, uses_anonymous_args = 0
 194              		.loc 1 191 0
 195 0000 0848     		ldr	r0, .L16
 196              		.loc 1 189 0
 197 0002 094A     		ldr	r2, .L16+4
 198              		.loc 1 191 0
 199 0004 8369     		ldr	r3, [r0, #24]
 200              		.loc 1 184 0
 201 0006 10B5     		push	{r4, lr}
 202              	.LCFI3:
 203              		.cfi_def_cfa_offset 8
 204              		.loc 1 190 0
 205 0008 4FF47044 		mov	r4, #61440
 206              		.cfi_offset 14, -4
 207              		.cfi_offset 4, -8
 208              		.loc 1 189 0
 209 000c 1168     		ldr	r1, [r2, #0]
 210              	.LVL7:
 211              		.loc 1 190 0
 212 000e 5460     		str	r4, [r2, #4]
 213              		.loc 1 191 0
 214 0010 1BB1     		cbz	r3, .L15
 215              		.loc 1 192 0
 216 0012 C069     		ldr	r0, [r0, #28]
 217 0014 C1F30331 		ubfx	r1, r1, #12, #4
 218              	.LVL8:
 219 0018 9847     		blx	r3
 220              	.L15:
 221              		.loc 1 195 0
 222 001a BDE81040 		pop	{r4, lr}
ARM GAS  C:\Users\DNIEL~1\AppData\Local\Temp\cchk3wop.s 			page 5


 223              		.loc 1 194 0
 224 001e FFF7FEBF 		b	_port_irq_epilogue
 225              	.L17:
 226 0022 00BF     		.align	2
 227              	.L16:
 228 0024 00000000 		.word	.LANCHOR0
 229 0028 00000240 		.word	1073872896
 230              		.cfi_endproc
 231              	.LFE59:
 232              		.size	Vector78, .-Vector78
 233 002c AFF30080 		.section	.text.Vector7C,"ax",%progbits
 234              		.align	2
 235              		.p2align 4,,15
 236              		.global	Vector7C
 237              		.thumb
 238              		.thumb_func
 239              		.type	Vector7C, %function
 240              	Vector7C:
 241              	.LFB60:
 242              		.loc 1 202 0
 243              		.cfi_startproc
 244              		@ args = 0, pretend = 0, frame = 0
 245              		@ frame_needed = 0, uses_anonymous_args = 0
 246              		.loc 1 209 0
 247 0000 0848     		ldr	r0, .L20
 248              		.loc 1 207 0
 249 0002 094A     		ldr	r2, .L20+4
 250              		.loc 1 209 0
 251 0004 036A     		ldr	r3, [r0, #32]
 252              		.loc 1 202 0
 253 0006 10B5     		push	{r4, lr}
 254              	.LCFI4:
 255              		.cfi_def_cfa_offset 8
 256              		.loc 1 208 0
 257 0008 4FF47024 		mov	r4, #983040
 258              		.cfi_offset 14, -4
 259              		.cfi_offset 4, -8
 260              		.loc 1 207 0
 261 000c 1168     		ldr	r1, [r2, #0]
 262              	.LVL9:
 263              		.loc 1 208 0
 264 000e 5460     		str	r4, [r2, #4]
 265              		.loc 1 209 0
 266 0010 1BB1     		cbz	r3, .L19
 267              		.loc 1 210 0
 268 0012 406A     		ldr	r0, [r0, #36]
 269 0014 C1F30341 		ubfx	r1, r1, #16, #4
 270              	.LVL10:
 271 0018 9847     		blx	r3
 272              	.L19:
 273              		.loc 1 213 0
 274 001a BDE81040 		pop	{r4, lr}
 275              		.loc 1 212 0
 276 001e FFF7FEBF 		b	_port_irq_epilogue
 277              	.L21:
 278 0022 00BF     		.align	2
 279              	.L20:
ARM GAS  C:\Users\DNIEL~1\AppData\Local\Temp\cchk3wop.s 			page 6


 280 0024 00000000 		.word	.LANCHOR0
 281 0028 00000240 		.word	1073872896
 282              		.cfi_endproc
 283              	.LFE60:
 284              		.size	Vector7C, .-Vector7C
 285 002c AFF30080 		.section	.text.Vector80,"ax",%progbits
 286              		.align	2
 287              		.p2align 4,,15
 288              		.global	Vector80
 289              		.thumb
 290              		.thumb_func
 291              		.type	Vector80, %function
 292              	Vector80:
 293              	.LFB61:
 294              		.loc 1 220 0
 295              		.cfi_startproc
 296              		@ args = 0, pretend = 0, frame = 0
 297              		@ frame_needed = 0, uses_anonymous_args = 0
 298              		.loc 1 227 0
 299 0000 0848     		ldr	r0, .L24
 300              		.loc 1 225 0
 301 0002 094A     		ldr	r2, .L24+4
 302              		.loc 1 227 0
 303 0004 836A     		ldr	r3, [r0, #40]
 304              		.loc 1 220 0
 305 0006 10B5     		push	{r4, lr}
 306              	.LCFI5:
 307              		.cfi_def_cfa_offset 8
 308              		.loc 1 226 0
 309 0008 4FF47004 		mov	r4, #15728640
 310              		.cfi_offset 14, -4
 311              		.cfi_offset 4, -8
 312              		.loc 1 225 0
 313 000c 1168     		ldr	r1, [r2, #0]
 314              	.LVL11:
 315              		.loc 1 226 0
 316 000e 5460     		str	r4, [r2, #4]
 317              		.loc 1 227 0
 318 0010 1BB1     		cbz	r3, .L23
 319              		.loc 1 228 0
 320 0012 C06A     		ldr	r0, [r0, #44]
 321 0014 C1F30351 		ubfx	r1, r1, #20, #4
 322              	.LVL12:
 323 0018 9847     		blx	r3
 324              	.L23:
 325              		.loc 1 231 0
 326 001a BDE81040 		pop	{r4, lr}
 327              		.loc 1 230 0
 328 001e FFF7FEBF 		b	_port_irq_epilogue
 329              	.L25:
 330 0022 00BF     		.align	2
 331              	.L24:
 332 0024 00000000 		.word	.LANCHOR0
 333 0028 00000240 		.word	1073872896
 334              		.cfi_endproc
 335              	.LFE61:
 336              		.size	Vector80, .-Vector80
ARM GAS  C:\Users\DNIEL~1\AppData\Local\Temp\cchk3wop.s 			page 7


 337 002c AFF30080 		.section	.text.Vector84,"ax",%progbits
 338              		.align	2
 339              		.p2align 4,,15
 340              		.global	Vector84
 341              		.thumb
 342              		.thumb_func
 343              		.type	Vector84, %function
 344              	Vector84:
 345              	.LFB62:
 346              		.loc 1 238 0
 347              		.cfi_startproc
 348              		@ args = 0, pretend = 0, frame = 0
 349              		@ frame_needed = 0, uses_anonymous_args = 0
 350              		.loc 1 245 0
 351 0000 0848     		ldr	r0, .L28
 352              		.loc 1 243 0
 353 0002 094A     		ldr	r2, .L28+4
 354              		.loc 1 245 0
 355 0004 036B     		ldr	r3, [r0, #48]
 356              		.loc 1 238 0
 357 0006 10B5     		push	{r4, lr}
 358              	.LCFI6:
 359              		.cfi_def_cfa_offset 8
 360              		.loc 1 244 0
 361 0008 4FF07064 		mov	r4, #251658240
 362              		.cfi_offset 14, -4
 363              		.cfi_offset 4, -8
 364              		.loc 1 243 0
 365 000c 1168     		ldr	r1, [r2, #0]
 366              	.LVL13:
 367              		.loc 1 244 0
 368 000e 5460     		str	r4, [r2, #4]
 369              		.loc 1 245 0
 370 0010 1BB1     		cbz	r3, .L27
 371              		.loc 1 246 0
 372 0012 406B     		ldr	r0, [r0, #52]
 373 0014 C1F30361 		ubfx	r1, r1, #24, #4
 374              	.LVL14:
 375 0018 9847     		blx	r3
 376              	.L27:
 377              		.loc 1 249 0
 378 001a BDE81040 		pop	{r4, lr}
 379              		.loc 1 248 0
 380 001e FFF7FEBF 		b	_port_irq_epilogue
 381              	.L29:
 382 0022 00BF     		.align	2
 383              	.L28:
 384 0024 00000000 		.word	.LANCHOR0
 385 0028 00000240 		.word	1073872896
 386              		.cfi_endproc
 387              	.LFE62:
 388              		.size	Vector84, .-Vector84
 389 002c AFF30080 		.section	.text.dmaInit,"ax",%progbits
 390              		.align	2
 391              		.p2align 4,,15
 392              		.global	dmaInit
 393              		.thumb
ARM GAS  C:\Users\DNIEL~1\AppData\Local\Temp\cchk3wop.s 			page 8


 394              		.thumb_func
 395              		.type	dmaInit, %function
 396              	dmaInit:
 397              	.LFB63:
 398              		.loc 1 385 0
 399              		.cfi_startproc
 400              		@ args = 0, pretend = 0, frame = 0
 401              		@ frame_needed = 0, uses_anonymous_args = 0
 402              		@ link register save eliminated.
 403              		.loc 1 390 0
 404 0000 124B     		ldr	r3, .L31
 405              		.loc 1 385 0
 406 0002 F0B4     		push	{r4, r5, r6, r7}
 407              	.LCFI7:
 408              		.cfi_def_cfa_offset 16
 409              		.loc 1 390 0
 410 0004 D3F800C0 		ldr	ip, [r3, #0]
 411 0008 DF68     		ldr	r7, [r3, #12]
 412              		.cfi_offset 7, -4
 413              		.cfi_offset 6, -8
 414              		.cfi_offset 5, -12
 415              		.cfi_offset 4, -16
 416 000a 9E69     		ldr	r6, [r3, #24]
 417 000c 5D6A     		ldr	r5, [r3, #36]
 418 000e 1C6B     		ldr	r4, [r3, #48]
 419 0010 D86B     		ldr	r0, [r3, #60]
 420 0012 996C     		ldr	r1, [r3, #72]
 421              		.loc 1 388 0
 422 0014 0023     		movs	r3, #0
 423              		.loc 1 390 0
 424 0016 CCF80030 		str	r3, [ip, #0]
 425              		.loc 1 391 0
 426 001a 0D4A     		ldr	r2, .L31+4
 427              		.loc 1 388 0
 428 001c DFF838C0 		ldr	ip, .L31+12
 429              		.loc 1 390 0
 430 0020 3B60     		str	r3, [r7, #0]
 431              		.loc 1 391 0
 432 0022 1360     		str	r3, [r2, #0]
 433              		.loc 1 390 0
 434 0024 3360     		str	r3, [r6, #0]
 435              		.loc 1 391 0
 436 0026 9360     		str	r3, [r2, #8]
 437              		.loc 1 390 0
 438 0028 2B60     		str	r3, [r5, #0]
 439              		.loc 1 391 0
 440 002a 1361     		str	r3, [r2, #16]
 441              		.loc 1 390 0
 442 002c 2360     		str	r3, [r4, #0]
 443              		.loc 1 391 0
 444 002e 9361     		str	r3, [r2, #24]
 445              		.loc 1 390 0
 446 0030 0360     		str	r3, [r0, #0]
 447              		.loc 1 391 0
 448 0032 1362     		str	r3, [r2, #32]
 449 0034 9362     		str	r3, [r2, #40]
 450 0036 1363     		str	r3, [r2, #48]
ARM GAS  C:\Users\DNIEL~1\AppData\Local\Temp\cchk3wop.s 			page 9


 451              		.loc 1 388 0
 452 0038 CCF80030 		str	r3, [ip, #0]
 453              	.LVL15:
 454              		.loc 1 390 0
 455 003c 0B60     		str	r3, [r1, #0]
 456              		.loc 1 393 0
 457 003e 054B     		ldr	r3, .L31+8
 458 0040 4FF0FF32 		mov	r2, #-1
 459 0044 5A60     		str	r2, [r3, #4]
 460              		.loc 1 397 0
 461 0046 F0BC     		pop	{r4, r5, r6, r7}
 462 0048 7047     		bx	lr
 463              	.L32:
 464 004a 00BF     		.align	2
 465              	.L31:
 466 004c 00000000 		.word	.LANCHOR2
 467 0050 00000000 		.word	.LANCHOR0
 468 0054 00000240 		.word	1073872896
 469 0058 00000000 		.word	.LANCHOR1
 470              		.cfi_endproc
 471              	.LFE63:
 472              		.size	dmaInit, .-dmaInit
 473 005c AFF30080 		.section	.text.dmaStreamAllocate,"ax",%progbits
 474              		.align	2
 475              		.p2align 4,,15
 476              		.global	dmaStreamAllocate
 477              		.thumb
 478              		.thumb_func
 479              		.type	dmaStreamAllocate, %function
 480              	dmaStreamAllocate:
 481              	.LFB64:
 482              		.loc 1 426 0
 483              		.cfi_startproc
 484              		@ args = 0, pretend = 0, frame = 0
 485              		@ frame_needed = 0, uses_anonymous_args = 0
 486              	.LVL16:
 487 0000 F8B5     		push	{r3, r4, r5, r6, r7, lr}
 488              	.LCFI8:
 489              		.cfi_def_cfa_offset 24
 490              		.loc 1 431 0
 491 0002 447A     		ldrb	r4, [r0, #9]	@ zero_extendqisi2
 492              		.cfi_offset 14, -4
 493              		.cfi_offset 7, -8
 494              		.cfi_offset 6, -12
 495              		.cfi_offset 5, -16
 496              		.cfi_offset 4, -20
 497              		.cfi_offset 3, -24
 498 0004 0127     		movs	r7, #1
 499 0006 17FA04F6 		lsls	r6, r7, r4
 500 000a 184D     		ldr	r5, .L38
 501 000c D5F800C0 		ldr	ip, [r5, #0]
 502 0010 16EA0C0F 		tst	r6, ip
 503 0014 25D1     		bne	.L36
 504              		.loc 1 435 0
 505 0016 164F     		ldr	r7, .L38+4
 506              		.loc 1 437 0
 507 0018 46EA0C06 		orr	r6, r6, ip
ARM GAS  C:\Users\DNIEL~1\AppData\Local\Temp\cchk3wop.s 			page 10


 508              		.loc 1 440 0
 509 001c 16F07F0F 		tst	r6, #127
 510              		.loc 1 436 0
 511 0020 07EBC40C 		add	ip, r7, r4, lsl #3
 512              		.loc 1 435 0
 513 0024 47F83420 		str	r2, [r7, r4, lsl #3]
 514              		.loc 1 436 0
 515 0028 CCF80430 		str	r3, [ip, #4]
 516              		.loc 1 437 0
 517 002c 2E60     		str	r6, [r5, #0]
 518              		.loc 1 440 0
 519 002e 04D0     		beq	.L35
 520              		.loc 1 441 0
 521 0030 104B     		ldr	r3, .L38+8
 522              	.LVL17:
 523 0032 5D69     		ldr	r5, [r3, #20]
 524 0034 45F00104 		orr	r4, r5, #1
 525 0038 5C61     		str	r4, [r3, #20]
 526              	.L35:
 527              		.loc 1 448 0
 528 003a 0368     		ldr	r3, [r0, #0]
 529 003c 4468     		ldr	r4, [r0, #4]
 530 003e 1F68     		ldr	r7, [r3, #0]
 531 0040 27F00106 		bic	r6, r7, #1
 532 0044 1E60     		str	r6, [r3, #0]
 533 0046 057A     		ldrb	r5, [r0, #8]	@ zero_extendqisi2
 534 0048 0F26     		movs	r6, #15
 535 004a 16FA05F5 		lsls	r5, r6, r5
 536              		.loc 1 449 0
 537 004e 0027     		movs	r7, #0
 538              		.loc 1 448 0
 539 0050 2560     		str	r5, [r4, #0]
 540              		.loc 1 449 0
 541 0052 1F60     		str	r7, [r3, #0]
 542              		.loc 1 452 0
 543 0054 3AB1     		cbz	r2, .L37
 544              		.loc 1 453 0
 545 0056 807A     		ldrb	r0, [r0, #10]	@ zero_extendqisi2
 546              	.LVL18:
 547 0058 0901     		lsls	r1, r1, #4
 548              	.LVL19:
 549 005a FFF7FEFF 		bl	nvicEnableVector
 550              	.LVL20:
 551              		.loc 1 455 0
 552 005e 3846     		mov	r0, r7
 553 0060 F8BD     		pop	{r3, r4, r5, r6, r7, pc}
 554              	.LVL21:
 555              	.L36:
 556              		.loc 1 432 0
 557 0062 3846     		mov	r0, r7
 558              	.LVL22:
 559 0064 F8BD     		pop	{r3, r4, r5, r6, r7, pc}
 560              	.LVL23:
 561              	.L37:
 562              		.loc 1 455 0
 563 0066 1046     		mov	r0, r2
 564              	.LVL24:
ARM GAS  C:\Users\DNIEL~1\AppData\Local\Temp\cchk3wop.s 			page 11


 565              		.loc 1 456 0
 566 0068 F8BD     		pop	{r3, r4, r5, r6, r7, pc}
 567              	.L39:
 568 006a 00BF     		.align	2
 569              	.L38:
 570 006c 00000000 		.word	.LANCHOR1
 571 0070 00000000 		.word	.LANCHOR0
 572 0074 00100240 		.word	1073876992
 573              		.cfi_endproc
 574              	.LFE64:
 575              		.size	dmaStreamAllocate, .-dmaStreamAllocate
 576 0078 AFF30080 		.section	.text.dmaStreamRelease,"ax",%progbits
 576      AFF30080 
 577              		.align	2
 578              		.p2align 4,,15
 579              		.global	dmaStreamRelease
 580              		.thumb
 581              		.thumb_func
 582              		.type	dmaStreamRelease, %function
 583              	dmaStreamRelease:
 584              	.LFB65:
 585              		.loc 1 471 0
 586              		.cfi_startproc
 587              		@ args = 0, pretend = 0, frame = 0
 588              		@ frame_needed = 0, uses_anonymous_args = 0
 589              	.LVL25:
 590 0000 10B5     		push	{r4, lr}
 591              	.LCFI9:
 592              		.cfi_def_cfa_offset 8
 593              		.loc 1 471 0
 594 0002 0446     		mov	r4, r0
 595              		.cfi_offset 14, -4
 596              		.cfi_offset 4, -8
 597              		.loc 1 480 0
 598 0004 807A     		ldrb	r0, [r0, #10]	@ zero_extendqisi2
 599              	.LVL26:
 600 0006 FFF7FEFF 		bl	nvicDisableVector
 601              		.loc 1 483 0
 602 000a 637A     		ldrb	r3, [r4, #9]	@ zero_extendqisi2
 603 000c 0122     		movs	r2, #1
 604 000e 12FA03F0 		lsls	r0, r2, r3
 605 0012 074A     		ldr	r2, .L42
 606 0014 1168     		ldr	r1, [r2, #0]
 607 0016 21EA0003 		bic	r3, r1, r0
 608              		.loc 1 486 0
 609 001a 13F07F0F 		tst	r3, #127
 610              		.loc 1 483 0
 611 001e 1360     		str	r3, [r2, #0]
 612              		.loc 1 486 0
 613 0020 04D1     		bne	.L40
 614              		.loc 1 487 0
 615 0022 0449     		ldr	r1, .L42+4
 616 0024 4B69     		ldr	r3, [r1, #20]
 617 0026 23F00100 		bic	r0, r3, #1
 618 002a 4861     		str	r0, [r1, #20]
 619              	.L40:
 620 002c 10BD     		pop	{r4, pc}
ARM GAS  C:\Users\DNIEL~1\AppData\Local\Temp\cchk3wop.s 			page 12


 621              	.L43:
 622 002e 00BF     		.align	2
 623              	.L42:
 624 0030 00000000 		.word	.LANCHOR1
 625 0034 00100240 		.word	1073876992
 626              		.cfi_endproc
 627              	.LFE65:
 628              		.size	dmaStreamRelease, .-dmaStreamRelease
 629              		.global	_stm32_dma_streams
 630 0038 AFF30080 		.section	.bss.dma_isr_redir,"aw",%nobits
 630      AFF30080 
 631              		.align	2
 632              		.set	.LANCHOR0,. + 0
 633              		.type	dma_isr_redir, %object
 634              		.size	dma_isr_redir, 56
 635              	dma_isr_redir:
 636 0000 00000000 		.space	56
 636      00000000 
 636      00000000 
 636      00000000 
 636      00000000 
 637              		.section	.rodata._stm32_dma_streams,"a",%progbits
 638              		.align	2
 639              		.set	.LANCHOR2,. + 0
 640              		.type	_stm32_dma_streams, %object
 641              		.size	_stm32_dma_streams, 84
 642              	_stm32_dma_streams:
 643 0000 08000240 		.word	1073872904
 644 0004 04000240 		.word	1073872900
 645 0008 00       		.byte	0
 646 0009 00       		.byte	0
 647 000a 0B       		.byte	11
 648 000b 00       		.space	1
 649 000c 1C000240 		.word	1073872924
 650 0010 04000240 		.word	1073872900
 651 0014 04       		.byte	4
 652 0015 01       		.byte	1
 653 0016 0C       		.byte	12
 654 0017 00       		.space	1
 655 0018 30000240 		.word	1073872944
 656 001c 04000240 		.word	1073872900
 657 0020 08       		.byte	8
 658 0021 02       		.byte	2
 659 0022 0D       		.byte	13
 660 0023 00       		.space	1
 661 0024 44000240 		.word	1073872964
 662 0028 04000240 		.word	1073872900
 663 002c 0C       		.byte	12
 664 002d 03       		.byte	3
 665 002e 0E       		.byte	14
 666 002f 00       		.space	1
 667 0030 58000240 		.word	1073872984
 668 0034 04000240 		.word	1073872900
 669 0038 10       		.byte	16
 670 0039 04       		.byte	4
 671 003a 0F       		.byte	15
 672 003b 00       		.space	1
ARM GAS  C:\Users\DNIEL~1\AppData\Local\Temp\cchk3wop.s 			page 13


 673 003c 6C000240 		.word	1073873004
 674 0040 04000240 		.word	1073872900
 675 0044 14       		.byte	20
 676 0045 05       		.byte	5
 677 0046 10       		.byte	16
 678 0047 00       		.space	1
 679 0048 80000240 		.word	1073873024
 680 004c 04000240 		.word	1073872900
 681 0050 18       		.byte	24
 682 0051 06       		.byte	6
 683 0052 11       		.byte	17
 684 0053 00       		.space	1
 685              		.section	.bss.dma_streams_mask,"aw",%nobits
 686              		.align	2
 687              		.set	.LANCHOR1,. + 0
 688              		.type	dma_streams_mask, %object
 689              		.size	dma_streams_mask, 4
 690              	dma_streams_mask:
 691 0000 00000000 		.space	4
 692              		.text
 693              	.Letext0: