ARM GAS  C:\Users\DNIEL~1\AppData\Local\Temp\cc8lzlwb.s 			page 1


   1              		.syntax unified
   2              		.cpu cortex-m3
   3              		.fpu softvfp
   4              		.eabi_attribute 20, 1
   5              		.eabi_attribute 21, 1
   6              		.eabi_attribute 23, 3
   7              		.eabi_attribute 24, 1
   8              		.eabi_attribute 25, 1
   9              		.eabi_attribute 26, 1
  10              		.eabi_attribute 30, 2
  11              		.eabi_attribute 18, 4
  12              		.thumb
  13              		.file	"stm32_dma.c"
  14              		.section	.debug_abbrev,"",%progbits
  15              	.Ldebug_abbrev0:
  16              		.section	.debug_info,"",%progbits
  17              	.Ldebug_info0:
  18              		.section	.debug_line,"",%progbits
  19              	.Ldebug_line0:
  20 0000 93020000 		.text
  20      02006901 
  20      00000201 
  20      FB0E0D00 
  20      01010101 
  21              	.Ltext0:
  22              		.cfi_sections	.debug_frame
  23              		.section	.text.Vector6C,"ax",%progbits
  24              		.align	2
  25              		.p2align 4,,15
  26              		.global	Vector6C
  27              		.thumb
  28              		.thumb_func
  29              		.type	Vector6C, %function
  30              	Vector6C:
  31              	.LFB56:
  32              		.file 1 "../../../ChibiOS/os/hal/platforms/STM32F1xx/stm32_dma.c"
  33              		.loc 1 126 0
  34              		.cfi_startproc
  35              		@ args = 0, pretend = 0, frame = 0
  36              		@ frame_needed = 0, uses_anonymous_args = 0
  37              		.loc 1 131 0
  38 0000 074A     		ldr	r2, .L4
  39              		.loc 1 133 0
  40 0002 0848     		ldr	r0, .L4+4
  41              		.loc 1 131 0
  42 0004 1168     		ldr	r1, [r2, #0]
  43              		.loc 1 133 0
  44 0006 0368     		ldr	r3, [r0, #0]
  45              		.loc 1 131 0
  46 0008 01F00F01 		and	r1, r1, #15
  47              	.LVL0:
  48              		.loc 1 126 0
  49 000c 10B5     		push	{r4, lr}
  50              	.LCFI0:
  51              		.cfi_def_cfa_offset 8
  52              		.loc 1 132 0
  53 000e 5160     		str	r1, [r2, #4]
ARM GAS  C:\Users\DNIEL~1\AppData\Local\Temp\cc8lzlwb.s 			page 2


  54              		.loc 1 133 0
  55 0010 0BB1     		cbz	r3, .L2
  56              		.cfi_offset 14, -4
  57              		.cfi_offset 4, -8
  58              		.loc 1 134 0
  59 0012 4068     		ldr	r0, [r0, #4]
  60 0014 9847     		blx	r3
  61              	.LVL1:
  62              	.L2:
  63              		.loc 1 137 0
  64 0016 BDE81040 		pop	{r4, lr}
  65              		.loc 1 136 0
  66 001a FFF7FEBF 		b	_port_irq_epilogue
  67              	.L5:
  68 001e 00BF     		.align	2
  69              	.L4:
  70 0020 00000240 		.word	1073872896
  71 0024 00000000 		.word	.LANCHOR0
  72              		.cfi_endproc
  73              	.LFE56:
  74              		.size	Vector6C, .-Vector6C
  75 0028 AFF30080 		.section	.text.Vector70,"ax",%progbits
  75      AFF30080 
  76              		.align	2
  77              		.p2align 4,,15
  78              		.global	Vector70
  79              		.thumb
  80              		.thumb_func
  81              		.type	Vector70, %function
  82              	Vector70:
  83              	.LFB57:
  84              		.loc 1 144 0
  85              		.cfi_startproc
  86              		@ args = 0, pretend = 0, frame = 0
  87              		@ frame_needed = 0, uses_anonymous_args = 0
  88              		.loc 1 149 0
  89 0000 074A     		ldr	r2, .L8
  90              		.loc 1 151 0
  91 0002 0848     		ldr	r0, .L8+4
  92              		.loc 1 149 0
  93 0004 1168     		ldr	r1, [r2, #0]
  94              		.loc 1 151 0
  95 0006 8368     		ldr	r3, [r0, #8]
  96              		.loc 1 149 0
  97 0008 C1F30311 		ubfx	r1, r1, #4, #4
  98              	.LVL2:
  99              		.loc 1 144 0
 100 000c 10B5     		push	{r4, lr}
 101              	.LCFI1:
 102              		.cfi_def_cfa_offset 8
 103              		.loc 1 150 0
 104 000e 0C01     		lsls	r4, r1, #4
 105              		.cfi_offset 14, -4
 106              		.cfi_offset 4, -8
 107 0010 5460     		str	r4, [r2, #4]
 108              		.loc 1 151 0
 109 0012 0BB1     		cbz	r3, .L7
ARM GAS  C:\Users\DNIEL~1\AppData\Local\Temp\cc8lzlwb.s 			page 3


 110              		.loc 1 152 0
 111 0014 C068     		ldr	r0, [r0, #12]
 112 0016 9847     		blx	r3
 113              	.LVL3:
 114              	.L7:
 115              		.loc 1 155 0
 116 0018 BDE81040 		pop	{r4, lr}
 117              		.loc 1 154 0
 118 001c FFF7FEBF 		b	_port_irq_epilogue
 119              	.L9:
 120              		.align	2
 121              	.L8:
 122 0020 00000240 		.word	1073872896
 123 0024 00000000 		.word	.LANCHOR0
 124              		.cfi_endproc
 125              	.LFE57:
 126              		.size	Vector70, .-Vector70
 127 0028 AFF30080 		.section	.text.Vector74,"ax",%progbits
 127      AFF30080 
 128              		.align	2
 129              		.p2align 4,,15
 130              		.global	Vector74
 131              		.thumb
 132              		.thumb_func
 133              		.type	Vector74, %function
 134              	Vector74:
 135              	.LFB58:
 136              		.loc 1 162 0
 137              		.cfi_startproc
 138              		@ args = 0, pretend = 0, frame = 0
 139              		@ frame_needed = 0, uses_anonymous_args = 0
 140              		.loc 1 167 0
 141 0000 074A     		ldr	r2, .L12
 142              		.loc 1 169 0
 143 0002 0848     		ldr	r0, .L12+4
 144              		.loc 1 167 0
 145 0004 1168     		ldr	r1, [r2, #0]
 146              		.loc 1 169 0
 147 0006 0369     		ldr	r3, [r0, #16]
 148              		.loc 1 167 0
 149 0008 C1F30321 		ubfx	r1, r1, #8, #4
 150              	.LVL4:
 151              		.loc 1 162 0
 152 000c 10B5     		push	{r4, lr}
 153              	.LCFI2:
 154              		.cfi_def_cfa_offset 8
 155              		.loc 1 168 0
 156 000e 0C02     		lsls	r4, r1, #8
 157              		.cfi_offset 14, -4
 158              		.cfi_offset 4, -8
 159 0010 5460     		str	r4, [r2, #4]
 160              		.loc 1 169 0
 161 0012 0BB1     		cbz	r3, .L11
 162              		.loc 1 170 0
 163 0014 4069     		ldr	r0, [r0, #20]
 164 0016 9847     		blx	r3
 165              	.LVL5:
ARM GAS  C:\Users\DNIEL~1\AppData\Local\Temp\cc8lzlwb.s 			page 4


 166              	.L11:
 167              		.loc 1 173 0
 168 0018 BDE81040 		pop	{r4, lr}
 169              		.loc 1 172 0
 170 001c FFF7FEBF 		b	_port_irq_epilogue
 171              	.L13:
 172              		.align	2
 173              	.L12:
 174 0020 00000240 		.word	1073872896
 175 0024 00000000 		.word	.LANCHOR0
 176              		.cfi_endproc
 177              	.LFE58:
 178              		.size	Vector74, .-Vector74
 179 0028 AFF30080 		.section	.text.Vector78,"ax",%progbits
 179      AFF30080 
 180              		.align	2
 181              		.p2align 4,,15
 182              		.global	Vector78
 183              		.thumb
 184              		.thumb_func
 185              		.type	Vector78, %function
 186              	Vector78:
 187              	.LFB59:
 188              		.loc 1 180 0
 189              		.cfi_startproc
 190              		@ args = 0, pretend = 0, frame = 0
 191              		@ frame_needed = 0, uses_anonymous_args = 0
 192              		.loc 1 185 0
 193 0000 074A     		ldr	r2, .L16
 194              		.loc 1 187 0
 195 0002 0848     		ldr	r0, .L16+4
 196              		.loc 1 185 0
 197 0004 1168     		ldr	r1, [r2, #0]
 198              		.loc 1 187 0
 199 0006 8369     		ldr	r3, [r0, #24]
 200              		.loc 1 185 0
 201 0008 C1F30331 		ubfx	r1, r1, #12, #4
 202              	.LVL6:
 203              		.loc 1 180 0
 204 000c 10B5     		push	{r4, lr}
 205              	.LCFI3:
 206              		.cfi_def_cfa_offset 8
 207              		.loc 1 186 0
 208 000e 0C03     		lsls	r4, r1, #12
 209              		.cfi_offset 14, -4
 210              		.cfi_offset 4, -8
 211 0010 5460     		str	r4, [r2, #4]
 212              		.loc 1 187 0
 213 0012 0BB1     		cbz	r3, .L15
 214              		.loc 1 188 0
 215 0014 C069     		ldr	r0, [r0, #28]
 216 0016 9847     		blx	r3
 217              	.LVL7:
 218              	.L15:
 219              		.loc 1 191 0
 220 0018 BDE81040 		pop	{r4, lr}
 221              		.loc 1 190 0
ARM GAS  C:\Users\DNIEL~1\AppData\Local\Temp\cc8lzlwb.s 			page 5


 222 001c FFF7FEBF 		b	_port_irq_epilogue
 223              	.L17:
 224              		.align	2
 225              	.L16:
 226 0020 00000240 		.word	1073872896
 227 0024 00000000 		.word	.LANCHOR0
 228              		.cfi_endproc
 229              	.LFE59:
 230              		.size	Vector78, .-Vector78
 231 0028 AFF30080 		.section	.text.Vector7C,"ax",%progbits
 231      AFF30080 
 232              		.align	2
 233              		.p2align 4,,15
 234              		.global	Vector7C
 235              		.thumb
 236              		.thumb_func
 237              		.type	Vector7C, %function
 238              	Vector7C:
 239              	.LFB60:
 240              		.loc 1 198 0
 241              		.cfi_startproc
 242              		@ args = 0, pretend = 0, frame = 0
 243              		@ frame_needed = 0, uses_anonymous_args = 0
 244              		.loc 1 203 0
 245 0000 074A     		ldr	r2, .L20
 246              		.loc 1 205 0
 247 0002 0848     		ldr	r0, .L20+4
 248              		.loc 1 203 0
 249 0004 1168     		ldr	r1, [r2, #0]
 250              		.loc 1 205 0
 251 0006 036A     		ldr	r3, [r0, #32]
 252              		.loc 1 203 0
 253 0008 C1F30341 		ubfx	r1, r1, #16, #4
 254              	.LVL8:
 255              		.loc 1 198 0
 256 000c 10B5     		push	{r4, lr}
 257              	.LCFI4:
 258              		.cfi_def_cfa_offset 8
 259              		.loc 1 204 0
 260 000e 0C04     		lsls	r4, r1, #16
 261              		.cfi_offset 14, -4
 262              		.cfi_offset 4, -8
 263 0010 5460     		str	r4, [r2, #4]
 264              		.loc 1 205 0
 265 0012 0BB1     		cbz	r3, .L19
 266              		.loc 1 206 0
 267 0014 406A     		ldr	r0, [r0, #36]
 268 0016 9847     		blx	r3
 269              	.LVL9:
 270              	.L19:
 271              		.loc 1 209 0
 272 0018 BDE81040 		pop	{r4, lr}
 273              		.loc 1 208 0
 274 001c FFF7FEBF 		b	_port_irq_epilogue
 275              	.L21:
 276              		.align	2
 277              	.L20:
ARM GAS  C:\Users\DNIEL~1\AppData\Local\Temp\cc8lzlwb.s 			page 6


 278 0020 00000240 		.word	1073872896
 279 0024 00000000 		.word	.LANCHOR0
 280              		.cfi_endproc
 281              	.LFE60:
 282              		.size	Vector7C, .-Vector7C
 283 0028 AFF30080 		.section	.text.Vector80,"ax",%progbits
 283      AFF30080 
 284              		.align	2
 285              		.p2align 4,,15
 286              		.global	Vector80
 287              		.thumb
 288              		.thumb_func
 289              		.type	Vector80, %function
 290              	Vector80:
 291              	.LFB61:
 292              		.loc 1 216 0
 293              		.cfi_startproc
 294              		@ args = 0, pretend = 0, frame = 0
 295              		@ frame_needed = 0, uses_anonymous_args = 0
 296              		.loc 1 221 0
 297 0000 074A     		ldr	r2, .L24
 298              		.loc 1 223 0
 299 0002 0848     		ldr	r0, .L24+4
 300              		.loc 1 221 0
 301 0004 1168     		ldr	r1, [r2, #0]
 302              		.loc 1 223 0
 303 0006 836A     		ldr	r3, [r0, #40]
 304              		.loc 1 221 0
 305 0008 C1F30351 		ubfx	r1, r1, #20, #4
 306              	.LVL10:
 307              		.loc 1 216 0
 308 000c 10B5     		push	{r4, lr}
 309              	.LCFI5:
 310              		.cfi_def_cfa_offset 8
 311              		.loc 1 222 0
 312 000e 0C05     		lsls	r4, r1, #20
 313              		.cfi_offset 14, -4
 314              		.cfi_offset 4, -8
 315 0010 5460     		str	r4, [r2, #4]
 316              		.loc 1 223 0
 317 0012 0BB1     		cbz	r3, .L23
 318              		.loc 1 224 0
 319 0014 C06A     		ldr	r0, [r0, #44]
 320 0016 9847     		blx	r3
 321              	.LVL11:
 322              	.L23:
 323              		.loc 1 227 0
 324 0018 BDE81040 		pop	{r4, lr}
 325              		.loc 1 226 0
 326 001c FFF7FEBF 		b	_port_irq_epilogue
 327              	.L25:
 328              		.align	2
 329              	.L24:
 330 0020 00000240 		.word	1073872896
 331 0024 00000000 		.word	.LANCHOR0
 332              		.cfi_endproc
 333              	.LFE61:
ARM GAS  C:\Users\DNIEL~1\AppData\Local\Temp\cc8lzlwb.s 			page 7


 334              		.size	Vector80, .-Vector80
 335 0028 AFF30080 		.section	.text.Vector84,"ax",%progbits
 335      AFF30080 
 336              		.align	2
 337              		.p2align 4,,15
 338              		.global	Vector84
 339              		.thumb
 340              		.thumb_func
 341              		.type	Vector84, %function
 342              	Vector84:
 343              	.LFB62:
 344              		.loc 1 234 0
 345              		.cfi_startproc
 346              		@ args = 0, pretend = 0, frame = 0
 347              		@ frame_needed = 0, uses_anonymous_args = 0
 348              		.loc 1 239 0
 349 0000 074A     		ldr	r2, .L28
 350              		.loc 1 241 0
 351 0002 0848     		ldr	r0, .L28+4
 352              		.loc 1 239 0
 353 0004 1168     		ldr	r1, [r2, #0]
 354              		.loc 1 241 0
 355 0006 036B     		ldr	r3, [r0, #48]
 356              		.loc 1 239 0
 357 0008 C1F30361 		ubfx	r1, r1, #24, #4
 358              	.LVL12:
 359              		.loc 1 234 0
 360 000c 10B5     		push	{r4, lr}
 361              	.LCFI6:
 362              		.cfi_def_cfa_offset 8
 363              		.loc 1 240 0
 364 000e 0C06     		lsls	r4, r1, #24
 365              		.cfi_offset 14, -4
 366              		.cfi_offset 4, -8
 367 0010 5460     		str	r4, [r2, #4]
 368              		.loc 1 241 0
 369 0012 0BB1     		cbz	r3, .L27
 370              		.loc 1 242 0
 371 0014 406B     		ldr	r0, [r0, #52]
 372 0016 9847     		blx	r3
 373              	.LVL13:
 374              	.L27:
 375              		.loc 1 245 0
 376 0018 BDE81040 		pop	{r4, lr}
 377              		.loc 1 244 0
 378 001c FFF7FEBF 		b	_port_irq_epilogue
 379              	.L29:
 380              		.align	2
 381              	.L28:
 382 0020 00000240 		.word	1073872896
 383 0024 00000000 		.word	.LANCHOR0
 384              		.cfi_endproc
 385              	.LFE62:
 386              		.size	Vector84, .-Vector84
 387 0028 AFF30080 		.section	.text.dmaInit,"ax",%progbits
 387      AFF30080 
 388              		.align	2
ARM GAS  C:\Users\DNIEL~1\AppData\Local\Temp\cc8lzlwb.s 			page 8


 389              		.p2align 4,,15
 390              		.global	dmaInit
 391              		.thumb
 392              		.thumb_func
 393              		.type	dmaInit, %function
 394              	dmaInit:
 395              	.LFB63:
 396              		.loc 1 381 0
 397              		.cfi_startproc
 398              		@ args = 0, pretend = 0, frame = 0
 399              		@ frame_needed = 0, uses_anonymous_args = 0
 400              		@ link register save eliminated.
 401              		.loc 1 386 0
 402 0000 124B     		ldr	r3, .L31
 403              		.loc 1 381 0
 404 0002 F0B4     		push	{r4, r5, r6, r7}
 405              	.LCFI7:
 406              		.cfi_def_cfa_offset 16
 407              		.loc 1 386 0
 408 0004 D3F800C0 		ldr	ip, [r3, #0]
 409 0008 DF68     		ldr	r7, [r3, #12]
 410              		.cfi_offset 7, -4
 411              		.cfi_offset 6, -8
 412              		.cfi_offset 5, -12
 413              		.cfi_offset 4, -16
 414 000a 9E69     		ldr	r6, [r3, #24]
 415 000c 5D6A     		ldr	r5, [r3, #36]
 416 000e 1C6B     		ldr	r4, [r3, #48]
 417 0010 D86B     		ldr	r0, [r3, #60]
 418 0012 996C     		ldr	r1, [r3, #72]
 419              		.loc 1 384 0
 420 0014 0023     		movs	r3, #0
 421              		.loc 1 386 0
 422 0016 CCF80030 		str	r3, [ip, #0]
 423              		.loc 1 387 0
 424 001a 0D4A     		ldr	r2, .L31+4
 425              		.loc 1 384 0
 426 001c DFF838C0 		ldr	ip, .L31+12
 427              		.loc 1 386 0
 428 0020 3B60     		str	r3, [r7, #0]
 429              		.loc 1 387 0
 430 0022 1360     		str	r3, [r2, #0]
 431              		.loc 1 386 0
 432 0024 3360     		str	r3, [r6, #0]
 433              		.loc 1 387 0
 434 0026 9360     		str	r3, [r2, #8]
 435              		.loc 1 386 0
 436 0028 2B60     		str	r3, [r5, #0]
 437              		.loc 1 387 0
 438 002a 1361     		str	r3, [r2, #16]
 439              		.loc 1 386 0
 440 002c 2360     		str	r3, [r4, #0]
 441              		.loc 1 387 0
 442 002e 9361     		str	r3, [r2, #24]
 443              		.loc 1 386 0
 444 0030 0360     		str	r3, [r0, #0]
 445              		.loc 1 387 0
ARM GAS  C:\Users\DNIEL~1\AppData\Local\Temp\cc8lzlwb.s 			page 9


 446 0032 1362     		str	r3, [r2, #32]
 447 0034 9362     		str	r3, [r2, #40]
 448 0036 1363     		str	r3, [r2, #48]
 449              		.loc 1 384 0
 450 0038 CCF80030 		str	r3, [ip, #0]
 451              	.LVL14:
 452              		.loc 1 386 0
 453 003c 0B60     		str	r3, [r1, #0]
 454              		.loc 1 389 0
 455 003e 054B     		ldr	r3, .L31+8
 456 0040 4FF0FF32 		mov	r2, #-1
 457 0044 5A60     		str	r2, [r3, #4]
 458              		.loc 1 393 0
 459 0046 F0BC     		pop	{r4, r5, r6, r7}
 460 0048 7047     		bx	lr
 461              	.L32:
 462 004a 00BF     		.align	2
 463              	.L31:
 464 004c 00000000 		.word	.LANCHOR2
 465 0050 00000000 		.word	.LANCHOR0
 466 0054 00000240 		.word	1073872896
 467 0058 00000000 		.word	.LANCHOR1
 468              		.cfi_endproc
 469              	.LFE63:
 470              		.size	dmaInit, .-dmaInit
 471 005c AFF30080 		.section	.text.dmaStreamAllocate,"ax",%progbits
 472              		.align	2
 473              		.p2align 4,,15
 474              		.global	dmaStreamAllocate
 475              		.thumb
 476              		.thumb_func
 477              		.type	dmaStreamAllocate, %function
 478              	dmaStreamAllocate:
 479              	.LFB64:
 480              		.loc 1 422 0
 481              		.cfi_startproc
 482              		@ args = 0, pretend = 0, frame = 0
 483              		@ frame_needed = 0, uses_anonymous_args = 0
 484              	.LVL15:
 485 0000 F8B5     		push	{r3, r4, r5, r6, r7, lr}
 486              	.LCFI8:
 487              		.cfi_def_cfa_offset 24
 488              		.loc 1 427 0
 489 0002 447A     		ldrb	r4, [r0, #9]	@ zero_extendqisi2
 490              		.cfi_offset 14, -4
 491              		.cfi_offset 7, -8
 492              		.cfi_offset 6, -12
 493              		.cfi_offset 5, -16
 494              		.cfi_offset 4, -20
 495              		.cfi_offset 3, -24
 496 0004 0127     		movs	r7, #1
 497 0006 17FA04F6 		lsls	r6, r7, r4
 498 000a 184D     		ldr	r5, .L38
 499 000c D5F800C0 		ldr	ip, [r5, #0]
 500 0010 16EA0C0F 		tst	r6, ip
 501 0014 25D1     		bne	.L36
 502              		.loc 1 431 0
ARM GAS  C:\Users\DNIEL~1\AppData\Local\Temp\cc8lzlwb.s 			page 10


 503 0016 164F     		ldr	r7, .L38+4
 504              		.loc 1 433 0
 505 0018 46EA0C06 		orr	r6, r6, ip
 506              		.loc 1 436 0
 507 001c 16F07F0F 		tst	r6, #127
 508              		.loc 1 432 0
 509 0020 07EBC40C 		add	ip, r7, r4, lsl #3
 510              		.loc 1 431 0
 511 0024 47F83420 		str	r2, [r7, r4, lsl #3]
 512              		.loc 1 432 0
 513 0028 CCF80430 		str	r3, [ip, #4]
 514              		.loc 1 433 0
 515 002c 2E60     		str	r6, [r5, #0]
 516              		.loc 1 436 0
 517 002e 04D0     		beq	.L35
 518              		.loc 1 437 0
 519 0030 104B     		ldr	r3, .L38+8
 520              	.LVL16:
 521 0032 5D69     		ldr	r5, [r3, #20]
 522 0034 45F00104 		orr	r4, r5, #1
 523 0038 5C61     		str	r4, [r3, #20]
 524              	.L35:
 525              		.loc 1 444 0
 526 003a 0368     		ldr	r3, [r0, #0]
 527 003c 4468     		ldr	r4, [r0, #4]
 528 003e 1F68     		ldr	r7, [r3, #0]
 529 0040 27F00F06 		bic	r6, r7, #15
 530 0044 1E60     		str	r6, [r3, #0]
 531 0046 057A     		ldrb	r5, [r0, #8]	@ zero_extendqisi2
 532 0048 0F26     		movs	r6, #15
 533 004a 16FA05F5 		lsls	r5, r6, r5
 534              		.loc 1 445 0
 535 004e 0027     		movs	r7, #0
 536              		.loc 1 444 0
 537 0050 2560     		str	r5, [r4, #0]
 538              		.loc 1 445 0
 539 0052 1F60     		str	r7, [r3, #0]
 540              		.loc 1 448 0
 541 0054 3AB1     		cbz	r2, .L37
 542              		.loc 1 449 0
 543 0056 807A     		ldrb	r0, [r0, #10]	@ zero_extendqisi2
 544              	.LVL17:
 545 0058 0901     		lsls	r1, r1, #4
 546              	.LVL18:
 547 005a FFF7FEFF 		bl	nvicEnableVector
 548              	.LVL19:
 549              		.loc 1 451 0
 550 005e 3846     		mov	r0, r7
 551 0060 F8BD     		pop	{r3, r4, r5, r6, r7, pc}
 552              	.LVL20:
 553              	.L36:
 554              		.loc 1 428 0
 555 0062 3846     		mov	r0, r7
 556              	.LVL21:
 557 0064 F8BD     		pop	{r3, r4, r5, r6, r7, pc}
 558              	.LVL22:
 559              	.L37:
ARM GAS  C:\Users\DNIEL~1\AppData\Local\Temp\cc8lzlwb.s 			page 11


 560              		.loc 1 451 0
 561 0066 1046     		mov	r0, r2
 562              	.LVL23:
 563              		.loc 1 452 0
 564 0068 F8BD     		pop	{r3, r4, r5, r6, r7, pc}
 565              	.L39:
 566 006a 00BF     		.align	2
 567              	.L38:
 568 006c 00000000 		.word	.LANCHOR1
 569 0070 00000000 		.word	.LANCHOR0
 570 0074 00100240 		.word	1073876992
 571              		.cfi_endproc
 572              	.LFE64:
 573              		.size	dmaStreamAllocate, .-dmaStreamAllocate
 574 0078 AFF30080 		.section	.text.dmaStreamRelease,"ax",%progbits
 574      AFF30080 
 575              		.align	2
 576              		.p2align 4,,15
 577              		.global	dmaStreamRelease
 578              		.thumb
 579              		.thumb_func
 580              		.type	dmaStreamRelease, %function
 581              	dmaStreamRelease:
 582              	.LFB65:
 583              		.loc 1 467 0
 584              		.cfi_startproc
 585              		@ args = 0, pretend = 0, frame = 0
 586              		@ frame_needed = 0, uses_anonymous_args = 0
 587              	.LVL24:
 588 0000 10B5     		push	{r4, lr}
 589              	.LCFI9:
 590              		.cfi_def_cfa_offset 8
 591              		.loc 1 476 0
 592 0002 447A     		ldrb	r4, [r0, #9]	@ zero_extendqisi2
 593              		.cfi_offset 14, -4
 594              		.cfi_offset 4, -8
 595 0004 0121     		movs	r1, #1
 596 0006 11FA04F3 		lsls	r3, r1, r4
 597 000a 094C     		ldr	r4, .L42
 598              		.loc 1 480 0
 599 000c 807A     		ldrb	r0, [r0, #10]	@ zero_extendqisi2
 600              	.LVL25:
 601              		.loc 1 476 0
 602 000e 2268     		ldr	r2, [r4, #0]
 603 0010 22EA0301 		bic	r1, r2, r3
 604 0014 2160     		str	r1, [r4, #0]
 605              		.loc 1 480 0
 606 0016 FFF7FEFF 		bl	nvicDisableVector
 607              		.loc 1 493 0
 608 001a 2368     		ldr	r3, [r4, #0]
 609 001c 13F07F0F 		tst	r3, #127
 610 0020 04D1     		bne	.L40
 611              		.loc 1 494 0
 612 0022 044B     		ldr	r3, .L42+4
 613 0024 5A69     		ldr	r2, [r3, #20]
 614 0026 22F00100 		bic	r0, r2, #1
 615 002a 5861     		str	r0, [r3, #20]
ARM GAS  C:\Users\DNIEL~1\AppData\Local\Temp\cc8lzlwb.s 			page 12


 616              	.L40:
 617 002c 10BD     		pop	{r4, pc}
 618              	.L43:
 619 002e 00BF     		.align	2
 620              	.L42:
 621 0030 00000000 		.word	.LANCHOR1
 622 0034 00100240 		.word	1073876992
 623              		.cfi_endproc
 624              	.LFE65:
 625              		.size	dmaStreamRelease, .-dmaStreamRelease
 626              		.global	_stm32_dma_streams
 627 0038 AFF30080 		.section	.bss.dma_isr_redir,"aw",%nobits
 627      AFF30080 
 628              		.align	2
 629              		.set	.LANCHOR0,. + 0
 630              		.type	dma_isr_redir, %object
 631              		.size	dma_isr_redir, 56
 632              	dma_isr_redir:
 633 0000 00000000 		.space	56
 633      00000000 
 633      00000000 
 633      00000000 
 633      00000000 
 634              		.section	.rodata._stm32_dma_streams,"a",%progbits
 635              		.align	2
 636              		.set	.LANCHOR2,. + 0
 637              		.type	_stm32_dma_streams, %object
 638              		.size	_stm32_dma_streams, 84
 639              	_stm32_dma_streams:
 640 0000 08000240 		.word	1073872904
 641 0004 04000240 		.word	1073872900
 642 0008 00       		.byte	0
 643 0009 00       		.byte	0
 644 000a 0B       		.byte	11
 645 000b 00       		.space	1
 646 000c 1C000240 		.word	1073872924
 647 0010 04000240 		.word	1073872900
 648 0014 04       		.byte	4
 649 0015 01       		.byte	1
 650 0016 0C       		.byte	12
 651 0017 00       		.space	1
 652 0018 30000240 		.word	1073872944
 653 001c 04000240 		.word	1073872900
 654 0020 08       		.byte	8
 655 0021 02       		.byte	2
 656 0022 0D       		.byte	13
 657 0023 00       		.space	1
 658 0024 44000240 		.word	1073872964
 659 0028 04000240 		.word	1073872900
 660 002c 0C       		.byte	12
 661 002d 03       		.byte	3
 662 002e 0E       		.byte	14
 663 002f 00       		.space	1
 664 0030 58000240 		.word	1073872984
 665 0034 04000240 		.word	1073872900
 666 0038 10       		.byte	16
 667 0039 04       		.byte	4
ARM GAS  C:\Users\DNIEL~1\AppData\Local\Temp\cc8lzlwb.s 			page 13


 668 003a 0F       		.byte	15
 669 003b 00       		.space	1
 670 003c 6C000240 		.word	1073873004
 671 0040 04000240 		.word	1073872900
 672 0044 14       		.byte	20
 673 0045 05       		.byte	5
 674 0046 10       		.byte	16
 675 0047 00       		.space	1
 676 0048 80000240 		.word	1073873024
 677 004c 04000240 		.word	1073872900
 678 0050 18       		.byte	24
 679 0051 06       		.byte	6
 680 0052 11       		.byte	17
 681 0053 00       		.space	1
 682              		.section	.bss.dma_streams_mask,"aw",%nobits
 683              		.align	2
 684              		.set	.LANCHOR1,. + 0
 685              		.type	dma_streams_mask, %object
 686              		.size	dma_streams_mask, 4
 687              	dma_streams_mask:
 688 0000 00000000 		.space	4
 689              		.text
 690              	.Letext0:
 691              		.section	.debug_loc,"",%progbits
 692              	.Ldebug_loc0:
 693              	.LLST0:
 694 0000 00000000 		.4byte	.LFB56
 695 0004 0E000000 		.4byte	.LCFI0
 696 0008 0200     		.2byte	0x2
 697 000a 7D       		.byte	0x7d
 698 000b 00       		.sleb128 0
 699 000c 0E000000 		.4byte	.LCFI0
 700 0010 28000000 		.4byte	.LFE56
 701 0014 0200     		.2byte	0x2
 702 0016 7D       		.byte	0x7d
 703 0017 08       		.sleb128 8
 704 0018 00000000 		.4byte	0x0
 705 001c 00000000 		.4byte	0x0
 706              	.LLST1:
 707 0020 0C000000 		.4byte	.LVL0
 708 0024 15000000 		.4byte	.LVL1-1
 709 0028 0100     		.2byte	0x1
 710 002a 51       		.byte	0x51
 711 002b 00000000 		.4byte	0x0
 712 002f 00000000 		.4byte	0x0
 713              	.LLST2:
 714 0033 00000000 		.4byte	.LFB57
 715 0037 0E000000 		.4byte	.LCFI1
 716 003b 0200     		.2byte	0x2
 717 003d 7D       		.byte	0x7d
 718 003e 00       		.sleb128 0
 719 003f 0E000000 		.4byte	.LCFI1
 720 0043 28000000 		.4byte	.LFE57
 721 0047 0200     		.2byte	0x2
 722 0049 7D       		.byte	0x7d
 723 004a 08       		.sleb128 8
 724 004b 00000000 		.4byte	0x0
ARM GAS  C:\Users\DNIEL~1\AppData\Local\Temp\cc8lzlwb.s 			page 14


 725 004f 00000000 		.4byte	0x0
 726              	.LLST3:
 727 0053 0C000000 		.4byte	.LVL2
 728 0057 17000000 		.4byte	.LVL3-1
 729 005b 0100     		.2byte	0x1
 730 005d 51       		.byte	0x51
 731 005e 00000000 		.4byte	0x0
 732 0062 00000000 		.4byte	0x0
 733              	.LLST4:
 734 0066 00000000 		.4byte	.LFB58
 735 006a 0E000000 		.4byte	.LCFI2
 736 006e 0200     		.2byte	0x2
 737 0070 7D       		.byte	0x7d
 738 0071 00       		.sleb128 0
 739 0072 0E000000 		.4byte	.LCFI2
 740 0076 28000000 		.4byte	.LFE58
 741 007a 0200     		.2byte	0x2
 742 007c 7D       		.byte	0x7d
 743 007d 08       		.sleb128 8
 744 007e 00000000 		.4byte	0x0
 745 0082 00000000 		.4byte	0x0
 746              	.LLST5:
 747 0086 0C000000 		.4byte	.LVL4
 748 008a 17000000 		.4byte	.LVL5-1
 749 008e 0100     		.2byte	0x1
 750 0090 51       		.byte	0x51
 751 0091 00000000 		.4byte	0x0
 752 0095 00000000 		.4byte	0x0
 753              	.LLST6:
 754 0099 00000000 		.4byte	.LFB59
 755 009d 0E000000 		.4byte	.LCFI3
 756 00a1 0200     		.2byte	0x2
 757 00a3 7D       		.byte	0x7d
 758 00a4 00       		.sleb128 0
 759 00a5 0E000000 		.4byte	.LCFI3
 760 00a9 28000000 		.4byte	.LFE59
 761 00ad 0200     		.2byte	0x2
 762 00af 7D       		.byte	0x7d
 763 00b0 08       		.sleb128 8
 764 00b1 00000000 		.4byte	0x0
 765 00b5 00000000 		.4byte	0x0
 766              	.LLST7:
 767 00b9 0C000000 		.4byte	.LVL6
 768 00bd 17000000 		.4byte	.LVL7-1
 769 00c1 0100     		.2byte	0x1
 770 00c3 51       		.byte	0x51
 771 00c4 00000000 		.4byte	0x0
 772 00c8 00000000 		.4byte	0x0
 773              	.LLST8:
 774 00cc 00000000 		.4byte	.LFB60
 775 00d0 0E000000 		.4byte	.LCFI4
 776 00d4 0200     		.2byte	0x2
 777 00d6 7D       		.byte	0x7d
 778 00d7 00       		.sleb128 0
 779 00d8 0E000000 		.4byte	.LCFI4
 780 00dc 28000000 		.4byte	.LFE60
 781 00e0 0200     		.2byte	0x2
ARM GAS  C:\Users\DNIEL~1\AppData\Local\Temp\cc8lzlwb.s 			page 15


 782 00e2 7D       		.byte	0x7d
 783 00e3 08       		.sleb128 8
 784 00e4 00000000 		.4byte	0x0
 785 00e8 00000000 		.4byte	0x0
 786              	.LLST9:
 787 00ec 0C000000 		.4byte	.LVL8
 788 00f0 17000000 		.4byte	.LVL9-1
 789 00f4 0100     		.2byte	0x1
 790 00f6 51       		.byte	0x51
 791 00f7 00000000 		.4byte	0x0
 792 00fb 00000000 		.4byte	0x0
 793              	.LLST10:
 794 00ff 00000000 		.4byte	.LFB61
 795 0103 0E000000 		.4byte	.LCFI5
 796 0107 0200     		.2byte	0x2
 797 0109 7D       		.byte	0x7d
 798 010a 00       		.sleb128 0
 799 010b 0E000000 		.4byte	.LCFI5
 800 010f 28000000 		.4byte	.LFE61
 801 0113 0200     		.2byte	0x2
 802 0115 7D       		.byte	0x7d
 803 0116 08       		.sleb128 8
 804 0117 00000000 		.4byte	0x0
 805 011b 00000000 		.4byte	0x0
 806              	.LLST11:
 807 011f 0C000000 		.4byte	.LVL10
 808 0123 17000000 		.4byte	.LVL11-1
 809 0127 0100     		.2byte	0x1
 810 0129 51       		.byte	0x51
 811 012a 00000000 		.4byte	0x0
 812 012e 00000000 		.4byte	0x0
 813              	.LLST12:
 814 0132 00000000 		.4byte	.LFB62
 815 0136 0E000000 		.4byte	.LCFI6
 816 013a 0200     		.2byte	0x2
 817 013c 7D       		.byte	0x7d
 818 013d 00       		.sleb128 0
 819 013e 0E000000 		.4byte	.LCFI6
 820 0142 28000000 		.4byte	.LFE62
 821 0146 0200     		.2byte	0x2
 822 0148 7D       		.byte	0x7d
 823 0149 08       		.sleb128 8
 824 014a 00000000 		.4byte	0x0
 825 014e 00000000 		.4byte	0x0
 826              	.LLST13:
 827 0152 0C000000 		.4byte	.LVL12
 828 0156 17000000 		.4byte	.LVL13-1
 829 015a 0100     		.2byte	0x1
 830 015c 51       		.byte	0x51
 831 015d 00000000 		.4byte	0x0
 832 0161 00000000 		.4byte	0x0
 833              	.LLST14:
 834 0165 00000000 		.4byte	.LFB63
 835 0169 04000000 		.4byte	.LCFI7
 836 016d 0200     		.2byte	0x2
 837 016f 7D       		.byte	0x7d
 838 0170 00       		.sleb128 0
ARM GAS  C:\Users\DNIEL~1\AppData\Local\Temp\cc8lzlwb.s 			page 16


 839 0171 04000000 		.4byte	.LCFI7
 840 0175 5C000000 		.4byte	.LFE63
 841 0179 0200     		.2byte	0x2
 842 017b 7D       		.byte	0x7d
 843 017c 10       		.sleb128 16
 844 017d 00000000 		.4byte	0x0
 845 0181 00000000 		.4byte	0x0
 846              	.LLST15:
 847 0185 3C000000 		.4byte	.LVL14
 848 0189 5C000000 		.4byte	.LFE63
 849 018d 0200     		.2byte	0x2
 850 018f 37       		.byte	0x37
 851 0190 9F       		.byte	0x9f
 852 0191 00000000 		.4byte	0x0
 853 0195 00000000 		.4byte	0x0
 854              	.LLST16:
 855 0199 00000000 		.4byte	.LFB64
 856 019d 02000000 		.4byte	.LCFI8
 857 01a1 0200     		.2byte	0x2
 858 01a3 7D       		.byte	0x7d
 859 01a4 00       		.sleb128 0
 860 01a5 02000000 		.4byte	.LCFI8
 861 01a9 78000000 		.4byte	.LFE64
 862 01ad 0200     		.2byte	0x2
 863 01af 7D       		.byte	0x7d
 864 01b0 18       		.sleb128 24
 865 01b1 00000000 		.4byte	0x0
 866 01b5 00000000 		.4byte	0x0
 867              	.LLST17:
 868 01b9 00000000 		.4byte	.LVL15
 869 01bd 58000000 		.4byte	.LVL17
 870 01c1 0100     		.2byte	0x1
 871 01c3 50       		.byte	0x50
 872 01c4 62000000 		.4byte	.LVL20
 873 01c8 64000000 		.4byte	.LVL21
 874 01cc 0100     		.2byte	0x1
 875 01ce 50       		.byte	0x50
 876 01cf 66000000 		.4byte	.LVL22
 877 01d3 68000000 		.4byte	.LVL23
 878 01d7 0100     		.2byte	0x1
 879 01d9 50       		.byte	0x50
 880 01da 00000000 		.4byte	0x0
 881 01de 00000000 		.4byte	0x0
 882              	.LLST18:
 883 01e2 00000000 		.4byte	.LVL15
 884 01e6 5A000000 		.4byte	.LVL18
 885 01ea 0100     		.2byte	0x1
 886 01ec 51       		.byte	0x51
 887 01ed 62000000 		.4byte	.LVL20
 888 01f1 78000000 		.4byte	.LFE64
 889 01f5 0100     		.2byte	0x1
 890 01f7 51       		.byte	0x51
 891 01f8 00000000 		.4byte	0x0
 892 01fc 00000000 		.4byte	0x0
 893              	.LLST19:
 894 0200 00000000 		.4byte	.LVL15
 895 0204 5D000000 		.4byte	.LVL19-1
ARM GAS  C:\Users\DNIEL~1\AppData\Local\Temp\cc8lzlwb.s 			page 17


 896 0208 0100     		.2byte	0x1
 897 020a 52       		.byte	0x52
 898 020b 62000000 		.4byte	.LVL20
 899 020f 78000000 		.4byte	.LFE64
 900 0213 0100     		.2byte	0x1
 901 0215 52       		.byte	0x52
 902 0216 00000000 		.4byte	0x0
 903 021a 00000000 		.4byte	0x0
 904              	.LLST20:
 905 021e 00000000 		.4byte	.LVL15
 906 0222 32000000 		.4byte	.LVL16
 907 0226 0100     		.2byte	0x1
 908 0228 53       		.byte	0x53
 909 0229 32000000 		.4byte	.LVL16
 910 022d 5D000000 		.4byte	.LVL19-1
 911 0231 0200     		.2byte	0x2
 912 0233 7C       		.byte	0x7c
 913 0234 04       		.sleb128 4
 914 0235 62000000 		.4byte	.LVL20
 915 0239 66000000 		.4byte	.LVL22
 916 023d 0100     		.2byte	0x1
 917 023f 53       		.byte	0x53
 918 0240 66000000 		.4byte	.LVL22
 919 0244 78000000 		.4byte	.LFE64
 920 0248 0200     		.2byte	0x2
 921 024a 7C       		.byte	0x7c
 922 024b 04       		.sleb128 4
 923 024c 00000000 		.4byte	0x0
 924 0250 00000000 		.4byte	0x0
 925              	.LLST21:
 926 0254 00000000 		.4byte	.LFB65
 927 0258 02000000 		.4byte	.LCFI9
 928 025c 0200     		.2byte	0x2
 929 025e 7D       		.byte	0x7d
 930 025f 00       		.sleb128 0
 931 0260 02000000 		.4byte	.LCFI9
 932 0264 38000000 		.4byte	.LFE65
 933 0268 0200     		.2byte	0x2
 934 026a 7D       		.byte	0x7d
 935 026b 08       		.sleb128 8
 936 026c 00000000 		.4byte	0x0
 937 0270 00000000 		.4byte	0x0
 938              	.LLST22:
 939 0274 00000000 		.4byte	.LVL24
 940 0278 0E000000 		.4byte	.LVL25
 941 027c 0100     		.2byte	0x1
 942 027e 50       		.byte	0x50
 943 027f 00000000 		.4byte	0x0
 944 0283 00000000 		.4byte	0x0
 945              		.file 2 "c:\\program files (x86)\\codesourcery\\sourcery g++ lite\\bin\\../lib/gcc/arm-none-eabi/4
 946              		.file 3 "../../../ChibiOS/os/ports/GCC/ARMCMx/chtypes.h"
 947              		.file 4 "../../../ChibiOS/os/hal/platforms/STM32F1xx/stm32f10x.h"
 948              		.file 5 "../../../ChibiOS/os/hal/platforms/STM32F1xx/stm32_dma.h"
 949              		.file 6 "../../../ChibiOS/os/ports/common/ARMCMx/CMSIS/include/core_cm3.h"
 950              		.section	.debug_info
 951 0000 4A060000 		.4byte	0x64a
 952 0004 0200     		.2byte	0x2
ARM GAS  C:\Users\DNIEL~1\AppData\Local\Temp\cc8lzlwb.s 			page 18


 953 0006 00000000 		.4byte	.Ldebug_abbrev0
 954 000a 04       		.byte	0x4
 955 000b 01       		.uleb128 0x1
 956 000c F9000000 		.4byte	.LASF109
 957 0010 01       		.byte	0x1
 958 0011 BC000000 		.4byte	.LASF110
 959 0015 55020000 		.4byte	.LASF111
 960 0019 00000000 		.4byte	0x0
 961 001d 00000000 		.4byte	0x0
 962 0021 00000000 		.4byte	.Ldebug_ranges0+0x0
 963 0025 00000000 		.4byte	.Ldebug_line0
 964 0029 02       		.uleb128 0x2
 965 002a 04       		.byte	0x4
 966 002b 05       		.byte	0x5
 967 002c 696E7400 		.ascii	"int\000"
 968 0030 03       		.uleb128 0x3
 969 0031 04       		.byte	0x4
 970 0032 07       		.byte	0x7
 971 0033 6A050000 		.4byte	.LASF0
 972 0037 03       		.uleb128 0x3
 973 0038 01       		.byte	0x1
 974 0039 06       		.byte	0x6
 975 003a EF020000 		.4byte	.LASF1
 976 003e 04       		.uleb128 0x4
 977 003f 58010000 		.4byte	.LASF4
 978 0043 02       		.byte	0x2
 979 0044 2A       		.byte	0x2a
 980 0045 49000000 		.4byte	0x49
 981 0049 03       		.uleb128 0x3
 982 004a 01       		.byte	0x1
 983 004b 08       		.byte	0x8
 984 004c C3020000 		.4byte	.LASF2
 985 0050 03       		.uleb128 0x3
 986 0051 02       		.byte	0x2
 987 0052 05       		.byte	0x5
 988 0053 6E000000 		.4byte	.LASF3
 989 0057 04       		.uleb128 0x4
 990 0058 35030000 		.4byte	.LASF5
 991 005c 02       		.byte	0x2
 992 005d 36       		.byte	0x36
 993 005e 62000000 		.4byte	0x62
 994 0062 03       		.uleb128 0x3
 995 0063 02       		.byte	0x2
 996 0064 07       		.byte	0x7
 997 0065 8A030000 		.4byte	.LASF6
 998 0069 04       		.uleb128 0x4
 999 006a D8030000 		.4byte	.LASF7
 1000 006e 02       		.byte	0x2
 1001 006f 4F       		.byte	0x4f
 1002 0070 74000000 		.4byte	0x74
 1003 0074 03       		.uleb128 0x3
 1004 0075 04       		.byte	0x4
 1005 0076 05       		.byte	0x5
 1006 0077 17020000 		.4byte	.LASF8
 1007 007b 04       		.uleb128 0x4
 1008 007c 18030000 		.4byte	.LASF9
 1009 0080 02       		.byte	0x2
ARM GAS  C:\Users\DNIEL~1\AppData\Local\Temp\cc8lzlwb.s 			page 19


 1010 0081 50       		.byte	0x50
 1011 0082 86000000 		.4byte	0x86
 1012 0086 03       		.uleb128 0x3
 1013 0087 04       		.byte	0x4
 1014 0088 07       		.byte	0x7
 1015 0089 6C040000 		.4byte	.LASF10
 1016 008d 03       		.uleb128 0x3
 1017 008e 08       		.byte	0x8
 1018 008f 05       		.byte	0x5
 1019 0090 E7010000 		.4byte	.LASF11
 1020 0094 03       		.uleb128 0x3
 1021 0095 08       		.byte	0x8
 1022 0096 07       		.byte	0x7
 1023 0097 01030000 		.4byte	.LASF12
 1024 009b 04       		.uleb128 0x4
 1025 009c EA030000 		.4byte	.LASF13
 1026 00a0 03       		.byte	0x3
 1027 00a1 2B       		.byte	0x2b
 1028 00a2 A6000000 		.4byte	0xa6
 1029 00a6 03       		.uleb128 0x3
 1030 00a7 01       		.byte	0x1
 1031 00a8 02       		.byte	0x2
 1032 00a9 00040000 		.4byte	.LASF14
 1033 00ad 05       		.uleb128 0x5
 1034 00ae 04       		.byte	0x4
 1035 00af 06       		.uleb128 0x6
 1036 00b0 7B000000 		.4byte	0x7b
 1037 00b4 03       		.uleb128 0x3
 1038 00b5 01       		.byte	0x1
 1039 00b6 08       		.byte	0x8
 1040 00b7 D3030000 		.4byte	.LASF15
 1041 00bb 07       		.uleb128 0x7
 1042 00bc F4000000 		.4byte	.LASF112
 1043 00c0 01       		.byte	0x1
 1044 00c1 04       		.byte	0x4
 1045 00c2 A9       		.byte	0xa9
 1046 00c3 FA010000 		.4byte	0x1fa
 1047 00c7 08       		.uleb128 0x8
 1048 00c8 B8040000 		.4byte	.LASF16
 1049 00cc 72       		.sleb128 -14
 1050 00cd 08       		.uleb128 0x8
 1051 00ce 87040000 		.4byte	.LASF17
 1052 00d2 74       		.sleb128 -12
 1053 00d3 08       		.uleb128 0x8
 1054 00d4 49030000 		.4byte	.LASF18
 1055 00d8 75       		.sleb128 -11
 1056 00d9 08       		.uleb128 0x8
 1057 00da A0010000 		.4byte	.LASF19
 1058 00de 76       		.sleb128 -10
 1059 00df 08       		.uleb128 0x8
 1060 00e0 57030000 		.4byte	.LASF20
 1061 00e4 7B       		.sleb128 -5
 1062 00e5 08       		.uleb128 0x8
 1063 00e6 AA000000 		.4byte	.LASF21
 1064 00ea 7C       		.sleb128 -4
 1065 00eb 08       		.uleb128 0x8
 1066 00ec 93050000 		.4byte	.LASF22
ARM GAS  C:\Users\DNIEL~1\AppData\Local\Temp\cc8lzlwb.s 			page 20


 1067 00f0 7E       		.sleb128 -2
 1068 00f1 08       		.uleb128 0x8
 1069 00f2 00000000 		.4byte	.LASF23
 1070 00f6 7F       		.sleb128 -1
 1071 00f7 08       		.uleb128 0x8
 1072 00f8 0D020000 		.4byte	.LASF24
 1073 00fc 00       		.sleb128 0
 1074 00fd 08       		.uleb128 0x8
 1075 00fe 4C020000 		.4byte	.LASF25
 1076 0102 01       		.sleb128 1
 1077 0103 08       		.uleb128 0x8
 1078 0104 62000000 		.4byte	.LASF26
 1079 0108 02       		.sleb128 2
 1080 0109 08       		.uleb128 0x8
 1081 010a 9D040000 		.4byte	.LASF27
 1082 010e 03       		.sleb128 3
 1083 010f 08       		.uleb128 0x8
 1084 0110 82010000 		.4byte	.LASF28
 1085 0114 04       		.sleb128 4
 1086 0115 08       		.uleb128 0x8
 1087 0116 30000000 		.4byte	.LASF29
 1088 011a 05       		.sleb128 5
 1089 011b 08       		.uleb128 0x8
 1090 011c 3E030000 		.4byte	.LASF30
 1091 0120 06       		.sleb128 6
 1092 0121 08       		.uleb128 0x8
 1093 0122 39000000 		.4byte	.LASF31
 1094 0126 07       		.sleb128 7
 1095 0127 08       		.uleb128 0x8
 1096 0128 21030000 		.4byte	.LASF32
 1097 012c 08       		.sleb128 8
 1098 012d 08       		.uleb128 0x8
 1099 012e 0A050000 		.4byte	.LASF33
 1100 0132 09       		.sleb128 9
 1101 0133 08       		.uleb128 0x8
 1102 0134 57000000 		.4byte	.LASF34
 1103 0138 0A       		.sleb128 10
 1104 0139 08       		.uleb128 0x8
 1105 013a 8D010000 		.4byte	.LASF35
 1106 013e 0B       		.sleb128 11
 1107 013f 08       		.uleb128 0x8
 1108 0140 59040000 		.4byte	.LASF36
 1109 0144 0C       		.sleb128 12
 1110 0145 08       		.uleb128 0x8
 1111 0146 B9010000 		.4byte	.LASF37
 1112 014a 0D       		.sleb128 13
 1113 014b 08       		.uleb128 0x8
 1114 014c 6F010000 		.4byte	.LASF38
 1115 0150 0E       		.sleb128 14
 1116 0151 08       		.uleb128 0x8
 1117 0152 46040000 		.4byte	.LASF39
 1118 0156 0F       		.sleb128 15
 1119 0157 08       		.uleb128 0x8
 1120 0158 24010000 		.4byte	.LASF40
 1121 015c 10       		.sleb128 16
 1122 015d 08       		.uleb128 0x8
 1123 015e 2A040000 		.4byte	.LASF41
ARM GAS  C:\Users\DNIEL~1\AppData\Local\Temp\cc8lzlwb.s 			page 21


 1124 0162 11       		.sleb128 17
 1125 0163 08       		.uleb128 0x8
 1126 0164 F5010000 		.4byte	.LASF42
 1127 0168 12       		.sleb128 18
 1128 0169 08       		.uleb128 0x8
 1129 016a 76030000 		.4byte	.LASF43
 1130 016e 13       		.sleb128 19
 1131 016f 08       		.uleb128 0x8
 1132 0170 95000000 		.4byte	.LASF44
 1133 0174 14       		.sleb128 20
 1134 0175 08       		.uleb128 0x8
 1135 0176 BF030000 		.4byte	.LASF45
 1136 017a 15       		.sleb128 21
 1137 017b 08       		.uleb128 0x8
 1138 017c 19000000 		.4byte	.LASF46
 1139 0180 16       		.sleb128 22
 1140 0181 08       		.uleb128 0x8
 1141 0182 63030000 		.4byte	.LASF47
 1142 0186 17       		.sleb128 23
 1143 0187 08       		.uleb128 0x8
 1144 0188 B1030000 		.4byte	.LASF48
 1145 018c 18       		.sleb128 24
 1146 018d 08       		.uleb128 0x8
 1147 018e EA040000 		.4byte	.LASF49
 1148 0192 19       		.sleb128 25
 1149 0193 08       		.uleb128 0x8
 1150 0194 A6040000 		.4byte	.LASF50
 1151 0198 1A       		.sleb128 26
 1152 0199 08       		.uleb128 0x8
 1153 019a D1040000 		.4byte	.LASF51
 1154 019e 1B       		.sleb128 27
 1155 019f 08       		.uleb128 0x8
 1156 01a0 A3020000 		.4byte	.LASF52
 1157 01a4 1C       		.sleb128 28
 1158 01a5 08       		.uleb128 0x8
 1159 01a6 84050000 		.4byte	.LASF53
 1160 01aa 1D       		.sleb128 29
 1161 01ab 08       		.uleb128 0x8
 1162 01ac 94020000 		.4byte	.LASF54
 1163 01b0 1E       		.sleb128 30
 1164 01b1 08       		.uleb128 0x8
 1165 01b2 2F020000 		.4byte	.LASF55
 1166 01b6 1F       		.sleb128 31
 1167 01b7 08       		.uleb128 0x8
 1168 01b8 77050000 		.4byte	.LASF56
 1169 01bc 20       		.sleb128 32
 1170 01bd 08       		.uleb128 0x8
 1171 01be B6020000 		.4byte	.LASF57
 1172 01c2 21       		.sleb128 33
 1173 01c3 08       		.uleb128 0x8
 1174 01c4 DA020000 		.4byte	.LASF58
 1175 01c8 22       		.sleb128 34
 1176 01c9 08       		.uleb128 0x8
 1177 01ca 0E010000 		.4byte	.LASF59
 1178 01ce 23       		.sleb128 35
 1179 01cf 08       		.uleb128 0x8
 1180 01d0 E0030000 		.4byte	.LASF60
ARM GAS  C:\Users\DNIEL~1\AppData\Local\Temp\cc8lzlwb.s 			page 22


 1181 01d4 24       		.sleb128 36
 1182 01d5 08       		.uleb128 0x8
 1183 01d6 01020000 		.4byte	.LASF61
 1184 01da 25       		.sleb128 37
 1185 01db 08       		.uleb128 0x8
 1186 01dc DE040000 		.4byte	.LASF62
 1187 01e0 26       		.sleb128 38
 1188 01e1 08       		.uleb128 0x8
 1189 01e2 D6010000 		.4byte	.LASF63
 1190 01e6 27       		.sleb128 39
 1191 01e7 08       		.uleb128 0x8
 1192 01e8 20020000 		.4byte	.LASF64
 1193 01ec 28       		.sleb128 40
 1194 01ed 08       		.uleb128 0x8
 1195 01ee 13040000 		.4byte	.LASF65
 1196 01f2 29       		.sleb128 41
 1197 01f3 08       		.uleb128 0x8
 1198 01f4 9F050000 		.4byte	.LASF66
 1199 01f8 2A       		.sleb128 42
 1200 01f9 00       		.byte	0x0
 1201 01fa 06       		.uleb128 0x6
 1202 01fb 69000000 		.4byte	0x69
 1203 01ff 09       		.uleb128 0x9
 1204 0200 10       		.byte	0x10
 1205 0201 04       		.byte	0x4
 1206 0202 2D03     		.2byte	0x32d
 1207 0204 45020000 		.4byte	0x245
 1208 0208 0A       		.uleb128 0xa
 1209 0209 43435200 		.ascii	"CCR\000"
 1210 020d 04       		.byte	0x4
 1211 020e 2F03     		.2byte	0x32f
 1212 0210 AF000000 		.4byte	0xaf
 1213 0214 02       		.byte	0x2
 1214 0215 23       		.byte	0x23
 1215 0216 00       		.uleb128 0x0
 1216 0217 0B       		.uleb128 0xb
 1217 0218 CD030000 		.4byte	.LASF67
 1218 021c 04       		.byte	0x4
 1219 021d 3003     		.2byte	0x330
 1220 021f AF000000 		.4byte	0xaf
 1221 0223 02       		.byte	0x2
 1222 0224 23       		.byte	0x23
 1223 0225 04       		.uleb128 0x4
 1224 0226 0B       		.uleb128 0xb
 1225 0227 9E020000 		.4byte	.LASF68
 1226 022b 04       		.byte	0x4
 1227 022c 3103     		.2byte	0x331
 1228 022e AF000000 		.4byte	0xaf
 1229 0232 02       		.byte	0x2
 1230 0233 23       		.byte	0x23
 1231 0234 08       		.uleb128 0x8
 1232 0235 0B       		.uleb128 0xb
 1233 0236 CC040000 		.4byte	.LASF69
 1234 023a 04       		.byte	0x4
 1235 023b 3203     		.2byte	0x332
 1236 023d AF000000 		.4byte	0xaf
 1237 0241 02       		.byte	0x2
ARM GAS  C:\Users\DNIEL~1\AppData\Local\Temp\cc8lzlwb.s 			page 23


 1238 0242 23       		.byte	0x23
 1239 0243 0C       		.uleb128 0xc
 1240 0244 00       		.byte	0x0
 1241 0245 0C       		.uleb128 0xc
 1242 0246 9D030000 		.4byte	.LASF70
 1243 024a 04       		.byte	0x4
 1244 024b 3303     		.2byte	0x333
 1245 024d FF010000 		.4byte	0x1ff
 1246 0251 09       		.uleb128 0x9
 1247 0252 08       		.byte	0x8
 1248 0253 04       		.byte	0x4
 1249 0254 3503     		.2byte	0x335
 1250 0256 79020000 		.4byte	0x279
 1251 025a 0A       		.uleb128 0xa
 1252 025b 49535200 		.ascii	"ISR\000"
 1253 025f 04       		.byte	0x4
 1254 0260 3703     		.2byte	0x337
 1255 0262 AF000000 		.4byte	0xaf
 1256 0266 02       		.byte	0x2
 1257 0267 23       		.byte	0x23
 1258 0268 00       		.uleb128 0x0
 1259 0269 0B       		.uleb128 0xb
 1260 026a 06040000 		.4byte	.LASF71
 1261 026e 04       		.byte	0x4
 1262 026f 3803     		.2byte	0x338
 1263 0271 AF000000 		.4byte	0xaf
 1264 0275 02       		.byte	0x2
 1265 0276 23       		.byte	0x23
 1266 0277 04       		.uleb128 0x4
 1267 0278 00       		.byte	0x0
 1268 0279 0C       		.uleb128 0xc
 1269 027a 18010000 		.4byte	.LASF72
 1270 027e 04       		.byte	0x4
 1271 027f 3903     		.2byte	0x339
 1272 0281 51020000 		.4byte	0x251
 1273 0285 09       		.uleb128 0x9
 1274 0286 28       		.byte	0x28
 1275 0287 04       		.byte	0x4
 1276 0288 4304     		.2byte	0x443
 1277 028a 24030000 		.4byte	0x324
 1278 028e 0A       		.uleb128 0xa
 1279 028f 435200   		.ascii	"CR\000"
 1280 0292 04       		.byte	0x4
 1281 0293 4504     		.2byte	0x445
 1282 0295 AF000000 		.4byte	0xaf
 1283 0299 02       		.byte	0x2
 1284 029a 23       		.byte	0x23
 1285 029b 00       		.uleb128 0x0
 1286 029c 0B       		.uleb128 0xb
 1287 029d 40010000 		.4byte	.LASF73
 1288 02a1 04       		.byte	0x4
 1289 02a2 4604     		.2byte	0x446
 1290 02a4 AF000000 		.4byte	0xaf
 1291 02a8 02       		.byte	0x2
 1292 02a9 23       		.byte	0x23
 1293 02aa 04       		.uleb128 0x4
 1294 02ab 0A       		.uleb128 0xa
ARM GAS  C:\Users\DNIEL~1\AppData\Local\Temp\cc8lzlwb.s 			page 24


 1295 02ac 43495200 		.ascii	"CIR\000"
 1296 02b0 04       		.byte	0x4
 1297 02b1 4704     		.2byte	0x447
 1298 02b3 AF000000 		.4byte	0xaf
 1299 02b7 02       		.byte	0x2
 1300 02b8 23       		.byte	0x23
 1301 02b9 08       		.uleb128 0x8
 1302 02ba 0B       		.uleb128 0xb
 1303 02bb 43020000 		.4byte	.LASF74
 1304 02bf 04       		.byte	0x4
 1305 02c0 4804     		.2byte	0x448
 1306 02c2 AF000000 		.4byte	0xaf
 1307 02c6 02       		.byte	0x2
 1308 02c7 23       		.byte	0x23
 1309 02c8 0C       		.uleb128 0xc
 1310 02c9 0B       		.uleb128 0xb
 1311 02ca 27000000 		.4byte	.LASF75
 1312 02ce 04       		.byte	0x4
 1313 02cf 4904     		.2byte	0x449
 1314 02d1 AF000000 		.4byte	0xaf
 1315 02d5 02       		.byte	0x2
 1316 02d6 23       		.byte	0x23
 1317 02d7 10       		.uleb128 0x10
 1318 02d8 0B       		.uleb128 0xb
 1319 02d9 3C020000 		.4byte	.LASF76
 1320 02dd 04       		.byte	0x4
 1321 02de 4A04     		.2byte	0x44a
 1322 02e0 AF000000 		.4byte	0xaf
 1323 02e4 02       		.byte	0x2
 1324 02e5 23       		.byte	0x23
 1325 02e6 14       		.uleb128 0x14
 1326 02e7 0B       		.uleb128 0xb
 1327 02e8 E7020000 		.4byte	.LASF77
 1328 02ec 04       		.byte	0x4
 1329 02ed 4B04     		.2byte	0x44b
 1330 02ef AF000000 		.4byte	0xaf
 1331 02f3 02       		.byte	0x2
 1332 02f4 23       		.byte	0x23
 1333 02f5 18       		.uleb128 0x18
 1334 02f6 0B       		.uleb128 0xb
 1335 02f7 60010000 		.4byte	.LASF78
 1336 02fb 04       		.byte	0x4
 1337 02fc 4C04     		.2byte	0x44c
 1338 02fe AF000000 		.4byte	0xaf
 1339 0302 02       		.byte	0x2
 1340 0303 23       		.byte	0x23
 1341 0304 1C       		.uleb128 0x1c
 1342 0305 0B       		.uleb128 0xb
 1343 0306 90000000 		.4byte	.LASF79
 1344 030a 04       		.byte	0x4
 1345 030b 4D04     		.2byte	0x44d
 1346 030d AF000000 		.4byte	0xaf
 1347 0311 02       		.byte	0x2
 1348 0312 23       		.byte	0x23
 1349 0313 20       		.uleb128 0x20
 1350 0314 0A       		.uleb128 0xa
 1351 0315 43535200 		.ascii	"CSR\000"
ARM GAS  C:\Users\DNIEL~1\AppData\Local\Temp\cc8lzlwb.s 			page 25


 1352 0319 04       		.byte	0x4
 1353 031a 4E04     		.2byte	0x44e
 1354 031c AF000000 		.4byte	0xaf
 1355 0320 02       		.byte	0x2
 1356 0321 23       		.byte	0x23
 1357 0322 24       		.uleb128 0x24
 1358 0323 00       		.byte	0x0
 1359 0324 0C       		.uleb128 0xc
 1360 0325 0D000000 		.4byte	.LASF80
 1361 0329 04       		.byte	0x4
 1362 032a 5904     		.2byte	0x459
 1363 032c 85020000 		.4byte	0x285
 1364 0330 0D       		.uleb128 0xd
 1365 0331 0C       		.byte	0xc
 1366 0332 05       		.byte	0x5
 1367 0333 C1       		.byte	0xc1
 1368 0334 7F030000 		.4byte	0x37f
 1369 0338 0E       		.uleb128 0xe
 1370 0339 0B040000 		.4byte	.LASF81
 1371 033d 05       		.byte	0x5
 1372 033e C2       		.byte	0xc2
 1373 033f 7F030000 		.4byte	0x37f
 1374 0343 02       		.byte	0x2
 1375 0344 23       		.byte	0x23
 1376 0345 00       		.uleb128 0x0
 1377 0346 0E       		.uleb128 0xe
 1378 0347 8E050000 		.4byte	.LASF82
 1379 034b 05       		.byte	0x5
 1380 034c C3       		.byte	0xc3
 1381 034d 85030000 		.4byte	0x385
 1382 0351 02       		.byte	0x2
 1383 0352 23       		.byte	0x23
 1384 0353 04       		.uleb128 0x4
 1385 0354 0E       		.uleb128 0xe
 1386 0355 56050000 		.4byte	.LASF83
 1387 0359 05       		.byte	0x5
 1388 035a C4       		.byte	0xc4
 1389 035b 3E000000 		.4byte	0x3e
 1390 035f 02       		.byte	0x2
 1391 0360 23       		.byte	0x23
 1392 0361 08       		.uleb128 0x8
 1393 0362 0E       		.uleb128 0xe
 1394 0363 CC010000 		.4byte	.LASF84
 1395 0367 05       		.byte	0x5
 1396 0368 C6       		.byte	0xc6
 1397 0369 3E000000 		.4byte	0x3e
 1398 036d 02       		.byte	0x2
 1399 036e 23       		.byte	0x23
 1400 036f 09       		.uleb128 0x9
 1401 0370 0E       		.uleb128 0xe
 1402 0371 68010000 		.4byte	.LASF85
 1403 0375 05       		.byte	0x5
 1404 0376 C7       		.byte	0xc7
 1405 0377 3E000000 		.4byte	0x3e
 1406 037b 02       		.byte	0x2
 1407 037c 23       		.byte	0x23
 1408 037d 0A       		.uleb128 0xa
ARM GAS  C:\Users\DNIEL~1\AppData\Local\Temp\cc8lzlwb.s 			page 26


 1409 037e 00       		.byte	0x0
 1410 037f 0F       		.uleb128 0xf
 1411 0380 04       		.byte	0x4
 1412 0381 45020000 		.4byte	0x245
 1413 0385 0F       		.uleb128 0xf
 1414 0386 04       		.byte	0x4
 1415 0387 AF000000 		.4byte	0xaf
 1416 038b 04       		.uleb128 0x4
 1417 038c 45010000 		.4byte	.LASF86
 1418 0390 05       		.byte	0x5
 1419 0391 C8       		.byte	0xc8
 1420 0392 30030000 		.4byte	0x330
 1421 0396 04       		.uleb128 0x4
 1422 0397 F1030000 		.4byte	.LASF87
 1423 039b 05       		.byte	0x5
 1424 039c D1       		.byte	0xd1
 1425 039d A1030000 		.4byte	0x3a1
 1426 03a1 0F       		.uleb128 0xf
 1427 03a2 04       		.byte	0x4
 1428 03a3 A7030000 		.4byte	0x3a7
 1429 03a7 10       		.uleb128 0x10
 1430 03a8 01       		.byte	0x1
 1431 03a9 B8030000 		.4byte	0x3b8
 1432 03ad 11       		.uleb128 0x11
 1433 03ae AD000000 		.4byte	0xad
 1434 03b2 11       		.uleb128 0x11
 1435 03b3 7B000000 		.4byte	0x7b
 1436 03b7 00       		.byte	0x0
 1437 03b8 0F       		.uleb128 0xf
 1438 03b9 04       		.byte	0x4
 1439 03ba BE030000 		.4byte	0x3be
 1440 03be 12       		.uleb128 0x12
 1441 03bf 8B030000 		.4byte	0x38b
 1442 03c3 0D       		.uleb128 0xd
 1443 03c4 08       		.byte	0x8
 1444 03c5 01       		.byte	0x1
 1445 03c6 62       		.byte	0x62
 1446 03c7 E8030000 		.4byte	0x3e8
 1447 03cb 0E       		.uleb128 0xe
 1448 03cc D1020000 		.4byte	.LASF88
 1449 03d0 01       		.byte	0x1
 1450 03d1 63       		.byte	0x63
 1451 03d2 96030000 		.4byte	0x396
 1452 03d6 02       		.byte	0x2
 1453 03d7 23       		.byte	0x23
 1454 03d8 00       		.uleb128 0x0
 1455 03d9 0E       		.uleb128 0xe
 1456 03da 4D000000 		.4byte	.LASF89
 1457 03de 01       		.byte	0x1
 1458 03df 64       		.byte	0x64
 1459 03e0 AD000000 		.4byte	0xad
 1460 03e4 02       		.byte	0x2
 1461 03e5 23       		.byte	0x23
 1462 03e6 04       		.uleb128 0x4
 1463 03e7 00       		.byte	0x0
 1464 03e8 04       		.uleb128 0x4
 1465 03e9 27050000 		.4byte	.LASF90
ARM GAS  C:\Users\DNIEL~1\AppData\Local\Temp\cc8lzlwb.s 			page 27


 1466 03ed 01       		.byte	0x1
 1467 03ee 65       		.byte	0x65
 1468 03ef C3030000 		.4byte	0x3c3
 1469 03f3 13       		.uleb128 0x13
 1470 03f4 01       		.byte	0x1
 1471 03f5 B0010000 		.4byte	.LASF91
 1472 03f9 01       		.byte	0x1
 1473 03fa 7E       		.byte	0x7e
 1474 03fb 01       		.byte	0x1
 1475 03fc 00000000 		.4byte	.LFB56
 1476 0400 28000000 		.4byte	.LFE56
 1477 0404 00000000 		.4byte	.LLST0
 1478 0408 1C040000 		.4byte	0x41c
 1479 040c 14       		.uleb128 0x14
 1480 040d FB020000 		.4byte	.LASF93
 1481 0411 01       		.byte	0x1
 1482 0412 7F       		.byte	0x7f
 1483 0413 7B000000 		.4byte	0x7b
 1484 0417 20000000 		.4byte	.LLST1
 1485 041b 00       		.byte	0x0
 1486 041c 13       		.uleb128 0x13
 1487 041d 01       		.byte	0x1
 1488 041e AD020000 		.4byte	.LASF92
 1489 0422 01       		.byte	0x1
 1490 0423 90       		.byte	0x90
 1491 0424 01       		.byte	0x1
 1492 0425 00000000 		.4byte	.LFB57
 1493 0429 28000000 		.4byte	.LFE57
 1494 042d 33000000 		.4byte	.LLST2
 1495 0431 45040000 		.4byte	0x445
 1496 0435 14       		.uleb128 0x14
 1497 0436 FB020000 		.4byte	.LASF93
 1498 043a 01       		.byte	0x1
 1499 043b 91       		.byte	0x91
 1500 043c 7B000000 		.4byte	0x7b
 1501 0440 53000000 		.4byte	.LLST3
 1502 0444 00       		.byte	0x0
 1503 0445 13       		.uleb128 0x13
 1504 0446 01       		.byte	0x1
 1505 0447 05010000 		.4byte	.LASF94
 1506 044b 01       		.byte	0x1
 1507 044c A2       		.byte	0xa2
 1508 044d 01       		.byte	0x1
 1509 044e 00000000 		.4byte	.LFB58
 1510 0452 28000000 		.4byte	.LFE58
 1511 0456 66000000 		.4byte	.LLST4
 1512 045a 6E040000 		.4byte	0x46e
 1513 045e 14       		.uleb128 0x14
 1514 045f FB020000 		.4byte	.LASF93
 1515 0463 01       		.byte	0x1
 1516 0464 A3       		.byte	0xa3
 1517 0465 7B000000 		.4byte	0x7b
 1518 0469 86000000 		.4byte	.LLST5
 1519 046d 00       		.byte	0x0
 1520 046e 13       		.uleb128 0x13
 1521 046f 01       		.byte	0x1
 1522 0470 37010000 		.4byte	.LASF95
ARM GAS  C:\Users\DNIEL~1\AppData\Local\Temp\cc8lzlwb.s 			page 28


 1523 0474 01       		.byte	0x1
 1524 0475 B4       		.byte	0xb4
 1525 0476 01       		.byte	0x1
 1526 0477 00000000 		.4byte	.LFB59
 1527 047b 28000000 		.4byte	.LFE59
 1528 047f 99000000 		.4byte	.LLST6
 1529 0483 97040000 		.4byte	0x497
 1530 0487 14       		.uleb128 0x14
 1531 0488 FB020000 		.4byte	.LASF93
 1532 048c 01       		.byte	0x1
 1533 048d B5       		.byte	0xb5
 1534 048e 7B000000 		.4byte	0x7b
 1535 0492 B9000000 		.4byte	.LLST7
 1536 0496 00       		.byte	0x0
 1537 0497 13       		.uleb128 0x13
 1538 0498 01       		.byte	0x1
 1539 0499 2C030000 		.4byte	.LASF96
 1540 049d 01       		.byte	0x1
 1541 049e C6       		.byte	0xc6
 1542 049f 01       		.byte	0x1
 1543 04a0 00000000 		.4byte	.LFB60
 1544 04a4 28000000 		.4byte	.LFE60
 1545 04a8 CC000000 		.4byte	.LLST8
 1546 04ac C0040000 		.4byte	0x4c0
 1547 04b0 14       		.uleb128 0x14
 1548 04b1 FB020000 		.4byte	.LASF93
 1549 04b5 01       		.byte	0x1
 1550 04b6 C7       		.byte	0xc7
 1551 04b7 7B000000 		.4byte	0x7b
 1552 04bb EC000000 		.4byte	.LLST9
 1553 04bf 00       		.byte	0x0
 1554 04c0 13       		.uleb128 0x13
 1555 04c1 01       		.byte	0x1
 1556 04c2 3D040000 		.4byte	.LASF97
 1557 04c6 01       		.byte	0x1
 1558 04c7 D8       		.byte	0xd8
 1559 04c8 01       		.byte	0x1
 1560 04c9 00000000 		.4byte	.LFB61
 1561 04cd 28000000 		.4byte	.LFE61
 1562 04d1 FF000000 		.4byte	.LLST10
 1563 04d5 E9040000 		.4byte	0x4e9
 1564 04d9 14       		.uleb128 0x14
 1565 04da FB020000 		.4byte	.LASF93
 1566 04de 01       		.byte	0x1
 1567 04df D9       		.byte	0xd9
 1568 04e0 7B000000 		.4byte	0x7b
 1569 04e4 1F010000 		.4byte	.LLST11
 1570 04e8 00       		.byte	0x0
 1571 04e9 13       		.uleb128 0x13
 1572 04ea 01       		.byte	0x1
 1573 04eb 7E040000 		.4byte	.LASF98
 1574 04ef 01       		.byte	0x1
 1575 04f0 EA       		.byte	0xea
 1576 04f1 01       		.byte	0x1
 1577 04f2 00000000 		.4byte	.LFB62
 1578 04f6 28000000 		.4byte	.LFE62
 1579 04fa 32010000 		.4byte	.LLST12
ARM GAS  C:\Users\DNIEL~1\AppData\Local\Temp\cc8lzlwb.s 			page 29


 1580 04fe 12050000 		.4byte	0x512
 1581 0502 14       		.uleb128 0x14
 1582 0503 FB020000 		.4byte	.LASF93
 1583 0507 01       		.byte	0x1
 1584 0508 EB       		.byte	0xeb
 1585 0509 7B000000 		.4byte	0x7b
 1586 050d 52010000 		.4byte	.LLST13
 1587 0511 00       		.byte	0x0
 1588 0512 15       		.uleb128 0x15
 1589 0513 01       		.byte	0x1
 1590 0514 22040000 		.4byte	.LASF99
 1591 0518 01       		.byte	0x1
 1592 0519 7D01     		.2byte	0x17d
 1593 051b 01       		.byte	0x1
 1594 051c 00000000 		.4byte	.LFB63
 1595 0520 5C000000 		.4byte	.LFE63
 1596 0524 65010000 		.4byte	.LLST14
 1597 0528 3B050000 		.4byte	0x53b
 1598 052c 16       		.uleb128 0x16
 1599 052d 6900     		.ascii	"i\000"
 1600 052f 01       		.byte	0x1
 1601 0530 7E01     		.2byte	0x17e
 1602 0532 29000000 		.4byte	0x29
 1603 0536 85010000 		.4byte	.LLST15
 1604 053a 00       		.byte	0x0
 1605 053b 17       		.uleb128 0x17
 1606 053c 01       		.byte	0x1
 1607 053d 15050000 		.4byte	.LASF113
 1608 0541 01       		.byte	0x1
 1609 0542 A301     		.2byte	0x1a3
 1610 0544 01       		.byte	0x1
 1611 0545 9B000000 		.4byte	0x9b
 1612 0549 00000000 		.4byte	.LFB64
 1613 054d 78000000 		.4byte	.LFE64
 1614 0551 99010000 		.4byte	.LLST16
 1615 0555 9A050000 		.4byte	0x59a
 1616 0559 18       		.uleb128 0x18
 1617 055a 78000000 		.4byte	.LASF100
 1618 055e 01       		.byte	0x1
 1619 055f A301     		.2byte	0x1a3
 1620 0561 B8030000 		.4byte	0x3b8
 1621 0565 B9010000 		.4byte	.LLST17
 1622 0569 18       		.uleb128 0x18
 1623 056a 44000000 		.4byte	.LASF101
 1624 056e 01       		.byte	0x1
 1625 056f A401     		.2byte	0x1a4
 1626 0571 7B000000 		.4byte	0x7b
 1627 0575 E2010000 		.4byte	.LLST18
 1628 0579 18       		.uleb128 0x18
 1629 057a E2010000 		.4byte	.LASF102
 1630 057e 01       		.byte	0x1
 1631 057f A501     		.2byte	0x1a5
 1632 0581 96030000 		.4byte	0x396
 1633 0585 00020000 		.4byte	.LLST19
 1634 0589 18       		.uleb128 0x18
 1635 058a 70030000 		.4byte	.LASF103
 1636 058e 01       		.byte	0x1
ARM GAS  C:\Users\DNIEL~1\AppData\Local\Temp\cc8lzlwb.s 			page 30


 1637 058f A601     		.2byte	0x1a6
 1638 0591 AD000000 		.4byte	0xad
 1639 0595 1E020000 		.4byte	.LLST20
 1640 0599 00       		.byte	0x0
 1641 059a 15       		.uleb128 0x15
 1642 059b 01       		.byte	0x1
 1643 059c 7F000000 		.4byte	.LASF104
 1644 05a0 01       		.byte	0x1
 1645 05a1 D301     		.2byte	0x1d3
 1646 05a3 01       		.byte	0x1
 1647 05a4 00000000 		.4byte	.LFB65
 1648 05a8 38000000 		.4byte	.LFE65
 1649 05ac 54020000 		.4byte	.LLST21
 1650 05b0 C5050000 		.4byte	0x5c5
 1651 05b4 18       		.uleb128 0x18
 1652 05b5 78000000 		.4byte	.LASF100
 1653 05b9 01       		.byte	0x1
 1654 05ba D301     		.2byte	0x1d3
 1655 05bc B8030000 		.4byte	0x3b8
 1656 05c0 74020000 		.4byte	.LLST22
 1657 05c4 00       		.byte	0x0
 1658 05c5 19       		.uleb128 0x19
 1659 05c6 5D050000 		.4byte	.LASF105
 1660 05ca 06       		.byte	0x6
 1661 05cb 0706     		.2byte	0x607
 1662 05cd FA010000 		.4byte	0x1fa
 1663 05d1 01       		.byte	0x1
 1664 05d2 01       		.byte	0x1
 1665 05d3 1A       		.uleb128 0x1a
 1666 05d4 8B030000 		.4byte	0x38b
 1667 05d8 E3050000 		.4byte	0x5e3
 1668 05dc 1B       		.uleb128 0x1b
 1669 05dd 30000000 		.4byte	0x30
 1670 05e1 06       		.byte	0x6
 1671 05e2 00       		.byte	0x0
 1672 05e3 19       		.uleb128 0x19
 1673 05e4 F7040000 		.4byte	.LASF106
 1674 05e8 05       		.byte	0x5
 1675 05e9 8401     		.2byte	0x184
 1676 05eb F1050000 		.4byte	0x5f1
 1677 05ef 01       		.byte	0x1
 1678 05f0 01       		.byte	0x1
 1679 05f1 12       		.uleb128 0x12
 1680 05f2 D3050000 		.4byte	0x5d3
 1681 05f6 1C       		.uleb128 0x1c
 1682 05f7 45050000 		.4byte	.LASF107
 1683 05fb 01       		.byte	0x1
 1684 05fc 6A       		.byte	0x6a
 1685 05fd 7B000000 		.4byte	0x7b
 1686 0601 05       		.byte	0x5
 1687 0602 03       		.byte	0x3
 1688 0603 00000000 		.4byte	dma_streams_mask
 1689 0607 1A       		.uleb128 0x1a
 1690 0608 E8030000 		.4byte	0x3e8
 1691 060c 17060000 		.4byte	0x617
 1692 0610 1B       		.uleb128 0x1b
 1693 0611 30000000 		.4byte	0x30
ARM GAS  C:\Users\DNIEL~1\AppData\Local\Temp\cc8lzlwb.s 			page 31


 1694 0615 06       		.byte	0x6
 1695 0616 00       		.byte	0x0
 1696 0617 1C       		.uleb128 0x1c
 1697 0618 37050000 		.4byte	.LASF108
 1698 061c 01       		.byte	0x1
 1699 061d 6F       		.byte	0x6f
 1700 061e 07060000 		.4byte	0x607
 1701 0622 05       		.byte	0x5
 1702 0623 03       		.byte	0x3
 1703 0624 00000000 		.4byte	dma_isr_redir
 1704 0628 19       		.uleb128 0x19
 1705 0629 5D050000 		.4byte	.LASF105
 1706 062d 06       		.byte	0x6
 1707 062e 0706     		.2byte	0x607
 1708 0630 FA010000 		.4byte	0x1fa
 1709 0634 01       		.byte	0x1
 1710 0635 01       		.byte	0x1
 1711 0636 1D       		.uleb128 0x1d
 1712 0637 F7040000 		.4byte	.LASF106
 1713 063b 01       		.byte	0x1
 1714 063c 45       		.byte	0x45
 1715 063d 48060000 		.4byte	0x648
 1716 0641 01       		.byte	0x1
 1717 0642 05       		.byte	0x5
 1718 0643 03       		.byte	0x3
 1719 0644 00000000 		.4byte	_stm32_dma_streams
 1720 0648 12       		.uleb128 0x12
 1721 0649 D3050000 		.4byte	0x5d3
 1722 064d 00       		.byte	0x0
 1723              		.section	.debug_abbrev
 1724 0000 01       		.uleb128 0x1
 1725 0001 11       		.uleb128 0x11
 1726 0002 01       		.byte	0x1
 1727 0003 25       		.uleb128 0x25
 1728 0004 0E       		.uleb128 0xe
 1729 0005 13       		.uleb128 0x13
 1730 0006 0B       		.uleb128 0xb
 1731 0007 03       		.uleb128 0x3
 1732 0008 0E       		.uleb128 0xe
 1733 0009 1B       		.uleb128 0x1b
 1734 000a 0E       		.uleb128 0xe
 1735 000b 11       		.uleb128 0x11
 1736 000c 01       		.uleb128 0x1
 1737 000d 52       		.uleb128 0x52
 1738 000e 01       		.uleb128 0x1
 1739 000f 55       		.uleb128 0x55
 1740 0010 06       		.uleb128 0x6
 1741 0011 10       		.uleb128 0x10
 1742 0012 06       		.uleb128 0x6
 1743 0013 00       		.byte	0x0
 1744 0014 00       		.byte	0x0
 1745 0015 02       		.uleb128 0x2
 1746 0016 24       		.uleb128 0x24
 1747 0017 00       		.byte	0x0
 1748 0018 0B       		.uleb128 0xb
 1749 0019 0B       		.uleb128 0xb
 1750 001a 3E       		.uleb128 0x3e
ARM GAS  C:\Users\DNIEL~1\AppData\Local\Temp\cc8lzlwb.s 			page 32


 1751 001b 0B       		.uleb128 0xb
 1752 001c 03       		.uleb128 0x3
 1753 001d 08       		.uleb128 0x8
 1754 001e 00       		.byte	0x0
 1755 001f 00       		.byte	0x0
 1756 0020 03       		.uleb128 0x3
 1757 0021 24       		.uleb128 0x24
 1758 0022 00       		.byte	0x0
 1759 0023 0B       		.uleb128 0xb
 1760 0024 0B       		.uleb128 0xb
 1761 0025 3E       		.uleb128 0x3e
 1762 0026 0B       		.uleb128 0xb
 1763 0027 03       		.uleb128 0x3
 1764 0028 0E       		.uleb128 0xe
 1765 0029 00       		.byte	0x0
 1766 002a 00       		.byte	0x0
 1767 002b 04       		.uleb128 0x4
 1768 002c 16       		.uleb128 0x16
 1769 002d 00       		.byte	0x0
 1770 002e 03       		.uleb128 0x3
 1771 002f 0E       		.uleb128 0xe
 1772 0030 3A       		.uleb128 0x3a
 1773 0031 0B       		.uleb128 0xb
 1774 0032 3B       		.uleb128 0x3b
 1775 0033 0B       		.uleb128 0xb
 1776 0034 49       		.uleb128 0x49
 1777 0035 13       		.uleb128 0x13
 1778 0036 00       		.byte	0x0
 1779 0037 00       		.byte	0x0
 1780 0038 05       		.uleb128 0x5
 1781 0039 0F       		.uleb128 0xf
 1782 003a 00       		.byte	0x0
 1783 003b 0B       		.uleb128 0xb
 1784 003c 0B       		.uleb128 0xb
 1785 003d 00       		.byte	0x0
 1786 003e 00       		.byte	0x0
 1787 003f 06       		.uleb128 0x6
 1788 0040 35       		.uleb128 0x35
 1789 0041 00       		.byte	0x0
 1790 0042 49       		.uleb128 0x49
 1791 0043 13       		.uleb128 0x13
 1792 0044 00       		.byte	0x0
 1793 0045 00       		.byte	0x0
 1794 0046 07       		.uleb128 0x7
 1795 0047 04       		.uleb128 0x4
 1796 0048 01       		.byte	0x1
 1797 0049 03       		.uleb128 0x3
 1798 004a 0E       		.uleb128 0xe
 1799 004b 0B       		.uleb128 0xb
 1800 004c 0B       		.uleb128 0xb
 1801 004d 3A       		.uleb128 0x3a
 1802 004e 0B       		.uleb128 0xb
 1803 004f 3B       		.uleb128 0x3b
 1804 0050 0B       		.uleb128 0xb
 1805 0051 01       		.uleb128 0x1
 1806 0052 13       		.uleb128 0x13
 1807 0053 00       		.byte	0x0
ARM GAS  C:\Users\DNIEL~1\AppData\Local\Temp\cc8lzlwb.s 			page 33


 1808 0054 00       		.byte	0x0
 1809 0055 08       		.uleb128 0x8
 1810 0056 28       		.uleb128 0x28
 1811 0057 00       		.byte	0x0
 1812 0058 03       		.uleb128 0x3
 1813 0059 0E       		.uleb128 0xe
 1814 005a 1C       		.uleb128 0x1c
 1815 005b 0D       		.uleb128 0xd
 1816 005c 00       		.byte	0x0
 1817 005d 00       		.byte	0x0
 1818 005e 09       		.uleb128 0x9
 1819 005f 13       		.uleb128 0x13
 1820 0060 01       		.byte	0x1
 1821 0061 0B       		.uleb128 0xb
 1822 0062 0B       		.uleb128 0xb
 1823 0063 3A       		.uleb128 0x3a
 1824 0064 0B       		.uleb128 0xb
 1825 0065 3B       		.uleb128 0x3b
 1826 0066 05       		.uleb128 0x5
 1827 0067 01       		.uleb128 0x1
 1828 0068 13       		.uleb128 0x13
 1829 0069 00       		.byte	0x0
 1830 006a 00       		.byte	0x0
 1831 006b 0A       		.uleb128 0xa
 1832 006c 0D       		.uleb128 0xd
 1833 006d 00       		.byte	0x0
 1834 006e 03       		.uleb128 0x3
 1835 006f 08       		.uleb128 0x8
 1836 0070 3A       		.uleb128 0x3a
 1837 0071 0B       		.uleb128 0xb
 1838 0072 3B       		.uleb128 0x3b
 1839 0073 05       		.uleb128 0x5
 1840 0074 49       		.uleb128 0x49
 1841 0075 13       		.uleb128 0x13
 1842 0076 38       		.uleb128 0x38
 1843 0077 0A       		.uleb128 0xa
 1844 0078 00       		.byte	0x0
 1845 0079 00       		.byte	0x0
 1846 007a 0B       		.uleb128 0xb
 1847 007b 0D       		.uleb128 0xd
 1848 007c 00       		.byte	0x0
 1849 007d 03       		.uleb128 0x3
 1850 007e 0E       		.uleb128 0xe
 1851 007f 3A       		.uleb128 0x3a
 1852 0080 0B       		.uleb128 0xb
 1853 0081 3B       		.uleb128 0x3b
 1854 0082 05       		.uleb128 0x5
 1855 0083 49       		.uleb128 0x49
 1856 0084 13       		.uleb128 0x13
 1857 0085 38       		.uleb128 0x38
 1858 0086 0A       		.uleb128 0xa
 1859 0087 00       		.byte	0x0
 1860 0088 00       		.byte	0x0
 1861 0089 0C       		.uleb128 0xc
 1862 008a 16       		.uleb128 0x16
 1863 008b 00       		.byte	0x0
 1864 008c 03       		.uleb128 0x3
ARM GAS  C:\Users\DNIEL~1\AppData\Local\Temp\cc8lzlwb.s 			page 34


 1865 008d 0E       		.uleb128 0xe
 1866 008e 3A       		.uleb128 0x3a
 1867 008f 0B       		.uleb128 0xb
 1868 0090 3B       		.uleb128 0x3b
 1869 0091 05       		.uleb128 0x5
 1870 0092 49       		.uleb128 0x49
 1871 0093 13       		.uleb128 0x13
 1872 0094 00       		.byte	0x0
 1873 0095 00       		.byte	0x0
 1874 0096 0D       		.uleb128 0xd
 1875 0097 13       		.uleb128 0x13
 1876 0098 01       		.byte	0x1
 1877 0099 0B       		.uleb128 0xb
 1878 009a 0B       		.uleb128 0xb
 1879 009b 3A       		.uleb128 0x3a
 1880 009c 0B       		.uleb128 0xb
 1881 009d 3B       		.uleb128 0x3b
 1882 009e 0B       		.uleb128 0xb
 1883 009f 01       		.uleb128 0x1
 1884 00a0 13       		.uleb128 0x13
 1885 00a1 00       		.byte	0x0
 1886 00a2 00       		.byte	0x0
 1887 00a3 0E       		.uleb128 0xe
 1888 00a4 0D       		.uleb128 0xd
 1889 00a5 00       		.byte	0x0
 1890 00a6 03       		.uleb128 0x3
 1891 00a7 0E       		.uleb128 0xe
 1892 00a8 3A       		.uleb128 0x3a
 1893 00a9 0B       		.uleb128 0xb
 1894 00aa 3B       		.uleb128 0x3b
 1895 00ab 0B       		.uleb128 0xb
 1896 00ac 49       		.uleb128 0x49
 1897 00ad 13       		.uleb128 0x13
 1898 00ae 38       		.uleb128 0x38
 1899 00af 0A       		.uleb128 0xa
 1900 00b0 00       		.byte	0x0
 1901 00b1 00       		.byte	0x0
 1902 00b2 0F       		.uleb128 0xf
 1903 00b3 0F       		.uleb128 0xf
 1904 00b4 00       		.byte	0x0
 1905 00b5 0B       		.uleb128 0xb
 1906 00b6 0B       		.uleb128 0xb
 1907 00b7 49       		.uleb128 0x49
 1908 00b8 13       		.uleb128 0x13
 1909 00b9 00       		.byte	0x0
 1910 00ba 00       		.byte	0x0
 1911 00bb 10       		.uleb128 0x10
 1912 00bc 15       		.uleb128 0x15
 1913 00bd 01       		.byte	0x1
 1914 00be 27       		.uleb128 0x27
 1915 00bf 0C       		.uleb128 0xc
 1916 00c0 01       		.uleb128 0x1
 1917 00c1 13       		.uleb128 0x13
 1918 00c2 00       		.byte	0x0
 1919 00c3 00       		.byte	0x0
 1920 00c4 11       		.uleb128 0x11
 1921 00c5 05       		.uleb128 0x5
ARM GAS  C:\Users\DNIEL~1\AppData\Local\Temp\cc8lzlwb.s 			page 35


 1922 00c6 00       		.byte	0x0
 1923 00c7 49       		.uleb128 0x49
 1924 00c8 13       		.uleb128 0x13
 1925 00c9 00       		.byte	0x0
 1926 00ca 00       		.byte	0x0
 1927 00cb 12       		.uleb128 0x12
 1928 00cc 26       		.uleb128 0x26
 1929 00cd 00       		.byte	0x0
 1930 00ce 49       		.uleb128 0x49
 1931 00cf 13       		.uleb128 0x13
 1932 00d0 00       		.byte	0x0
 1933 00d1 00       		.byte	0x0
 1934 00d2 13       		.uleb128 0x13
 1935 00d3 2E       		.uleb128 0x2e
 1936 00d4 01       		.byte	0x1
 1937 00d5 3F       		.uleb128 0x3f
 1938 00d6 0C       		.uleb128 0xc
 1939 00d7 03       		.uleb128 0x3
 1940 00d8 0E       		.uleb128 0xe
 1941 00d9 3A       		.uleb128 0x3a
 1942 00da 0B       		.uleb128 0xb
 1943 00db 3B       		.uleb128 0x3b
 1944 00dc 0B       		.uleb128 0xb
 1945 00dd 27       		.uleb128 0x27
 1946 00de 0C       		.uleb128 0xc
 1947 00df 11       		.uleb128 0x11
 1948 00e0 01       		.uleb128 0x1
 1949 00e1 12       		.uleb128 0x12
 1950 00e2 01       		.uleb128 0x1
 1951 00e3 40       		.uleb128 0x40
 1952 00e4 06       		.uleb128 0x6
 1953 00e5 01       		.uleb128 0x1
 1954 00e6 13       		.uleb128 0x13
 1955 00e7 00       		.byte	0x0
 1956 00e8 00       		.byte	0x0
 1957 00e9 14       		.uleb128 0x14
 1958 00ea 34       		.uleb128 0x34
 1959 00eb 00       		.byte	0x0
 1960 00ec 03       		.uleb128 0x3
 1961 00ed 0E       		.uleb128 0xe
 1962 00ee 3A       		.uleb128 0x3a
 1963 00ef 0B       		.uleb128 0xb
 1964 00f0 3B       		.uleb128 0x3b
 1965 00f1 0B       		.uleb128 0xb
 1966 00f2 49       		.uleb128 0x49
 1967 00f3 13       		.uleb128 0x13
 1968 00f4 02       		.uleb128 0x2
 1969 00f5 06       		.uleb128 0x6
 1970 00f6 00       		.byte	0x0
 1971 00f7 00       		.byte	0x0
 1972 00f8 15       		.uleb128 0x15
 1973 00f9 2E       		.uleb128 0x2e
 1974 00fa 01       		.byte	0x1
 1975 00fb 3F       		.uleb128 0x3f
 1976 00fc 0C       		.uleb128 0xc
 1977 00fd 03       		.uleb128 0x3
 1978 00fe 0E       		.uleb128 0xe
ARM GAS  C:\Users\DNIEL~1\AppData\Local\Temp\cc8lzlwb.s 			page 36


 1979 00ff 3A       		.uleb128 0x3a
 1980 0100 0B       		.uleb128 0xb
 1981 0101 3B       		.uleb128 0x3b
 1982 0102 05       		.uleb128 0x5
 1983 0103 27       		.uleb128 0x27
 1984 0104 0C       		.uleb128 0xc
 1985 0105 11       		.uleb128 0x11
 1986 0106 01       		.uleb128 0x1
 1987 0107 12       		.uleb128 0x12
 1988 0108 01       		.uleb128 0x1
 1989 0109 40       		.uleb128 0x40
 1990 010a 06       		.uleb128 0x6
 1991 010b 01       		.uleb128 0x1
 1992 010c 13       		.uleb128 0x13
 1993 010d 00       		.byte	0x0
 1994 010e 00       		.byte	0x0
 1995 010f 16       		.uleb128 0x16
 1996 0110 34       		.uleb128 0x34
 1997 0111 00       		.byte	0x0
 1998 0112 03       		.uleb128 0x3
 1999 0113 08       		.uleb128 0x8
 2000 0114 3A       		.uleb128 0x3a
 2001 0115 0B       		.uleb128 0xb
 2002 0116 3B       		.uleb128 0x3b
 2003 0117 05       		.uleb128 0x5
 2004 0118 49       		.uleb128 0x49
 2005 0119 13       		.uleb128 0x13
 2006 011a 02       		.uleb128 0x2
 2007 011b 06       		.uleb128 0x6
 2008 011c 00       		.byte	0x0
 2009 011d 00       		.byte	0x0
 2010 011e 17       		.uleb128 0x17
 2011 011f 2E       		.uleb128 0x2e
 2012 0120 01       		.byte	0x1
 2013 0121 3F       		.uleb128 0x3f
 2014 0122 0C       		.uleb128 0xc
 2015 0123 03       		.uleb128 0x3
 2016 0124 0E       		.uleb128 0xe
 2017 0125 3A       		.uleb128 0x3a
 2018 0126 0B       		.uleb128 0xb
 2019 0127 3B       		.uleb128 0x3b
 2020 0128 05       		.uleb128 0x5
 2021 0129 27       		.uleb128 0x27
 2022 012a 0C       		.uleb128 0xc
 2023 012b 49       		.uleb128 0x49
 2024 012c 13       		.uleb128 0x13
 2025 012d 11       		.uleb128 0x11
 2026 012e 01       		.uleb128 0x1
 2027 012f 12       		.uleb128 0x12
 2028 0130 01       		.uleb128 0x1
 2029 0131 40       		.uleb128 0x40
 2030 0132 06       		.uleb128 0x6
 2031 0133 01       		.uleb128 0x1
 2032 0134 13       		.uleb128 0x13
 2033 0135 00       		.byte	0x0
 2034 0136 00       		.byte	0x0
 2035 0137 18       		.uleb128 0x18
ARM GAS  C:\Users\DNIEL~1\AppData\Local\Temp\cc8lzlwb.s 			page 37


 2036 0138 05       		.uleb128 0x5
 2037 0139 00       		.byte	0x0
 2038 013a 03       		.uleb128 0x3
 2039 013b 0E       		.uleb128 0xe
 2040 013c 3A       		.uleb128 0x3a
 2041 013d 0B       		.uleb128 0xb
 2042 013e 3B       		.uleb128 0x3b
 2043 013f 05       		.uleb128 0x5
 2044 0140 49       		.uleb128 0x49
 2045 0141 13       		.uleb128 0x13
 2046 0142 02       		.uleb128 0x2
 2047 0143 06       		.uleb128 0x6
 2048 0144 00       		.byte	0x0
 2049 0145 00       		.byte	0x0
 2050 0146 19       		.uleb128 0x19
 2051 0147 34       		.uleb128 0x34
 2052 0148 00       		.byte	0x0
 2053 0149 03       		.uleb128 0x3
 2054 014a 0E       		.uleb128 0xe
 2055 014b 3A       		.uleb128 0x3a
 2056 014c 0B       		.uleb128 0xb
 2057 014d 3B       		.uleb128 0x3b
 2058 014e 05       		.uleb128 0x5
 2059 014f 49       		.uleb128 0x49
 2060 0150 13       		.uleb128 0x13
 2061 0151 3F       		.uleb128 0x3f
 2062 0152 0C       		.uleb128 0xc
 2063 0153 3C       		.uleb128 0x3c
 2064 0154 0C       		.uleb128 0xc
 2065 0155 00       		.byte	0x0
 2066 0156 00       		.byte	0x0
 2067 0157 1A       		.uleb128 0x1a
 2068 0158 01       		.uleb128 0x1
 2069 0159 01       		.byte	0x1
 2070 015a 49       		.uleb128 0x49
 2071 015b 13       		.uleb128 0x13
 2072 015c 01       		.uleb128 0x1
 2073 015d 13       		.uleb128 0x13
 2074 015e 00       		.byte	0x0
 2075 015f 00       		.byte	0x0
 2076 0160 1B       		.uleb128 0x1b
 2077 0161 21       		.uleb128 0x21
 2078 0162 00       		.byte	0x0
 2079 0163 49       		.uleb128 0x49
 2080 0164 13       		.uleb128 0x13
 2081 0165 2F       		.uleb128 0x2f
 2082 0166 0B       		.uleb128 0xb
 2083 0167 00       		.byte	0x0
 2084 0168 00       		.byte	0x0
 2085 0169 1C       		.uleb128 0x1c
 2086 016a 34       		.uleb128 0x34
 2087 016b 00       		.byte	0x0
 2088 016c 03       		.uleb128 0x3
 2089 016d 0E       		.uleb128 0xe
 2090 016e 3A       		.uleb128 0x3a
 2091 016f 0B       		.uleb128 0xb
 2092 0170 3B       		.uleb128 0x3b
ARM GAS  C:\Users\DNIEL~1\AppData\Local\Temp\cc8lzlwb.s 			page 38


 2093 0171 0B       		.uleb128 0xb
 2094 0172 49       		.uleb128 0x49
 2095 0173 13       		.uleb128 0x13
 2096 0174 02       		.uleb128 0x2
 2097 0175 0A       		.uleb128 0xa
 2098 0176 00       		.byte	0x0
 2099 0177 00       		.byte	0x0
 2100 0178 1D       		.uleb128 0x1d
 2101 0179 34       		.uleb128 0x34
 2102 017a 00       		.byte	0x0
 2103 017b 03       		.uleb128 0x3
 2104 017c 0E       		.uleb128 0xe
 2105 017d 3A       		.uleb128 0x3a
 2106 017e 0B       		.uleb128 0xb
 2107 017f 3B       		.uleb128 0x3b
 2108 0180 0B       		.uleb128 0xb
 2109 0181 49       		.uleb128 0x49
 2110 0182 13       		.uleb128 0x13
 2111 0183 3F       		.uleb128 0x3f
 2112 0184 0C       		.uleb128 0xc
 2113 0185 02       		.uleb128 0x2
 2114 0186 0A       		.uleb128 0xa
 2115 0187 00       		.byte	0x0
 2116 0188 00       		.byte	0x0
 2117 0189 00       		.byte	0x0
 2118              		.section	.debug_pubnames,"",%progbits
 2119 0000 B7000000 		.4byte	0xb7
 2120 0004 0200     		.2byte	0x2
 2121 0006 00000000 		.4byte	.Ldebug_info0
 2122 000a 4E060000 		.4byte	0x64e
 2123 000e F3030000 		.4byte	0x3f3
 2124 0012 56656374 		.ascii	"Vector6C\000"
 2124      6F723643 
 2124      00
 2125 001b 1C040000 		.4byte	0x41c
 2126 001f 56656374 		.ascii	"Vector70\000"
 2126      6F723730 
 2126      00
 2127 0028 45040000 		.4byte	0x445
 2128 002c 56656374 		.ascii	"Vector74\000"
 2128      6F723734 
 2128      00
 2129 0035 6E040000 		.4byte	0x46e
 2130 0039 56656374 		.ascii	"Vector78\000"
 2130      6F723738 
 2130      00
 2131 0042 97040000 		.4byte	0x497
 2132 0046 56656374 		.ascii	"Vector7C\000"
 2132      6F723743 
 2132      00
 2133 004f C0040000 		.4byte	0x4c0
 2134 0053 56656374 		.ascii	"Vector80\000"
 2134      6F723830 
 2134      00
 2135 005c E9040000 		.4byte	0x4e9
 2136 0060 56656374 		.ascii	"Vector84\000"
 2136      6F723834 
ARM GAS  C:\Users\DNIEL~1\AppData\Local\Temp\cc8lzlwb.s 			page 39


 2136      00
 2137 0069 12050000 		.4byte	0x512
 2138 006d 646D6149 		.ascii	"dmaInit\000"
 2138      6E697400 
 2139 0075 3B050000 		.4byte	0x53b
 2140 0079 646D6153 		.ascii	"dmaStreamAllocate\000"
 2140      74726561 
 2140      6D416C6C 
 2140      6F636174 
 2140      6500
 2141 008b 9A050000 		.4byte	0x59a
 2142 008f 646D6153 		.ascii	"dmaStreamRelease\000"
 2142      74726561 
 2142      6D52656C 
 2142      65617365 
 2142      00
 2143 00a0 36060000 		.4byte	0x636
 2144 00a4 5F73746D 		.ascii	"_stm32_dma_streams\000"
 2144      33325F64 
 2144      6D615F73 
 2144      74726561 
 2144      6D7300
 2145 00b7 00000000 		.4byte	0x0
 2146              		.section	.debug_pubtypes,"",%progbits
 2147 0000 CA000000 		.4byte	0xca
 2148 0004 0200     		.2byte	0x2
 2149 0006 00000000 		.4byte	.Ldebug_info0
 2150 000a 4E060000 		.4byte	0x64e
 2151 000e 3E000000 		.4byte	0x3e
 2152 0012 75696E74 		.ascii	"uint8_t\000"
 2152      385F7400 
 2153 001a 57000000 		.4byte	0x57
 2154 001e 75696E74 		.ascii	"uint16_t\000"
 2154      31365F74 
 2154      00
 2155 0027 69000000 		.4byte	0x69
 2156 002b 696E7433 		.ascii	"int32_t\000"
 2156      325F7400 
 2157 0033 7B000000 		.4byte	0x7b
 2158 0037 75696E74 		.ascii	"uint32_t\000"
 2158      33325F74 
 2158      00
 2159 0040 9B000000 		.4byte	0x9b
 2160 0044 626F6F6C 		.ascii	"bool_t\000"
 2160      5F7400
 2161 004b BB000000 		.4byte	0xbb
 2162 004f 4952516E 		.ascii	"IRQn\000"
 2162      00
 2163 0054 45020000 		.4byte	0x245
 2164 0058 444D415F 		.ascii	"DMA_Channel_TypeDef\000"
 2164      4368616E 
 2164      6E656C5F 
 2164      54797065 
 2164      44656600 
 2165 006c 79020000 		.4byte	0x279
 2166 0070 444D415F 		.ascii	"DMA_TypeDef\000"
 2166      54797065 
ARM GAS  C:\Users\DNIEL~1\AppData\Local\Temp\cc8lzlwb.s 			page 40


 2166      44656600 
 2167 007c 24030000 		.4byte	0x324
 2168 0080 5243435F 		.ascii	"RCC_TypeDef\000"
 2168      54797065 
 2168      44656600 
 2169 008c 8B030000 		.4byte	0x38b
 2170 0090 73746D33 		.ascii	"stm32_dma_stream_t\000"
 2170      325F646D 
 2170      615F7374 
 2170      7265616D 
 2170      5F7400
 2171 00a3 96030000 		.4byte	0x396
 2172 00a7 73746D33 		.ascii	"stm32_dmaisr_t\000"
 2172      325F646D 
 2172      61697372 
 2172      5F7400
 2173 00b6 E8030000 		.4byte	0x3e8
 2174 00ba 646D615F 		.ascii	"dma_isr_redir_t\000"
 2174      6973725F 
 2174      72656469 
 2174      725F7400 
 2175 00ca 00000000 		.4byte	0x0
 2176              		.section	.debug_aranges,"",%progbits
 2177 0000 64000000 		.4byte	0x64
 2178 0004 0200     		.2byte	0x2
 2179 0006 00000000 		.4byte	.Ldebug_info0
 2180 000a 04       		.byte	0x4
 2181 000b 00       		.byte	0x0
 2182 000c 0000     		.2byte	0x0
 2183 000e 0000     		.2byte	0x0
 2184 0010 00000000 		.4byte	.LFB56
 2185 0014 28000000 		.4byte	.LFE56-.LFB56
 2186 0018 00000000 		.4byte	.LFB57
 2187 001c 28000000 		.4byte	.LFE57-.LFB57
 2188 0020 00000000 		.4byte	.LFB58
 2189 0024 28000000 		.4byte	.LFE58-.LFB58
 2190 0028 00000000 		.4byte	.LFB59
 2191 002c 28000000 		.4byte	.LFE59-.LFB59
 2192 0030 00000000 		.4byte	.LFB60
 2193 0034 28000000 		.4byte	.LFE60-.LFB60
 2194 0038 00000000 		.4byte	.LFB61
 2195 003c 28000000 		.4byte	.LFE61-.LFB61
 2196 0040 00000000 		.4byte	.LFB62
 2197 0044 28000000 		.4byte	.LFE62-.LFB62
 2198 0048 00000000 		.4byte	.LFB63
 2199 004c 5C000000 		.4byte	.LFE63-.LFB63
 2200 0050 00000000 		.4byte	.LFB64
 2201 0054 78000000 		.4byte	.LFE64-.LFB64
 2202 0058 00000000 		.4byte	.LFB65
 2203 005c 38000000 		.4byte	.LFE65-.LFB65
 2204 0060 00000000 		.4byte	0x0
 2205 0064 00000000 		.4byte	0x0
 2206              		.section	.debug_ranges,"",%progbits
 2207              	.Ldebug_ranges0:
 2208 0000 00000000 		.4byte	.LFB56
 2209 0004 28000000 		.4byte	.LFE56
 2210 0008 00000000 		.4byte	.LFB57
ARM GAS  C:\Users\DNIEL~1\AppData\Local\Temp\cc8lzlwb.s 			page 41


 2211 000c 28000000 		.4byte	.LFE57
 2212 0010 00000000 		.4byte	.LFB58
 2213 0014 28000000 		.4byte	.LFE58
 2214 0018 00000000 		.4byte	.LFB59
 2215 001c 28000000 		.4byte	.LFE59
 2216 0020 00000000 		.4byte	.LFB60
 2217 0024 28000000 		.4byte	.LFE60
 2218 0028 00000000 		.4byte	.LFB61
 2219 002c 28000000 		.4byte	.LFE61
 2220 0030 00000000 		.4byte	.LFB62
 2221 0034 28000000 		.4byte	.LFE62
 2222 0038 00000000 		.4byte	.LFB63
 2223 003c 5C000000 		.4byte	.LFE63
 2224 0040 00000000 		.4byte	.LFB64
 2225 0044 78000000 		.4byte	.LFE64
 2226 0048 00000000 		.4byte	.LFB65
 2227 004c 38000000 		.4byte	.LFE65
 2228 0050 00000000 		.4byte	0x0
 2229 0054 00000000 		.4byte	0x0
 2230              		.section	.debug_str,"MS",%progbits,1
 2231              	.LASF23:
 2232 0000 53797354 		.ascii	"SysTick_IRQn\000"
 2232      69636B5F 
 2232      4952516E 
 2232      00
 2233              	.LASF80:
 2234 000d 5243435F 		.ascii	"RCC_TypeDef\000"
 2234      54797065 
 2234      44656600 
 2235              	.LASF46:
 2236 0019 43414E31 		.ascii	"CAN1_SCE_IRQn\000"
 2236      5F534345 
 2236      5F495251 
 2236      6E00
 2237              	.LASF75:
 2238 0027 41504231 		.ascii	"APB1RSTR\000"
 2238      52535452 
 2238      00
 2239              	.LASF29:
 2240 0030 5243435F 		.ascii	"RCC_IRQn\000"
 2240      4952516E 
 2240      00
 2241              	.LASF31:
 2242 0039 45585449 		.ascii	"EXTI1_IRQn\000"
 2242      315F4952 
 2242      516E00
 2243              	.LASF101:
 2244 0044 7072696F 		.ascii	"priority\000"
 2244      72697479 
 2244      00
 2245              	.LASF89:
 2246 004d 646D615F 		.ascii	"dma_param\000"
 2246      70617261 
 2246      6D00
 2247              	.LASF34:
 2248 0057 45585449 		.ascii	"EXTI4_IRQn\000"
 2248      345F4952 
ARM GAS  C:\Users\DNIEL~1\AppData\Local\Temp\cc8lzlwb.s 			page 42


 2248      516E00
 2249              	.LASF26:
 2250 0062 54414D50 		.ascii	"TAMPER_IRQn\000"
 2250      45525F49 
 2250      52516E00 
 2251              	.LASF3:
 2252 006e 73686F72 		.ascii	"short int\000"
 2252      7420696E 
 2252      7400
 2253              	.LASF100:
 2254 0078 646D6173 		.ascii	"dmastp\000"
 2254      747000
 2255              	.LASF104:
 2256 007f 646D6153 		.ascii	"dmaStreamRelease\000"
 2256      74726561 
 2256      6D52656C 
 2256      65617365 
 2256      00
 2257              	.LASF79:
 2258 0090 42444352 		.ascii	"BDCR\000"
 2258      00
 2259              	.LASF44:
 2260 0095 5553425F 		.ascii	"USB_LP_CAN1_RX0_IRQn\000"
 2260      4C505F43 
 2260      414E315F 
 2260      5258305F 
 2260      4952516E 
 2261              	.LASF21:
 2262 00aa 44656275 		.ascii	"DebugMonitor_IRQn\000"
 2262      674D6F6E 
 2262      69746F72 
 2262      5F495251 
 2262      6E00
 2263              	.LASF110:
 2264 00bc 2E2E2F2E 		.ascii	"../../../ChibiOS/os/hal/platforms/STM32F1xx/stm32_d"
 2264      2E2F2E2E 
 2264      2F436869 
 2264      62694F53 
 2264      2F6F732F 
 2265 00ef 6D612E63 		.ascii	"ma.c\000"
 2265      00
 2266              	.LASF112:
 2267 00f4 4952516E 		.ascii	"IRQn\000"
 2267      00
 2268              	.LASF109:
 2269 00f9 474E5520 		.ascii	"GNU C 4.5.2\000"
 2269      4320342E 
 2269      352E3200 
 2270              	.LASF94:
 2271 0105 56656374 		.ascii	"Vector74\000"
 2271      6F723734 
 2271      00
 2272              	.LASF59:
 2273 010e 53504931 		.ascii	"SPI1_IRQn\000"
 2273      5F495251 
 2273      6E00
 2274              	.LASF72:
ARM GAS  C:\Users\DNIEL~1\AppData\Local\Temp\cc8lzlwb.s 			page 43


 2275 0118 444D415F 		.ascii	"DMA_TypeDef\000"
 2275      54797065 
 2275      44656600 
 2276              	.LASF40:
 2277 0124 444D4131 		.ascii	"DMA1_Channel6_IRQn\000"
 2277      5F436861 
 2277      6E6E656C 
 2277      365F4952 
 2277      516E00
 2278              	.LASF95:
 2279 0137 56656374 		.ascii	"Vector78\000"
 2279      6F723738 
 2279      00
 2280              	.LASF73:
 2281 0140 43464752 		.ascii	"CFGR\000"
 2281      00
 2282              	.LASF86:
 2283 0145 73746D33 		.ascii	"stm32_dma_stream_t\000"
 2283      325F646D 
 2283      615F7374 
 2283      7265616D 
 2283      5F7400
 2284              	.LASF4:
 2285 0158 75696E74 		.ascii	"uint8_t\000"
 2285      385F7400 
 2286              	.LASF78:
 2287 0160 41504231 		.ascii	"APB1ENR\000"
 2287      454E5200 
 2288              	.LASF85:
 2289 0168 76656374 		.ascii	"vector\000"
 2289      6F7200
 2290              	.LASF38:
 2291 016f 444D4131 		.ascii	"DMA1_Channel4_IRQn\000"
 2291      5F436861 
 2291      6E6E656C 
 2291      345F4952 
 2291      516E00
 2292              	.LASF28:
 2293 0182 464C4153 		.ascii	"FLASH_IRQn\000"
 2293      485F4952 
 2293      516E00
 2294              	.LASF35:
 2295 018d 444D4131 		.ascii	"DMA1_Channel1_IRQn\000"
 2295      5F436861 
 2295      6E6E656C 
 2295      315F4952 
 2295      516E00
 2296              	.LASF19:
 2297 01a0 55736167 		.ascii	"UsageFault_IRQn\000"
 2297      65466175 
 2297      6C745F49 
 2297      52516E00 
 2298              	.LASF91:
 2299 01b0 56656374 		.ascii	"Vector6C\000"
 2299      6F723643 
 2299      00
 2300              	.LASF37:
ARM GAS  C:\Users\DNIEL~1\AppData\Local\Temp\cc8lzlwb.s 			page 44


 2301 01b9 444D4131 		.ascii	"DMA1_Channel3_IRQn\000"
 2301      5F436861 
 2301      6E6E656C 
 2301      335F4952 
 2301      516E00
 2302              	.LASF84:
 2303 01cc 73656C66 		.ascii	"selfindex\000"
 2303      696E6465 
 2303      7800
 2304              	.LASF63:
 2305 01d6 55534152 		.ascii	"USART3_IRQn\000"
 2305      54335F49 
 2305      52516E00 
 2306              	.LASF102:
 2307 01e2 66756E63 		.ascii	"func\000"
 2307      00
 2308              	.LASF11:
 2309 01e7 6C6F6E67 		.ascii	"long long int\000"
 2309      206C6F6E 
 2309      6720696E 
 2309      7400
 2310              	.LASF42:
 2311 01f5 41444331 		.ascii	"ADC1_2_IRQn\000"
 2311      5F325F49 
 2311      52516E00 
 2312              	.LASF61:
 2313 0201 55534152 		.ascii	"USART1_IRQn\000"
 2313      54315F49 
 2313      52516E00 
 2314              	.LASF24:
 2315 020d 57574447 		.ascii	"WWDG_IRQn\000"
 2315      5F495251 
 2315      6E00
 2316              	.LASF8:
 2317 0217 6C6F6E67 		.ascii	"long int\000"
 2317      20696E74 
 2317      00
 2318              	.LASF64:
 2319 0220 45585449 		.ascii	"EXTI15_10_IRQn\000"
 2319      31355F31 
 2319      305F4952 
 2319      516E00
 2320              	.LASF55:
 2321 022f 49324331 		.ascii	"I2C1_EV_IRQn\000"
 2321      5F45565F 
 2321      4952516E 
 2321      00
 2322              	.LASF76:
 2323 023c 41484245 		.ascii	"AHBENR\000"
 2323      4E5200
 2324              	.LASF74:
 2325 0243 41504232 		.ascii	"APB2RSTR\000"
 2325      52535452 
 2325      00
 2326              	.LASF25:
 2327 024c 5056445F 		.ascii	"PVD_IRQn\000"
 2327      4952516E 
ARM GAS  C:\Users\DNIEL~1\AppData\Local\Temp\cc8lzlwb.s 			page 45


 2327      00
 2328              	.LASF111:
 2329 0255 433A5C44 		.ascii	"C:\\Dani\\MegaLux\\Repo\\LuxControl\\LuxControl\\lu"
 2329      616E695C 
 2329      4D656761 
 2329      4C75785C 
 2329      5265706F 
 2330 0282 78636F6E 		.ascii	"xcontrol\\firmware\000"
 2330      74726F6C 
 2330      5C666972 
 2330      6D776172 
 2330      6500
 2331              	.LASF54:
 2332 0294 54494D34 		.ascii	"TIM4_IRQn\000"
 2332      5F495251 
 2332      6E00
 2333              	.LASF68:
 2334 029e 43504152 		.ascii	"CPAR\000"
 2334      00
 2335              	.LASF52:
 2336 02a3 54494D32 		.ascii	"TIM2_IRQn\000"
 2336      5F495251 
 2336      6E00
 2337              	.LASF92:
 2338 02ad 56656374 		.ascii	"Vector70\000"
 2338      6F723730 
 2338      00
 2339              	.LASF57:
 2340 02b6 49324332 		.ascii	"I2C2_EV_IRQn\000"
 2340      5F45565F 
 2340      4952516E 
 2340      00
 2341              	.LASF2:
 2342 02c3 756E7369 		.ascii	"unsigned char\000"
 2342      676E6564 
 2342      20636861 
 2342      7200
 2343              	.LASF88:
 2344 02d1 646D615F 		.ascii	"dma_func\000"
 2344      66756E63 
 2344      00
 2345              	.LASF58:
 2346 02da 49324332 		.ascii	"I2C2_ER_IRQn\000"
 2346      5F45525F 
 2346      4952516E 
 2346      00
 2347              	.LASF77:
 2348 02e7 41504232 		.ascii	"APB2ENR\000"
 2348      454E5200 
 2349              	.LASF1:
 2350 02ef 7369676E 		.ascii	"signed char\000"
 2350      65642063 
 2350      68617200 
 2351              	.LASF93:
 2352 02fb 666C6167 		.ascii	"flags\000"
 2352      7300
 2353              	.LASF12:
ARM GAS  C:\Users\DNIEL~1\AppData\Local\Temp\cc8lzlwb.s 			page 46


 2354 0301 6C6F6E67 		.ascii	"long long unsigned int\000"
 2354      206C6F6E 
 2354      6720756E 
 2354      7369676E 
 2354      65642069 
 2355              	.LASF9:
 2356 0318 75696E74 		.ascii	"uint32_t\000"
 2356      33325F74 
 2356      00
 2357              	.LASF32:
 2358 0321 45585449 		.ascii	"EXTI2_IRQn\000"
 2358      325F4952 
 2358      516E00
 2359              	.LASF96:
 2360 032c 56656374 		.ascii	"Vector7C\000"
 2360      6F723743 
 2360      00
 2361              	.LASF5:
 2362 0335 75696E74 		.ascii	"uint16_t\000"
 2362      31365F74 
 2362      00
 2363              	.LASF30:
 2364 033e 45585449 		.ascii	"EXTI0_IRQn\000"
 2364      305F4952 
 2364      516E00
 2365              	.LASF18:
 2366 0349 42757346 		.ascii	"BusFault_IRQn\000"
 2366      61756C74 
 2366      5F495251 
 2366      6E00
 2367              	.LASF20:
 2368 0357 53564361 		.ascii	"SVCall_IRQn\000"
 2368      6C6C5F49 
 2368      52516E00 
 2369              	.LASF47:
 2370 0363 45585449 		.ascii	"EXTI9_5_IRQn\000"
 2370      395F355F 
 2370      4952516E 
 2370      00
 2371              	.LASF103:
 2372 0370 70617261 		.ascii	"param\000"
 2372      6D00
 2373              	.LASF43:
 2374 0376 5553425F 		.ascii	"USB_HP_CAN1_TX_IRQn\000"
 2374      48505F43 
 2374      414E315F 
 2374      54585F49 
 2374      52516E00 
 2375              	.LASF6:
 2376 038a 73686F72 		.ascii	"short unsigned int\000"
 2376      7420756E 
 2376      7369676E 
 2376      65642069 
 2376      6E7400
 2377              	.LASF70:
 2378 039d 444D415F 		.ascii	"DMA_Channel_TypeDef\000"
 2378      4368616E 
ARM GAS  C:\Users\DNIEL~1\AppData\Local\Temp\cc8lzlwb.s 			page 47


 2378      6E656C5F 
 2378      54797065 
 2378      44656600 
 2379              	.LASF48:
 2380 03b1 54494D31 		.ascii	"TIM1_BRK_IRQn\000"
 2380      5F42524B 
 2380      5F495251 
 2380      6E00
 2381              	.LASF45:
 2382 03bf 43414E31 		.ascii	"CAN1_RX1_IRQn\000"
 2382      5F525831 
 2382      5F495251 
 2382      6E00
 2383              	.LASF67:
 2384 03cd 434E4454 		.ascii	"CNDTR\000"
 2384      5200
 2385              	.LASF15:
 2386 03d3 63686172 		.ascii	"char\000"
 2386      00
 2387              	.LASF7:
 2388 03d8 696E7433 		.ascii	"int32_t\000"
 2388      325F7400 
 2389              	.LASF60:
 2390 03e0 53504932 		.ascii	"SPI2_IRQn\000"
 2390      5F495251 
 2390      6E00
 2391              	.LASF13:
 2392 03ea 626F6F6C 		.ascii	"bool_t\000"
 2392      5F7400
 2393              	.LASF87:
 2394 03f1 73746D33 		.ascii	"stm32_dmaisr_t\000"
 2394      325F646D 
 2394      61697372 
 2394      5F7400
 2395              	.LASF14:
 2396 0400 5F426F6F 		.ascii	"_Bool\000"
 2396      6C00
 2397              	.LASF71:
 2398 0406 49464352 		.ascii	"IFCR\000"
 2398      00
 2399              	.LASF81:
 2400 040b 6368616E 		.ascii	"channel\000"
 2400      6E656C00 
 2401              	.LASF65:
 2402 0413 5254435F 		.ascii	"RTC_Alarm_IRQn\000"
 2402      416C6172 
 2402      6D5F4952 
 2402      516E00
 2403              	.LASF99:
 2404 0422 646D6149 		.ascii	"dmaInit\000"
 2404      6E697400 
 2405              	.LASF41:
 2406 042a 444D4131 		.ascii	"DMA1_Channel7_IRQn\000"
 2406      5F436861 
 2406      6E6E656C 
 2406      375F4952 
 2406      516E00
ARM GAS  C:\Users\DNIEL~1\AppData\Local\Temp\cc8lzlwb.s 			page 48


 2407              	.LASF97:
 2408 043d 56656374 		.ascii	"Vector80\000"
 2408      6F723830 
 2408      00
 2409              	.LASF39:
 2410 0446 444D4131 		.ascii	"DMA1_Channel5_IRQn\000"
 2410      5F436861 
 2410      6E6E656C 
 2410      355F4952 
 2410      516E00
 2411              	.LASF36:
 2412 0459 444D4131 		.ascii	"DMA1_Channel2_IRQn\000"
 2412      5F436861 
 2412      6E6E656C 
 2412      325F4952 
 2412      516E00
 2413              	.LASF10:
 2414 046c 6C6F6E67 		.ascii	"long unsigned int\000"
 2414      20756E73 
 2414      69676E65 
 2414      6420696E 
 2414      7400
 2415              	.LASF98:
 2416 047e 56656374 		.ascii	"Vector84\000"
 2416      6F723834 
 2416      00
 2417              	.LASF17:
 2418 0487 4D656D6F 		.ascii	"MemoryManagement_IRQn\000"
 2418      72794D61 
 2418      6E616765 
 2418      6D656E74 
 2418      5F495251 
 2419              	.LASF27:
 2420 049d 5254435F 		.ascii	"RTC_IRQn\000"
 2420      4952516E 
 2420      00
 2421              	.LASF50:
 2422 04a6 54494D31 		.ascii	"TIM1_TRG_COM_IRQn\000"
 2422      5F545247 
 2422      5F434F4D 
 2422      5F495251 
 2422      6E00
 2423              	.LASF16:
 2424 04b8 4E6F6E4D 		.ascii	"NonMaskableInt_IRQn\000"
 2424      61736B61 
 2424      626C6549 
 2424      6E745F49 
 2424      52516E00 
 2425              	.LASF69:
 2426 04cc 434D4152 		.ascii	"CMAR\000"
 2426      00
 2427              	.LASF51:
 2428 04d1 54494D31 		.ascii	"TIM1_CC_IRQn\000"
 2428      5F43435F 
 2428      4952516E 
 2428      00
 2429              	.LASF62:
ARM GAS  C:\Users\DNIEL~1\AppData\Local\Temp\cc8lzlwb.s 			page 49


 2430 04de 55534152 		.ascii	"USART2_IRQn\000"
 2430      54325F49 
 2430      52516E00 
 2431              	.LASF49:
 2432 04ea 54494D31 		.ascii	"TIM1_UP_IRQn\000"
 2432      5F55505F 
 2432      4952516E 
 2432      00
 2433              	.LASF106:
 2434 04f7 5F73746D 		.ascii	"_stm32_dma_streams\000"
 2434      33325F64 
 2434      6D615F73 
 2434      74726561 
 2434      6D7300
 2435              	.LASF33:
 2436 050a 45585449 		.ascii	"EXTI3_IRQn\000"
 2436      335F4952 
 2436      516E00
 2437              	.LASF113:
 2438 0515 646D6153 		.ascii	"dmaStreamAllocate\000"
 2438      74726561 
 2438      6D416C6C 
 2438      6F636174 
 2438      6500
 2439              	.LASF90:
 2440 0527 646D615F 		.ascii	"dma_isr_redir_t\000"
 2440      6973725F 
 2440      72656469 
 2440      725F7400 
 2441              	.LASF108:
 2442 0537 646D615F 		.ascii	"dma_isr_redir\000"
 2442      6973725F 
 2442      72656469 
 2442      7200
 2443              	.LASF107:
 2444 0545 646D615F 		.ascii	"dma_streams_mask\000"
 2444      73747265 
 2444      616D735F 
 2444      6D61736B 
 2444      00
 2445              	.LASF83:
 2446 0556 69736869 		.ascii	"ishift\000"
 2446      667400
 2447              	.LASF105:
 2448 055d 49544D5F 		.ascii	"ITM_RxBuffer\000"
 2448      52784275 
 2448      66666572 
 2448      00
 2449              	.LASF0:
 2450 056a 756E7369 		.ascii	"unsigned int\000"
 2450      676E6564 
 2450      20696E74 
 2450      00
 2451              	.LASF56:
 2452 0577 49324331 		.ascii	"I2C1_ER_IRQn\000"
 2452      5F45525F 
 2452      4952516E 
ARM GAS  C:\Users\DNIEL~1\AppData\Local\Temp\cc8lzlwb.s 			page 50


 2452      00
 2453              	.LASF53:
 2454 0584 54494D33 		.ascii	"TIM3_IRQn\000"
 2454      5F495251 
 2454      6E00
 2455              	.LASF82:
 2456 058e 69666372 		.ascii	"ifcr\000"
 2456      00
 2457              	.LASF22:
 2458 0593 50656E64 		.ascii	"PendSV_IRQn\000"
 2458      53565F49 
 2458      52516E00 
 2459              	.LASF66:
 2460 059f 5553425F 		.ascii	"USB_FS_WKUP_IRQn\000"
 2460      46535F57 
 2460      4B55505F 
 2460      4952516E 
 2460      00
 2461              		.ident	"GCC: (Sourcery G++ Lite 2011.03-42) 4.5.2"
ARM GAS  C:\Users\DNIEL~1\AppData\Local\Temp\cc8lzlwb.s 			page 51


DEFINED SYMBOLS
                            *ABS*:00000000 stm32_dma.c
C:\Users\DNIEL~1\AppData\Local\Temp\cc8lzlwb.s:24     .text.Vector6C:00000000 $t
C:\Users\DNIEL~1\AppData\Local\Temp\cc8lzlwb.s:30     .text.Vector6C:00000000 Vector6C
C:\Users\DNIEL~1\AppData\Local\Temp\cc8lzlwb.s:70     .text.Vector6C:00000020 $d
C:\Users\DNIEL~1\AppData\Local\Temp\cc8lzlwb.s:76     .text.Vector70:00000000 $t
C:\Users\DNIEL~1\AppData\Local\Temp\cc8lzlwb.s:82     .text.Vector70:00000000 Vector70
C:\Users\DNIEL~1\AppData\Local\Temp\cc8lzlwb.s:122    .text.Vector70:00000020 $d
C:\Users\DNIEL~1\AppData\Local\Temp\cc8lzlwb.s:128    .text.Vector74:00000000 $t
C:\Users\DNIEL~1\AppData\Local\Temp\cc8lzlwb.s:134    .text.Vector74:00000000 Vector74
C:\Users\DNIEL~1\AppData\Local\Temp\cc8lzlwb.s:174    .text.Vector74:00000020 $d
C:\Users\DNIEL~1\AppData\Local\Temp\cc8lzlwb.s:180    .text.Vector78:00000000 $t
C:\Users\DNIEL~1\AppData\Local\Temp\cc8lzlwb.s:186    .text.Vector78:00000000 Vector78
C:\Users\DNIEL~1\AppData\Local\Temp\cc8lzlwb.s:226    .text.Vector78:00000020 $d
C:\Users\DNIEL~1\AppData\Local\Temp\cc8lzlwb.s:232    .text.Vector7C:00000000 $t
C:\Users\DNIEL~1\AppData\Local\Temp\cc8lzlwb.s:238    .text.Vector7C:00000000 Vector7C
C:\Users\DNIEL~1\AppData\Local\Temp\cc8lzlwb.s:278    .text.Vector7C:00000020 $d
C:\Users\DNIEL~1\AppData\Local\Temp\cc8lzlwb.s:284    .text.Vector80:00000000 $t
C:\Users\DNIEL~1\AppData\Local\Temp\cc8lzlwb.s:290    .text.Vector80:00000000 Vector80
C:\Users\DNIEL~1\AppData\Local\Temp\cc8lzlwb.s:330    .text.Vector80:00000020 $d
C:\Users\DNIEL~1\AppData\Local\Temp\cc8lzlwb.s:336    .text.Vector84:00000000 $t
C:\Users\DNIEL~1\AppData\Local\Temp\cc8lzlwb.s:342    .text.Vector84:00000000 Vector84
C:\Users\DNIEL~1\AppData\Local\Temp\cc8lzlwb.s:382    .text.Vector84:00000020 $d
C:\Users\DNIEL~1\AppData\Local\Temp\cc8lzlwb.s:388    .text.dmaInit:00000000 $t
C:\Users\DNIEL~1\AppData\Local\Temp\cc8lzlwb.s:394    .text.dmaInit:00000000 dmaInit
C:\Users\DNIEL~1\AppData\Local\Temp\cc8lzlwb.s:464    .text.dmaInit:0000004c $d
C:\Users\DNIEL~1\AppData\Local\Temp\cc8lzlwb.s:472    .text.dmaStreamAllocate:00000000 $t
C:\Users\DNIEL~1\AppData\Local\Temp\cc8lzlwb.s:478    .text.dmaStreamAllocate:00000000 dmaStreamAllocate
C:\Users\DNIEL~1\AppData\Local\Temp\cc8lzlwb.s:568    .text.dmaStreamAllocate:0000006c $d
C:\Users\DNIEL~1\AppData\Local\Temp\cc8lzlwb.s:575    .text.dmaStreamRelease:00000000 $t
C:\Users\DNIEL~1\AppData\Local\Temp\cc8lzlwb.s:581    .text.dmaStreamRelease:00000000 dmaStreamRelease
C:\Users\DNIEL~1\AppData\Local\Temp\cc8lzlwb.s:621    .text.dmaStreamRelease:00000030 $d
C:\Users\DNIEL~1\AppData\Local\Temp\cc8lzlwb.s:639    .rodata._stm32_dma_streams:00000000 _stm32_dma_streams
C:\Users\DNIEL~1\AppData\Local\Temp\cc8lzlwb.s:628    .bss.dma_isr_redir:00000000 $d
C:\Users\DNIEL~1\AppData\Local\Temp\cc8lzlwb.s:632    .bss.dma_isr_redir:00000000 dma_isr_redir
C:\Users\DNIEL~1\AppData\Local\Temp\cc8lzlwb.s:635    .rodata._stm32_dma_streams:00000000 $d
C:\Users\DNIEL~1\AppData\Local\Temp\cc8lzlwb.s:683    .bss.dma_streams_mask:00000000 $d
C:\Users\DNIEL~1\AppData\Local\Temp\cc8lzlwb.s:687    .bss.dma_streams_mask:00000000 dma_streams_mask
                     .debug_frame:00000010 $d
C:\Users\DNIEL~1\AppData\Local\Temp\cc8lzlwb.s:75     .text.Vector6C:00000028 $t
C:\Users\DNIEL~1\AppData\Local\Temp\cc8lzlwb.s:127    .text.Vector70:00000028 $t
C:\Users\DNIEL~1\AppData\Local\Temp\cc8lzlwb.s:179    .text.Vector74:00000028 $t
C:\Users\DNIEL~1\AppData\Local\Temp\cc8lzlwb.s:231    .text.Vector78:00000028 $t
C:\Users\DNIEL~1\AppData\Local\Temp\cc8lzlwb.s:283    .text.Vector7C:00000028 $t
C:\Users\DNIEL~1\AppData\Local\Temp\cc8lzlwb.s:335    .text.Vector80:00000028 $t
C:\Users\DNIEL~1\AppData\Local\Temp\cc8lzlwb.s:387    .text.Vector84:00000028 $t
C:\Users\DNIEL~1\AppData\Local\Temp\cc8lzlwb.s:471    .text.dmaInit:0000005c $t
C:\Users\DNIEL~1\AppData\Local\Temp\cc8lzlwb.s:574    .text.dmaStreamAllocate:00000078 $t
C:\Users\DNIEL~1\AppData\Local\Temp\cc8lzlwb.s:627    .text.dmaStreamRelease:00000038 $t

UNDEFINED SYMBOLS
_port_irq_epilogue
nvicEnableVector
nvicDisableVector
