ARM GAS  C:\Users\DNIEL~1\AppData\Local\Temp\ccGOQdMj.s 			page 1


   1              		.syntax unified
   2              		.cpu cortex-m3
   3              		.fpu softvfp
   4              		.eabi_attribute 20, 1
   5              		.eabi_attribute 21, 1
   6              		.eabi_attribute 23, 3
   7              		.eabi_attribute 24, 1
   8              		.eabi_attribute 25, 1
   9              		.eabi_attribute 26, 1
  10              		.eabi_attribute 30, 2
  11              		.eabi_attribute 18, 4
  12              		.thumb
  13              		.file	"test.c"
  20 0000 FA040000 		.text
  20      0200BC02 
  20      00000201 
  20      FB0E0D00 
  20      01010101 
  21              	.Ltext0:
  22              		.cfi_sections	.debug_frame
  23              		.section	.text.tmr,"ax",%progbits
  24              		.align	2
  25              		.p2align 4,,15
  26              		.thumb
  27              		.thumb_func
  28              		.type	tmr, %function
  29              	tmr:
  30              	.LFB70:
  31              		.file 1 "../../../ChibiOS/test/test.c"
  32              		.loc 1 265 0
  33              		.cfi_startproc
  34              		@ args = 0, pretend = 0, frame = 0
  35              		@ frame_needed = 0, uses_anonymous_args = 0
  36              		@ link register save eliminated.
  37              	.LVL0:
  38              		.loc 1 268 0
  39 0000 014B     		ldr	r3, .L2
  40 0002 0122     		movs	r2, #1
  41 0004 1A60     		str	r2, [r3, #0]
  42              		.loc 1 269 0
  43 0006 7047     		bx	lr
  44              	.L3:
  45              		.align	2
  46              	.L2:
  47 0008 00000000 		.word	.LANCHOR0
  48              		.cfi_endproc
  49              	.LFE70:
  50              		.size	tmr, .-tmr
  51 000c AFF30080 		.section	.text.print_line,"ax",%progbits
  52              		.align	2
  53              		.p2align 4,,15
ARM GAS  C:\Users\DNIEL~1\AppData\Local\Temp\ccGOQdMj.s 			page 2


  54              		.thumb
  55              		.thumb_func
  56              		.type	print_line, %function
  57              	print_line:
  58              	.LFB73:
  59              		.loc 1 304 0
  60              		.cfi_startproc
  61              		@ args = 0, pretend = 0, frame = 0
  62              		@ frame_needed = 0, uses_anonymous_args = 0
  63              	.LVL1:
  64 0000 38B5     		push	{r3, r4, r5, lr}
  65              	.LCFI0:
  66              		.cfi_def_cfa_offset 16
  67 0002 0B4D     		ldr	r5, .L9
  68              		.cfi_offset 14, -4
  69              		.cfi_offset 5, -8
  70              		.cfi_offset 4, -12
  71              		.cfi_offset 3, -16
  72              		.loc 1 304 0
  73 0004 4C24     		movs	r4, #76
  74              	.LVL2:
  75              	.L5:
  76              		.loc 1 308 0 discriminator 2
  77 0006 2868     		ldr	r0, [r5, #0]
  78 0008 2D21     		movs	r1, #45
  79 000a 0368     		ldr	r3, [r0, #0]
  80 000c 013C     		subs	r4, r4, #1
  81 000e 9A68     		ldr	r2, [r3, #8]
  82 0010 9047     		blx	r2
  83 0012 2868     		ldr	r0, [r5, #0]
  84 0014 0168     		ldr	r1, [r0, #0]
  85 0016 8B68     		ldr	r3, [r1, #8]
  86 0018 2D21     		movs	r1, #45
  87 001a 9847     		blx	r3
  88              		.loc 1 307 0 discriminator 2
  89 001c 013C     		subs	r4, r4, #1
  90 001e F2D1     		bne	.L5
  91              		.loc 1 309 0
  92 0020 0348     		ldr	r0, .L9
  93 0022 0449     		ldr	r1, .L9+4
  94 0024 0068     		ldr	r0, [r0, #0]
  95 0026 0268     		ldr	r2, [r0, #0]
  96 0028 1368     		ldr	r3, [r2, #0]
  97 002a 0222     		movs	r2, #2
  98 002c 9847     		blx	r3
  99              		.loc 1 310 0
 100 002e 38BD     		pop	{r3, r4, r5, pc}
 101              	.L10:
 102              		.align	2
 103              	.L9:
 104 0030 00000000 		.word	.LANCHOR1
 105 0034 00000000 		.word	.LC0
 106              		.cfi_endproc
 107              	.LFE73:
 108              		.size	print_line, .-print_line
 109 0038 AFF30080 		.section	.text.test_printn,"ax",%progbits
 109      AFF30080 
ARM GAS  C:\Users\DNIEL~1\AppData\Local\Temp\ccGOQdMj.s 			page 3


 110              		.align	2
 111              		.p2align 4,,15
 112              		.global	test_printn
 113              		.thumb
 114              		.thumb_func
 115              		.type	test_printn, %function
 116              	test_printn:
 117              	.LFB56:
 118              		.loc 1 95 0
 119              		.cfi_startproc
 120              		@ args = 0, pretend = 0, frame = 16
 121              		@ frame_needed = 0, uses_anonymous_args = 0
 122              	.LVL3:
 123 0000 F0B5     		push	{r4, r5, r6, r7, lr}
 124              	.LCFI1:
 125              		.cfi_def_cfa_offset 20
 126 0002 85B0     		sub	sp, sp, #20
 127              	.LCFI2:
 128              		.cfi_def_cfa_offset 40
 129              		.loc 1 98 0
 130 0004 0028     		cmp	r0, #0
 131 0006 31D0     		beq	.L24
 132              		.cfi_offset 14, -4
 133              		.cfi_offset 7, -8
 134              		.cfi_offset 6, -12
 135              		.cfi_offset 5, -16
 136              		.cfi_offset 4, -20
 137              		.loc 1 103 0
 138 0008 1C49     		ldr	r1, .L25
 139              		.loc 1 101 0
 140 000a 6E46     		mov	r6, sp
 141 000c 6F46     		mov	r7, sp
 142              	.LVL4:
 143              	.L14:
 144              		.loc 1 103 0
 145 000e A1FB0023 		umull	r2, r3, r1, r0
 146 0012 DB08     		lsrs	r3, r3, #3
 147 0014 03EB830C 		add	ip, r3, r3, lsl #2
 148 0018 A0EB4C02 		sub	r2, r0, ip, lsl #1
 149 001c 02F1300C 		add	ip, r2, #48
 150              		.loc 1 102 0
 151 0020 1846     		mov	r0, r3
 152              		.loc 1 103 0
 153 0022 07F801CB 		strb	ip, [r7], #1
 154              	.LVL5:
 155              		.loc 1 102 0
 156 0026 002B     		cmp	r3, #0
 157 0028 F1D1     		bne	.L14
 158              		.loc 1 104 0
 159 002a B742     		cmp	r7, r6
 160 002c 1CD9     		bls	.L11
 161 002e 144D     		ldr	r5, .L25+4
 162              		.loc 1 105 0
 163 0030 3C46     		mov	r4, r7
 164 0032 2868     		ldr	r0, [r5, #0]
 165              	.LVL6:
 166 0034 F21B     		subs	r2, r6, r7
ARM GAS  C:\Users\DNIEL~1\AppData\Local\Temp\ccGOQdMj.s 			page 4


 167 0036 0368     		ldr	r3, [r0, #0]
 168 0038 14F8011D 		ldrb	r1, [r4, #-1]!	@ zero_extendqisi2
 169 003c D743     		mvns	r7, r2
 170 003e 9A68     		ldr	r2, [r3, #8]
 171 0040 9047     		blx	r2
 172              		.loc 1 104 0
 173 0042 B442     		cmp	r4, r6
 174 0044 07F00107 		and	r7, r7, #1
 175 0048 0ED0     		beq	.L11
 176 004a 2FB9     		cbnz	r7, .L23
 177              	.L15:
 178              		.loc 1 105 0
 179 004c 2868     		ldr	r0, [r5, #0]
 180 004e 14F8011D 		ldrb	r1, [r4, #-1]!	@ zero_extendqisi2
 181 0052 0268     		ldr	r2, [r0, #0]
 182 0054 9368     		ldr	r3, [r2, #8]
 183 0056 9847     		blx	r3
 184              	.L23:
 185 0058 2868     		ldr	r0, [r5, #0]
 186 005a 14F8011D 		ldrb	r1, [r4, #-1]!	@ zero_extendqisi2
 187 005e 0268     		ldr	r2, [r0, #0]
 188 0060 9368     		ldr	r3, [r2, #8]
 189 0062 9847     		blx	r3
 190              		.loc 1 104 0
 191 0064 B442     		cmp	r4, r6
 192 0066 F1D1     		bne	.L15
 193              	.L11:
 194              		.loc 1 107 0
 195 0068 05B0     		add	sp, sp, #20
 196 006a F0BD     		pop	{r4, r5, r6, r7, pc}
 197              	.LVL7:
 198              	.L24:
 199              		.loc 1 99 0
 200 006c 0448     		ldr	r0, .L25+4
 201              	.LVL8:
 202 006e 3021     		movs	r1, #48
 203 0070 0068     		ldr	r0, [r0, #0]
 204 0072 0268     		ldr	r2, [r0, #0]
 205 0074 9368     		ldr	r3, [r2, #8]
 206 0076 9847     		blx	r3
 207 0078 F6E7     		b	.L11
 208              	.L26:
 209 007a 00BF     		.align	2
 210              	.L25:
 211 007c CDCCCCCC 		.word	-858993459
 212 0080 00000000 		.word	.LANCHOR1
 213              		.cfi_endproc
 214              	.LFE56:
 215              		.size	test_printn, .-test_printn
 216 0084 AFF30080 		.section	.text.test_print,"ax",%progbits
 216      AFF30080 
 216      AFF30080 
 217              		.align	2
 218              		.p2align 4,,15
 219              		.global	test_print
 220              		.thumb
 221              		.thumb_func
ARM GAS  C:\Users\DNIEL~1\AppData\Local\Temp\ccGOQdMj.s 			page 5


 222              		.type	test_print, %function
 223              	test_print:
 224              	.LFB57:
 225              		.loc 1 114 0
 226              		.cfi_startproc
 227              		@ args = 0, pretend = 0, frame = 0
 228              		@ frame_needed = 0, uses_anonymous_args = 0
 229              	.LVL9:
 230 0000 38B5     		push	{r3, r4, r5, lr}
 231              	.LCFI3:
 232              		.cfi_def_cfa_offset 16
 233              		.loc 1 116 0
 234 0002 0178     		ldrb	r1, [r0, #0]	@ zero_extendqisi2
 235 0004 49B1     		cbz	r1, .L27
 236              		.cfi_offset 14, -4
 237              		.cfi_offset 5, -8
 238              		.cfi_offset 4, -12
 239              		.cfi_offset 3, -16
 240 0006 054D     		ldr	r5, .L31
 241 0008 0446     		mov	r4, r0
 242              	.LVL10:
 243              	.L29:
 244              		.loc 1 117 0
 245 000a 2868     		ldr	r0, [r5, #0]
 246 000c 0268     		ldr	r2, [r0, #0]
 247 000e 9368     		ldr	r3, [r2, #8]
 248 0010 9847     		blx	r3
 249              		.loc 1 116 0
 250 0012 14F8011F 		ldrb	r1, [r4, #1]!	@ zero_extendqisi2
 251 0016 0029     		cmp	r1, #0
 252 0018 F7D1     		bne	.L29
 253              	.L27:
 254 001a 38BD     		pop	{r3, r4, r5, pc}
 255              	.L32:
 256              		.align	2
 257              	.L31:
 258 001c 00000000 		.word	.LANCHOR1
 259              		.cfi_endproc
 260              	.LFE57:
 261              		.size	test_print, .-test_print
 262              		.section	.text.test_println,"ax",%progbits
 263              		.align	2
 264              		.p2align 4,,15
 265              		.global	test_println
 266              		.thumb
 267              		.thumb_func
 268              		.type	test_println, %function
 269              	test_println:
 270              	.LFB58:
 271              		.loc 1 125 0
 272              		.cfi_startproc
 273              		@ args = 0, pretend = 0, frame = 0
 274              		@ frame_needed = 0, uses_anonymous_args = 0
 275              	.LVL11:
 276 0000 08B5     		push	{r3, lr}
 277              	.LCFI4:
 278              		.cfi_def_cfa_offset 8
ARM GAS  C:\Users\DNIEL~1\AppData\Local\Temp\ccGOQdMj.s 			page 6


 279              		.loc 1 127 0
 280              		.cfi_offset 14, -4
 281              		.cfi_offset 3, -8
 282 0002 FFF7FEFF 		bl	test_print
 283              	.LVL12:
 284              		.loc 1 128 0
 285 0006 0448     		ldr	r0, .L34
 286 0008 0449     		ldr	r1, .L34+4
 287 000a 0068     		ldr	r0, [r0, #0]
 288 000c 0222     		movs	r2, #2
 289 000e 0368     		ldr	r3, [r0, #0]
 290 0010 1B68     		ldr	r3, [r3, #0]
 291 0012 9847     		blx	r3
 292              		.loc 1 129 0
 293 0014 08BD     		pop	{r3, pc}
 294              	.L35:
 295 0016 00BF     		.align	2
 296              	.L34:
 297 0018 00000000 		.word	.LANCHOR1
 298 001c 00000000 		.word	.LC0
 299              		.cfi_endproc
 300              	.LFE58:
 301              		.size	test_println, .-test_println
 302              		.section	.text.test_emit_token,"ax",%progbits
 303              		.align	2
 304              		.p2align 4,,15
 305              		.global	test_emit_token
 306              		.thumb
 307              		.thumb_func
 308              		.type	test_emit_token, %function
 309              	test_emit_token:
 310              	.LFB61:
 311              		.loc 1 151 0
 312              		.cfi_startproc
 313              		@ args = 0, pretend = 0, frame = 0
 314              		@ frame_needed = 0, uses_anonymous_args = 0
 315              	.LVL13:
 316 0000 00B5     		push	{lr}
 317              	.LCFI5:
 318              		.cfi_def_cfa_offset 4
 319              		.loc 1 153 0
 320              	@ 153 "../../../ChibiOS/test/test.c" 1
 321 0002 FFF7FEFF 		bl      _port_lock
 322              	@ 0 "" 2
 323              		.loc 1 154 0
 324              		.thumb
 325 0006 044A     		ldr	r2, .L37
 326 0008 1368     		ldr	r3, [r2, #0]
 327 000a 03F8010B 		strb	r0, [r3], #1
 328 000e 1360     		str	r3, [r2, #0]
 329              		.loc 1 155 0
 330              	@ 155 "../../../ChibiOS/test/test.c" 1
 331 0010 FFF7FEFF 		bl      _port_unlock
 332              	@ 0 "" 2
 333              		.loc 1 156 0
 334              		.thumb
 335 0014 5DF804FB 		ldr	pc, [sp], #4
ARM GAS  C:\Users\DNIEL~1\AppData\Local\Temp\ccGOQdMj.s 			page 7


 336              		.cfi_offset 14, -4
 337              	.L38:
 338              		.align	2
 339              	.L37:
 340 0018 00000000 		.word	.LANCHOR2
 341              		.cfi_endproc
 342              	.LFE61:
 343              		.size	test_emit_token, .-test_emit_token
 344 001c AFF30080 		.section	.text._test_fail,"ax",%progbits
 345              		.align	2
 346              		.p2align 4,,15
 347              		.global	_test_fail
 348              		.thumb
 349              		.thumb_func
 350              		.type	_test_fail, %function
 351              	_test_fail:
 352              	.LFB62:
 353              		.loc 1 161 0
 354              		.cfi_startproc
 355              		@ args = 0, pretend = 0, frame = 0
 356              		@ frame_needed = 0, uses_anonymous_args = 0
 357              		@ link register save eliminated.
 358              	.LVL14:
 359              		.loc 1 165 0
 360 0000 0449     		ldr	r1, .L40
 361              		.loc 1 164 0
 362 0002 054A     		ldr	r2, .L40+4
 363              		.loc 1 165 0
 364 0004 0860     		str	r0, [r1, #0]
 365              		.loc 1 163 0
 366 0006 0548     		ldr	r0, .L40+8
 367              	.LVL15:
 368 0008 0123     		movs	r3, #1
 369 000a 0360     		str	r3, [r0, #0]
 370              		.loc 1 164 0
 371 000c 1360     		str	r3, [r2, #0]
 372              		.loc 1 167 0
 373 000e 1846     		mov	r0, r3
 374 0010 7047     		bx	lr
 375              	.L41:
 376 0012 00BF     		.align	2
 377              	.L40:
 378 0014 00000000 		.word	.LANCHOR5
 379 0018 00000000 		.word	.LANCHOR4
 380 001c 00000000 		.word	.LANCHOR3
 381              		.cfi_endproc
 382              	.LFE62:
 383              		.size	_test_fail, .-_test_fail
 384              		.section	.text._test_assert,"ax",%progbits
 385              		.align	2
 386              		.p2align 4,,15
 387              		.global	_test_assert
 388              		.thumb
 389              		.thumb_func
 390              		.type	_test_assert, %function
 391              	_test_assert:
 392              	.LFB63:
ARM GAS  C:\Users\DNIEL~1\AppData\Local\Temp\ccGOQdMj.s 			page 8


 393              		.loc 1 169 0
 394              		.cfi_startproc
 395              		@ args = 0, pretend = 0, frame = 0
 396              		@ frame_needed = 0, uses_anonymous_args = 0
 397              		@ link register save eliminated.
 398              	.LVL16:
 399              		.loc 1 171 0
 400 0000 41B9     		cbnz	r1, .L44
 401              	.LVL17:
 402              	.LBB22:
 403              	.LBB23:
 404              		.loc 1 163 0
 405 0002 054A     		ldr	r2, .L45
 406 0004 0123     		movs	r3, #1
 407 0006 1360     		str	r3, [r2, #0]
 408              		.loc 1 164 0
 409 0008 0449     		ldr	r1, .L45+4
 410              	.LVL18:
 411              		.loc 1 165 0
 412 000a 054A     		ldr	r2, .L45+8
 413              		.loc 1 164 0
 414 000c 0B60     		str	r3, [r1, #0]
 415              		.loc 1 165 0
 416 000e 1060     		str	r0, [r2, #0]
 417              	.LBE23:
 418              	.LBE22:
 419              		.loc 1 172 0
 420 0010 1846     		mov	r0, r3
 421              	.LVL19:
 422 0012 7047     		bx	lr
 423              	.LVL20:
 424              	.L44:
 425              		.loc 1 173 0
 426 0014 0020     		movs	r0, #0
 427              	.LVL21:
 428              		.loc 1 174 0
 429 0016 7047     		bx	lr
 430              	.L46:
 431              		.align	2
 432              	.L45:
 433 0018 00000000 		.word	.LANCHOR3
 434 001c 00000000 		.word	.LANCHOR4
 435 0020 00000000 		.word	.LANCHOR5
 436              		.cfi_endproc
 437              	.LFE63:
 438              		.size	_test_assert, .-_test_assert
 439 0024 AFF30080 		.section	.text._test_assert_sequence,"ax",%progbits
 439      AFF30080 
 439      AFF30080 
 440              		.align	2
 441              		.p2align 4,,15
 442              		.global	_test_assert_sequence
 443              		.thumb
 444              		.thumb_func
 445              		.type	_test_assert_sequence, %function
 446              	_test_assert_sequence:
 447              	.LFB64:
ARM GAS  C:\Users\DNIEL~1\AppData\Local\Temp\ccGOQdMj.s 			page 9


 448              		.loc 1 176 0
 449              		.cfi_startproc
 450              		@ args = 0, pretend = 0, frame = 0
 451              		@ frame_needed = 0, uses_anonymous_args = 0
 452              		@ link register save eliminated.
 453              	.LVL22:
 454 0000 2DE9F001 		push	{r4, r5, r6, r7, r8}
 455              	.LCFI6:
 456              		.cfi_def_cfa_offset 20
 457              		.loc 1 185 0
 458 0004 194C     		ldr	r4, .L63
 459              		.cfi_offset 8, -4
 460              		.cfi_offset 7, -8
 461              		.cfi_offset 6, -12
 462              		.cfi_offset 5, -16
 463              		.cfi_offset 4, -20
 464              		.loc 1 177 0
 465 0006 1A4A     		ldr	r2, .L63+4
 466              		.loc 1 185 0
 467 0008 2368     		ldr	r3, [r4, #0]
 468              		.loc 1 177 0
 469 000a 1546     		mov	r5, r2
 470 000c 9E1A     		subs	r6, r3, r2
 471 000e 16F0010F 		tst	r6, #1
 472 0012 17D0     		beq	.L48
 473              	.LVL23:
 474              		.loc 1 178 0
 475 0014 9342     		cmp	r3, r2
 476 0016 19D9     		bls	.L60
 477              		.loc 1 179 0
 478 0018 1546     		mov	r5, r2
 479 001a 15F8017B 		ldrb	r7, [r5], #1	@ zero_extendqisi2
 480 001e 11F8016B 		ldrb	r6, [r1], #1	@ zero_extendqisi2
 481              	.LVL24:
 482 0022 B742     		cmp	r7, r6
 483 0024 0ED0     		beq	.L48
 484 0026 16E0     		b	.L62
 485              	.LVL25:
 486              	.L50:
 487 0028 17F8018B 		ldrb	r8, [r7], #1	@ zero_extendqisi2
 488 002c 16F801CB 		ldrb	ip, [r6], #1	@ zero_extendqisi2
 489              	.LVL26:
 490 0030 E045     		cmp	r8, ip
 491 0032 10D1     		bne	.L62
 492 0034 95F80180 		ldrb	r8, [r5, #1]	@ zero_extendqisi2
 493 0038 91F801C0 		ldrb	ip, [r1, #1]	@ zero_extendqisi2
 494 003c 7D1C     		adds	r5, r7, #1
 495 003e 711C     		adds	r1, r6, #1
 496 0040 E045     		cmp	r8, ip
 497 0042 08D1     		bne	.L62
 498              	.L48:
 499              	.LVL27:
 500              		.loc 1 178 0 discriminator 1
 501 0044 AB42     		cmp	r3, r5
 502              		.loc 1 179 0 discriminator 1
 503 0046 2F46     		mov	r7, r5
 504 0048 0E46     		mov	r6, r1
ARM GAS  C:\Users\DNIEL~1\AppData\Local\Temp\ccGOQdMj.s 			page 10


 505              		.loc 1 178 0 discriminator 1
 506 004a EDD8     		bhi	.L50
 507              	.L60:
 508              		.loc 1 182 0
 509 004c 0B78     		ldrb	r3, [r1, #0]	@ zero_extendqisi2
 510 004e 13B9     		cbnz	r3, .L62
 511              	.LBB24:
 512              	.LBB25:
 513              		.loc 1 136 0
 514 0050 2260     		str	r2, [r4, #0]
 515              	.LBE25:
 516              	.LBE24:
 517              		.loc 1 185 0
 518 0052 1846     		mov	r0, r3
 519              	.LVL28:
 520 0054 07E0     		b	.L49
 521              	.LVL29:
 522              	.L62:
 523              	.LBB26:
 524              	.LBB27:
 525              		.loc 1 163 0
 526 0056 074A     		ldr	r2, .L63+8
 527 0058 0123     		movs	r3, #1
 528 005a 1360     		str	r3, [r2, #0]
 529              		.loc 1 164 0
 530 005c 0649     		ldr	r1, .L63+12
 531              		.loc 1 165 0
 532 005e 074A     		ldr	r2, .L63+16
 533              		.loc 1 164 0
 534 0060 0B60     		str	r3, [r1, #0]
 535              		.loc 1 165 0
 536 0062 1060     		str	r0, [r2, #0]
 537              	.LBE27:
 538              	.LBE26:
 539              		.loc 1 183 0
 540 0064 1846     		mov	r0, r3
 541              	.LVL30:
 542              	.L49:
 543              		.loc 1 186 0
 544 0066 BDE8F001 		pop	{r4, r5, r6, r7, r8}
 545 006a 7047     		bx	lr
 546              	.L64:
 547              		.align	2
 548              	.L63:
 549 006c 00000000 		.word	.LANCHOR2
 550 0070 00000000 		.word	.LANCHOR6
 551 0074 00000000 		.word	.LANCHOR3
 552 0078 00000000 		.word	.LANCHOR4
 553 007c 00000000 		.word	.LANCHOR5
 554              		.cfi_endproc
 555              	.LFE64:
 556              		.size	_test_assert_sequence, .-_test_assert_sequence
 557              		.section	.text._test_assert_time_window,"ax",%progbits
 558              		.align	2
 559              		.p2align 4,,15
 560              		.global	_test_assert_time_window
 561              		.thumb
ARM GAS  C:\Users\DNIEL~1\AppData\Local\Temp\ccGOQdMj.s 			page 11


 562              		.thumb_func
 563              		.type	_test_assert_time_window, %function
 564              	_test_assert_time_window:
 565              	.LFB65:
 566              		.loc 1 188 0
 567              		.cfi_startproc
 568              		@ args = 0, pretend = 0, frame = 0
 569              		@ frame_needed = 0, uses_anonymous_args = 0
 570              	.LVL31:
 571 0000 10B5     		push	{r4, lr}
 572              	.LCFI7:
 573              		.cfi_def_cfa_offset 8
 574              		.loc 1 188 0
 575 0002 0446     		mov	r4, r0
 576              		.cfi_offset 14, -4
 577              		.cfi_offset 4, -8
 578              		.loc 1 190 0
 579 0004 0846     		mov	r0, r1
 580              	.LVL32:
 581 0006 1146     		mov	r1, r2
 582              	.LVL33:
 583 0008 FFF7FEFF 		bl	chTimeIsWithin
 584              	.LVL34:
 585              	.LBB28:
 586              	.LBB29:
 587              		.loc 1 171 0
 588 000c 38B9     		cbnz	r0, .L67
 589              	.LVL35:
 590              	.LBB30:
 591              	.LBB31:
 592              		.loc 1 163 0
 593 000e 054A     		ldr	r2, .L68
 594              		.loc 1 164 0
 595 0010 0549     		ldr	r1, .L68+4
 596              		.loc 1 165 0
 597 0012 064B     		ldr	r3, .L68+8
 598              		.loc 1 163 0
 599 0014 0120     		movs	r0, #1
 600              	.LVL36:
 601 0016 1060     		str	r0, [r2, #0]
 602              		.loc 1 164 0
 603 0018 0860     		str	r0, [r1, #0]
 604              		.loc 1 165 0
 605 001a 1C60     		str	r4, [r3, #0]
 606 001c 10BD     		pop	{r4, pc}
 607              	.LVL37:
 608              	.L67:
 609              	.LBE31:
 610              	.LBE30:
 611              		.loc 1 173 0
 612 001e 0020     		movs	r0, #0
 613              	.LVL38:
 614              	.LBE29:
 615              	.LBE28:
 616              		.loc 1 191 0
 617 0020 10BD     		pop	{r4, pc}
 618              	.L69:
ARM GAS  C:\Users\DNIEL~1\AppData\Local\Temp\ccGOQdMj.s 			page 12


 619 0022 00BF     		.align	2
 620              	.L68:
 621 0024 00000000 		.word	.LANCHOR3
 622 0028 00000000 		.word	.LANCHOR4
 623 002c 00000000 		.word	.LANCHOR5
 624              		.cfi_endproc
 625              	.LFE65:
 626              		.size	_test_assert_time_window, .-_test_assert_time_window
 627              		.section	.text.test_terminate_threads,"ax",%progbits
 628              		.align	2
 629              		.p2align 4,,15
 630              		.global	test_terminate_threads
 631              		.thumb
 632              		.thumb_func
 633              		.type	test_terminate_threads, %function
 634              	test_terminate_threads:
 635              	.LFB66:
 636              		.loc 1 200 0
 637              		.cfi_startproc
 638              		@ args = 0, pretend = 0, frame = 0
 639              		@ frame_needed = 0, uses_anonymous_args = 0
 640              	.LVL39:
 641 0000 10B5     		push	{r4, lr}
 642              	.LCFI8:
 643              		.cfi_def_cfa_offset 8
 644              		.loc 1 204 0
 645 0002 0C4C     		ldr	r4, .L76
 646              		.cfi_offset 14, -4
 647              		.cfi_offset 4, -8
 648 0004 2068     		ldr	r0, [r4, #0]
 649 0006 08B1     		cbz	r0, .L71
 650              		.loc 1 205 0
 651 0008 FFF7FEFF 		bl	chThdTerminate
 652              	.L71:
 653              	.LVL40:
 654              		.loc 1 204 0
 655 000c 6068     		ldr	r0, [r4, #4]
 656 000e 08B1     		cbz	r0, .L72
 657              		.loc 1 205 0
 658 0010 FFF7FEFF 		bl	chThdTerminate
 659              	.L72:
 660              	.LVL41:
 661              		.loc 1 204 0
 662 0014 A068     		ldr	r0, [r4, #8]
 663 0016 08B1     		cbz	r0, .L73
 664              		.loc 1 205 0
 665 0018 FFF7FEFF 		bl	chThdTerminate
 666              	.L73:
 667              	.LVL42:
 668              		.loc 1 204 0
 669 001c E068     		ldr	r0, [r4, #12]
 670 001e 08B1     		cbz	r0, .L74
 671              		.loc 1 205 0
 672 0020 FFF7FEFF 		bl	chThdTerminate
 673              	.L74:
 674              	.LVL43:
 675              		.loc 1 204 0
ARM GAS  C:\Users\DNIEL~1\AppData\Local\Temp\ccGOQdMj.s 			page 13


 676 0024 2069     		ldr	r0, [r4, #16]
 677 0026 18B1     		cbz	r0, .L70
 678              		.loc 1 206 0
 679 0028 BDE81040 		pop	{r4, lr}
 680              		.loc 1 205 0
 681 002c FFF7FEBF 		b	chThdTerminate
 682              	.L70:
 683 0030 10BD     		pop	{r4, pc}
 684              	.L77:
 685 0032 00BF     		.align	2
 686              	.L76:
 687 0034 00000000 		.word	.LANCHOR7
 688              		.cfi_endproc
 689              	.LFE66:
 690              		.size	test_terminate_threads, .-test_terminate_threads
 691 0038 AFF30080 		.section	.text.test_wait_threads,"ax",%progbits
 691      AFF30080 
 692              		.align	2
 693              		.p2align 4,,15
 694              		.global	test_wait_threads
 695              		.thumb
 696              		.thumb_func
 697              		.type	test_wait_threads, %function
 698              	test_wait_threads:
 699              	.LFB67:
 700              		.loc 1 211 0
 701              		.cfi_startproc
 702              		@ args = 0, pretend = 0, frame = 0
 703              		@ frame_needed = 0, uses_anonymous_args = 0
 704              	.LVL44:
 705 0000 10B5     		push	{r4, lr}
 706              	.LCFI9:
 707              		.cfi_def_cfa_offset 8
 708              		.loc 1 215 0
 709 0002 124C     		ldr	r4, .L84
 710              		.cfi_offset 14, -4
 711              		.cfi_offset 4, -8
 712 0004 2068     		ldr	r0, [r4, #0]
 713 0006 18B1     		cbz	r0, .L79
 714              		.loc 1 216 0
 715 0008 FFF7FEFF 		bl	chThdWait
 716              		.loc 1 217 0
 717 000c 0023     		movs	r3, #0
 718 000e 2360     		str	r3, [r4, #0]
 719              	.L79:
 720              	.LVL45:
 721              		.loc 1 215 0
 722 0010 6068     		ldr	r0, [r4, #4]
 723 0012 20B1     		cbz	r0, .L80
 724              		.loc 1 216 0
 725 0014 FFF7FEFF 		bl	chThdWait
 726              		.loc 1 217 0
 727 0018 0C48     		ldr	r0, .L84
 728 001a 0022     		movs	r2, #0
 729 001c 4260     		str	r2, [r0, #4]
 730              	.L80:
 731              	.LVL46:
ARM GAS  C:\Users\DNIEL~1\AppData\Local\Temp\ccGOQdMj.s 			page 14


 732              		.loc 1 215 0
 733 001e A068     		ldr	r0, [r4, #8]
 734 0020 20B1     		cbz	r0, .L81
 735              		.loc 1 216 0
 736 0022 FFF7FEFF 		bl	chThdWait
 737              		.loc 1 217 0
 738 0026 094B     		ldr	r3, .L84
 739 0028 0021     		movs	r1, #0
 740 002a 9960     		str	r1, [r3, #8]
 741              	.L81:
 742              	.LVL47:
 743              		.loc 1 215 0
 744 002c E068     		ldr	r0, [r4, #12]
 745 002e 20B1     		cbz	r0, .L82
 746              		.loc 1 216 0
 747 0030 FFF7FEFF 		bl	chThdWait
 748              		.loc 1 217 0
 749 0034 0548     		ldr	r0, .L84
 750 0036 0022     		movs	r2, #0
 751 0038 C260     		str	r2, [r0, #12]
 752              	.L82:
 753              	.LVL48:
 754              		.loc 1 215 0
 755 003a 2069     		ldr	r0, [r4, #16]
 756 003c 20B1     		cbz	r0, .L78
 757              		.loc 1 216 0
 758 003e FFF7FEFF 		bl	chThdWait
 759              		.loc 1 217 0
 760 0042 024B     		ldr	r3, .L84
 761 0044 0021     		movs	r1, #0
 762 0046 1961     		str	r1, [r3, #16]
 763              	.LVL49:
 764              	.L78:
 765 0048 10BD     		pop	{r4, pc}
 766              	.L85:
 767 004a 00BF     		.align	2
 768              	.L84:
 769 004c 00000000 		.word	.LANCHOR7
 770              		.cfi_endproc
 771              	.LFE67:
 772              		.size	test_wait_threads, .-test_wait_threads
 773              		.section	.text.test_cpu_pulse,"ax",%progbits
 774              		.align	2
 775              		.p2align 4,,15
 776              		.global	test_cpu_pulse
 777              		.thumb
 778              		.thumb_func
 779              		.type	test_cpu_pulse, %function
 780              	test_cpu_pulse:
 781              	.LFB68:
 782              		.loc 1 228 0
 783              		.cfi_startproc
 784              		@ args = 0, pretend = 0, frame = 0
 785              		@ frame_needed = 0, uses_anonymous_args = 0
 786              		@ link register save eliminated.
 787              	.LVL50:
 788              		.loc 1 232 0
ARM GAS  C:\Users\DNIEL~1\AppData\Local\Temp\ccGOQdMj.s 			page 15


 789 0000 4FF47A71 		mov	r1, #1000
 790 0004 01FB00FC 		mul	ip, r1, r0
 791              		.loc 1 228 0
 792 0008 10B4     		push	{r4}
 793              	.LCFI10:
 794              		.cfi_def_cfa_offset 4
 795              		.loc 1 231 0
 796 000a 0D4C     		ldr	r4, .L98
 797              		.cfi_offset 4, -4
 798              		.loc 1 232 0
 799 000c 0D4A     		ldr	r2, .L98+4
 800              		.loc 1 231 0
 801 000e A469     		ldr	r4, [r4, #24]
 802              		.loc 1 232 0
 803 0010 ACF57A73 		sub	r3, ip, #1000
 804 0014 A2FB0331 		umull	r3, r1, r2, r3
 805              		.loc 1 231 0
 806 0018 226A     		ldr	r2, [r4, #32]
 807              	.LVL51:
 808              		.loc 1 232 0
 809 001a 501C     		adds	r0, r2, #1
 810              	.LVL52:
 811 001c 00EB9111 		add	r1, r0, r1, lsr #6
 812              	.LVL53:
 813              	.L96:
 814              		.loc 1 239 0
 815 0020 8A42     		cmp	r2, r1
 816              		.loc 1 234 0
 817 0022 236A     		ldr	r3, [r4, #32]
 818              	.LVL54:
 819              		.loc 1 239 0
 820 0024 03D2     		bcs	.L87
 821              		.loc 1 239 0 is_stmt 0 discriminator 1
 822 0026 9A42     		cmp	r2, r3
 823 0028 03D9     		bls	.L97
 824              	.LVL55:
 825              	.L95:
 826              		.loc 1 241 0 is_stmt 1
 827 002a 10BC     		pop	{r4}
 828 002c 7047     		bx	lr
 829              	.LVL56:
 830              	.L87:
 831              		.loc 1 239 0 discriminator 2
 832 002e 9A42     		cmp	r2, r3
 833 0030 F6D9     		bls	.L96
 834              	.L97:
 835              		.loc 1 239 0 is_stmt 0
 836 0032 9942     		cmp	r1, r3
 837 0034 94BF     		ite	ls
 838 0036 0023     		movls	r3, #0
 839              	.LVL57:
 840 0038 0123     		movhi	r3, #1
 841              		.loc 1 240 0 is_stmt 1
 842 003a 002B     		cmp	r3, #0
 843 003c F0D1     		bne	.L96
 844 003e F4E7     		b	.L95
 845              	.L99:
ARM GAS  C:\Users\DNIEL~1\AppData\Local\Temp\ccGOQdMj.s 			page 16


 846              		.align	2
 847              	.L98:
 848 0040 00000000 		.word	rlist
 849 0044 D34D6210 		.word	274877907
 850              		.cfi_endproc
 851              	.LFE68:
 852              		.size	test_cpu_pulse, .-test_cpu_pulse
 853 0048 AFF30080 		.section	.text.test_wait_tick,"ax",%progbits
 853      AFF30080 
 854              		.align	2
 855              		.p2align 4,,15
 856              		.global	test_wait_tick
 857              		.thumb
 858              		.thumb_func
 859              		.type	test_wait_tick, %function
 860              	test_wait_tick:
 861              	.LFB69:
 862              		.loc 1 249 0
 863              		.cfi_startproc
 864              		@ args = 0, pretend = 0, frame = 0
 865              		@ frame_needed = 0, uses_anonymous_args = 0
 866 0000 08B5     		push	{r3, lr}
 867              	.LCFI11:
 868              		.cfi_def_cfa_offset 8
 869              		.loc 1 251 0
 870 0002 0120     		movs	r0, #1
 871              		.cfi_offset 14, -4
 872              		.cfi_offset 3, -8
 873 0004 FFF7FEFF 		bl	chThdSleep
 874              		.loc 1 252 0
 875 0008 014B     		ldr	r3, .L101
 876 000a D868     		ldr	r0, [r3, #12]
 877              		.loc 1 253 0
 878 000c 08BD     		pop	{r3, pc}
 879              	.L102:
 880 000e 00BF     		.align	2
 881              	.L101:
 882 0010 00000000 		.word	vtlist
 883              		.cfi_endproc
 884              	.LFE69:
 885              		.size	test_wait_tick, .-test_wait_tick
 886 0014 AFF30080 		.section	.text.test_start_timer,"ax",%progbits
 886      AFF30080 
 886      AFF30080 
 887              		.align	2
 888              		.p2align 4,,15
 889              		.global	test_start_timer
 890              		.thumb
 891              		.thumb_func
 892              		.type	test_start_timer, %function
 893              	test_start_timer:
 894              	.LFB71:
 895              		.loc 1 276 0
 896              		.cfi_startproc
 897              		@ args = 0, pretend = 0, frame = 0
 898              		@ frame_needed = 0, uses_anonymous_args = 0
 899              	.LVL58:
ARM GAS  C:\Users\DNIEL~1\AppData\Local\Temp\ccGOQdMj.s 			page 17


 900              		.loc 1 279 0
 901 0000 0C49     		ldr	r1, .L104
 902              		.loc 1 276 0
 903 0002 10B5     		push	{r4, lr}
 904              	.LCFI12:
 905              		.cfi_def_cfa_offset 8
 906              		.loc 1 279 0
 907 0004 0024     		movs	r4, #0
 908              		.cfi_offset 14, -4
 909              		.cfi_offset 4, -8
 910 0006 0C60     		str	r4, [r1, #0]
 911              	.LVL59:
 912              		.loc 1 280 0
 913              	@ 280 "../../../ChibiOS/test/test.c" 1
 914 0008 FFF7FEFF 		bl      _port_lock
 915              	@ 0 "" 2
 916              		.loc 1 278 0
 917              		.thumb
 918 000c 4FF47A7E 		mov	lr, #1000
 919 0010 0EFB00FC 		mul	ip, lr, r0
 920 0014 084B     		ldr	r3, .L104+4
 921 0016 ACF57A72 		sub	r2, ip, #1000
 922 001a A3FB0220 		umull	r2, r0, r3, r2
 923              	.LVL60:
 924 001e 8109     		lsrs	r1, r0, #6
 925              		.loc 1 280 0
 926 0020 0131     		adds	r1, r1, #1
 927 0022 0648     		ldr	r0, .L104+8
 928 0024 064A     		ldr	r2, .L104+12
 929 0026 2346     		mov	r3, r4
 930 0028 FFF7FEFF 		bl	chVTSetI
 931              	@ 280 "../../../ChibiOS/test/test.c" 1
 932 002c FFF7FEFF 		bl      _port_unlock
 933              	@ 0 "" 2
 934              		.loc 1 281 0
 935              		.thumb
 936 0030 10BD     		pop	{r4, pc}
 937              	.L105:
 938 0032 00BF     		.align	2
 939              	.L104:
 940 0034 00000000 		.word	.LANCHOR0
 941 0038 D34D6210 		.word	274877907
 942 003c 00000000 		.word	.LANCHOR8
 943 0040 00000000 		.word	tmr
 944              		.cfi_endproc
 945              	.LFE71:
 946              		.size	test_start_timer, .-test_start_timer
 947 0044 AFF30080 		.section	.text.TestThread,"ax",%progbits
 947      AFF30080 
 947      AFF30080 
 948              		.align	2
 949              		.p2align 4,,15
 950              		.global	TestThread
 951              		.thumb
 952              		.thumb_func
 953              		.type	TestThread, %function
 954              	TestThread:
ARM GAS  C:\Users\DNIEL~1\AppData\Local\Temp\ccGOQdMj.s 			page 18


 955              	.LFB74:
 956              		.loc 1 318 0
 957              		.cfi_startproc
 958              		@ args = 0, pretend = 0, frame = 8
 959              		@ frame_needed = 0, uses_anonymous_args = 0
 960              	.LVL61:
 961 0000 2DE9F04F 		push	{r4, r5, r6, r7, r8, r9, sl, fp, lr}
 962              	.LCFI13:
 963              		.cfi_def_cfa_offset 36
 964              		.loc 1 321 0
 965 0004 6A4F     		ldr	r7, .L123
 966              		.cfi_offset 14, -4
 967              		.cfi_offset 11, -8
 968              		.cfi_offset 10, -12
 969              		.cfi_offset 9, -16
 970              		.cfi_offset 8, -20
 971              		.cfi_offset 7, -24
 972              		.cfi_offset 6, -28
 973              		.cfi_offset 5, -32
 974              		.cfi_offset 4, -36
 975              		.loc 1 318 0
 976 0006 83B0     		sub	sp, sp, #12
 977              	.LCFI14:
 978              		.cfi_def_cfa_offset 48
 979              		.loc 1 321 0
 980 0008 3860     		str	r0, [r7, #0]
 981              		.loc 1 322 0
 982 000a 6A48     		ldr	r0, .L123+4
 983              	.LVL62:
 984 000c FFF7FEFF 		bl	test_println
 985              	.LVL63:
 986              		.loc 1 323 0
 987 0010 6948     		ldr	r0, .L123+8
 988 0012 FFF7FEFF 		bl	test_println
 989              		.loc 1 324 0
 990 0016 6948     		ldr	r0, .L123+12
 991 0018 FFF7FEFF 		bl	test_println
 992              		.loc 1 325 0
 993 001c 6848     		ldr	r0, .L123+16
 994 001e FFF7FEFF 		bl	test_print
 995              		.loc 1 326 0
 996 0022 6848     		ldr	r0, .L123+20
 997 0024 FFF7FEFF 		bl	test_println
 998              		.loc 1 327 0
 999 0028 6748     		ldr	r0, .L123+24
 1000 002a FFF7FEFF 		bl	test_print
 1001              		.loc 1 328 0
 1002 002e 6748     		ldr	r0, .L123+28
 1003 0030 FFF7FEFF 		bl	test_println
 1004              		.loc 1 330 0
 1005 0034 6648     		ldr	r0, .L123+32
 1006 0036 FFF7FEFF 		bl	test_print
 1007              		.loc 1 331 0
 1008 003a 6648     		ldr	r0, .L123+36
 1009 003c FFF7FEFF 		bl	test_println
 1010              		.loc 1 333 0
 1011 0040 6548     		ldr	r0, .L123+40
ARM GAS  C:\Users\DNIEL~1\AppData\Local\Temp\ccGOQdMj.s 			page 19


 1012 0042 FFF7FEFF 		bl	test_print
 1013              		.loc 1 334 0
 1014 0046 6548     		ldr	r0, .L123+44
 1015 0048 FFF7FEFF 		bl	test_println
 1016              		.loc 1 336 0
 1017 004c 6448     		ldr	r0, .L123+48
 1018 004e FFF7FEFF 		bl	test_print
 1019              		.loc 1 337 0
 1020 0052 6448     		ldr	r0, .L123+52
 1021 0054 FFF7FEFF 		bl	test_println
 1022              		.loc 1 340 0
 1023 0058 6348     		ldr	r0, .L123+56
 1024 005a FFF7FEFF 		bl	test_print
 1025              		.loc 1 341 0
 1026 005e 6348     		ldr	r0, .L123+60
 1027 0060 FFF7FEFF 		bl	test_println
 1028              		.loc 1 344 0
 1029 0064 6248     		ldr	r0, .L123+64
 1030 0066 FFF7FEFF 		bl	test_print
 1031              		.loc 1 345 0
 1032 006a 6248     		ldr	r0, .L123+68
 1033 006c FFF7FEFF 		bl	test_println
 1034              		.loc 1 348 0
 1035 0070 6148     		ldr	r0, .L123+72
 1036 0072 FFF7FEFF 		bl	test_print
 1037              		.loc 1 349 0
 1038 0076 6148     		ldr	r0, .L123+76
 1039 0078 FFF7FEFF 		bl	test_println
 1040              		.loc 1 351 0
 1041 007c 4D48     		ldr	r0, .L123+4
 1042 007e FFF7FEFF 		bl	test_println
 1043              		.loc 1 353 0
 1044 0082 5F4A     		ldr	r2, .L123+80
 1045 0084 0023     		movs	r3, #0
 1046 0086 5F4C     		ldr	r4, .L123+84
 1047 0088 DFF8B4B1 		ldr	fp, .L123+144
 1048              	.LBB32:
 1049              	.LBB34:
 1050              	.LBB35:
 1051              	.LBB36:
 1052              		.loc 1 136 0
 1053 008c 5E4D     		ldr	r5, .L123+88
 1054 008e DFF898A1 		ldr	sl, .L123+120
 1055              	.LBE36:
 1056              	.LBE35:
 1057              		.loc 1 291 0
 1058 0092 DFF8B091 		ldr	r9, .L123+148
 1059              		.loc 1 293 0
 1060 0096 DFF8B081 		ldr	r8, .L123+152
 1061              	.LBE34:
 1062              	.LBE32:
 1063              		.loc 1 353 0
 1064 009a 1360     		str	r3, [r2, #0]
 1065              	.LVL64:
 1066              		.loc 1 354 0
 1067 009c 0193     		str	r3, [sp, #4]
 1068              	.LVL65:
ARM GAS  C:\Users\DNIEL~1\AppData\Local\Temp\ccGOQdMj.s 			page 20


 1069              	.L107:
 1070              		.loc 1 355 0 discriminator 1
 1071 009e 0199     		ldr	r1, [sp, #4]
 1072 00a0 4E1C     		adds	r6, r1, #1
 1073 00a2 0196     		str	r6, [sp, #4]
 1074              		.loc 1 318 0 discriminator 1
 1075 00a4 0026     		movs	r6, #0
 1076              	.LVL66:
 1077              		.loc 1 357 0 discriminator 1
 1078 00a6 54F82600 		ldr	r0, [r4, r6, lsl #2]
 1079 00aa B300     		lsls	r3, r6, #2
 1080 00ac 0028     		cmp	r0, #0
 1081 00ae 5DD0     		beq	.L120
 1082              	.LVL67:
 1083              	.L114:
 1084              		.loc 1 358 0
 1085 00b0 0093     		str	r3, [sp, #0]
 1086 00b2 FFF7FEFF 		bl	print_line
 1087              		.loc 1 359 0
 1088 00b6 5548     		ldr	r0, .L123+92
 1089 00b8 FFF7FEFF 		bl	test_print
 1090              		.loc 1 360 0
 1091 00bc 0198     		ldr	r0, [sp, #4]
 1092 00be FFF7FEFF 		bl	test_printn
 1093              		.loc 1 362 0
 1094 00c2 0136     		adds	r6, r6, #1
 1095              	.LVL68:
 1096              		.loc 1 361 0
 1097 00c4 5248     		ldr	r0, .L123+96
 1098 00c6 FFF7FEFF 		bl	test_print
 1099              		.loc 1 362 0
 1100 00ca 3046     		mov	r0, r6
 1101 00cc FFF7FEFF 		bl	test_printn
 1102              		.loc 1 363 0
 1103 00d0 5048     		ldr	r0, .L123+100
 1104 00d2 FFF7FEFF 		bl	test_print
 1105              		.loc 1 364 0
 1106 00d6 009A     		ldr	r2, [sp, #0]
 1107 00d8 A358     		ldr	r3, [r4, r2]
 1108 00da 1868     		ldr	r0, [r3, #0]
 1109 00dc FFF7FEFF 		bl	test_print
 1110              		.loc 1 365 0
 1111 00e0 4D48     		ldr	r0, .L123+104
 1112 00e2 FFF7FEFF 		bl	test_println
 1113              		.loc 1 367 0
 1114 00e6 C820     		movs	r0, #200
 1115 00e8 FFF7FEFF 		bl	chThdSleep
 1116              		.loc 1 369 0
 1117 00ec 0099     		ldr	r1, [sp, #0]
 1118              	.LBB40:
 1119              	.LBB33:
 1120              		.loc 1 291 0
 1121 00ee 0020     		movs	r0, #0
 1122              	.LBE33:
 1123              	.LBE40:
 1124              		.loc 1 369 0
 1125 00f0 6458     		ldr	r4, [r4, r1]
ARM GAS  C:\Users\DNIEL~1\AppData\Local\Temp\ccGOQdMj.s 			page 21


 1126              	.LVL69:
 1127              	.LBB41:
 1128              	.LBB39:
 1129              	.LBB38:
 1130              	.LBB37:
 1131              		.loc 1 136 0
 1132 00f2 C5F800A0 		str	sl, [r5, #0]
 1133              	.LBE37:
 1134              	.LBE38:
 1135              		.loc 1 295 0
 1136 00f6 6368     		ldr	r3, [r4, #4]
 1137              		.loc 1 291 0
 1138 00f8 C9F80000 		str	r0, [r9, #0]
 1139              	.LVL70:
 1140              		.loc 1 293 0
 1141 00fc C8F80000 		str	r0, [r8, #0]
 1142              	.LVL71:
 1143 0100 C8F80400 		str	r0, [r8, #4]
 1144              	.LVL72:
 1145 0104 C8F80800 		str	r0, [r8, #8]
 1146              	.LVL73:
 1147 0108 C8F80C00 		str	r0, [r8, #12]
 1148              	.LVL74:
 1149 010c C8F81000 		str	r0, [r8, #16]
 1150              	.LVL75:
 1151              		.loc 1 295 0
 1152 0110 03B1     		cbz	r3, .L108
 1153              		.loc 1 296 0
 1154 0112 9847     		blx	r3
 1155              	.L108:
 1156              		.loc 1 297 0
 1157 0114 E068     		ldr	r0, [r4, #12]
 1158 0116 8047     		blx	r0
 1159              		.loc 1 298 0
 1160 0118 A368     		ldr	r3, [r4, #8]
 1161 011a 03B1     		cbz	r3, .L109
 1162              		.loc 1 299 0
 1163 011c 9847     		blx	r3
 1164              	.L109:
 1165              		.loc 1 301 0
 1166 011e FFF7FEFF 		bl	test_wait_threads
 1167              	.LBE39:
 1168              	.LBE41:
 1169              		.loc 1 370 0
 1170 0122 D9F80040 		ldr	r4, [r9, #0]
 1171              	.LVL76:
 1172 0126 002C     		cmp	r4, #0
 1173 0128 37D0     		beq	.L110
 1174              		.loc 1 371 0
 1175 012a 3C48     		ldr	r0, .L123+108
 1176 012c FFF7FEFF 		bl	test_print
 1177              		.loc 1 372 0
 1178 0130 3B4B     		ldr	r3, .L123+112
 1179 0132 1868     		ldr	r0, [r3, #0]
 1180 0134 FFF7FEFF 		bl	test_printn
 1181              		.loc 1 373 0
 1182 0138 3A48     		ldr	r0, .L123+116
ARM GAS  C:\Users\DNIEL~1\AppData\Local\Temp\ccGOQdMj.s 			page 22


 1183 013a FFF7FEFF 		bl	test_print
 1184              	.LVL77:
 1185              	.LBB42:
 1186              	.LBB43:
 1187              		.loc 1 142 0
 1188 013e 2968     		ldr	r1, [r5, #0]
 1189 0140 5145     		cmp	r1, sl
 1190 0142 09D9     		bls	.L111
 1191 0144 384C     		ldr	r4, .L123+120
 1192              	.LVL78:
 1193              	.L112:
 1194              		.loc 1 143 0
 1195 0146 3868     		ldr	r0, [r7, #0]
 1196 0148 14F8011B 		ldrb	r1, [r4], #1	@ zero_extendqisi2
 1197              	.LVL79:
 1198 014c 0268     		ldr	r2, [r0, #0]
 1199 014e 9368     		ldr	r3, [r2, #8]
 1200 0150 9847     		blx	r3
 1201              	.LVL80:
 1202              		.loc 1 142 0
 1203 0152 2A68     		ldr	r2, [r5, #0]
 1204 0154 A242     		cmp	r2, r4
 1205 0156 F6D8     		bhi	.L112
 1206              	.LVL81:
 1207              	.L111:
 1208              	.LBE43:
 1209              	.LBE42:
 1210              		.loc 1 375 0
 1211 0158 3448     		ldr	r0, .L123+124
 1212 015a FFF7FEFF 		bl	test_println
 1213              	.LVL82:
 1214              		.loc 1 378 0
 1215 015e 5BF8044C 		ldr	r4, [fp, #-4]
 1216              	.L122:
 1217              		.loc 1 357 0
 1218 0162 54F82600 		ldr	r0, [r4, r6, lsl #2]
 1219 0166 B300     		lsls	r3, r6, #2
 1220 0168 0028     		cmp	r0, #0
 1221 016a A1D1     		bne	.L114
 1222              	.LVL83:
 1223              	.L120:
 1224              		.loc 1 355 0
 1225 016c 5BF8044B 		ldr	r4, [fp], #4
 1226 0170 002C     		cmp	r4, #0
 1227 0172 94D1     		bne	.L107
 1228              		.loc 1 383 0
 1229 0174 FFF7FEFF 		bl	print_line
 1230              		.loc 1 384 0
 1231 0178 0E48     		ldr	r0, .L123+4
 1232 017a FFF7FEFF 		bl	test_println
 1233              		.loc 1 385 0
 1234 017e 2C48     		ldr	r0, .L123+128
 1235 0180 FFF7FEFF 		bl	test_print
 1236              		.loc 1 386 0
 1237 0184 1E4A     		ldr	r2, .L123+80
 1238 0186 1368     		ldr	r3, [r2, #0]
 1239 0188 6BB9     		cbnz	r3, .L121
ARM GAS  C:\Users\DNIEL~1\AppData\Local\Temp\ccGOQdMj.s 			page 23


 1240              		.loc 1 389 0
 1241 018a 2A48     		ldr	r0, .L123+132
 1242 018c FFF7FEFF 		bl	test_println
 1243              	.L118:
 1244              		.loc 1 392 0
 1245 0190 1B48     		ldr	r0, .L123+80
 1246 0192 0068     		ldr	r0, [r0, #0]
 1247 0194 03B0     		add	sp, sp, #12
 1248 0196 BDE8F08F 		pop	{r4, r5, r6, r7, r8, r9, sl, fp, pc}
 1249              	.LVL84:
 1250              	.L110:
 1251              		.loc 1 378 0
 1252 019a 2748     		ldr	r0, .L123+136
 1253 019c FFF7FEFF 		bl	test_println
 1254              	.LVL85:
 1255 01a0 5BF8044C 		ldr	r4, [fp, #-4]
 1256 01a4 DDE7     		b	.L122
 1257              	.LVL86:
 1258              	.L121:
 1259              		.loc 1 387 0
 1260 01a6 2548     		ldr	r0, .L123+140
 1261 01a8 FFF7FEFF 		bl	test_println
 1262 01ac F0E7     		b	.L118
 1263              	.L124:
 1264 01ae 00BF     		.align	2
 1265              	.L123:
 1266 01b0 00000000 		.word	.LANCHOR1
 1267 01b4 04000000 		.word	.LC1
 1268 01b8 08000000 		.word	.LC2
 1269 01bc 24000000 		.word	.LC3
 1270 01c0 28000000 		.word	.LC4
 1271 01c4 3C000000 		.word	.LC5
 1272 01c8 4C000000 		.word	.LC6
 1273 01cc 60000000 		.word	.LC7
 1274 01d0 78000000 		.word	.LC8
 1275 01d4 8C000000 		.word	.LC9
 1276 01d8 98000000 		.word	.LC10
 1277 01dc AC000000 		.word	.LC11
 1278 01e0 B4000000 		.word	.LC12
 1279 01e4 C8000000 		.word	.LC13
 1280 01e8 D4000000 		.word	.LC14
 1281 01ec E8000000 		.word	.LC15
 1282 01f0 00010000 		.word	.LC16
 1283 01f4 14010000 		.word	.LC17
 1284 01f8 40010000 		.word	.LC18
 1285 01fc 54010000 		.word	.LC19
 1286 0200 00000000 		.word	.LANCHOR4
 1287 0204 00000000 		.word	patternthd
 1288 0208 00000000 		.word	.LANCHOR2
 1289 020c 60010000 		.word	.LC20
 1290 0210 70010000 		.word	.LC21
 1291 0214 74010000 		.word	.LC22
 1292 0218 78010000 		.word	.LC23
 1293 021c 7C010000 		.word	.LC24
 1294 0220 00000000 		.word	.LANCHOR5
 1295 0224 94010000 		.word	.LC25
 1296 0228 00000000 		.word	.LANCHOR6
ARM GAS  C:\Users\DNIEL~1\AppData\Local\Temp\ccGOQdMj.s 			page 24


 1297 022c 98010000 		.word	.LC26
 1298 0230 B0010000 		.word	.LC28
 1299 0234 C8010000 		.word	.LC30
 1300 0238 9C010000 		.word	.LC27
 1301 023c C0010000 		.word	.LC29
 1302 0240 04000000 		.word	.LANCHOR9+4
 1303 0244 00000000 		.word	.LANCHOR3
 1304 0248 00000000 		.word	.LANCHOR7
 1305              		.cfi_endproc
 1306              	.LFE74:
 1307              		.size	TestThread, .-TestThread
 1308              		.global	wa
 1309              		.global	threads
 1310              		.global	test
 1311              		.global	test_timer_done
 1312 024c AFF30080 		.section	.bss.test,"aw",%nobits
 1313              		.align	3
 1314              		.type	test, %object
 1315              		.size	test, 1520
 1316              	test:
 1317 0000 00000000 		.space	1520
 1317      00000000 
 1317      00000000 
 1317      00000000 
 1317      00000000 
 1318              		.section	.bss.failpoint,"aw",%nobits
 1319              		.align	2
 1320              		.set	.LANCHOR5,. + 0
 1321              		.type	failpoint, %object
 1322              		.size	failpoint, 4
 1323              	failpoint:
 1324 0000 00000000 		.space	4
 1325              		.section	.bss.local_fail,"aw",%nobits
 1326              		.align	2
 1327              		.set	.LANCHOR3,. + 0
 1328              		.type	local_fail, %object
 1329              		.size	local_fail, 4
 1330              	local_fail:
 1331 0000 00000000 		.space	4
 1332              		.section	.bss.test_timer_done,"aw",%nobits
 1333              		.align	2
 1334              		.set	.LANCHOR0,. + 0
 1335              		.type	test_timer_done, %object
 1336              		.size	test_timer_done, 4
 1337              	test_timer_done:
 1338 0000 00000000 		.space	4
 1339              		.section	.rodata.wa,"a",%progbits
 1340              		.align	2
 1341              		.type	wa, %object
 1342              		.size	wa, 20
 1343              	wa:
 1344 0000 00000000 		.word	test
 1345 0004 30010000 		.word	test+304
 1346 0008 60020000 		.word	test+608
 1347 000c 90030000 		.word	test+912
 1348 0010 C0040000 		.word	test+1216
 1349              		.section	.bss.tokp,"aw",%nobits
ARM GAS  C:\Users\DNIEL~1\AppData\Local\Temp\ccGOQdMj.s 			page 25


 1350              		.align	2
 1351              		.set	.LANCHOR2,. + 0
 1352              		.type	tokp, %object
 1353              		.size	tokp, 4
 1354              	tokp:
 1355 0000 00000000 		.space	4
 1356              		.section	.bss.global_fail,"aw",%nobits
 1357              		.align	2
 1358              		.set	.LANCHOR4,. + 0
 1359              		.type	global_fail, %object
 1360              		.size	global_fail, 4
 1361              	global_fail:
 1362 0000 00000000 		.space	4
 1363              		.section	.rodata.str1.4,"aMS",%progbits,1
 1364              		.align	2
 1365              	.LC0:
 1366 0000 0D0A00   		.ascii	"\015\012\000"
 1367 0003 00       		.space	1
 1368              	.LC1:
 1369 0004 00       		.ascii	"\000"
 1370 0005 000000   		.space	3
 1371              	.LC2:
 1372 0008 2A2A2A20 		.ascii	"*** ChibiOS/RT test suite\000"
 1372      43686962 
 1372      694F532F 
 1372      52542074 
 1372      65737420 
 1373 0022 0000     		.space	2
 1374              	.LC3:
 1375 0024 2A2A2A00 		.ascii	"***\000"
 1376              	.LC4:
 1377 0028 2A2A2A20 		.ascii	"*** Kernel:       \000"
 1377      4B65726E 
 1377      656C3A20 
 1377      20202020 
 1377      202000
 1378 003b 00       		.space	1
 1379              	.LC5:
 1380 003c 322E352E 		.ascii	"2.5.1unstable\000"
 1380      31756E73 
 1380      7461626C 
 1380      6500
 1381 004a 0000     		.space	2
 1382              	.LC6:
 1383 004c 2A2A2A20 		.ascii	"*** Compiled:     \000"
 1383      436F6D70 
 1383      696C6564 
 1383      3A202020 
 1383      202000
 1384 005f 00       		.space	1
 1385              	.LC7:
 1386 0060 4D617220 		.ascii	"Mar  7 2015 - 13:24:28\000"
 1386      20372032 
 1386      30313520 
 1386      2D203133 
 1386      3A32343A 
 1387 0077 00       		.space	1
ARM GAS  C:\Users\DNIEL~1\AppData\Local\Temp\ccGOQdMj.s 			page 26


 1388              	.LC8:
 1389 0078 2A2A2A20 		.ascii	"*** Compiler:     \000"
 1389      436F6D70 
 1389      696C6572 
 1389      3A202020 
 1389      202000
 1390 008b 00       		.space	1
 1391              	.LC9:
 1392 008c 47434320 		.ascii	"GCC 4.5.2\000"
 1392      342E352E 
 1392      3200
 1393 0096 0000     		.space	2
 1394              	.LC10:
 1395 0098 2A2A2A20 		.ascii	"*** Architecture: \000"
 1395      41726368 
 1395      69746563 
 1395      74757265 
 1395      3A2000
 1396 00ab 00       		.space	1
 1397              	.LC11:
 1398 00ac 41524D76 		.ascii	"ARMv7-M\000"
 1398      372D4D00 
 1399              	.LC12:
 1400 00b4 2A2A2A20 		.ascii	"*** Core Variant: \000"
 1400      436F7265 
 1400      20566172 
 1400      69616E74 
 1400      3A2000
 1401 00c7 00       		.space	1
 1402              	.LC13:
 1403 00c8 436F7274 		.ascii	"Cortex-M3\000"
 1403      65782D4D 
 1403      3300
 1404 00d2 0000     		.space	2
 1405              	.LC14:
 1406 00d4 2A2A2A20 		.ascii	"*** Port Info:    \000"
 1406      506F7274 
 1406      20496E66 
 1406      6F3A2020 
 1406      202000
 1407 00e7 00       		.space	1
 1408              	.LC15:
 1409 00e8 41647661 		.ascii	"Advanced kernel mode\000"
 1409      6E636564 
 1409      206B6572 
 1409      6E656C20 
 1409      6D6F6465 
 1410 00fd 000000   		.space	3
 1411              	.LC16:
 1412 0100 2A2A2A20 		.ascii	"*** Platform:     \000"
 1412      506C6174 
 1412      666F726D 
 1412      3A202020 
 1412      202000
 1413 0113 00       		.space	1
 1414              	.LC17:
 1415 0114 53544D33 		.ascii	"STM32F10x Performance Line Medium Density\000"
ARM GAS  C:\Users\DNIEL~1\AppData\Local\Temp\ccGOQdMj.s 			page 27


 1415      32463130 
 1415      78205065 
 1415      72666F72 
 1415      6D616E63 
 1416 013e 0000     		.space	2
 1417              	.LC18:
 1418 0140 2A2A2A20 		.ascii	"*** Test Board:   \000"
 1418      54657374 
 1418      20426F61 
 1418      72643A20 
 1418      202000
 1419 0153 00       		.space	1
 1420              	.LC19:
 1421 0154 4C757843 		.ascii	"LuxControl\000"
 1421      6F6E7472 
 1421      6F6C00
 1422 015f 00       		.space	1
 1423              	.LC20:
 1424 0160 2D2D2D20 		.ascii	"--- Test Case \000"
 1424      54657374 
 1424      20436173 
 1424      652000
 1425 016f 00       		.space	1
 1426              	.LC21:
 1427 0170 2E00     		.ascii	".\000"
 1428 0172 0000     		.space	2
 1429              	.LC22:
 1430 0174 202800   		.ascii	" (\000"
 1431 0177 00       		.space	1
 1432              	.LC23:
 1433 0178 2900     		.ascii	")\000"
 1434 017a 0000     		.space	2
 1435              	.LC24:
 1436 017c 2D2D2D20 		.ascii	"--- Result: FAILURE (#\000"
 1436      52657375 
 1436      6C743A20 
 1436      4641494C 
 1436      55524520 
 1437 0193 00       		.space	1
 1438              	.LC25:
 1439 0194 205B00   		.ascii	" [\000"
 1440 0197 00       		.space	1
 1441              	.LC26:
 1442 0198 5D2900   		.ascii	"])\000"
 1443 019b 00       		.space	1
 1444              	.LC27:
 1445 019c 2D2D2D20 		.ascii	"--- Result: SUCCESS\000"
 1445      52657375 
 1445      6C743A20 
 1445      53554343 
 1445      45535300 
 1446              	.LC28:
 1447 01b0 46696E61 		.ascii	"Final result: \000"
 1447      6C207265 
 1447      73756C74 
 1447      3A2000
 1448 01bf 00       		.space	1
ARM GAS  C:\Users\DNIEL~1\AppData\Local\Temp\ccGOQdMj.s 			page 28


 1449              	.LC29:
 1450 01c0 4641494C 		.ascii	"FAILURE\000"
 1450      55524500 
 1451              	.LC30:
 1452 01c8 53554343 		.ascii	"SUCCESS\000"
 1452      45535300 
 1453              		.section	.bss.vt,"aw",%nobits
 1454              		.align	2
 1455              		.set	.LANCHOR8,. + 0
 1456              		.type	vt, %object
 1457              		.size	vt, 20
 1458              	vt:
 1459 0000 00000000 		.space	20
 1459      00000000 
 1459      00000000 
 1459      00000000 
 1459      00000000 
 1460              		.section	.bss.threads,"aw",%nobits
 1461              		.align	2
 1462              		.set	.LANCHOR7,. + 0
 1463              		.type	threads, %object
 1464              		.size	threads, 20
 1465              	threads:
 1466 0000 00000000 		.space	20
 1466      00000000 
 1466      00000000 
 1466      00000000 
 1466      00000000 
 1467              		.section	.rodata.patterns,"a",%progbits
 1468              		.align	2
 1469              		.set	.LANCHOR9,. + 0
 1470              		.type	patterns, %object
 1471              		.size	patterns, 48
 1472              	patterns:
 1473 0000 00000000 		.word	patternthd
 1474 0004 00000000 		.word	patternsem
 1475 0008 00000000 		.word	patternmtx
 1476 000c 00000000 		.word	patternmsg
 1477 0010 00000000 		.word	patternmbox
 1478 0014 00000000 		.word	patternevt
 1479 0018 00000000 		.word	patternheap
 1480 001c 00000000 		.word	patternpools
 1481 0020 00000000 		.word	patterndyn
 1482 0024 00000000 		.word	patternqueues
 1483 0028 00000000 		.word	patternbmk
 1484 002c 00000000 		.word	0
 1485              		.section	.bss.chp,"aw",%nobits
 1486              		.align	2
 1487              		.set	.LANCHOR1,. + 0
 1488              		.type	chp, %object
 1489              		.size	chp, 4
 1490              	chp:
 1491 0000 00000000 		.space	4
 1492              		.section	.bss.tokens_buffer,"aw",%nobits
 1493              		.align	2
 1494              		.set	.LANCHOR6,. + 0
 1495              		.type	tokens_buffer, %object
ARM GAS  C:\Users\DNIEL~1\AppData\Local\Temp\ccGOQdMj.s 			page 29


 1496              		.size	tokens_buffer, 16
 1497              	tokens_buffer:
 1498 0000 00000000 		.space	16
 1498      00000000 
 1498      00000000 
 1498      00000000 
 1499              		.text
 1500              	.Letext0: