ARM GAS  C:\Users\DNIEL~1\AppData\Local\Temp\ccM4Kr1k.s 			page 1


   1              		.syntax unified
   2              		.cpu cortex-m3
   3              		.fpu softvfp
   4              		.eabi_attribute 20, 1
   5              		.eabi_attribute 21, 1
   6              		.eabi_attribute 23, 3
   7              		.eabi_attribute 24, 1
   8              		.eabi_attribute 25, 1
   9              		.eabi_attribute 26, 1
  10              		.eabi_attribute 30, 2
  11              		.eabi_attribute 18, 4
  12              		.thumb
  13              		.file	"testqueues.c"
  14              		.section	.debug_abbrev,"",%progbits
  15              	.Ldebug_abbrev0:
  16              		.section	.debug_info,"",%progbits
  17              	.Ldebug_info0:
  18              		.section	.debug_line,"",%progbits
  19              	.Ldebug_line0:
  20 0000 8E040000 		.text
  20      0200DD01 
  20      00000201 
  20      FB0E0D00 
  20      01010101 
  21              	.Ltext0:
  22              		.cfi_sections	.debug_frame
  23              		.section	.text.notify,"ax",%progbits
  24              		.align	2
  25              		.p2align 4,,15
  26              		.thumb
  27              		.thumb_func
  28              		.type	notify, %function
  29              	notify:
  30              	.LFB0:
  31              		.file 1 "../../../ChibiOS/test/testqueues.c"
  32              		.loc 1 61 0
  33              		.cfi_startproc
  34              		@ args = 0, pretend = 0, frame = 0
  35              		@ frame_needed = 0, uses_anonymous_args = 0
  36              		@ link register save eliminated.
  37              	.LVL0:
  38              		.loc 1 63 0
  39 0000 7047     		bx	lr
  40              		.cfi_endproc
  41              	.LFE0:
  42              		.size	notify, .-notify
  43 0002 00BFAFF3 		.section	.text.thread2,"ax",%progbits
  43      0080AFF3 
  43      0080AFF3 
  43      0080
  44              		.align	2
  45              		.p2align 4,,15
  46              		.thumb
  47              		.thumb_func
  48              		.type	thread2, %function
  49              	thread2:
  50              	.LFB5:
ARM GAS  C:\Users\DNIEL~1\AppData\Local\Temp\ccM4Kr1k.s 			page 2


  51              		.loc 1 174 0
  52              		.cfi_startproc
  53              		@ args = 0, pretend = 0, frame = 0
  54              		@ frame_needed = 0, uses_anonymous_args = 0
  55              	.LVL1:
  56 0000 08B5     		push	{r3, lr}
  57              	.LCFI0:
  58              		.cfi_def_cfa_offset 8
  59              		.loc 1 177 0
  60 0002 0021     		movs	r1, #0
  61 0004 C822     		movs	r2, #200
  62 0006 0248     		ldr	r0, .L3
  63              	.LVL2:
  64              		.cfi_offset 14, -4
  65              		.cfi_offset 3, -8
  66 0008 FFF7FEFF 		bl	chOQPutTimeout
  67              		.loc 1 179 0
  68 000c 0020     		movs	r0, #0
  69 000e 08BD     		pop	{r3, pc}
  70              	.L4:
  71              		.align	2
  72              	.L3:
  73 0010 00000000 		.word	.LANCHOR0
  74              		.cfi_endproc
  75              	.LFE5:
  76              		.size	thread2, .-thread2
  77 0014 AFF30080 		.section	.text.queues2_execute,"ax",%progbits
  77      AFF30080 
  77      AFF30080 
  78              		.align	2
  79              		.p2align 4,,15
  80              		.thumb
  81              		.thumb_func
  82              		.type	queues2_execute, %function
  83              	queues2_execute:
  84              	.LFB6:
  85              		.loc 1 181 0
  86              		.cfi_startproc
  87              		@ args = 0, pretend = 0, frame = 0
  88              		@ frame_needed = 0, uses_anonymous_args = 0
  89 0000 F0B5     		push	{r4, r5, r6, r7, lr}
  90              	.LCFI1:
  91              		.cfi_def_cfa_offset 20
  92 0002 83B0     		sub	sp, sp, #12
  93              	.LCFI2:
  94              		.cfi_def_cfa_offset 32
  95              		.loc 1 186 0
  96              	@ 186 "../../../ChibiOS/test/testqueues.c" 1
  97 0004 FFF7FEFF 		bl      _port_lock
  98              	@ 0 "" 2
  99              		.thumb
 100 0008 A04D     		ldr	r5, .L24
 101              		.cfi_offset 14, -4
 102              		.cfi_offset 7, -8
 103              		.cfi_offset 6, -12
 104              		.cfi_offset 5, -16
 105              		.cfi_offset 4, -20
ARM GAS  C:\Users\DNIEL~1\AppData\Local\Temp\ccM4Kr1k.s 			page 3


 106 000a 6A69     		ldr	r2, [r5, #20]
 107 000c AB69     		ldr	r3, [r5, #24]
 108 000e 9A42     		cmp	r2, r3
 109 0010 6CD0     		beq	.L20
 110 0012 0021     		movs	r1, #0
 111              	.L6:
 112              		.loc 1 186 0 is_stmt 0 discriminator 4
 113 0014 0120     		movs	r0, #1
 114 0016 FFF7FEFF 		bl	_test_assert
 115 001a 0028     		cmp	r0, #0
 116 001c 63D1     		bne	.L21
 117              		.loc 1 186 0 discriminator 6
 118              	@ 186 "../../../ChibiOS/test/testqueues.c" 1
 119 001e FFF7FEFF 		bl      _port_unlock
 120              	@ 0 "" 2
 121              	.LVL3:
 122              		.loc 1 190 0 is_stmt 1 discriminator 6
 123              		.thumb
 124 0022 9A4C     		ldr	r4, .L24
 125 0024 4121     		movs	r1, #65
 126 0026 2046     		mov	r0, r4
 127 0028 4FF0FF32 		mov	r2, #-1
 128 002c FFF7FEFF 		bl	chOQPutTimeout
 129              	.LVL4:
 130 0030 4221     		movs	r1, #66
 131 0032 2046     		mov	r0, r4
 132 0034 4FF0FF32 		mov	r2, #-1
 133 0038 FFF7FEFF 		bl	chOQPutTimeout
 134              	.LVL5:
 135 003c 4321     		movs	r1, #67
 136 003e 2046     		mov	r0, r4
 137 0040 4FF0FF32 		mov	r2, #-1
 138 0044 FFF7FEFF 		bl	chOQPutTimeout
 139              	.LVL6:
 140 0048 2046     		mov	r0, r4
 141 004a 4421     		movs	r1, #68
 142 004c 4FF0FF32 		mov	r2, #-1
 143 0050 FFF7FEFF 		bl	chOQPutTimeout
 144              	.LVL7:
 145              		.loc 1 191 0 discriminator 6
 146              	@ 191 "../../../ChibiOS/test/testqueues.c" 1
 147 0054 FFF7FEFF 		bl      _port_lock
 148              	@ 0 "" 2
 149              		.thumb
 150 0058 AD68     		ldr	r5, [r5, #8]
 151 005a 0220     		movs	r0, #2
 152 005c D5F10101 		rsbs	r1, r5, #1
 153 0060 38BF     		it	cc
 154 0062 0021     		movcc	r1, #0
 155 0064 FFF7FEFF 		bl	_test_assert
 156 0068 0546     		mov	r5, r0
 157 006a 0028     		cmp	r0, #0
 158 006c 38D1     		bne	.L22
 159              		.loc 1 191 0 is_stmt 0 discriminator 2
 160              	@ 191 "../../../ChibiOS/test/testqueues.c" 1
 161 006e FFF7FEFF 		bl      _port_unlock
 162              	@ 0 "" 2
ARM GAS  C:\Users\DNIEL~1\AppData\Local\Temp\ccM4Kr1k.s 			page 4


 163              	.LVL8:
 164              		.thumb
 165              	.LBB2:
 166              		.loc 1 197 0 is_stmt 1 discriminator 2
 167              	@ 197 "../../../ChibiOS/test/testqueues.c" 1
 168 0072 FFF7FEFF 		bl      _port_lock
 169              	@ 0 "" 2
 170              		.loc 1 198 0 discriminator 2
 171              		.thumb
 172 0076 2046     		mov	r0, r4
 173 0078 FFF7FEFF 		bl	chOQGetI
 174              	.LVL9:
 175              		.loc 1 199 0 discriminator 2
 176              	@ 199 "../../../ChibiOS/test/testqueues.c" 1
 177 007c FFF7FEFF 		bl      _port_unlock
 178              	@ 0 "" 2
 179              		.loc 1 200 0 discriminator 2
 180              		.thumb
 181 0080 C0B2     		uxtb	r0, r0
 182              	.LVL10:
 183 0082 FFF7FEFF 		bl	test_emit_token
 184              	.LVL11:
 185              		.loc 1 197 0 discriminator 2
 186              	@ 197 "../../../ChibiOS/test/testqueues.c" 1
 187 0086 FFF7FEFF 		bl      _port_lock
 188              	@ 0 "" 2
 189              		.loc 1 198 0 discriminator 2
 190              		.thumb
 191 008a 2046     		mov	r0, r4
 192 008c FFF7FEFF 		bl	chOQGetI
 193              	.LVL12:
 194              		.loc 1 199 0 discriminator 2
 195              	@ 199 "../../../ChibiOS/test/testqueues.c" 1
 196 0090 FFF7FEFF 		bl      _port_unlock
 197              	@ 0 "" 2
 198              		.loc 1 200 0 discriminator 2
 199              		.thumb
 200 0094 C0B2     		uxtb	r0, r0
 201              	.LVL13:
 202 0096 FFF7FEFF 		bl	test_emit_token
 203              	.LVL14:
 204              		.loc 1 197 0 discriminator 2
 205              	@ 197 "../../../ChibiOS/test/testqueues.c" 1
 206 009a FFF7FEFF 		bl      _port_lock
 207              	@ 0 "" 2
 208              		.loc 1 198 0 discriminator 2
 209              		.thumb
 210 009e 2046     		mov	r0, r4
 211 00a0 FFF7FEFF 		bl	chOQGetI
 212              	.LVL15:
 213              		.loc 1 199 0 discriminator 2
 214              	@ 199 "../../../ChibiOS/test/testqueues.c" 1
 215 00a4 FFF7FEFF 		bl      _port_unlock
 216              	@ 0 "" 2
 217              		.loc 1 200 0 discriminator 2
 218              		.thumb
 219 00a8 C0B2     		uxtb	r0, r0
ARM GAS  C:\Users\DNIEL~1\AppData\Local\Temp\ccM4Kr1k.s 			page 5


 220              	.LVL16:
 221 00aa FFF7FEFF 		bl	test_emit_token
 222              	.LVL17:
 223              		.loc 1 197 0 discriminator 2
 224              	@ 197 "../../../ChibiOS/test/testqueues.c" 1
 225 00ae FFF7FEFF 		bl      _port_lock
 226              	@ 0 "" 2
 227              		.loc 1 198 0 discriminator 2
 228              		.thumb
 229 00b2 2046     		mov	r0, r4
 230 00b4 FFF7FEFF 		bl	chOQGetI
 231              	.LVL18:
 232              		.loc 1 199 0 discriminator 2
 233              	@ 199 "../../../ChibiOS/test/testqueues.c" 1
 234 00b8 FFF7FEFF 		bl      _port_unlock
 235              	@ 0 "" 2
 236              		.loc 1 200 0 discriminator 2
 237              		.thumb
 238 00bc C0B2     		uxtb	r0, r0
 239              	.LVL19:
 240 00be FFF7FEFF 		bl	test_emit_token
 241              	.LVL20:
 242              	.LBE2:
 243              		.loc 1 202 0 discriminator 2
 244              	@ 202 "../../../ChibiOS/test/testqueues.c" 1
 245 00c2 FFF7FEFF 		bl      _port_lock
 246              	@ 0 "" 2
 247              		.thumb
 248 00c6 6069     		ldr	r0, [r4, #20]
 249 00c8 A269     		ldr	r2, [r4, #24]
 250 00ca 9042     		cmp	r0, r2
 251 00cc 2ED0     		beq	.L23
 252              		.loc 1 202 0 is_stmt 0
 253 00ce 2946     		mov	r1, r5
 254              	.L10:
 255              		.loc 1 202 0 discriminator 4
 256 00d0 0320     		movs	r0, #3
 257 00d2 FFF7FEFF 		bl	_test_assert
 258 00d6 70B1     		cbz	r0, .L11
 259              		.loc 1 202 0 discriminator 5
 260              	@ 202 "../../../ChibiOS/test/testqueues.c" 1
 261 00d8 FFF7FEFF 		bl      _port_unlock
 262              	@ 0 "" 2
 263              	.LVL21:
 264              		.thumb
 265              	.L5:
 266              		.loc 1 229 0 is_stmt 1
 267 00dc 03B0     		add	sp, sp, #12
 268 00de F0BD     		pop	{r4, r5, r6, r7, pc}
 269              	.LVL22:
 270              	.L22:
 271              		.loc 1 191 0 discriminator 1
 272              	@ 191 "../../../ChibiOS/test/testqueues.c" 1
 273 00e0 FFF7FEFF 		bl      _port_unlock
 274              	@ 0 "" 2
 275              		.thumb
 276 00e4 FAE7     		b	.L5
ARM GAS  C:\Users\DNIEL~1\AppData\Local\Temp\ccM4Kr1k.s 			page 6


 277              	.LVL23:
 278              	.L21:
 279              		.loc 1 186 0 discriminator 5
 280              	@ 186 "../../../ChibiOS/test/testqueues.c" 1
 281 00e6 FFF7FEFF 		bl      _port_unlock
 282              	@ 0 "" 2
 283              		.thumb
 284 00ea F7E7     		b	.L5
 285              	.L20:
 286              		.loc 1 181 0 discriminator 1
 287 00ec A968     		ldr	r1, [r5, #8]
 288 00ee 0039     		subs	r1, r1, #0
 289 00f0 18BF     		it	ne
 290 00f2 0121     		movne	r1, #1
 291 00f4 8EE7     		b	.L6
 292              	.LVL24:
 293              	.L11:
 294              		.loc 1 202 0 discriminator 6
 295              	@ 202 "../../../ChibiOS/test/testqueues.c" 1
 296 00f6 FFF7FEFF 		bl      _port_unlock
 297              	@ 0 "" 2
 298              		.loc 1 203 0 discriminator 6
 299              		.thumb
 300 00fa 0420     		movs	r0, #4
 301 00fc 6449     		ldr	r1, .L24+4
 302 00fe FFF7FEFF 		bl	_test_assert_sequence
 303 0102 0028     		cmp	r0, #0
 304 0104 EAD1     		bne	.L5
 305              		.loc 1 204 0
 306              	@ 204 "../../../ChibiOS/test/testqueues.c" 1
 307 0106 FFF7FEFF 		bl      _port_lock
 308              	@ 0 "" 2
 309              		.thumb
 310 010a 604C     		ldr	r4, .L24
 311 010c 2046     		mov	r0, r4
 312 010e FFF7FEFF 		bl	chOQGetI
 313 0112 10F1030F 		cmn	r0, #3
 314 0116 14BF     		ite	ne
 315 0118 0021     		movne	r1, #0
 316 011a 0121     		moveq	r1, #1
 317 011c 0520     		movs	r0, #5
 318 011e FFF7FEFF 		bl	_test_assert
 319 0122 0546     		mov	r5, r0
 320 0124 38B1     		cbz	r0, .L12
 321              		.loc 1 204 0 is_stmt 0 discriminator 1
 322              	@ 204 "../../../ChibiOS/test/testqueues.c" 1
 323 0126 FFF7FEFF 		bl      _port_unlock
 324              	@ 0 "" 2
 325              		.thumb
 326 012a D7E7     		b	.L5
 327              	.L23:
 328              		.loc 1 181 0 is_stmt 1 discriminator 1
 329 012c A368     		ldr	r3, [r4, #8]
 330 012e 191E     		subs	r1, r3, #0
 331 0130 18BF     		it	ne
 332 0132 0121     		movne	r1, #1
 333 0134 CCE7     		b	.L10
ARM GAS  C:\Users\DNIEL~1\AppData\Local\Temp\ccM4Kr1k.s 			page 7


 334              	.L12:
 335              		.loc 1 204 0 discriminator 2
 336              	@ 204 "../../../ChibiOS/test/testqueues.c" 1
 337 0136 FFF7FEFF 		bl      _port_unlock
 338              	@ 0 "" 2
 339              		.loc 1 207 0 discriminator 2
 340              		.thumb
 341 013a 564F     		ldr	r7, .L24+8
 342 013c 0822     		movs	r2, #8
 343 013e 7E68     		ldr	r6, [r7, #4]
 344 0140 2046     		mov	r0, r4
 345 0142 3146     		mov	r1, r6
 346 0144 2B46     		mov	r3, r5
 347 0146 FFF7FEFF 		bl	chOQWriteTimeout
 348              	.LVL25:
 349              		.loc 1 208 0 discriminator 2
 350 014a A0F10401 		sub	r1, r0, #4
 351 014e D1F1000C 		rsbs	ip, r1, #0
 352 0152 4CEB0101 		adc	r1, ip, r1
 353 0156 0620     		movs	r0, #6
 354              	.LVL26:
 355 0158 FFF7FEFF 		bl	_test_assert
 356 015c 0028     		cmp	r0, #0
 357 015e BDD1     		bne	.L5
 358              		.loc 1 209 0
 359              	@ 209 "../../../ChibiOS/test/testqueues.c" 1
 360 0160 FFF7FEFF 		bl      _port_lock
 361              	@ 0 "" 2
 362              		.thumb
 363 0164 A568     		ldr	r5, [r4, #8]
 364 0166 0720     		movs	r0, #7
 365 0168 D5F10101 		rsbs	r1, r5, #1
 366 016c 38BF     		it	cc
 367 016e 0021     		movcc	r1, #0
 368 0170 FFF7FEFF 		bl	_test_assert
 369 0174 0546     		mov	r5, r0
 370 0176 10B1     		cbz	r0, .L13
 371              		.loc 1 209 0 is_stmt 0 discriminator 1
 372              	@ 209 "../../../ChibiOS/test/testqueues.c" 1
 373 0178 FFF7FEFF 		bl      _port_unlock
 374              	@ 0 "" 2
 375              		.thumb
 376 017c AEE7     		b	.L5
 377              	.L13:
 378              		.loc 1 209 0 discriminator 2
 379              	@ 209 "../../../ChibiOS/test/testqueues.c" 1
 380 017e FFF7FEFF 		bl      _port_unlock
 381              	@ 0 "" 2
 382              		.loc 1 210 0 is_stmt 1 discriminator 2
 383              		.thumb
 384 0182 454B     		ldr	r3, .L24+12
 385 0184 3868     		ldr	r0, [r7, #0]
 386 0186 9969     		ldr	r1, [r3, #24]
 387 0188 444B     		ldr	r3, .L24+16
 388 018a 8A68     		ldr	r2, [r1, #8]
 389 018c 4FF49871 		mov	r1, #304
 390 0190 0132     		adds	r2, r2, #1
ARM GAS  C:\Users\DNIEL~1\AppData\Local\Temp\ccM4Kr1k.s 			page 8


 391 0192 0095     		str	r5, [sp, #0]
 392 0194 FFF7FEFF 		bl	chThdCreateStatic
 393 0198 414B     		ldr	r3, .L24+20
 394 019a 1860     		str	r0, [r3, #0]
 395              		.loc 1 211 0 discriminator 2
 396              	@ 211 "../../../ChibiOS/test/testqueues.c" 1
 397 019c FFF7FEFF 		bl      _port_lock
 398              	@ 0 "" 2
 399              		.thumb
 400 01a0 2169     		ldr	r1, [r4, #16]
 401 01a2 E268     		ldr	r2, [r4, #12]
 402 01a4 A368     		ldr	r3, [r4, #8]
 403 01a6 881A     		subs	r0, r1, r2
 404 01a8 C31A     		subs	r3, r0, r3
 405 01aa A3F10402 		sub	r2, r3, #4
 406 01ae 0820     		movs	r0, #8
 407 01b0 D2F1000E 		rsbs	lr, r2, #0
 408 01b4 4EEB0201 		adc	r1, lr, r2
 409 01b8 FFF7FEFF 		bl	_test_assert
 410 01bc 10B1     		cbz	r0, .L14
 411              		.loc 1 211 0 is_stmt 0 discriminator 1
 412              	@ 211 "../../../ChibiOS/test/testqueues.c" 1
 413 01be FFF7FEFF 		bl      _port_unlock
 414              	@ 0 "" 2
 415              		.thumb
 416 01c2 8BE7     		b	.L5
 417              	.L14:
 418              		.loc 1 211 0 discriminator 2
 419              	@ 211 "../../../ChibiOS/test/testqueues.c" 1
 420 01c4 FFF7FEFF 		bl      _port_unlock
 421              	@ 0 "" 2
 422              		.loc 1 212 0 is_stmt 1 discriminator 2
 423              		.thumb
 424 01c8 FFF7FEFF 		bl	test_wait_threads
 425              		.loc 1 215 0 discriminator 2
 426              	@ 215 "../../../ChibiOS/test/testqueues.c" 1
 427 01cc FFF7FEFF 		bl      _port_lock
 428              	@ 0 "" 2
 429              		.loc 1 216 0 discriminator 2
 430              		.thumb
 431 01d0 2046     		mov	r0, r4
 432 01d2 FFF7FEFF 		bl	chOQResetI
 433              		.loc 1 217 0 discriminator 2
 434              	@ 217 "../../../ChibiOS/test/testqueues.c" 1
 435 01d6 FFF7FEFF 		bl      _port_unlock
 436              	@ 0 "" 2
 437              		.loc 1 218 0 discriminator 2
 438              	@ 218 "../../../ChibiOS/test/testqueues.c" 1
 439 01da FFF7FEFF 		bl      _port_lock
 440              	@ 0 "" 2
 441              		.thumb
 442 01de 2069     		ldr	r0, [r4, #16]
 443 01e0 E168     		ldr	r1, [r4, #12]
 444 01e2 A368     		ldr	r3, [r4, #8]
 445 01e4 421A     		subs	r2, r0, r1
 446 01e6 C3EB020E 		rsb	lr, r3, r2
 447 01ea 0920     		movs	r0, #9
ARM GAS  C:\Users\DNIEL~1\AppData\Local\Temp\ccM4Kr1k.s 			page 9


 448 01ec DEF1000C 		rsbs	ip, lr, #0
 449 01f0 4CEB0E01 		adc	r1, ip, lr
 450 01f4 FFF7FEFF 		bl	_test_assert
 451 01f8 10B1     		cbz	r0, .L15
 452              		.loc 1 218 0 is_stmt 0 discriminator 1
 453              	@ 218 "../../../ChibiOS/test/testqueues.c" 1
 454 01fa FFF7FEFF 		bl      _port_unlock
 455              	@ 0 "" 2
 456              		.thumb
 457 01fe 6DE7     		b	.L5
 458              	.L15:
 459              		.loc 1 218 0 discriminator 2
 460              	@ 218 "../../../ChibiOS/test/testqueues.c" 1
 461 0200 FFF7FEFF 		bl      _port_unlock
 462              	@ 0 "" 2
 463              		.loc 1 221 0 is_stmt 1 discriminator 2
 464              		.thumb
 465 0204 0222     		movs	r2, #2
 466 0206 0346     		mov	r3, r0
 467 0208 3146     		mov	r1, r6
 468 020a 2046     		mov	r0, r4
 469 020c FFF7FEFF 		bl	chOQWriteTimeout
 470              	.LVL27:
 471              		.loc 1 222 0 discriminator 2
 472 0210 A0F10202 		sub	r2, r0, #2
 473 0214 D2F1000C 		rsbs	ip, r2, #0
 474 0218 4CEB0201 		adc	r1, ip, r2
 475 021c 0A20     		movs	r0, #10
 476              	.LVL28:
 477 021e FFF7FEFF 		bl	_test_assert
 478              	.LVL29:
 479 0222 0346     		mov	r3, r0
 480 0224 0028     		cmp	r0, #0
 481 0226 7FF459AF 		bne	.L5
 482              		.loc 1 223 0
 483 022a 3146     		mov	r1, r6
 484 022c 0222     		movs	r2, #2
 485 022e 2046     		mov	r0, r4
 486 0230 FFF7FEFF 		bl	chOQWriteTimeout
 487              	.LVL30:
 488              		.loc 1 224 0
 489 0234 A0F10200 		sub	r0, r0, #2
 490              	.LVL31:
 491 0238 4342     		rsbs	r3, r0, #0
 492 023a 43EB0001 		adc	r1, r3, r0
 493 023e 0B20     		movs	r0, #11
 494              	.LVL32:
 495 0240 FFF7FEFF 		bl	_test_assert
 496 0244 0028     		cmp	r0, #0
 497 0246 7FF449AF 		bne	.L5
 498              		.loc 1 225 0
 499              	@ 225 "../../../ChibiOS/test/testqueues.c" 1
 500 024a FFF7FEFF 		bl      _port_lock
 501              	@ 0 "" 2
 502              		.thumb
 503 024e A168     		ldr	r1, [r4, #8]
 504 0250 0C30     		adds	r0, r0, #12
ARM GAS  C:\Users\DNIEL~1\AppData\Local\Temp\ccM4Kr1k.s 			page 10


 505 0252 D1F10101 		rsbs	r1, r1, #1
 506 0256 38BF     		it	cc
 507 0258 0021     		movcc	r1, #0
 508 025a FFF7FEFF 		bl	_test_assert
 509 025e 10B1     		cbz	r0, .L16
 510              		.loc 1 225 0 is_stmt 0 discriminator 1
 511              	@ 225 "../../../ChibiOS/test/testqueues.c" 1
 512 0260 FFF7FEFF 		bl      _port_unlock
 513              	@ 0 "" 2
 514              		.thumb
 515 0264 3AE7     		b	.L5
 516              	.L16:
 517              		.loc 1 225 0 discriminator 2
 518              	@ 225 "../../../ChibiOS/test/testqueues.c" 1
 519 0266 FFF7FEFF 		bl      _port_unlock
 520              	@ 0 "" 2
 521              		.loc 1 228 0 is_stmt 1 discriminator 2
 522              		.thumb
 523 026a 0021     		movs	r1, #0
 524 026c 0A22     		movs	r2, #10
 525 026e 0748     		ldr	r0, .L24
 526 0270 FFF7FEFF 		bl	chOQPutTimeout
 527 0274 A0F1FF32 		sub	r2, r0, #-1
 528 0278 D2F1000C 		rsbs	ip, r2, #0
 529 027c 4CEB0201 		adc	r1, ip, r2
 530 0280 0D20     		movs	r0, #13
 531              		.loc 1 229 0 discriminator 2
 532 0282 03B0     		add	sp, sp, #12
 533 0284 BDE8F040 		pop	{r4, r5, r6, r7, lr}
 534              		.loc 1 228 0 discriminator 2
 535 0288 FFF7FEBF 		b	_test_assert
 536              	.L25:
 537              		.align	2
 538              	.L24:
 539 028c 00000000 		.word	.LANCHOR0
 540 0290 00000000 		.word	.LC0
 541 0294 00000000 		.word	wa
 542 0298 00000000 		.word	rlist
 543 029c 00000000 		.word	thread2
 544 02a0 00000000 		.word	threads
 545              		.cfi_endproc
 546              	.LFE6:
 547              		.size	queues2_execute, .-queues2_execute
 548 02a4 AFF30080 		.section	.text.queues2_setup,"ax",%progbits
 548      AFF30080 
 548      AFF30080 
 549              		.align	2
 550              		.p2align 4,,15
 551              		.thumb
 552              		.thumb_func
 553              		.type	queues2_setup, %function
 554              	queues2_setup:
 555              	.LFB4:
 556              		.loc 1 169 0
 557              		.cfi_startproc
 558              		@ args = 0, pretend = 0, frame = 0
 559              		@ frame_needed = 0, uses_anonymous_args = 0
ARM GAS  C:\Users\DNIEL~1\AppData\Local\Temp\ccM4Kr1k.s 			page 11


 560 0000 10B5     		push	{r4, lr}
 561              	.LCFI3:
 562              		.cfi_def_cfa_offset 8
 563              		.loc 1 171 0
 564 0002 064B     		ldr	r3, .L27
 565              		.loc 1 169 0
 566 0004 82B0     		sub	sp, sp, #8
 567              	.LCFI4:
 568              		.cfi_def_cfa_offset 16
 569              		.loc 1 171 0
 570 0006 1968     		ldr	r1, [r3, #0]
 571 0008 0024     		movs	r4, #0
 572              		.cfi_offset 14, -4
 573              		.cfi_offset 4, -8
 574 000a 0548     		ldr	r0, .L27+4
 575 000c 0422     		movs	r2, #4
 576 000e 054B     		ldr	r3, .L27+8
 577 0010 0094     		str	r4, [sp, #0]
 578 0012 FFF7FEFF 		bl	chOQInit
 579              		.loc 1 172 0
 580 0016 02B0     		add	sp, sp, #8
 581 0018 10BD     		pop	{r4, pc}
 582              	.L28:
 583 001a 00BF     		.align	2
 584              	.L27:
 585 001c 00000000 		.word	wa
 586 0020 00000000 		.word	.LANCHOR0
 587 0024 00000000 		.word	notify
 588              		.cfi_endproc
 589              	.LFE4:
 590              		.size	queues2_setup, .-queues2_setup
 591 0028 AFF30080 		.section	.text.thread1,"ax",%progbits
 591      AFF30080 
 592              		.align	2
 593              		.p2align 4,,15
 594              		.thumb
 595              		.thumb_func
 596              		.type	thread1, %function
 597              	thread1:
 598              	.LFB2:
 599              		.loc 1 87 0
 600              		.cfi_startproc
 601              		@ args = 0, pretend = 0, frame = 0
 602              		@ frame_needed = 0, uses_anonymous_args = 0
 603              	.LVL33:
 604 0000 08B5     		push	{r3, lr}
 605              	.LCFI5:
 606              		.cfi_def_cfa_offset 8
 607              		.loc 1 90 0
 608 0002 C821     		movs	r1, #200
 609 0004 0248     		ldr	r0, .L30
 610              	.LVL34:
 611              		.cfi_offset 14, -4
 612              		.cfi_offset 3, -8
 613 0006 FFF7FEFF 		bl	chIQGetTimeout
 614              		.loc 1 92 0
 615 000a 0020     		movs	r0, #0
ARM GAS  C:\Users\DNIEL~1\AppData\Local\Temp\ccM4Kr1k.s 			page 12


 616 000c 08BD     		pop	{r3, pc}
 617              	.L31:
 618 000e 00BF     		.align	2
 619              	.L30:
 620 0010 00000000 		.word	.LANCHOR1
 621              		.cfi_endproc
 622              	.LFE2:
 623              		.size	thread1, .-thread1
 624 0014 AFF30080 		.section	.text.queues1_execute,"ax",%progbits
 624      AFF30080 
 624      AFF30080 
 625              		.align	2
 626              		.p2align 4,,15
 627              		.thumb
 628              		.thumb_func
 629              		.type	queues1_execute, %function
 630              	queues1_execute:
 631              	.LFB3:
 632              		.loc 1 94 0
 633              		.cfi_startproc
 634              		@ args = 0, pretend = 0, frame = 0
 635              		@ frame_needed = 0, uses_anonymous_args = 0
 636 0000 2DE9F041 		push	{r4, r5, r6, r7, r8, lr}
 637              	.LCFI6:
 638              		.cfi_def_cfa_offset 24
 639 0004 82B0     		sub	sp, sp, #8
 640              	.LCFI7:
 641              		.cfi_def_cfa_offset 32
 642              		.loc 1 99 0
 643              	@ 99 "../../../ChibiOS/test/testqueues.c" 1
 644 0006 FFF7FEFF 		bl      _port_lock
 645              	@ 0 "" 2
 646              		.thumb
 647 000a AB4C     		ldr	r4, .L48
 648              		.cfi_offset 14, -4
 649              		.cfi_offset 8, -8
 650              		.cfi_offset 7, -12
 651              		.cfi_offset 6, -16
 652              		.cfi_offset 5, -20
 653              		.cfi_offset 4, -24
 654 000c 0120     		movs	r0, #1
 655 000e A168     		ldr	r1, [r4, #8]
 656 0010 D1F10101 		rsbs	r1, r1, #1
 657 0014 38BF     		it	cc
 658 0016 0021     		movcc	r1, #0
 659 0018 FFF7FEFF 		bl	_test_assert
 660 001c 0546     		mov	r5, r0
 661 001e 0028     		cmp	r0, #0
 662 0020 67D1     		bne	.L44
 663              		.loc 1 99 0 is_stmt 0 discriminator 2
 664              	@ 99 "../../../ChibiOS/test/testqueues.c" 1
 665 0022 FFF7FEFF 		bl      _port_unlock
 666              	@ 0 "" 2
 667              		.loc 1 102 0 is_stmt 1 discriminator 2
 668              	@ 102 "../../../ChibiOS/test/testqueues.c" 1
 669 0026 FFF7FEFF 		bl      _port_lock
 670              	@ 0 "" 2
ARM GAS  C:\Users\DNIEL~1\AppData\Local\Temp\ccM4Kr1k.s 			page 13


 671              	.LVL35:
 672              		.loc 1 104 0 discriminator 2
 673              		.thumb
 674 002a 4121     		movs	r1, #65
 675 002c 2046     		mov	r0, r4
 676 002e FFF7FEFF 		bl	chIQPutI
 677              	.LVL36:
 678 0032 4221     		movs	r1, #66
 679 0034 2046     		mov	r0, r4
 680 0036 FFF7FEFF 		bl	chIQPutI
 681              	.LVL37:
 682 003a 4321     		movs	r1, #67
 683 003c 2046     		mov	r0, r4
 684 003e FFF7FEFF 		bl	chIQPutI
 685              	.LVL38:
 686 0042 2046     		mov	r0, r4
 687 0044 4421     		movs	r1, #68
 688 0046 FFF7FEFF 		bl	chIQPutI
 689              	.LVL39:
 690              		.loc 1 105 0 discriminator 2
 691              	@ 105 "../../../ChibiOS/test/testqueues.c" 1
 692 004a FFF7FEFF 		bl      _port_unlock
 693              	@ 0 "" 2
 694              		.loc 1 106 0 discriminator 2
 695              	@ 106 "../../../ChibiOS/test/testqueues.c" 1
 696 004e FFF7FEFF 		bl      _port_lock
 697              	@ 0 "" 2
 698              		.thumb
 699 0052 6269     		ldr	r2, [r4, #20]
 700 0054 A369     		ldr	r3, [r4, #24]
 701 0056 9A42     		cmp	r2, r3
 702 0058 51D0     		beq	.L45
 703              		.loc 1 106 0 is_stmt 0
 704 005a 2946     		mov	r1, r5
 705              	.L35:
 706              		.loc 1 106 0 discriminator 4
 707 005c 0220     		movs	r0, #2
 708 005e FFF7FEFF 		bl	_test_assert
 709 0062 20B1     		cbz	r0, .L36
 710              		.loc 1 106 0 discriminator 5
 711              	@ 106 "../../../ChibiOS/test/testqueues.c" 1
 712 0064 FFF7FEFF 		bl      _port_unlock
 713              	@ 0 "" 2
 714              	.LVL40:
 715              		.thumb
 716              	.L32:
 717              		.loc 1 151 0 is_stmt 1
 718 0068 02B0     		add	sp, sp, #8
 719 006a BDE8F081 		pop	{r4, r5, r6, r7, r8, pc}
 720              	.LVL41:
 721              	.L36:
 722              		.loc 1 106 0 discriminator 6
 723              	@ 106 "../../../ChibiOS/test/testqueues.c" 1
 724 006e FFF7FEFF 		bl      _port_unlock
 725              	@ 0 "" 2
 726              		.loc 1 107 0 discriminator 6
 727              	@ 107 "../../../ChibiOS/test/testqueues.c" 1
ARM GAS  C:\Users\DNIEL~1\AppData\Local\Temp\ccM4Kr1k.s 			page 14


 728 0072 FFF7FEFF 		bl      _port_lock
 729              	@ 0 "" 2
 730              		.thumb
 731 0076 904D     		ldr	r5, .L48
 732 0078 0146     		mov	r1, r0
 733 007a 2846     		mov	r0, r5
 734 007c FFF7FEFF 		bl	chIQPutI
 735 0080 10F1040F 		cmn	r0, #4
 736 0084 14BF     		ite	ne
 737 0086 0021     		movne	r1, #0
 738 0088 0121     		moveq	r1, #1
 739 008a 0320     		movs	r0, #3
 740 008c FFF7FEFF 		bl	_test_assert
 741 0090 90BB     		cbnz	r0, .L46
 742              		.loc 1 107 0 is_stmt 0 discriminator 2
 743              	@ 107 "../../../ChibiOS/test/testqueues.c" 1
 744 0092 FFF7FEFF 		bl      _port_unlock
 745              	@ 0 "" 2
 746              	.LVL42:
 747              		.loc 1 111 0 is_stmt 1 discriminator 2
 748              		.thumb
 749 0096 4FF0FF31 		mov	r1, #-1
 750 009a 2846     		mov	r0, r5
 751 009c FFF7FEFF 		bl	chIQGetTimeout
 752 00a0 C0B2     		uxtb	r0, r0
 753 00a2 FFF7FEFF 		bl	test_emit_token
 754              	.LVL43:
 755 00a6 4FF0FF31 		mov	r1, #-1
 756 00aa 2846     		mov	r0, r5
 757 00ac FFF7FEFF 		bl	chIQGetTimeout
 758 00b0 C0B2     		uxtb	r0, r0
 759 00b2 FFF7FEFF 		bl	test_emit_token
 760              	.LVL44:
 761 00b6 4FF0FF31 		mov	r1, #-1
 762 00ba 2846     		mov	r0, r5
 763 00bc FFF7FEFF 		bl	chIQGetTimeout
 764 00c0 C0B2     		uxtb	r0, r0
 765 00c2 FFF7FEFF 		bl	test_emit_token
 766              	.LVL45:
 767 00c6 4FF0FF31 		mov	r1, #-1
 768 00ca 2846     		mov	r0, r5
 769 00cc FFF7FEFF 		bl	chIQGetTimeout
 770 00d0 C0B2     		uxtb	r0, r0
 771 00d2 FFF7FEFF 		bl	test_emit_token
 772              	.LVL46:
 773              		.loc 1 112 0 discriminator 2
 774              	@ 112 "../../../ChibiOS/test/testqueues.c" 1
 775 00d6 FFF7FEFF 		bl      _port_lock
 776              	@ 0 "" 2
 777              		.thumb
 778 00da A968     		ldr	r1, [r5, #8]
 779 00dc 0420     		movs	r0, #4
 780 00de D1F10101 		rsbs	r1, r1, #1
 781 00e2 38BF     		it	cc
 782 00e4 0021     		movcc	r1, #0
 783 00e6 FFF7FEFF 		bl	_test_assert
 784 00ea 68B1     		cbz	r0, .L38
ARM GAS  C:\Users\DNIEL~1\AppData\Local\Temp\ccM4Kr1k.s 			page 15


 785              		.loc 1 112 0 is_stmt 0 discriminator 1
 786              	@ 112 "../../../ChibiOS/test/testqueues.c" 1
 787 00ec FFF7FEFF 		bl      _port_unlock
 788              	@ 0 "" 2
 789              		.thumb
 790 00f0 BAE7     		b	.L32
 791              	.LVL47:
 792              	.L44:
 793              		.loc 1 99 0 is_stmt 1 discriminator 1
 794              	@ 99 "../../../ChibiOS/test/testqueues.c" 1
 795 00f2 FFF7FEFF 		bl      _port_unlock
 796              	@ 0 "" 2
 797              		.thumb
 798 00f6 B7E7     		b	.L32
 799              	.LVL48:
 800              	.L46:
 801              		.loc 1 107 0 discriminator 1
 802              	@ 107 "../../../ChibiOS/test/testqueues.c" 1
 803 00f8 FFF7FEFF 		bl      _port_unlock
 804              	@ 0 "" 2
 805              		.thumb
 806 00fc B4E7     		b	.L32
 807              	.L45:
 808              		.loc 1 94 0 discriminator 1
 809 00fe A068     		ldr	r0, [r4, #8]
 810 0100 011E     		subs	r1, r0, #0
 811 0102 18BF     		it	ne
 812 0104 0121     		movne	r1, #1
 813 0106 A9E7     		b	.L35
 814              	.L38:
 815              		.loc 1 112 0 discriminator 2
 816              	@ 112 "../../../ChibiOS/test/testqueues.c" 1
 817 0108 FFF7FEFF 		bl      _port_unlock
 818              	@ 0 "" 2
 819              		.loc 1 113 0 discriminator 2
 820              		.thumb
 821 010c 0520     		movs	r0, #5
 822 010e 6B49     		ldr	r1, .L48+4
 823 0110 FFF7FEFF 		bl	_test_assert_sequence
 824 0114 0646     		mov	r6, r0
 825 0116 0028     		cmp	r0, #0
 826 0118 A6D1     		bne	.L32
 827              		.loc 1 116 0
 828              	@ 116 "../../../ChibiOS/test/testqueues.c" 1
 829 011a FFF7FEFF 		bl      _port_lock
 830              	@ 0 "" 2
 831              	.LVL49:
 832              		.loc 1 118 0
 833              		.thumb
 834 011e 4121     		movs	r1, #65
 835 0120 2846     		mov	r0, r5
 836 0122 FFF7FEFF 		bl	chIQPutI
 837              	.LVL50:
 838 0126 4221     		movs	r1, #66
 839 0128 2846     		mov	r0, r5
 840 012a FFF7FEFF 		bl	chIQPutI
 841              	.LVL51:
ARM GAS  C:\Users\DNIEL~1\AppData\Local\Temp\ccM4Kr1k.s 			page 16


 842 012e 4321     		movs	r1, #67
 843 0130 2846     		mov	r0, r5
 844 0132 FFF7FEFF 		bl	chIQPutI
 845              	.LVL52:
 846 0136 2846     		mov	r0, r5
 847 0138 4421     		movs	r1, #68
 848 013a FFF7FEFF 		bl	chIQPutI
 849              	.LVL53:
 850              		.loc 1 119 0
 851              	@ 119 "../../../ChibiOS/test/testqueues.c" 1
 852 013e FFF7FEFF 		bl      _port_unlock
 853              	@ 0 "" 2
 854              		.loc 1 122 0
 855              		.thumb
 856 0142 5F4F     		ldr	r7, .L48+8
 857 0144 0822     		movs	r2, #8
 858 0146 D7F80480 		ldr	r8, [r7, #4]
 859 014a 2846     		mov	r0, r5
 860 014c 4146     		mov	r1, r8
 861 014e 3346     		mov	r3, r6
 862 0150 FFF7FEFF 		bl	chIQReadTimeout
 863              	.LVL54:
 864              		.loc 1 123 0
 865 0154 A0F10402 		sub	r2, r0, #4
 866 0158 D2F1000C 		rsbs	ip, r2, #0
 867 015c 4CEB0201 		adc	r1, ip, r2
 868 0160 0620     		movs	r0, #6
 869              	.LVL55:
 870 0162 FFF7FEFF 		bl	_test_assert
 871              	.LVL56:
 872 0166 0028     		cmp	r0, #0
 873 0168 7FF47EAF 		bne	.L32
 874              		.loc 1 124 0
 875              	@ 124 "../../../ChibiOS/test/testqueues.c" 1
 876 016c FFF7FEFF 		bl      _port_lock
 877              	@ 0 "" 2
 878              		.thumb
 879 0170 AE68     		ldr	r6, [r5, #8]
 880 0172 0720     		movs	r0, #7
 881 0174 D6F10101 		rsbs	r1, r6, #1
 882 0178 38BF     		it	cc
 883 017a 0021     		movcc	r1, #0
 884 017c FFF7FEFF 		bl	_test_assert
 885 0180 0646     		mov	r6, r0
 886 0182 0028     		cmp	r0, #0
 887 0184 47D1     		bne	.L47
 888              		.loc 1 124 0 is_stmt 0 discriminator 2
 889              	@ 124 "../../../ChibiOS/test/testqueues.c" 1
 890 0186 FFF7FEFF 		bl      _port_unlock
 891              	@ 0 "" 2
 892              		.loc 1 127 0 is_stmt 1 discriminator 2
 893              	@ 127 "../../../ChibiOS/test/testqueues.c" 1
 894 018a FFF7FEFF 		bl      _port_lock
 895              	@ 0 "" 2
 896              	.LVL57:
 897              		.loc 1 129 0 discriminator 2
 898              		.thumb
ARM GAS  C:\Users\DNIEL~1\AppData\Local\Temp\ccM4Kr1k.s 			page 17


 899 018e 4121     		movs	r1, #65
 900 0190 2846     		mov	r0, r5
 901 0192 FFF7FEFF 		bl	chIQPutI
 902              	.LVL58:
 903 0196 4221     		movs	r1, #66
 904 0198 2846     		mov	r0, r5
 905 019a FFF7FEFF 		bl	chIQPutI
 906              	.LVL59:
 907 019e 4321     		movs	r1, #67
 908 01a0 2846     		mov	r0, r5
 909 01a2 FFF7FEFF 		bl	chIQPutI
 910              	.LVL60:
 911 01a6 2846     		mov	r0, r5
 912 01a8 4421     		movs	r1, #68
 913 01aa FFF7FEFF 		bl	chIQPutI
 914              	.LVL61:
 915              		.loc 1 130 0 discriminator 2
 916              	@ 130 "../../../ChibiOS/test/testqueues.c" 1
 917 01ae FFF7FEFF 		bl      _port_unlock
 918              	@ 0 "" 2
 919              		.loc 1 133 0 discriminator 2
 920              		.thumb
 921 01b2 0222     		movs	r2, #2
 922 01b4 4146     		mov	r1, r8
 923 01b6 3346     		mov	r3, r6
 924 01b8 2846     		mov	r0, r5
 925 01ba FFF7FEFF 		bl	chIQReadTimeout
 926              	.LVL62:
 927              		.loc 1 134 0 discriminator 2
 928 01be A0F10203 		sub	r3, r0, #2
 929 01c2 5842     		rsbs	r0, r3, #0
 930              	.LVL63:
 931 01c4 40EB0301 		adc	r1, r0, r3
 932 01c8 0820     		movs	r0, #8
 933 01ca FFF7FEFF 		bl	_test_assert
 934              	.LVL64:
 935 01ce 0346     		mov	r3, r0
 936 01d0 0028     		cmp	r0, #0
 937 01d2 7FF449AF 		bne	.L32
 938              		.loc 1 135 0
 939 01d6 4146     		mov	r1, r8
 940 01d8 0222     		movs	r2, #2
 941 01da 2846     		mov	r0, r5
 942 01dc FFF7FEFF 		bl	chIQReadTimeout
 943              	.LVL65:
 944              		.loc 1 136 0
 945 01e0 A0F1020C 		sub	ip, r0, #2
 946 01e4 DCF10001 		rsbs	r1, ip, #0
 947 01e8 41EB0C01 		adc	r1, r1, ip
 948 01ec 0920     		movs	r0, #9
 949              	.LVL66:
 950 01ee FFF7FEFF 		bl	_test_assert
 951              	.LVL67:
 952 01f2 0028     		cmp	r0, #0
 953 01f4 7FF438AF 		bne	.L32
 954              		.loc 1 137 0
 955              	@ 137 "../../../ChibiOS/test/testqueues.c" 1
ARM GAS  C:\Users\DNIEL~1\AppData\Local\Temp\ccM4Kr1k.s 			page 18


 956 01f8 FFF7FEFF 		bl      _port_lock
 957              	@ 0 "" 2
 958              		.thumb
 959 01fc AA68     		ldr	r2, [r5, #8]
 960 01fe 0A30     		adds	r0, r0, #10
 961 0200 D2F10101 		rsbs	r1, r2, #1
 962 0204 38BF     		it	cc
 963 0206 0021     		movcc	r1, #0
 964 0208 FFF7FEFF 		bl	_test_assert
 965 020c 0146     		mov	r1, r0
 966 020e 28B1     		cbz	r0, .L40
 967              		.loc 1 137 0 is_stmt 0 discriminator 1
 968              	@ 137 "../../../ChibiOS/test/testqueues.c" 1
 969 0210 FFF7FEFF 		bl      _port_unlock
 970              	@ 0 "" 2
 971              		.thumb
 972 0214 28E7     		b	.L32
 973              	.L47:
 974              		.loc 1 124 0 is_stmt 1 discriminator 1
 975              	@ 124 "../../../ChibiOS/test/testqueues.c" 1
 976 0216 FFF7FEFF 		bl      _port_unlock
 977              	@ 0 "" 2
 978              		.thumb
 979 021a 25E7     		b	.L32
 980              	.L40:
 981              		.loc 1 137 0 discriminator 2
 982              	@ 137 "../../../ChibiOS/test/testqueues.c" 1
 983 021c FFF7FEFF 		bl      _port_unlock
 984              	@ 0 "" 2
 985              		.loc 1 140 0 discriminator 2
 986              	@ 140 "../../../ChibiOS/test/testqueues.c" 1
 987 0220 FFF7FEFF 		bl      _port_lock
 988              	@ 0 "" 2
 989              		.loc 1 141 0 discriminator 2
 990              		.thumb
 991 0224 2846     		mov	r0, r5
 992 0226 FFF7FEFF 		bl	chIQPutI
 993              		.loc 1 142 0 discriminator 2
 994 022a 2846     		mov	r0, r5
 995 022c FFF7FEFF 		bl	chIQResetI
 996              		.loc 1 143 0 discriminator 2
 997              	@ 143 "../../../ChibiOS/test/testqueues.c" 1
 998 0230 FFF7FEFF 		bl      _port_unlock
 999              	@ 0 "" 2
 1000              		.loc 1 144 0 discriminator 2
 1001              	@ 144 "../../../ChibiOS/test/testqueues.c" 1
 1002 0234 FFF7FEFF 		bl      _port_lock
 1003              	@ 0 "" 2
 1004              		.thumb
 1005 0238 AB68     		ldr	r3, [r5, #8]
 1006 023a 0B20     		movs	r0, #11
 1007 023c D3F10101 		rsbs	r1, r3, #1
 1008 0240 38BF     		it	cc
 1009 0242 0021     		movcc	r1, #0
 1010 0244 FFF7FEFF 		bl	_test_assert
 1011 0248 10B1     		cbz	r0, .L41
 1012              		.loc 1 144 0 is_stmt 0 discriminator 1
ARM GAS  C:\Users\DNIEL~1\AppData\Local\Temp\ccM4Kr1k.s 			page 19


 1013              	@ 144 "../../../ChibiOS/test/testqueues.c" 1
 1014 024a FFF7FEFF 		bl      _port_unlock
 1015              	@ 0 "" 2
 1016              		.thumb
 1017 024e 0BE7     		b	.L32
 1018              	.L41:
 1019              		.loc 1 144 0 discriminator 2
 1020              	@ 144 "../../../ChibiOS/test/testqueues.c" 1
 1021 0250 FFF7FEFF 		bl      _port_unlock
 1022              	@ 0 "" 2
 1023              		.loc 1 145 0 is_stmt 1 discriminator 2
 1024              		.thumb
 1025 0254 1B48     		ldr	r0, .L48+12
 1026 0256 1C4B     		ldr	r3, .L48+16
 1027 0258 8169     		ldr	r1, [r0, #24]
 1028 025a 3868     		ldr	r0, [r7, #0]
 1029 025c 8D68     		ldr	r5, [r1, #8]
 1030 025e 4FF49871 		mov	r1, #304
 1031 0262 6A1C     		adds	r2, r5, #1
 1032 0264 0025     		movs	r5, #0
 1033 0266 0095     		str	r5, [sp, #0]
 1034 0268 FFF7FEFF 		bl	chThdCreateStatic
 1035 026c 174B     		ldr	r3, .L48+20
 1036 026e 1860     		str	r0, [r3, #0]
 1037              		.loc 1 146 0 discriminator 2
 1038              	@ 146 "../../../ChibiOS/test/testqueues.c" 1
 1039 0270 FFF7FEFF 		bl      _port_lock
 1040              	@ 0 "" 2
 1041              		.thumb
 1042 0274 A268     		ldr	r2, [r4, #8]
 1043 0276 0C20     		movs	r0, #12
 1044 0278 C5EB020E 		rsb	lr, r5, r2
 1045 027c DEF10001 		rsbs	r1, lr, #0
 1046 0280 41EB0E01 		adc	r1, r1, lr
 1047 0284 FFF7FEFF 		bl	_test_assert
 1048 0288 10B1     		cbz	r0, .L42
 1049              		.loc 1 146 0 is_stmt 0 discriminator 1
 1050              	@ 146 "../../../ChibiOS/test/testqueues.c" 1
 1051 028a FFF7FEFF 		bl      _port_unlock
 1052              	@ 0 "" 2
 1053              		.thumb
 1054 028e EBE6     		b	.L32
 1055              	.L42:
 1056              		.loc 1 146 0 discriminator 2
 1057              	@ 146 "../../../ChibiOS/test/testqueues.c" 1
 1058 0290 FFF7FEFF 		bl      _port_unlock
 1059              	@ 0 "" 2
 1060              		.loc 1 147 0 is_stmt 1 discriminator 2
 1061              		.thumb
 1062 0294 FFF7FEFF 		bl	test_wait_threads
 1063              		.loc 1 150 0 discriminator 2
 1064 0298 0A21     		movs	r1, #10
 1065 029a 0748     		ldr	r0, .L48
 1066 029c FFF7FEFF 		bl	chIQGetTimeout
 1067 02a0 A0F1FF32 		sub	r2, r0, #-1
 1068 02a4 D2F1000C 		rsbs	ip, r2, #0
 1069 02a8 4CEB0201 		adc	r1, ip, r2
ARM GAS  C:\Users\DNIEL~1\AppData\Local\Temp\ccM4Kr1k.s 			page 20


 1070 02ac 0D20     		movs	r0, #13
 1071              		.loc 1 151 0 discriminator 2
 1072 02ae 02B0     		add	sp, sp, #8
 1073 02b0 BDE8F041 		pop	{r4, r5, r6, r7, r8, lr}
 1074              		.loc 1 150 0 discriminator 2
 1075 02b4 FFF7FEBF 		b	_test_assert
 1076              	.L49:
 1077              		.align	2
 1078              	.L48:
 1079 02b8 00000000 		.word	.LANCHOR1
 1080 02bc 00000000 		.word	.LC0
 1081 02c0 00000000 		.word	wa
 1082 02c4 00000000 		.word	rlist
 1083 02c8 00000000 		.word	thread1
 1084 02cc 00000000 		.word	threads
 1085              		.cfi_endproc
 1086              	.LFE3:
 1087              		.size	queues1_execute, .-queues1_execute
 1088              		.section	.text.queues1_setup,"ax",%progbits
 1089              		.align	2
 1090              		.p2align 4,,15
 1091              		.thumb
 1092              		.thumb_func
 1093              		.type	queues1_setup, %function
 1094              	queues1_setup:
 1095              	.LFB1:
 1096              		.loc 1 82 0
 1097              		.cfi_startproc
 1098              		@ args = 0, pretend = 0, frame = 0
 1099              		@ frame_needed = 0, uses_anonymous_args = 0
 1100 0000 10B5     		push	{r4, lr}
 1101              	.LCFI8:
 1102              		.cfi_def_cfa_offset 8
 1103              		.loc 1 84 0
 1104 0002 064B     		ldr	r3, .L51
 1105              		.loc 1 82 0
 1106 0004 82B0     		sub	sp, sp, #8
 1107              	.LCFI9:
 1108              		.cfi_def_cfa_offset 16
 1109              		.loc 1 84 0
 1110 0006 1968     		ldr	r1, [r3, #0]
 1111 0008 0024     		movs	r4, #0
 1112              		.cfi_offset 14, -4
 1113              		.cfi_offset 4, -8
 1114 000a 0548     		ldr	r0, .L51+4
 1115 000c 0422     		movs	r2, #4
 1116 000e 054B     		ldr	r3, .L51+8
 1117 0010 0094     		str	r4, [sp, #0]
 1118 0012 FFF7FEFF 		bl	chIQInit
 1119              		.loc 1 85 0
 1120 0016 02B0     		add	sp, sp, #8
 1121 0018 10BD     		pop	{r4, pc}
 1122              	.L52:
 1123 001a 00BF     		.align	2
 1124              	.L51:
 1125 001c 00000000 		.word	wa
 1126 0020 00000000 		.word	.LANCHOR1
ARM GAS  C:\Users\DNIEL~1\AppData\Local\Temp\ccM4Kr1k.s 			page 21


 1127 0024 00000000 		.word	notify
 1128              		.cfi_endproc
 1129              	.LFE1:
 1130              		.size	queues1_setup, .-queues1_setup
 1131              		.global	testqueues1
 1132              		.global	testqueues2
 1133              		.global	patternqueues
 1134              		.section	.rodata.testqueues1,"a",%progbits
 1135              		.align	2
 1136              		.type	testqueues1, %object
 1137              		.size	testqueues1, 16
 1138              	testqueues1:
 1139 0000 08000000 		.word	.LC1
 1140 0004 00000000 		.word	queues1_setup
 1141 0008 00000000 		.word	0
 1142 000c 00000000 		.word	queues1_execute
 1143              		.section	.rodata.testqueues2,"a",%progbits
 1144              		.align	2
 1145              		.type	testqueues2, %object
 1146              		.size	testqueues2, 16
 1147              	testqueues2:
 1148 0000 20000000 		.word	.LC2
 1149 0004 00000000 		.word	queues2_setup
 1150 0008 00000000 		.word	0
 1151 000c 00000000 		.word	queues2_execute
 1152              		.section	.rodata.str1.4,"aMS",%progbits,1
 1153              		.align	2
 1154              	.LC0:
 1155 0000 41424344 		.ascii	"ABCD\000"
 1155      00
 1156 0005 000000   		.space	3
 1157              	.LC1:
 1158 0008 51756575 		.ascii	"Queues, input queues\000"
 1158      65732C20 
 1158      696E7075 
 1158      74207175 
 1158      65756573 
 1159 001d 000000   		.space	3
 1160              	.LC2:
 1161 0020 51756575 		.ascii	"Queues, output queues\000"
 1161      65732C20 
 1161      6F757470 
 1161      75742071 
 1161      75657565 
 1162 0036 0000     		.section	.rodata.patternqueues,"a",%progbits
 1163              		.align	2
 1164              		.type	patternqueues, %object
 1165              		.size	patternqueues, 12
 1166              	patternqueues:
 1167 0000 00000000 		.word	testqueues1
 1168 0004 00000000 		.word	testqueues2
 1169 0008 00000000 		.word	0
 1170              		.section	.data.oq,"aw",%progbits
 1171              		.align	2
 1172              		.set	.LANCHOR0,. + 0
 1173              		.type	oq, %object
 1174              		.size	oq, 36
ARM GAS  C:\Users\DNIEL~1\AppData\Local\Temp\ccM4Kr1k.s 			page 22


 1175              	oq:
 1176 0000 00000000 		.word	oq
 1177 0004 00000000 		.word	oq
 1178 0008 04000000 		.word	4
 1179 000c 30010000 		.word	test+304
 1180 0010 34010000 		.word	test+308
 1181 0014 30010000 		.word	test+304
 1182 0018 30010000 		.word	test+304
 1183 001c 00000000 		.word	notify
 1184 0020 00000000 		.word	0
 1185              		.section	.data.iq,"aw",%progbits
 1186              		.align	2
 1187              		.set	.LANCHOR1,. + 0
 1188              		.type	iq, %object
 1189              		.size	iq, 36
 1190              	iq:
 1191 0000 00000000 		.word	iq
 1192 0004 00000000 		.word	iq
 1193 0008 00000000 		.word	0
 1194 000c 00000000 		.word	test
 1195 0010 04000000 		.word	test+4
 1196 0014 00000000 		.word	test
 1197 0018 00000000 		.word	test
 1198 001c 00000000 		.word	notify
 1199 0020 00000000 		.word	0
 1200              		.text
 1201              	.Letext0:
 1202              		.section	.debug_loc,"",%progbits
 1203              	.Ldebug_loc0:
 1204              	.LLST0:
 1205 0000 00000000 		.4byte	.LFB5
 1206 0004 02000000 		.4byte	.LCFI0
 1207 0008 0200     		.2byte	0x2
 1208 000a 7D       		.byte	0x7d
 1209 000b 00       		.sleb128 0
 1210 000c 02000000 		.4byte	.LCFI0
 1211 0010 14000000 		.4byte	.LFE5
 1212 0014 0200     		.2byte	0x2
 1213 0016 7D       		.byte	0x7d
 1214 0017 08       		.sleb128 8
 1215 0018 00000000 		.4byte	0x0
 1216 001c 00000000 		.4byte	0x0
 1217              	.LLST1:
 1218 0020 00000000 		.4byte	.LVL1
 1219 0024 08000000 		.4byte	.LVL2
 1220 0028 0100     		.2byte	0x1
 1221 002a 50       		.byte	0x50
 1222 002b 00000000 		.4byte	0x0
 1223 002f 00000000 		.4byte	0x0
 1224              	.LLST2:
 1225 0033 00000000 		.4byte	.LFB6
 1226 0037 02000000 		.4byte	.LCFI1
 1227 003b 0200     		.2byte	0x2
 1228 003d 7D       		.byte	0x7d
 1229 003e 00       		.sleb128 0
 1230 003f 02000000 		.4byte	.LCFI1
 1231 0043 04000000 		.4byte	.LCFI2
ARM GAS  C:\Users\DNIEL~1\AppData\Local\Temp\ccM4Kr1k.s 			page 23


 1232 0047 0200     		.2byte	0x2
 1233 0049 7D       		.byte	0x7d
 1234 004a 14       		.sleb128 20
 1235 004b 04000000 		.4byte	.LCFI2
 1236 004f A4020000 		.4byte	.LFE6
 1237 0053 0200     		.2byte	0x2
 1238 0055 7D       		.byte	0x7d
 1239 0056 20       		.sleb128 32
 1240 0057 00000000 		.4byte	0x0
 1241 005b 00000000 		.4byte	0x0
 1242              	.LLST3:
 1243 005f 22000000 		.4byte	.LVL3
 1244 0063 30000000 		.4byte	.LVL4
 1245 0067 0200     		.2byte	0x2
 1246 0069 30       		.byte	0x30
 1247 006a 9F       		.byte	0x9f
 1248 006b 30000000 		.4byte	.LVL4
 1249 006f 3C000000 		.4byte	.LVL5
 1250 0073 0200     		.2byte	0x2
 1251 0075 31       		.byte	0x31
 1252 0076 9F       		.byte	0x9f
 1253 0077 3C000000 		.4byte	.LVL5
 1254 007b 48000000 		.4byte	.LVL6
 1255 007f 0200     		.2byte	0x2
 1256 0081 32       		.byte	0x32
 1257 0082 9F       		.byte	0x9f
 1258 0083 48000000 		.4byte	.LVL6
 1259 0087 54000000 		.4byte	.LVL7
 1260 008b 0200     		.2byte	0x2
 1261 008d 33       		.byte	0x33
 1262 008e 9F       		.byte	0x9f
 1263 008f 54000000 		.4byte	.LVL7
 1264 0093 72000000 		.4byte	.LVL8
 1265 0097 0200     		.2byte	0x2
 1266 0099 34       		.byte	0x34
 1267 009a 9F       		.byte	0x9f
 1268 009b 72000000 		.4byte	.LVL8
 1269 009f 86000000 		.4byte	.LVL11
 1270 00a3 0200     		.2byte	0x2
 1271 00a5 30       		.byte	0x30
 1272 00a6 9F       		.byte	0x9f
 1273 00a7 86000000 		.4byte	.LVL11
 1274 00ab 9A000000 		.4byte	.LVL14
 1275 00af 0200     		.2byte	0x2
 1276 00b1 31       		.byte	0x31
 1277 00b2 9F       		.byte	0x9f
 1278 00b3 9A000000 		.4byte	.LVL14
 1279 00b7 AE000000 		.4byte	.LVL17
 1280 00bb 0200     		.2byte	0x2
 1281 00bd 32       		.byte	0x32
 1282 00be 9F       		.byte	0x9f
 1283 00bf AE000000 		.4byte	.LVL17
 1284 00c3 C2000000 		.4byte	.LVL20
 1285 00c7 0200     		.2byte	0x2
 1286 00c9 33       		.byte	0x33
 1287 00ca 9F       		.byte	0x9f
 1288 00cb C2000000 		.4byte	.LVL20
ARM GAS  C:\Users\DNIEL~1\AppData\Local\Temp\ccM4Kr1k.s 			page 24


 1289 00cf DC000000 		.4byte	.LVL21
 1290 00d3 0200     		.2byte	0x2
 1291 00d5 34       		.byte	0x34
 1292 00d6 9F       		.byte	0x9f
 1293 00d7 E0000000 		.4byte	.LVL22
 1294 00db E6000000 		.4byte	.LVL23
 1295 00df 0200     		.2byte	0x2
 1296 00e1 34       		.byte	0x34
 1297 00e2 9F       		.byte	0x9f
 1298 00e3 F6000000 		.4byte	.LVL24
 1299 00e7 A4020000 		.4byte	.LFE6
 1300 00eb 0200     		.2byte	0x2
 1301 00ed 34       		.byte	0x34
 1302 00ee 9F       		.byte	0x9f
 1303 00ef 00000000 		.4byte	0x0
 1304 00f3 00000000 		.4byte	0x0
 1305              	.LLST4:
 1306 00f7 4A010000 		.4byte	.LVL25
 1307 00fb 58010000 		.4byte	.LVL26
 1308 00ff 0100     		.2byte	0x1
 1309 0101 50       		.byte	0x50
 1310 0102 10020000 		.4byte	.LVL27
 1311 0106 1E020000 		.4byte	.LVL28
 1312 010a 0100     		.2byte	0x1
 1313 010c 50       		.byte	0x50
 1314 010d 1E020000 		.4byte	.LVL28
 1315 0111 21020000 		.4byte	.LVL29-1
 1316 0115 0300     		.2byte	0x3
 1317 0117 72       		.byte	0x72
 1318 0118 02       		.sleb128 2
 1319 0119 9F       		.byte	0x9f
 1320 011a 34020000 		.4byte	.LVL30
 1321 011e 38020000 		.4byte	.LVL31
 1322 0122 0100     		.2byte	0x1
 1323 0124 50       		.byte	0x50
 1324 0125 38020000 		.4byte	.LVL31
 1325 0129 40020000 		.4byte	.LVL32
 1326 012d 0300     		.2byte	0x3
 1327 012f 70       		.byte	0x70
 1328 0130 02       		.sleb128 2
 1329 0131 9F       		.byte	0x9f
 1330 0132 00000000 		.4byte	0x0
 1331 0136 00000000 		.4byte	0x0
 1332              	.LLST5:
 1333 013a 7C000000 		.4byte	.LVL9
 1334 013e 82000000 		.4byte	.LVL10
 1335 0142 0100     		.2byte	0x1
 1336 0144 50       		.byte	0x50
 1337 0145 90000000 		.4byte	.LVL12
 1338 0149 96000000 		.4byte	.LVL13
 1339 014d 0100     		.2byte	0x1
 1340 014f 50       		.byte	0x50
 1341 0150 A4000000 		.4byte	.LVL15
 1342 0154 AA000000 		.4byte	.LVL16
 1343 0158 0100     		.2byte	0x1
 1344 015a 50       		.byte	0x50
 1345 015b B8000000 		.4byte	.LVL18
ARM GAS  C:\Users\DNIEL~1\AppData\Local\Temp\ccM4Kr1k.s 			page 25


 1346 015f BE000000 		.4byte	.LVL19
 1347 0163 0100     		.2byte	0x1
 1348 0165 50       		.byte	0x50
 1349 0166 00000000 		.4byte	0x0
 1350 016a 00000000 		.4byte	0x0
 1351              	.LLST6:
 1352 016e 00000000 		.4byte	.LFB4
 1353 0172 02000000 		.4byte	.LCFI3
 1354 0176 0200     		.2byte	0x2
 1355 0178 7D       		.byte	0x7d
 1356 0179 00       		.sleb128 0
 1357 017a 02000000 		.4byte	.LCFI3
 1358 017e 06000000 		.4byte	.LCFI4
 1359 0182 0200     		.2byte	0x2
 1360 0184 7D       		.byte	0x7d
 1361 0185 08       		.sleb128 8
 1362 0186 06000000 		.4byte	.LCFI4
 1363 018a 28000000 		.4byte	.LFE4
 1364 018e 0200     		.2byte	0x2
 1365 0190 7D       		.byte	0x7d
 1366 0191 10       		.sleb128 16
 1367 0192 00000000 		.4byte	0x0
 1368 0196 00000000 		.4byte	0x0
 1369              	.LLST7:
 1370 019a 00000000 		.4byte	.LFB2
 1371 019e 02000000 		.4byte	.LCFI5
 1372 01a2 0200     		.2byte	0x2
 1373 01a4 7D       		.byte	0x7d
 1374 01a5 00       		.sleb128 0
 1375 01a6 02000000 		.4byte	.LCFI5
 1376 01aa 14000000 		.4byte	.LFE2
 1377 01ae 0200     		.2byte	0x2
 1378 01b0 7D       		.byte	0x7d
 1379 01b1 08       		.sleb128 8
 1380 01b2 00000000 		.4byte	0x0
 1381 01b6 00000000 		.4byte	0x0
 1382              	.LLST8:
 1383 01ba 00000000 		.4byte	.LVL33
 1384 01be 06000000 		.4byte	.LVL34
 1385 01c2 0100     		.2byte	0x1
 1386 01c4 50       		.byte	0x50
 1387 01c5 00000000 		.4byte	0x0
 1388 01c9 00000000 		.4byte	0x0
 1389              	.LLST9:
 1390 01cd 00000000 		.4byte	.LFB3
 1391 01d1 04000000 		.4byte	.LCFI6
 1392 01d5 0200     		.2byte	0x2
 1393 01d7 7D       		.byte	0x7d
 1394 01d8 00       		.sleb128 0
 1395 01d9 04000000 		.4byte	.LCFI6
 1396 01dd 06000000 		.4byte	.LCFI7
 1397 01e1 0200     		.2byte	0x2
 1398 01e3 7D       		.byte	0x7d
 1399 01e4 18       		.sleb128 24
 1400 01e5 06000000 		.4byte	.LCFI7
 1401 01e9 D0020000 		.4byte	.LFE3
 1402 01ed 0200     		.2byte	0x2
ARM GAS  C:\Users\DNIEL~1\AppData\Local\Temp\ccM4Kr1k.s 			page 26


 1403 01ef 7D       		.byte	0x7d
 1404 01f0 20       		.sleb128 32
 1405 01f1 00000000 		.4byte	0x0
 1406 01f5 00000000 		.4byte	0x0
 1407              	.LLST10:
 1408 01f9 2A000000 		.4byte	.LVL35
 1409 01fd 32000000 		.4byte	.LVL36
 1410 0201 0200     		.2byte	0x2
 1411 0203 30       		.byte	0x30
 1412 0204 9F       		.byte	0x9f
 1413 0205 32000000 		.4byte	.LVL36
 1414 0209 3A000000 		.4byte	.LVL37
 1415 020d 0200     		.2byte	0x2
 1416 020f 31       		.byte	0x31
 1417 0210 9F       		.byte	0x9f
 1418 0211 3A000000 		.4byte	.LVL37
 1419 0215 42000000 		.4byte	.LVL38
 1420 0219 0200     		.2byte	0x2
 1421 021b 32       		.byte	0x32
 1422 021c 9F       		.byte	0x9f
 1423 021d 42000000 		.4byte	.LVL38
 1424 0221 4A000000 		.4byte	.LVL39
 1425 0225 0200     		.2byte	0x2
 1426 0227 33       		.byte	0x33
 1427 0228 9F       		.byte	0x9f
 1428 0229 4A000000 		.4byte	.LVL39
 1429 022d 68000000 		.4byte	.LVL40
 1430 0231 0200     		.2byte	0x2
 1431 0233 34       		.byte	0x34
 1432 0234 9F       		.byte	0x9f
 1433 0235 6E000000 		.4byte	.LVL41
 1434 0239 96000000 		.4byte	.LVL42
 1435 023d 0200     		.2byte	0x2
 1436 023f 34       		.byte	0x34
 1437 0240 9F       		.byte	0x9f
 1438 0241 96000000 		.4byte	.LVL42
 1439 0245 A6000000 		.4byte	.LVL43
 1440 0249 0200     		.2byte	0x2
 1441 024b 30       		.byte	0x30
 1442 024c 9F       		.byte	0x9f
 1443 024d A6000000 		.4byte	.LVL43
 1444 0251 B6000000 		.4byte	.LVL44
 1445 0255 0200     		.2byte	0x2
 1446 0257 31       		.byte	0x31
 1447 0258 9F       		.byte	0x9f
 1448 0259 B6000000 		.4byte	.LVL44
 1449 025d C6000000 		.4byte	.LVL45
 1450 0261 0200     		.2byte	0x2
 1451 0263 32       		.byte	0x32
 1452 0264 9F       		.byte	0x9f
 1453 0265 C6000000 		.4byte	.LVL45
 1454 0269 D6000000 		.4byte	.LVL46
 1455 026d 0200     		.2byte	0x2
 1456 026f 33       		.byte	0x33
 1457 0270 9F       		.byte	0x9f
 1458 0271 D6000000 		.4byte	.LVL46
 1459 0275 F2000000 		.4byte	.LVL47
ARM GAS  C:\Users\DNIEL~1\AppData\Local\Temp\ccM4Kr1k.s 			page 27


 1460 0279 0200     		.2byte	0x2
 1461 027b 34       		.byte	0x34
 1462 027c 9F       		.byte	0x9f
 1463 027d F8000000 		.4byte	.LVL48
 1464 0281 1E010000 		.4byte	.LVL49
 1465 0285 0200     		.2byte	0x2
 1466 0287 34       		.byte	0x34
 1467 0288 9F       		.byte	0x9f
 1468 0289 1E010000 		.4byte	.LVL49
 1469 028d 26010000 		.4byte	.LVL50
 1470 0291 0200     		.2byte	0x2
 1471 0293 30       		.byte	0x30
 1472 0294 9F       		.byte	0x9f
 1473 0295 26010000 		.4byte	.LVL50
 1474 0299 2E010000 		.4byte	.LVL51
 1475 029d 0200     		.2byte	0x2
 1476 029f 31       		.byte	0x31
 1477 02a0 9F       		.byte	0x9f
 1478 02a1 2E010000 		.4byte	.LVL51
 1479 02a5 36010000 		.4byte	.LVL52
 1480 02a9 0200     		.2byte	0x2
 1481 02ab 32       		.byte	0x32
 1482 02ac 9F       		.byte	0x9f
 1483 02ad 36010000 		.4byte	.LVL52
 1484 02b1 3E010000 		.4byte	.LVL53
 1485 02b5 0200     		.2byte	0x2
 1486 02b7 33       		.byte	0x33
 1487 02b8 9F       		.byte	0x9f
 1488 02b9 3E010000 		.4byte	.LVL53
 1489 02bd 8E010000 		.4byte	.LVL57
 1490 02c1 0200     		.2byte	0x2
 1491 02c3 34       		.byte	0x34
 1492 02c4 9F       		.byte	0x9f
 1493 02c5 8E010000 		.4byte	.LVL57
 1494 02c9 96010000 		.4byte	.LVL58
 1495 02cd 0200     		.2byte	0x2
 1496 02cf 30       		.byte	0x30
 1497 02d0 9F       		.byte	0x9f
 1498 02d1 96010000 		.4byte	.LVL58
 1499 02d5 9E010000 		.4byte	.LVL59
 1500 02d9 0200     		.2byte	0x2
 1501 02db 31       		.byte	0x31
 1502 02dc 9F       		.byte	0x9f
 1503 02dd 9E010000 		.4byte	.LVL59
 1504 02e1 A6010000 		.4byte	.LVL60
 1505 02e5 0200     		.2byte	0x2
 1506 02e7 32       		.byte	0x32
 1507 02e8 9F       		.byte	0x9f
 1508 02e9 A6010000 		.4byte	.LVL60
 1509 02ed AE010000 		.4byte	.LVL61
 1510 02f1 0200     		.2byte	0x2
 1511 02f3 33       		.byte	0x33
 1512 02f4 9F       		.byte	0x9f
 1513 02f5 AE010000 		.4byte	.LVL61
 1514 02f9 D0020000 		.4byte	.LFE3
 1515 02fd 0200     		.2byte	0x2
 1516 02ff 34       		.byte	0x34
ARM GAS  C:\Users\DNIEL~1\AppData\Local\Temp\ccM4Kr1k.s 			page 28


 1517 0300 9F       		.byte	0x9f
 1518 0301 00000000 		.4byte	0x0
 1519 0305 00000000 		.4byte	0x0
 1520              	.LLST11:
 1521 0309 54010000 		.4byte	.LVL54
 1522 030d 62010000 		.4byte	.LVL55
 1523 0311 0100     		.2byte	0x1
 1524 0313 50       		.byte	0x50
 1525 0314 62010000 		.4byte	.LVL55
 1526 0318 65010000 		.4byte	.LVL56-1
 1527 031c 0300     		.2byte	0x3
 1528 031e 72       		.byte	0x72
 1529 031f 04       		.sleb128 4
 1530 0320 9F       		.byte	0x9f
 1531 0321 BE010000 		.4byte	.LVL62
 1532 0325 C4010000 		.4byte	.LVL63
 1533 0329 0100     		.2byte	0x1
 1534 032b 50       		.byte	0x50
 1535 032c C4010000 		.4byte	.LVL63
 1536 0330 CD010000 		.4byte	.LVL64-1
 1537 0334 0300     		.2byte	0x3
 1538 0336 73       		.byte	0x73
 1539 0337 02       		.sleb128 2
 1540 0338 9F       		.byte	0x9f
 1541 0339 E0010000 		.4byte	.LVL65
 1542 033d EE010000 		.4byte	.LVL66
 1543 0341 0100     		.2byte	0x1
 1544 0343 50       		.byte	0x50
 1545 0344 EE010000 		.4byte	.LVL66
 1546 0348 F1010000 		.4byte	.LVL67-1
 1547 034c 0300     		.2byte	0x3
 1548 034e 7C       		.byte	0x7c
 1549 034f 02       		.sleb128 2
 1550 0350 9F       		.byte	0x9f
 1551 0351 00000000 		.4byte	0x0
 1552 0355 00000000 		.4byte	0x0
 1553              	.LLST12:
 1554 0359 00000000 		.4byte	.LFB1
 1555 035d 02000000 		.4byte	.LCFI8
 1556 0361 0200     		.2byte	0x2
 1557 0363 7D       		.byte	0x7d
 1558 0364 00       		.sleb128 0
 1559 0365 02000000 		.4byte	.LCFI8
 1560 0369 06000000 		.4byte	.LCFI9
 1561 036d 0200     		.2byte	0x2
 1562 036f 7D       		.byte	0x7d
 1563 0370 08       		.sleb128 8
 1564 0371 06000000 		.4byte	.LCFI9
 1565 0375 28000000 		.4byte	.LFE1
 1566 0379 0200     		.2byte	0x2
 1567 037b 7D       		.byte	0x7d
 1568 037c 10       		.sleb128 16
 1569 037d 00000000 		.4byte	0x0
 1570 0381 00000000 		.4byte	0x0
 1571              		.file 2 "c:\\program files (x86)\\codesourcery\\sourcery g++ lite\\bin\\../lib/gcc/arm-none-eabi/4
 1572              		.file 3 "c:\\program files (x86)\\codesourcery\\sourcery g++ lite\\bin\\../lib/gcc/arm-none-eabi/4
 1573              		.file 4 "../../../ChibiOS/os/ports/GCC/ARMCMx/chtypes.h"
ARM GAS  C:\Users\DNIEL~1\AppData\Local\Temp\ccM4Kr1k.s 			page 29


 1574              		.file 5 "../../../ChibiOS/os/kernel/include/chlists.h"
 1575              		.file 6 "../../../ChibiOS/os/kernel/include/chthreads.h"
 1576              		.file 7 "../../../ChibiOS/os/ports/GCC/ARMCMx/chcore_v7m.h"
 1577              		.file 8 "../../../ChibiOS/os/kernel/include/chschd.h"
 1578              		.file 9 "../../../ChibiOS/os/kernel/include/chmtx.h"
 1579              		.file 10 "../../../ChibiOS/os/kernel/include/chqueues.h"
 1580              		.file 11 "../../../ChibiOS/test/test.h"
 1581              		.section	.debug_info
 1582 0000 38080000 		.4byte	0x838
 1583 0004 0200     		.2byte	0x2
 1584 0006 00000000 		.4byte	.Ldebug_abbrev0
 1585 000a 04       		.byte	0x4
 1586 000b 01       		.uleb128 0x1
 1587 000c E2030000 		.4byte	.LASF96
 1588 0010 01       		.byte	0x1
 1589 0011 20030000 		.4byte	.LASF97
 1590 0015 3C020000 		.4byte	.LASF98
 1591 0019 00000000 		.4byte	0x0
 1592 001d 00000000 		.4byte	0x0
 1593 0021 00000000 		.4byte	.Ldebug_ranges0+0x0
 1594 0025 00000000 		.4byte	.Ldebug_line0
 1595 0029 02       		.uleb128 0x2
 1596 002a 04       		.byte	0x4
 1597 002b 05       		.byte	0x5
 1598 002c 696E7400 		.ascii	"int\000"
 1599 0030 03       		.uleb128 0x3
 1600 0031 06000000 		.4byte	.LASF2
 1601 0035 02       		.byte	0x2
 1602 0036 D3       		.byte	0xd3
 1603 0037 3B000000 		.4byte	0x3b
 1604 003b 04       		.uleb128 0x4
 1605 003c 04       		.byte	0x4
 1606 003d 07       		.byte	0x7
 1607 003e F2000000 		.4byte	.LASF0
 1608 0042 04       		.uleb128 0x4
 1609 0043 01       		.byte	0x1
 1610 0044 06       		.byte	0x6
 1611 0045 89000000 		.4byte	.LASF1
 1612 0049 03       		.uleb128 0x3
 1613 004a D3030000 		.4byte	.LASF3
 1614 004e 03       		.byte	0x3
 1615 004f 2A       		.byte	0x2a
 1616 0050 54000000 		.4byte	0x54
 1617 0054 04       		.uleb128 0x4
 1618 0055 01       		.byte	0x1
 1619 0056 08       		.byte	0x8
 1620 0057 AF020000 		.4byte	.LASF4
 1621 005b 04       		.uleb128 0x4
 1622 005c 02       		.byte	0x2
 1623 005d 05       		.byte	0x5
 1624 005e CF020000 		.4byte	.LASF5
 1625 0062 04       		.uleb128 0x4
 1626 0063 02       		.byte	0x2
 1627 0064 07       		.byte	0x7
 1628 0065 27010000 		.4byte	.LASF6
 1629 0069 03       		.uleb128 0x3
 1630 006a A7020000 		.4byte	.LASF7
ARM GAS  C:\Users\DNIEL~1\AppData\Local\Temp\ccM4Kr1k.s 			page 30


 1631 006e 03       		.byte	0x3
 1632 006f 4F       		.byte	0x4f
 1633 0070 74000000 		.4byte	0x74
 1634 0074 04       		.uleb128 0x4
 1635 0075 04       		.byte	0x4
 1636 0076 05       		.byte	0x5
 1637 0077 B6000000 		.4byte	.LASF8
 1638 007b 03       		.uleb128 0x3
 1639 007c 4E030000 		.4byte	.LASF9
 1640 0080 03       		.byte	0x3
 1641 0081 50       		.byte	0x50
 1642 0082 86000000 		.4byte	0x86
 1643 0086 04       		.uleb128 0x4
 1644 0087 04       		.byte	0x4
 1645 0088 07       		.byte	0x7
 1646 0089 FF000000 		.4byte	.LASF10
 1647 008d 04       		.uleb128 0x4
 1648 008e 08       		.byte	0x8
 1649 008f 05       		.byte	0x5
 1650 0090 7B000000 		.4byte	.LASF11
 1651 0094 03       		.uleb128 0x3
 1652 0095 14000000 		.4byte	.LASF12
 1653 0099 03       		.byte	0x3
 1654 009a 78       		.byte	0x78
 1655 009b 9F000000 		.4byte	0x9f
 1656 009f 04       		.uleb128 0x4
 1657 00a0 08       		.byte	0x8
 1658 00a1 07       		.byte	0x7
 1659 00a2 37000000 		.4byte	.LASF13
 1660 00a6 03       		.uleb128 0x3
 1661 00a7 9D000000 		.4byte	.LASF14
 1662 00ab 04       		.byte	0x4
 1663 00ac 27       		.byte	0x27
 1664 00ad 69000000 		.4byte	0x69
 1665 00b1 03       		.uleb128 0x3
 1666 00b2 5C010000 		.4byte	.LASF15
 1667 00b6 04       		.byte	0x4
 1668 00b7 28       		.byte	0x28
 1669 00b8 49000000 		.4byte	0x49
 1670 00bc 03       		.uleb128 0x3
 1671 00bd BF000000 		.4byte	.LASF16
 1672 00c1 04       		.byte	0x4
 1673 00c2 29       		.byte	0x29
 1674 00c3 49000000 		.4byte	0x49
 1675 00c7 03       		.uleb128 0x3
 1676 00c8 23020000 		.4byte	.LASF17
 1677 00cc 04       		.byte	0x4
 1678 00cd 2A       		.byte	0x2a
 1679 00ce 49000000 		.4byte	0x49
 1680 00d2 03       		.uleb128 0x3
 1681 00d3 AC000000 		.4byte	.LASF18
 1682 00d7 04       		.byte	0x4
 1683 00d8 2B       		.byte	0x2b
 1684 00d9 49000000 		.4byte	0x49
 1685 00dd 03       		.uleb128 0x3
 1686 00de 97020000 		.4byte	.LASF19
 1687 00e2 04       		.byte	0x4
ARM GAS  C:\Users\DNIEL~1\AppData\Local\Temp\ccM4Kr1k.s 			page 31


 1688 00e3 2C       		.byte	0x2c
 1689 00e4 7B000000 		.4byte	0x7b
 1690 00e8 03       		.uleb128 0x3
 1691 00e9 56010000 		.4byte	.LASF20
 1692 00ed 04       		.byte	0x4
 1693 00ee 2D       		.byte	0x2d
 1694 00ef 69000000 		.4byte	0x69
 1695 00f3 03       		.uleb128 0x3
 1696 00f4 70010000 		.4byte	.LASF21
 1697 00f8 04       		.byte	0x4
 1698 00f9 2F       		.byte	0x2f
 1699 00fa 7B000000 		.4byte	0x7b
 1700 00fe 03       		.uleb128 0x3
 1701 00ff 78030000 		.4byte	.LASF22
 1702 0103 04       		.byte	0x4
 1703 0104 31       		.byte	0x31
 1704 0105 7B000000 		.4byte	0x7b
 1705 0109 03       		.uleb128 0x3
 1706 010a 10030000 		.4byte	.LASF23
 1707 010e 05       		.byte	0x5
 1708 010f 23       		.byte	0x23
 1709 0110 14010000 		.4byte	0x114
 1710 0114 05       		.uleb128 0x5
 1711 0115 10030000 		.4byte	.LASF23
 1712 0119 48       		.byte	0x48
 1713 011a 06       		.byte	0x6
 1714 011b 57       		.byte	0x57
 1715 011c 39020000 		.4byte	0x239
 1716 0120 06       		.uleb128 0x6
 1717 0121 01030000 		.4byte	.LASF24
 1718 0125 06       		.byte	0x6
 1719 0126 58       		.byte	0x58
 1720 0127 5E020000 		.4byte	0x25e
 1721 012b 02       		.byte	0x2
 1722 012c 23       		.byte	0x23
 1723 012d 00       		.uleb128 0x0
 1724 012e 06       		.uleb128 0x6
 1725 012f 35020000 		.4byte	.LASF25
 1726 0133 06       		.byte	0x6
 1727 0134 5A       		.byte	0x5a
 1728 0135 5E020000 		.4byte	0x25e
 1729 0139 02       		.byte	0x2
 1730 013a 23       		.byte	0x23
 1731 013b 04       		.uleb128 0x4
 1732 013c 06       		.uleb128 0x6
 1733 013d 6A000000 		.4byte	.LASF26
 1734 0141 06       		.byte	0x6
 1735 0142 5C       		.byte	0x5c
 1736 0143 DD000000 		.4byte	0xdd
 1737 0147 02       		.byte	0x2
 1738 0148 23       		.byte	0x23
 1739 0149 08       		.uleb128 0x8
 1740 014a 06       		.uleb128 0x6
 1741 014b 04040000 		.4byte	.LASF27
 1742 014f 06       		.byte	0x6
 1743 0150 5D       		.byte	0x5d
 1744 0151 37030000 		.4byte	0x337
ARM GAS  C:\Users\DNIEL~1\AppData\Local\Temp\ccM4Kr1k.s 			page 32


 1745 0155 02       		.byte	0x2
 1746 0156 23       		.byte	0x23
 1747 0157 0C       		.uleb128 0xc
 1748 0158 06       		.uleb128 0x6
 1749 0159 D9000000 		.4byte	.LASF28
 1750 015d 06       		.byte	0x6
 1751 015e 5F       		.byte	0x5f
 1752 015f 5E020000 		.4byte	0x25e
 1753 0163 02       		.byte	0x2
 1754 0164 23       		.byte	0x23
 1755 0165 10       		.uleb128 0x10
 1756 0166 06       		.uleb128 0x6
 1757 0167 D2010000 		.4byte	.LASF29
 1758 016b 06       		.byte	0x6
 1759 016c 60       		.byte	0x60
 1760 016d 5E020000 		.4byte	0x25e
 1761 0171 02       		.byte	0x2
 1762 0172 23       		.byte	0x23
 1763 0173 14       		.uleb128 0x14
 1764 0174 06       		.uleb128 0x6
 1765 0175 EE030000 		.4byte	.LASF30
 1766 0179 06       		.byte	0x6
 1767 017a 67       		.byte	0x67
 1768 017b 44040000 		.4byte	0x444
 1769 017f 02       		.byte	0x2
 1770 0180 23       		.byte	0x23
 1771 0181 18       		.uleb128 0x18
 1772 0182 06       		.uleb128 0x6
 1773 0183 D9020000 		.4byte	.LASF31
 1774 0187 06       		.byte	0x6
 1775 0188 72       		.byte	0x72
 1776 0189 BC000000 		.4byte	0xbc
 1777 018d 02       		.byte	0x2
 1778 018e 23       		.byte	0x23
 1779 018f 1C       		.uleb128 0x1c
 1780 0190 06       		.uleb128 0x6
 1781 0191 08030000 		.4byte	.LASF32
 1782 0195 06       		.byte	0x6
 1783 0196 76       		.byte	0x76
 1784 0197 B1000000 		.4byte	0xb1
 1785 019b 02       		.byte	0x2
 1786 019c 23       		.byte	0x23
 1787 019d 1D       		.uleb128 0x1d
 1788 019e 06       		.uleb128 0x6
 1789 019f B3030000 		.4byte	.LASF33
 1790 01a3 06       		.byte	0x6
 1791 01a4 7B       		.byte	0x7b
 1792 01a5 C7000000 		.4byte	0xc7
 1793 01a9 02       		.byte	0x2
 1794 01aa 23       		.byte	0x23
 1795 01ab 1E       		.uleb128 0x1e
 1796 01ac 06       		.uleb128 0x6
 1797 01ad E1020000 		.4byte	.LASF34
 1798 01b1 06       		.byte	0x6
 1799 01b2 81       		.byte	0x81
 1800 01b3 D2000000 		.4byte	0xd2
 1801 01b7 02       		.byte	0x2
ARM GAS  C:\Users\DNIEL~1\AppData\Local\Temp\ccM4Kr1k.s 			page 33


 1802 01b8 23       		.byte	0x23
 1803 01b9 1F       		.uleb128 0x1f
 1804 01ba 06       		.uleb128 0x6
 1805 01bb 94030000 		.4byte	.LASF35
 1806 01bf 06       		.byte	0x6
 1807 01c0 88       		.byte	0x88
 1808 01c1 5A030000 		.4byte	0x35a
 1809 01c5 02       		.byte	0x2
 1810 01c6 23       		.byte	0x23
 1811 01c7 20       		.uleb128 0x20
 1812 01c8 07       		.uleb128 0x7
 1813 01c9 705F7500 		.ascii	"p_u\000"
 1814 01cd 06       		.byte	0x6
 1815 01ce AD       		.byte	0xad
 1816 01cf 0F040000 		.4byte	0x40f
 1817 01d3 02       		.byte	0x2
 1818 01d4 23       		.byte	0x23
 1819 01d5 24       		.uleb128 0x24
 1820 01d6 06       		.uleb128 0x6
 1821 01d7 0A040000 		.4byte	.LASF36
 1822 01db 06       		.byte	0x6
 1823 01dc B2       		.byte	0xb2
 1824 01dd 86020000 		.4byte	0x286
 1825 01e1 02       		.byte	0x2
 1826 01e2 23       		.byte	0x23
 1827 01e3 28       		.uleb128 0x28
 1828 01e4 06       		.uleb128 0x6
 1829 01e5 A2030000 		.4byte	.LASF37
 1830 01e9 06       		.byte	0x6
 1831 01ea B8       		.byte	0xb8
 1832 01eb 64020000 		.4byte	0x264
 1833 01ef 02       		.byte	0x2
 1834 01f0 23       		.byte	0x23
 1835 01f1 2C       		.uleb128 0x2c
 1836 01f2 06       		.uleb128 0x6
 1837 01f3 00000000 		.4byte	.LASF38
 1838 01f7 06       		.byte	0x6
 1839 01f8 BC       		.byte	0xbc
 1840 01f9 E8000000 		.4byte	0xe8
 1841 01fd 02       		.byte	0x2
 1842 01fe 23       		.byte	0x23
 1843 01ff 34       		.uleb128 0x34
 1844 0200 06       		.uleb128 0x6
 1845 0201 43030000 		.4byte	.LASF39
 1846 0205 06       		.byte	0x6
 1847 0206 C2       		.byte	0xc2
 1848 0207 F3000000 		.4byte	0xf3
 1849 020b 02       		.byte	0x2
 1850 020c 23       		.byte	0x23
 1851 020d 38       		.uleb128 0x38
 1852 020e 06       		.uleb128 0x6
 1853 020f C5020000 		.4byte	.LASF40
 1854 0213 06       		.byte	0x6
 1855 0214 C9       		.byte	0xc9
 1856 0215 56040000 		.4byte	0x456
 1857 0219 02       		.byte	0x2
 1858 021a 23       		.byte	0x23
ARM GAS  C:\Users\DNIEL~1\AppData\Local\Temp\ccM4Kr1k.s 			page 34


 1859 021b 3C       		.uleb128 0x3c
 1860 021c 06       		.uleb128 0x6
 1861 021d 82030000 		.4byte	.LASF41
 1862 0221 06       		.byte	0x6
 1863 0222 CD       		.byte	0xcd
 1864 0223 DD000000 		.4byte	0xdd
 1865 0227 02       		.byte	0x2
 1866 0228 23       		.byte	0x23
 1867 0229 40       		.uleb128 0x40
 1868 022a 06       		.uleb128 0x6
 1869 022b 95000000 		.4byte	.LASF42
 1870 022f 06       		.byte	0x6
 1871 0230 D3       		.byte	0xd3
 1872 0231 9C020000 		.4byte	0x29c
 1873 0235 02       		.byte	0x2
 1874 0236 23       		.byte	0x23
 1875 0237 44       		.uleb128 0x44
 1876 0238 00       		.byte	0x0
 1877 0239 08       		.uleb128 0x8
 1878 023a 08       		.byte	0x8
 1879 023b 05       		.byte	0x5
 1880 023c 5A       		.byte	0x5a
 1881 023d 5E020000 		.4byte	0x25e
 1882 0241 06       		.uleb128 0x6
 1883 0242 01030000 		.4byte	.LASF24
 1884 0246 05       		.byte	0x5
 1885 0247 5B       		.byte	0x5b
 1886 0248 5E020000 		.4byte	0x25e
 1887 024c 02       		.byte	0x2
 1888 024d 23       		.byte	0x23
 1889 024e 00       		.uleb128 0x0
 1890 024f 06       		.uleb128 0x6
 1891 0250 35020000 		.4byte	.LASF25
 1892 0254 05       		.byte	0x5
 1893 0255 5D       		.byte	0x5d
 1894 0256 5E020000 		.4byte	0x25e
 1895 025a 02       		.byte	0x2
 1896 025b 23       		.byte	0x23
 1897 025c 04       		.uleb128 0x4
 1898 025d 00       		.byte	0x0
 1899 025e 09       		.uleb128 0x9
 1900 025f 04       		.byte	0x4
 1901 0260 09010000 		.4byte	0x109
 1902 0264 03       		.uleb128 0x3
 1903 0265 F0010000 		.4byte	.LASF43
 1904 0269 05       		.byte	0x5
 1905 026a 5F       		.byte	0x5f
 1906 026b 39020000 		.4byte	0x239
 1907 026f 08       		.uleb128 0x8
 1908 0270 04       		.byte	0x4
 1909 0271 05       		.byte	0x5
 1910 0272 64       		.byte	0x64
 1911 0273 86020000 		.4byte	0x286
 1912 0277 06       		.uleb128 0x6
 1913 0278 01030000 		.4byte	.LASF24
 1914 027c 05       		.byte	0x5
 1915 027d 66       		.byte	0x66
ARM GAS  C:\Users\DNIEL~1\AppData\Local\Temp\ccM4Kr1k.s 			page 35


 1916 027e 5E020000 		.4byte	0x25e
 1917 0282 02       		.byte	0x2
 1918 0283 23       		.byte	0x23
 1919 0284 00       		.uleb128 0x0
 1920 0285 00       		.byte	0x0
 1921 0286 03       		.uleb128 0x3
 1922 0287 64010000 		.4byte	.LASF44
 1923 028b 05       		.byte	0x5
 1924 028c 69       		.byte	0x69
 1925 028d 6F020000 		.4byte	0x26f
 1926 0291 03       		.uleb128 0x3
 1927 0292 E9000000 		.4byte	.LASF45
 1928 0296 07       		.byte	0x7
 1929 0297 DE       		.byte	0xde
 1930 0298 9C020000 		.4byte	0x29c
 1931 029c 0A       		.uleb128 0xa
 1932 029d 04       		.byte	0x4
 1933 029e 03       		.uleb128 0x3
 1934 029f 9A010000 		.4byte	.LASF46
 1935 02a3 07       		.byte	0x7
 1936 02a4 E4       		.byte	0xe4
 1937 02a5 94000000 		.4byte	0x94
 1938 02a9 0B       		.uleb128 0xb
 1939 02aa 9B030000 		.4byte	.LASF47
 1940 02ae 24       		.byte	0x24
 1941 02af 07       		.byte	0x7
 1942 02b0 0501     		.2byte	0x105
 1943 02b2 37030000 		.4byte	0x337
 1944 02b6 0C       		.uleb128 0xc
 1945 02b7 723400   		.ascii	"r4\000"
 1946 02ba 07       		.byte	0x7
 1947 02bb 1801     		.2byte	0x118
 1948 02bd 91020000 		.4byte	0x291
 1949 02c1 02       		.byte	0x2
 1950 02c2 23       		.byte	0x23
 1951 02c3 00       		.uleb128 0x0
 1952 02c4 0C       		.uleb128 0xc
 1953 02c5 723500   		.ascii	"r5\000"
 1954 02c8 07       		.byte	0x7
 1955 02c9 1901     		.2byte	0x119
 1956 02cb 91020000 		.4byte	0x291
 1957 02cf 02       		.byte	0x2
 1958 02d0 23       		.byte	0x23
 1959 02d1 04       		.uleb128 0x4
 1960 02d2 0C       		.uleb128 0xc
 1961 02d3 723600   		.ascii	"r6\000"
 1962 02d6 07       		.byte	0x7
 1963 02d7 1A01     		.2byte	0x11a
 1964 02d9 91020000 		.4byte	0x291
 1965 02dd 02       		.byte	0x2
 1966 02de 23       		.byte	0x23
 1967 02df 08       		.uleb128 0x8
 1968 02e0 0C       		.uleb128 0xc
 1969 02e1 723700   		.ascii	"r7\000"
 1970 02e4 07       		.byte	0x7
 1971 02e5 1B01     		.2byte	0x11b
 1972 02e7 91020000 		.4byte	0x291
ARM GAS  C:\Users\DNIEL~1\AppData\Local\Temp\ccM4Kr1k.s 			page 36


 1973 02eb 02       		.byte	0x2
 1974 02ec 23       		.byte	0x23
 1975 02ed 0C       		.uleb128 0xc
 1976 02ee 0C       		.uleb128 0xc
 1977 02ef 723800   		.ascii	"r8\000"
 1978 02f2 07       		.byte	0x7
 1979 02f3 1C01     		.2byte	0x11c
 1980 02f5 91020000 		.4byte	0x291
 1981 02f9 02       		.byte	0x2
 1982 02fa 23       		.byte	0x23
 1983 02fb 10       		.uleb128 0x10
 1984 02fc 0C       		.uleb128 0xc
 1985 02fd 723900   		.ascii	"r9\000"
 1986 0300 07       		.byte	0x7
 1987 0301 1D01     		.2byte	0x11d
 1988 0303 91020000 		.4byte	0x291
 1989 0307 02       		.byte	0x2
 1990 0308 23       		.byte	0x23
 1991 0309 14       		.uleb128 0x14
 1992 030a 0C       		.uleb128 0xc
 1993 030b 72313000 		.ascii	"r10\000"
 1994 030f 07       		.byte	0x7
 1995 0310 1E01     		.2byte	0x11e
 1996 0312 91020000 		.4byte	0x291
 1997 0316 02       		.byte	0x2
 1998 0317 23       		.byte	0x23
 1999 0318 18       		.uleb128 0x18
 2000 0319 0C       		.uleb128 0xc
 2001 031a 72313100 		.ascii	"r11\000"
 2002 031e 07       		.byte	0x7
 2003 031f 1F01     		.2byte	0x11f
 2004 0321 91020000 		.4byte	0x291
 2005 0325 02       		.byte	0x2
 2006 0326 23       		.byte	0x23
 2007 0327 1C       		.uleb128 0x1c
 2008 0328 0C       		.uleb128 0xc
 2009 0329 6C7200   		.ascii	"lr\000"
 2010 032c 07       		.byte	0x7
 2011 032d 2001     		.2byte	0x120
 2012 032f 91020000 		.4byte	0x291
 2013 0333 02       		.byte	0x2
 2014 0334 23       		.byte	0x23
 2015 0335 20       		.uleb128 0x20
 2016 0336 00       		.byte	0x0
 2017 0337 0B       		.uleb128 0xb
 2018 0338 1F010000 		.4byte	.LASF48
 2019 033c 04       		.byte	0x4
 2020 033d 07       		.byte	0x7
 2021 033e 2A01     		.2byte	0x12a
 2022 0340 54030000 		.4byte	0x354
 2023 0344 0C       		.uleb128 0xc
 2024 0345 72313300 		.ascii	"r13\000"
 2025 0349 07       		.byte	0x7
 2026 034a 2B01     		.2byte	0x12b
 2027 034c 54030000 		.4byte	0x354
 2028 0350 02       		.byte	0x2
 2029 0351 23       		.byte	0x23
ARM GAS  C:\Users\DNIEL~1\AppData\Local\Temp\ccM4Kr1k.s 			page 37


 2030 0352 00       		.uleb128 0x0
 2031 0353 00       		.byte	0x0
 2032 0354 09       		.uleb128 0x9
 2033 0355 04       		.byte	0x4
 2034 0356 A9020000 		.4byte	0x2a9
 2035 035a 0D       		.uleb128 0xd
 2036 035b FE000000 		.4byte	0xfe
 2037 035f 08       		.uleb128 0x8
 2038 0360 1C       		.byte	0x1c
 2039 0361 08       		.byte	0x8
 2040 0362 57       		.byte	0x57
 2041 0363 BC030000 		.4byte	0x3bc
 2042 0367 06       		.uleb128 0x6
 2043 0368 57030000 		.4byte	.LASF49
 2044 036c 08       		.byte	0x8
 2045 036d 58       		.byte	0x58
 2046 036e 64020000 		.4byte	0x264
 2047 0372 02       		.byte	0x2
 2048 0373 23       		.byte	0x23
 2049 0374 00       		.uleb128 0x0
 2050 0375 06       		.uleb128 0x6
 2051 0376 F3020000 		.4byte	.LASF50
 2052 037a 08       		.byte	0x8
 2053 037b 59       		.byte	0x59
 2054 037c DD000000 		.4byte	0xdd
 2055 0380 02       		.byte	0x2
 2056 0381 23       		.byte	0x23
 2057 0382 08       		.uleb128 0x8
 2058 0383 06       		.uleb128 0x6
 2059 0384 EA010000 		.4byte	.LASF51
 2060 0388 08       		.byte	0x8
 2061 0389 5B       		.byte	0x5b
 2062 038a 37030000 		.4byte	0x337
 2063 038e 02       		.byte	0x2
 2064 038f 23       		.byte	0x23
 2065 0390 0C       		.uleb128 0xc
 2066 0391 06       		.uleb128 0x6
 2067 0392 E1000000 		.4byte	.LASF52
 2068 0396 08       		.byte	0x8
 2069 0397 5E       		.byte	0x5e
 2070 0398 5E020000 		.4byte	0x25e
 2071 039c 02       		.byte	0x2
 2072 039d 23       		.byte	0x23
 2073 039e 10       		.uleb128 0x10
 2074 039f 06       		.uleb128 0x6
 2075 03a0 0D020000 		.4byte	.LASF53
 2076 03a4 08       		.byte	0x8
 2077 03a5 5F       		.byte	0x5f
 2078 03a6 5E020000 		.4byte	0x25e
 2079 03aa 02       		.byte	0x2
 2080 03ab 23       		.byte	0x23
 2081 03ac 14       		.uleb128 0x14
 2082 03ad 06       		.uleb128 0x6
 2083 03ae 03020000 		.4byte	.LASF54
 2084 03b2 08       		.byte	0x8
 2085 03b3 62       		.byte	0x62
 2086 03b4 5E020000 		.4byte	0x25e
ARM GAS  C:\Users\DNIEL~1\AppData\Local\Temp\ccM4Kr1k.s 			page 38


 2087 03b8 02       		.byte	0x2
 2088 03b9 23       		.byte	0x23
 2089 03ba 18       		.uleb128 0x18
 2090 03bb 00       		.byte	0x0
 2091 03bc 03       		.uleb128 0x3
 2092 03bd BA030000 		.4byte	.LASF55
 2093 03c1 08       		.byte	0x8
 2094 03c2 64       		.byte	0x64
 2095 03c3 5F030000 		.4byte	0x35f
 2096 03c7 05       		.uleb128 0x5
 2097 03c8 87010000 		.4byte	.LASF56
 2098 03cc 10       		.byte	0x10
 2099 03cd 09       		.byte	0x9
 2100 03ce 25       		.byte	0x25
 2101 03cf FE030000 		.4byte	0x3fe
 2102 03d3 06       		.uleb128 0x6
 2103 03d4 A4000000 		.4byte	.LASF57
 2104 03d8 09       		.byte	0x9
 2105 03d9 26       		.byte	0x26
 2106 03da 64020000 		.4byte	0x264
 2107 03de 02       		.byte	0x2
 2108 03df 23       		.byte	0x23
 2109 03e0 00       		.uleb128 0x0
 2110 03e1 06       		.uleb128 0x6
 2111 03e2 FC030000 		.4byte	.LASF58
 2112 03e6 09       		.byte	0x9
 2113 03e7 28       		.byte	0x28
 2114 03e8 5E020000 		.4byte	0x25e
 2115 03ec 02       		.byte	0x2
 2116 03ed 23       		.byte	0x23
 2117 03ee 08       		.uleb128 0x8
 2118 03ef 06       		.uleb128 0x6
 2119 03f0 71030000 		.4byte	.LASF59
 2120 03f4 09       		.byte	0x9
 2121 03f5 2A       		.byte	0x2a
 2122 03f6 FE030000 		.4byte	0x3fe
 2123 03fa 02       		.byte	0x2
 2124 03fb 23       		.byte	0x23
 2125 03fc 0C       		.uleb128 0xc
 2126 03fd 00       		.byte	0x0
 2127 03fe 09       		.uleb128 0x9
 2128 03ff 04       		.byte	0x4
 2129 0400 C7030000 		.4byte	0x3c7
 2130 0404 03       		.uleb128 0x3
 2131 0405 87010000 		.4byte	.LASF56
 2132 0409 09       		.byte	0x9
 2133 040a 2C       		.byte	0x2c
 2134 040b C7030000 		.4byte	0x3c7
 2135 040f 0E       		.uleb128 0xe
 2136 0410 04       		.byte	0x4
 2137 0411 06       		.byte	0x6
 2138 0412 8F       		.byte	0x8f
 2139 0413 44040000 		.4byte	0x444
 2140 0417 0F       		.uleb128 0xf
 2141 0418 0D000000 		.4byte	.LASF60
 2142 041c 06       		.byte	0x6
 2143 041d 96       		.byte	0x96
ARM GAS  C:\Users\DNIEL~1\AppData\Local\Temp\ccM4Kr1k.s 			page 39


 2144 041e E8000000 		.4byte	0xe8
 2145 0422 0F       		.uleb128 0xf
 2146 0423 4E000000 		.4byte	.LASF61
 2147 0427 06       		.byte	0x6
 2148 0428 9D       		.byte	0x9d
 2149 0429 E8000000 		.4byte	0xe8
 2150 042d 0F       		.uleb128 0xf
 2151 042e DB030000 		.4byte	.LASF62
 2152 0432 06       		.byte	0x6
 2153 0433 A4       		.byte	0xa4
 2154 0434 9C020000 		.4byte	0x29c
 2155 0438 0F       		.uleb128 0xf
 2156 0439 FA020000 		.4byte	.LASF63
 2157 043d 06       		.byte	0x6
 2158 043e AB       		.byte	0xab
 2159 043f F3000000 		.4byte	0xf3
 2160 0443 00       		.byte	0x0
 2161 0444 09       		.uleb128 0x9
 2162 0445 04       		.byte	0x4
 2163 0446 4A040000 		.4byte	0x44a
 2164 044a 10       		.uleb128 0x10
 2165 044b 4F040000 		.4byte	0x44f
 2166 044f 04       		.uleb128 0x4
 2167 0450 01       		.byte	0x1
 2168 0451 08       		.byte	0x8
 2169 0452 5F030000 		.4byte	.LASF64
 2170 0456 09       		.uleb128 0x9
 2171 0457 04       		.byte	0x4
 2172 0458 04040000 		.4byte	0x404
 2173 045c 03       		.uleb128 0x3
 2174 045d 8D010000 		.4byte	.LASF65
 2175 0461 0A       		.byte	0xa
 2176 0462 30       		.byte	0x30
 2177 0463 67040000 		.4byte	0x467
 2178 0467 05       		.uleb128 0x5
 2179 0468 8D010000 		.4byte	.LASF65
 2180 046c 24       		.byte	0x24
 2181 046d 0A       		.byte	0xa
 2182 046e 3E       		.byte	0x3e
 2183 046f E4040000 		.4byte	0x4e4
 2184 0473 06       		.uleb128 0x6
 2185 0474 71000000 		.4byte	.LASF66
 2186 0478 0A       		.byte	0xa
 2187 0479 3F       		.byte	0x3f
 2188 047a 64020000 		.4byte	0x264
 2189 047e 02       		.byte	0x2
 2190 047f 23       		.byte	0x23
 2191 0480 00       		.uleb128 0x0
 2192 0481 06       		.uleb128 0x6
 2193 0482 BC010000 		.4byte	.LASF67
 2194 0486 0A       		.byte	0xa
 2195 0487 40       		.byte	0x40
 2196 0488 30000000 		.4byte	0x30
 2197 048c 02       		.byte	0x2
 2198 048d 23       		.byte	0x23
 2199 048e 08       		.uleb128 0x8
 2200 048f 06       		.uleb128 0x6
ARM GAS  C:\Users\DNIEL~1\AppData\Local\Temp\ccM4Kr1k.s 			page 40


 2201 0490 C8000000 		.4byte	.LASF68
 2202 0494 0A       		.byte	0xa
 2203 0495 41       		.byte	0x41
 2204 0496 07050000 		.4byte	0x507
 2205 049a 02       		.byte	0x2
 2206 049b 23       		.byte	0x23
 2207 049c 0C       		.uleb128 0xc
 2208 049d 06       		.uleb128 0x6
 2209 049e AD030000 		.4byte	.LASF69
 2210 04a2 0A       		.byte	0xa
 2211 04a3 42       		.byte	0x42
 2212 04a4 07050000 		.4byte	0x507
 2213 04a8 02       		.byte	0x2
 2214 04a9 23       		.byte	0x23
 2215 04aa 10       		.uleb128 0x10
 2216 04ab 06       		.uleb128 0x6
 2217 04ac D1000000 		.4byte	.LASF70
 2218 04b0 0A       		.byte	0xa
 2219 04b1 44       		.byte	0x44
 2220 04b2 07050000 		.4byte	0x507
 2221 04b6 02       		.byte	0x2
 2222 04b7 23       		.byte	0x23
 2223 04b8 14       		.uleb128 0x14
 2224 04b9 06       		.uleb128 0x6
 2225 04ba 9F020000 		.4byte	.LASF71
 2226 04be 0A       		.byte	0xa
 2227 04bf 45       		.byte	0x45
 2228 04c0 07050000 		.4byte	0x507
 2229 04c4 02       		.byte	0x2
 2230 04c5 23       		.byte	0x23
 2231 04c6 18       		.uleb128 0x18
 2232 04c7 06       		.uleb128 0x6
 2233 04c8 C4030000 		.4byte	.LASF72
 2234 04cc 0A       		.byte	0xa
 2235 04cd 46       		.byte	0x46
 2236 04ce E4040000 		.4byte	0x4e4
 2237 04d2 02       		.byte	0x2
 2238 04d3 23       		.byte	0x23
 2239 04d4 1C       		.uleb128 0x1c
 2240 04d5 06       		.uleb128 0x6
 2241 04d6 F5030000 		.4byte	.LASF73
 2242 04da 0A       		.byte	0xa
 2243 04db 47       		.byte	0x47
 2244 04dc 9C020000 		.4byte	0x29c
 2245 04e0 02       		.byte	0x2
 2246 04e1 23       		.byte	0x23
 2247 04e2 20       		.uleb128 0x20
 2248 04e3 00       		.byte	0x0
 2249 04e4 03       		.uleb128 0x3
 2250 04e5 2B020000 		.4byte	.LASF74
 2251 04e9 0A       		.byte	0xa
 2252 04ea 33       		.byte	0x33
 2253 04eb EF040000 		.4byte	0x4ef
 2254 04ef 09       		.uleb128 0x9
 2255 04f0 04       		.byte	0x4
 2256 04f1 F5040000 		.4byte	0x4f5
 2257 04f5 11       		.uleb128 0x11
ARM GAS  C:\Users\DNIEL~1\AppData\Local\Temp\ccM4Kr1k.s 			page 41


 2258 04f6 01       		.byte	0x1
 2259 04f7 01050000 		.4byte	0x501
 2260 04fb 12       		.uleb128 0x12
 2261 04fc 01050000 		.4byte	0x501
 2262 0500 00       		.byte	0x0
 2263 0501 09       		.uleb128 0x9
 2264 0502 04       		.byte	0x4
 2265 0503 5C040000 		.4byte	0x45c
 2266 0507 09       		.uleb128 0x9
 2267 0508 04       		.byte	0x4
 2268 0509 49000000 		.4byte	0x49
 2269 050d 03       		.uleb128 0x3
 2270 050e 7C010000 		.4byte	.LASF75
 2271 0512 0A       		.byte	0xa
 2272 0513 7B       		.byte	0x7b
 2273 0514 5C040000 		.4byte	0x45c
 2274 0518 03       		.uleb128 0x3
 2275 0519 1D000000 		.4byte	.LASF76
 2276 051d 0A       		.byte	0xa
 2277 051e EE       		.byte	0xee
 2278 051f 5C040000 		.4byte	0x45c
 2279 0523 05       		.uleb128 0x5
 2280 0524 17030000 		.4byte	.LASF77
 2281 0528 10       		.byte	0x10
 2282 0529 0B       		.byte	0xb
 2283 052a 3F       		.byte	0x3f
 2284 052b 68050000 		.4byte	0x568
 2285 052f 06       		.uleb128 0x6
 2286 0530 1A010000 		.4byte	.LASF78
 2287 0534 0B       		.byte	0xb
 2288 0535 40       		.byte	0x40
 2289 0536 44040000 		.4byte	0x444
 2290 053a 02       		.byte	0x2
 2291 053b 23       		.byte	0x23
 2292 053c 00       		.uleb128 0x0
 2293 053d 06       		.uleb128 0x6
 2294 053e FD010000 		.4byte	.LASF79
 2295 0542 0B       		.byte	0xb
 2296 0543 41       		.byte	0x41
 2297 0544 6A050000 		.4byte	0x56a
 2298 0548 02       		.byte	0x2
 2299 0549 23       		.byte	0x23
 2300 054a 04       		.uleb128 0x4
 2301 054b 06       		.uleb128 0x6
 2302 054c 11010000 		.4byte	.LASF80
 2303 0550 0B       		.byte	0xb
 2304 0551 42       		.byte	0x42
 2305 0552 6A050000 		.4byte	0x56a
 2306 0556 02       		.byte	0x2
 2307 0557 23       		.byte	0x23
 2308 0558 08       		.uleb128 0x8
 2309 0559 06       		.uleb128 0x6
 2310 055a BD020000 		.4byte	.LASF81
 2311 055e 0B       		.byte	0xb
 2312 055f 43       		.byte	0x43
 2313 0560 6A050000 		.4byte	0x56a
 2314 0564 02       		.byte	0x2
ARM GAS  C:\Users\DNIEL~1\AppData\Local\Temp\ccM4Kr1k.s 			page 42


 2315 0565 23       		.byte	0x23
 2316 0566 0C       		.uleb128 0xc
 2317 0567 00       		.byte	0x0
 2318 0568 13       		.uleb128 0x13
 2319 0569 01       		.byte	0x1
 2320 056a 09       		.uleb128 0x9
 2321 056b 04       		.byte	0x4
 2322 056c 68050000 		.4byte	0x568
 2323 0570 14       		.uleb128 0x14
 2324 0571 F005     		.2byte	0x5f0
 2325 0573 0B       		.byte	0xb
 2326 0574 48       		.byte	0x48
 2327 0575 BF050000 		.4byte	0x5bf
 2328 0579 07       		.uleb128 0x7
 2329 057a 543000   		.ascii	"T0\000"
 2330 057d 0B       		.byte	0xb
 2331 057e 49       		.byte	0x49
 2332 057f BF050000 		.4byte	0x5bf
 2333 0583 02       		.byte	0x2
 2334 0584 23       		.byte	0x23
 2335 0585 00       		.uleb128 0x0
 2336 0586 07       		.uleb128 0x7
 2337 0587 543100   		.ascii	"T1\000"
 2338 058a 0B       		.byte	0xb
 2339 058b 4A       		.byte	0x4a
 2340 058c BF050000 		.4byte	0x5bf
 2341 0590 03       		.byte	0x3
 2342 0591 23       		.byte	0x23
 2343 0592 B002     		.uleb128 0x130
 2344 0594 07       		.uleb128 0x7
 2345 0595 543200   		.ascii	"T2\000"
 2346 0598 0B       		.byte	0xb
 2347 0599 4B       		.byte	0x4b
 2348 059a BF050000 		.4byte	0x5bf
 2349 059e 03       		.byte	0x3
 2350 059f 23       		.byte	0x23
 2351 05a0 E004     		.uleb128 0x260
 2352 05a2 07       		.uleb128 0x7
 2353 05a3 543300   		.ascii	"T3\000"
 2354 05a6 0B       		.byte	0xb
 2355 05a7 4C       		.byte	0x4c
 2356 05a8 BF050000 		.4byte	0x5bf
 2357 05ac 03       		.byte	0x3
 2358 05ad 23       		.byte	0x23
 2359 05ae 9007     		.uleb128 0x390
 2360 05b0 07       		.uleb128 0x7
 2361 05b1 543400   		.ascii	"T4\000"
 2362 05b4 0B       		.byte	0xb
 2363 05b5 4D       		.byte	0x4d
 2364 05b6 BF050000 		.4byte	0x5bf
 2365 05ba 03       		.byte	0x3
 2366 05bb 23       		.byte	0x23
 2367 05bc C009     		.uleb128 0x4c0
 2368 05be 00       		.byte	0x0
 2369 05bf 15       		.uleb128 0x15
 2370 05c0 9E020000 		.4byte	0x29e
 2371 05c4 CF050000 		.4byte	0x5cf
ARM GAS  C:\Users\DNIEL~1\AppData\Local\Temp\ccM4Kr1k.s 			page 43


 2372 05c8 16       		.uleb128 0x16
 2373 05c9 3B000000 		.4byte	0x3b
 2374 05cd 25       		.byte	0x25
 2375 05ce 00       		.byte	0x0
 2376 05cf 17       		.uleb128 0x17
 2377 05d0 64030000 		.4byte	.LASF99
 2378 05d4 F005     		.2byte	0x5f0
 2379 05d6 0B       		.byte	0xb
 2380 05d7 47       		.byte	0x47
 2381 05d8 F2050000 		.4byte	0x5f2
 2382 05dc 18       		.uleb128 0x18
 2383 05dd 776100   		.ascii	"wa\000"
 2384 05e0 0B       		.byte	0xb
 2385 05e1 4E       		.byte	0x4e
 2386 05e2 70050000 		.4byte	0x570
 2387 05e6 0F       		.uleb128 0xf
 2388 05e7 8D030000 		.4byte	.LASF82
 2389 05eb 0B       		.byte	0xb
 2390 05ec 4F       		.byte	0x4f
 2391 05ed F2050000 		.4byte	0x5f2
 2392 05f1 00       		.byte	0x0
 2393 05f2 15       		.uleb128 0x15
 2394 05f3 49000000 		.4byte	0x49
 2395 05f7 03060000 		.4byte	0x603
 2396 05fb 19       		.uleb128 0x19
 2397 05fc 3B000000 		.4byte	0x3b
 2398 0600 EF05     		.2byte	0x5ef
 2399 0602 00       		.byte	0x0
 2400 0603 1A       		.uleb128 0x1a
 2401 0604 A5010000 		.4byte	.LASF83
 2402 0608 01       		.byte	0x1
 2403 0609 3D       		.byte	0x3d
 2404 060a 01       		.byte	0x1
 2405 060b 00000000 		.4byte	.LFB0
 2406 060f 02000000 		.4byte	.LFE0
 2407 0613 02       		.byte	0x2
 2408 0614 7D       		.byte	0x7d
 2409 0615 00       		.sleb128 0
 2410 0616 27060000 		.4byte	0x627
 2411 061a 1B       		.uleb128 0x1b
 2412 061b 717000   		.ascii	"qp\000"
 2413 061e 01       		.byte	0x1
 2414 061f 3D       		.byte	0x3d
 2415 0620 01050000 		.4byte	0x501
 2416 0624 01       		.byte	0x1
 2417 0625 50       		.byte	0x50
 2418 0626 00       		.byte	0x0
 2419 0627 1C       		.uleb128 0x1c
 2420 0628 E2010000 		.4byte	.LASF85
 2421 062c 01       		.byte	0x1
 2422 062d AE       		.byte	0xae
 2423 062e 01       		.byte	0x1
 2424 062f E8000000 		.4byte	0xe8
 2425 0633 00000000 		.4byte	.LFB5
 2426 0637 14000000 		.4byte	.LFE5
 2427 063b 00000000 		.4byte	.LLST0
 2428 063f 51060000 		.4byte	0x651
ARM GAS  C:\Users\DNIEL~1\AppData\Local\Temp\ccM4Kr1k.s 			page 44


 2429 0643 1D       		.uleb128 0x1d
 2430 0644 7000     		.ascii	"p\000"
 2431 0646 01       		.byte	0x1
 2432 0647 AE       		.byte	0xae
 2433 0648 9C020000 		.4byte	0x29c
 2434 064c 20000000 		.4byte	.LLST1
 2435 0650 00       		.byte	0x0
 2436 0651 1E       		.uleb128 0x1e
 2437 0652 AC010000 		.4byte	.LASF84
 2438 0656 01       		.byte	0x1
 2439 0657 B5       		.byte	0xb5
 2440 0658 01       		.byte	0x1
 2441 0659 00000000 		.4byte	.LFB6
 2442 065d A4020000 		.4byte	.LFE6
 2443 0661 33000000 		.4byte	.LLST2
 2444 0665 9B060000 		.4byte	0x69b
 2445 0669 1F       		.uleb128 0x1f
 2446 066a 6900     		.ascii	"i\000"
 2447 066c 01       		.byte	0x1
 2448 066d B6       		.byte	0xb6
 2449 066e 3B000000 		.4byte	0x3b
 2450 0672 5F000000 		.4byte	.LLST3
 2451 0676 1F       		.uleb128 0x1f
 2452 0677 6E00     		.ascii	"n\000"
 2453 0679 01       		.byte	0x1
 2454 067a B7       		.byte	0xb7
 2455 067b 30000000 		.4byte	0x30
 2456 067f F7000000 		.4byte	.LLST4
 2457 0683 20       		.uleb128 0x20
 2458 0684 72000000 		.4byte	.LBB2
 2459 0688 C2000000 		.4byte	.LBE2
 2460 068c 1F       		.uleb128 0x1f
 2461 068d 6300     		.ascii	"c\000"
 2462 068f 01       		.byte	0x1
 2463 0690 C3       		.byte	0xc3
 2464 0691 4F040000 		.4byte	0x44f
 2465 0695 3A010000 		.4byte	.LLST5
 2466 0699 00       		.byte	0x0
 2467 069a 00       		.byte	0x0
 2468 069b 21       		.uleb128 0x21
 2469 069c 57000000 		.4byte	.LASF88
 2470 06a0 01       		.byte	0x1
 2471 06a1 A9       		.byte	0xa9
 2472 06a2 01       		.byte	0x1
 2473 06a3 00000000 		.4byte	.LFB4
 2474 06a7 28000000 		.4byte	.LFE4
 2475 06ab 6E010000 		.4byte	.LLST6
 2476 06af 1C       		.uleb128 0x1c
 2477 06b0 DA010000 		.4byte	.LASF86
 2478 06b4 01       		.byte	0x1
 2479 06b5 57       		.byte	0x57
 2480 06b6 01       		.byte	0x1
 2481 06b7 E8000000 		.4byte	0xe8
 2482 06bb 00000000 		.4byte	.LFB2
 2483 06bf 14000000 		.4byte	.LFE2
 2484 06c3 9A010000 		.4byte	.LLST7
 2485 06c7 D9060000 		.4byte	0x6d9
ARM GAS  C:\Users\DNIEL~1\AppData\Local\Temp\ccM4Kr1k.s 			page 45


 2486 06cb 1D       		.uleb128 0x1d
 2487 06cc 7000     		.ascii	"p\000"
 2488 06ce 01       		.byte	0x1
 2489 06cf 57       		.byte	0x57
 2490 06d0 9C020000 		.4byte	0x29c
 2491 06d4 BA010000 		.4byte	.LLST8
 2492 06d8 00       		.byte	0x0
 2493 06d9 1E       		.uleb128 0x1e
 2494 06da 3A010000 		.4byte	.LASF87
 2495 06de 01       		.byte	0x1
 2496 06df 5E       		.byte	0x5e
 2497 06e0 01       		.byte	0x1
 2498 06e1 00000000 		.4byte	.LFB3
 2499 06e5 D0020000 		.4byte	.LFE3
 2500 06e9 CD010000 		.4byte	.LLST9
 2501 06ed 0C070000 		.4byte	0x70c
 2502 06f1 1F       		.uleb128 0x1f
 2503 06f2 6900     		.ascii	"i\000"
 2504 06f4 01       		.byte	0x1
 2505 06f5 5F       		.byte	0x5f
 2506 06f6 3B000000 		.4byte	0x3b
 2507 06fa F9010000 		.4byte	.LLST10
 2508 06fe 1F       		.uleb128 0x1f
 2509 06ff 6E00     		.ascii	"n\000"
 2510 0701 01       		.byte	0x1
 2511 0702 60       		.byte	0x60
 2512 0703 30000000 		.4byte	0x30
 2513 0707 09030000 		.4byte	.LLST11
 2514 070b 00       		.byte	0x0
 2515 070c 21       		.uleb128 0x21
 2516 070d 15020000 		.4byte	.LASF89
 2517 0711 01       		.byte	0x1
 2518 0712 52       		.byte	0x52
 2519 0713 01       		.byte	0x1
 2520 0714 00000000 		.4byte	.LFB1
 2521 0718 28000000 		.4byte	.LFE1
 2522 071c 59030000 		.4byte	.LLST12
 2523 0720 22       		.uleb128 0x22
 2524 0721 CD030000 		.4byte	.LASF90
 2525 0725 08       		.byte	0x8
 2526 0726 68       		.byte	0x68
 2527 0727 BC030000 		.4byte	0x3bc
 2528 072b 01       		.byte	0x1
 2529 072c 01       		.byte	0x1
 2530 072d 15       		.uleb128 0x15
 2531 072e 5E020000 		.4byte	0x25e
 2532 0732 3D070000 		.4byte	0x73d
 2533 0736 16       		.uleb128 0x16
 2534 0737 3B000000 		.4byte	0x3b
 2535 073b 04       		.byte	0x4
 2536 073c 00       		.byte	0x0
 2537 073d 22       		.uleb128 0x22
 2538 073e EB020000 		.4byte	.LASF91
 2539 0742 0B       		.byte	0xb
 2540 0743 A9       		.byte	0xa9
 2541 0744 2D070000 		.4byte	0x72d
 2542 0748 01       		.byte	0x1
ARM GAS  C:\Users\DNIEL~1\AppData\Local\Temp\ccM4Kr1k.s 			page 46


 2543 0749 01       		.byte	0x1
 2544 074a 22       		.uleb128 0x22
 2545 074b 65000000 		.4byte	.LASF92
 2546 074f 0B       		.byte	0xb
 2547 0750 AA       		.byte	0xaa
 2548 0751 CF050000 		.4byte	0x5cf
 2549 0755 01       		.byte	0x1
 2550 0756 01       		.byte	0x1
 2551 0757 15       		.uleb128 0x15
 2552 0758 9C020000 		.4byte	0x29c
 2553 075c 62070000 		.4byte	0x762
 2554 0760 23       		.uleb128 0x23
 2555 0761 00       		.byte	0x0
 2556 0762 24       		.uleb128 0x24
 2557 0763 776100   		.ascii	"wa\000"
 2558 0766 0B       		.byte	0xb
 2559 0767 AB       		.byte	0xab
 2560 0768 6E070000 		.4byte	0x76e
 2561 076c 01       		.byte	0x1
 2562 076d 01       		.byte	0x1
 2563 076e 10       		.uleb128 0x10
 2564 076f 57070000 		.4byte	0x757
 2565 0773 25       		.uleb128 0x25
 2566 0774 697100   		.ascii	"iq\000"
 2567 0777 01       		.byte	0x1
 2568 0778 46       		.byte	0x46
 2569 0779 0D050000 		.4byte	0x50d
 2570 077d 05       		.byte	0x5
 2571 077e 03       		.byte	0x3
 2572 077f 00000000 		.4byte	iq
 2573 0783 25       		.uleb128 0x25
 2574 0784 6F7100   		.ascii	"oq\000"
 2575 0787 01       		.byte	0x1
 2576 0788 47       		.byte	0x47
 2577 0789 18050000 		.4byte	0x518
 2578 078d 05       		.byte	0x5
 2579 078e 03       		.byte	0x3
 2580 078f 00000000 		.4byte	oq
 2581 0793 22       		.uleb128 0x22
 2582 0794 4A010000 		.4byte	.LASF93
 2583 0798 01       		.byte	0x1
 2584 0799 99       		.byte	0x99
 2585 079a A0070000 		.4byte	0x7a0
 2586 079e 01       		.byte	0x1
 2587 079f 01       		.byte	0x1
 2588 07a0 10       		.uleb128 0x10
 2589 07a1 23050000 		.4byte	0x523
 2590 07a5 22       		.uleb128 0x22
 2591 07a6 C6010000 		.4byte	.LASF94
 2592 07aa 01       		.byte	0x1
 2593 07ab E7       		.byte	0xe7
 2594 07ac A0070000 		.4byte	0x7a0
 2595 07b0 01       		.byte	0x1
 2596 07b1 01       		.byte	0x1
 2597 07b2 22       		.uleb128 0x22
 2598 07b3 CD030000 		.4byte	.LASF90
 2599 07b7 08       		.byte	0x8
ARM GAS  C:\Users\DNIEL~1\AppData\Local\Temp\ccM4Kr1k.s 			page 47


 2600 07b8 68       		.byte	0x68
 2601 07b9 BC030000 		.4byte	0x3bc
 2602 07bd 01       		.byte	0x1
 2603 07be 01       		.byte	0x1
 2604 07bf 22       		.uleb128 0x22
 2605 07c0 EB020000 		.4byte	.LASF91
 2606 07c4 0B       		.byte	0xb
 2607 07c5 A9       		.byte	0xa9
 2608 07c6 2D070000 		.4byte	0x72d
 2609 07ca 01       		.byte	0x1
 2610 07cb 01       		.byte	0x1
 2611 07cc 22       		.uleb128 0x22
 2612 07cd 65000000 		.4byte	.LASF92
 2613 07d1 0B       		.byte	0xb
 2614 07d2 AA       		.byte	0xaa
 2615 07d3 CF050000 		.4byte	0x5cf
 2616 07d7 01       		.byte	0x1
 2617 07d8 01       		.byte	0x1
 2618 07d9 24       		.uleb128 0x24
 2619 07da 776100   		.ascii	"wa\000"
 2620 07dd 0B       		.byte	0xb
 2621 07de AB       		.byte	0xab
 2622 07df E5070000 		.4byte	0x7e5
 2623 07e3 01       		.byte	0x1
 2624 07e4 01       		.byte	0x1
 2625 07e5 10       		.uleb128 0x10
 2626 07e6 57070000 		.4byte	0x757
 2627 07ea 26       		.uleb128 0x26
 2628 07eb 4A010000 		.4byte	.LASF93
 2629 07ef 01       		.byte	0x1
 2630 07f0 99       		.byte	0x99
 2631 07f1 A0070000 		.4byte	0x7a0
 2632 07f5 01       		.byte	0x1
 2633 07f6 05       		.byte	0x5
 2634 07f7 03       		.byte	0x3
 2635 07f8 00000000 		.4byte	testqueues1
 2636 07fc 26       		.uleb128 0x26
 2637 07fd C6010000 		.4byte	.LASF94
 2638 0801 01       		.byte	0x1
 2639 0802 E7       		.byte	0xe7
 2640 0803 A0070000 		.4byte	0x7a0
 2641 0807 01       		.byte	0x1
 2642 0808 05       		.byte	0x5
 2643 0809 03       		.byte	0x3
 2644 080a 00000000 		.4byte	testqueues2
 2645 080e 15       		.uleb128 0x15
 2646 080f 1E080000 		.4byte	0x81e
 2647 0813 1E080000 		.4byte	0x81e
 2648 0817 16       		.uleb128 0x16
 2649 0818 3B000000 		.4byte	0x3b
 2650 081c 02       		.byte	0x2
 2651 081d 00       		.byte	0x0
 2652 081e 09       		.uleb128 0x9
 2653 081f 04       		.byte	0x4
 2654 0820 A0070000 		.4byte	0x7a0
 2655 0824 26       		.uleb128 0x26
 2656 0825 29000000 		.4byte	.LASF95
ARM GAS  C:\Users\DNIEL~1\AppData\Local\Temp\ccM4Kr1k.s 			page 48


 2657 0829 01       		.byte	0x1
 2658 082a F2       		.byte	0xf2
 2659 082b 36080000 		.4byte	0x836
 2660 082f 01       		.byte	0x1
 2661 0830 05       		.byte	0x5
 2662 0831 03       		.byte	0x3
 2663 0832 00000000 		.4byte	patternqueues
 2664 0836 10       		.uleb128 0x10
 2665 0837 0E080000 		.4byte	0x80e
 2666 083b 00       		.byte	0x0
 2667              		.section	.debug_abbrev
 2668 0000 01       		.uleb128 0x1
 2669 0001 11       		.uleb128 0x11
 2670 0002 01       		.byte	0x1
 2671 0003 25       		.uleb128 0x25
 2672 0004 0E       		.uleb128 0xe
 2673 0005 13       		.uleb128 0x13
 2674 0006 0B       		.uleb128 0xb
 2675 0007 03       		.uleb128 0x3
 2676 0008 0E       		.uleb128 0xe
 2677 0009 1B       		.uleb128 0x1b
 2678 000a 0E       		.uleb128 0xe
 2679 000b 11       		.uleb128 0x11
 2680 000c 01       		.uleb128 0x1
 2681 000d 52       		.uleb128 0x52
 2682 000e 01       		.uleb128 0x1
 2683 000f 55       		.uleb128 0x55
 2684 0010 06       		.uleb128 0x6
 2685 0011 10       		.uleb128 0x10
 2686 0012 06       		.uleb128 0x6
 2687 0013 00       		.byte	0x0
 2688 0014 00       		.byte	0x0
 2689 0015 02       		.uleb128 0x2
 2690 0016 24       		.uleb128 0x24
 2691 0017 00       		.byte	0x0
 2692 0018 0B       		.uleb128 0xb
 2693 0019 0B       		.uleb128 0xb
 2694 001a 3E       		.uleb128 0x3e
 2695 001b 0B       		.uleb128 0xb
 2696 001c 03       		.uleb128 0x3
 2697 001d 08       		.uleb128 0x8
 2698 001e 00       		.byte	0x0
 2699 001f 00       		.byte	0x0
 2700 0020 03       		.uleb128 0x3
 2701 0021 16       		.uleb128 0x16
 2702 0022 00       		.byte	0x0
 2703 0023 03       		.uleb128 0x3
 2704 0024 0E       		.uleb128 0xe
 2705 0025 3A       		.uleb128 0x3a
 2706 0026 0B       		.uleb128 0xb
 2707 0027 3B       		.uleb128 0x3b
 2708 0028 0B       		.uleb128 0xb
 2709 0029 49       		.uleb128 0x49
 2710 002a 13       		.uleb128 0x13
 2711 002b 00       		.byte	0x0
 2712 002c 00       		.byte	0x0
 2713 002d 04       		.uleb128 0x4
ARM GAS  C:\Users\DNIEL~1\AppData\Local\Temp\ccM4Kr1k.s 			page 49


 2714 002e 24       		.uleb128 0x24
 2715 002f 00       		.byte	0x0
 2716 0030 0B       		.uleb128 0xb
 2717 0031 0B       		.uleb128 0xb
 2718 0032 3E       		.uleb128 0x3e
 2719 0033 0B       		.uleb128 0xb
 2720 0034 03       		.uleb128 0x3
 2721 0035 0E       		.uleb128 0xe
 2722 0036 00       		.byte	0x0
 2723 0037 00       		.byte	0x0
 2724 0038 05       		.uleb128 0x5
 2725 0039 13       		.uleb128 0x13
 2726 003a 01       		.byte	0x1
 2727 003b 03       		.uleb128 0x3
 2728 003c 0E       		.uleb128 0xe
 2729 003d 0B       		.uleb128 0xb
 2730 003e 0B       		.uleb128 0xb
 2731 003f 3A       		.uleb128 0x3a
 2732 0040 0B       		.uleb128 0xb
 2733 0041 3B       		.uleb128 0x3b
 2734 0042 0B       		.uleb128 0xb
 2735 0043 01       		.uleb128 0x1
 2736 0044 13       		.uleb128 0x13
 2737 0045 00       		.byte	0x0
 2738 0046 00       		.byte	0x0
 2739 0047 06       		.uleb128 0x6
 2740 0048 0D       		.uleb128 0xd
 2741 0049 00       		.byte	0x0
 2742 004a 03       		.uleb128 0x3
 2743 004b 0E       		.uleb128 0xe
 2744 004c 3A       		.uleb128 0x3a
 2745 004d 0B       		.uleb128 0xb
 2746 004e 3B       		.uleb128 0x3b
 2747 004f 0B       		.uleb128 0xb
 2748 0050 49       		.uleb128 0x49
 2749 0051 13       		.uleb128 0x13
 2750 0052 38       		.uleb128 0x38
 2751 0053 0A       		.uleb128 0xa
 2752 0054 00       		.byte	0x0
 2753 0055 00       		.byte	0x0
 2754 0056 07       		.uleb128 0x7
 2755 0057 0D       		.uleb128 0xd
 2756 0058 00       		.byte	0x0
 2757 0059 03       		.uleb128 0x3
 2758 005a 08       		.uleb128 0x8
 2759 005b 3A       		.uleb128 0x3a
 2760 005c 0B       		.uleb128 0xb
 2761 005d 3B       		.uleb128 0x3b
 2762 005e 0B       		.uleb128 0xb
 2763 005f 49       		.uleb128 0x49
 2764 0060 13       		.uleb128 0x13
 2765 0061 38       		.uleb128 0x38
 2766 0062 0A       		.uleb128 0xa
 2767 0063 00       		.byte	0x0
 2768 0064 00       		.byte	0x0
 2769 0065 08       		.uleb128 0x8
 2770 0066 13       		.uleb128 0x13
ARM GAS  C:\Users\DNIEL~1\AppData\Local\Temp\ccM4Kr1k.s 			page 50


 2771 0067 01       		.byte	0x1
 2772 0068 0B       		.uleb128 0xb
 2773 0069 0B       		.uleb128 0xb
 2774 006a 3A       		.uleb128 0x3a
 2775 006b 0B       		.uleb128 0xb
 2776 006c 3B       		.uleb128 0x3b
 2777 006d 0B       		.uleb128 0xb
 2778 006e 01       		.uleb128 0x1
 2779 006f 13       		.uleb128 0x13
 2780 0070 00       		.byte	0x0
 2781 0071 00       		.byte	0x0
 2782 0072 09       		.uleb128 0x9
 2783 0073 0F       		.uleb128 0xf
 2784 0074 00       		.byte	0x0
 2785 0075 0B       		.uleb128 0xb
 2786 0076 0B       		.uleb128 0xb
 2787 0077 49       		.uleb128 0x49
 2788 0078 13       		.uleb128 0x13
 2789 0079 00       		.byte	0x0
 2790 007a 00       		.byte	0x0
 2791 007b 0A       		.uleb128 0xa
 2792 007c 0F       		.uleb128 0xf
 2793 007d 00       		.byte	0x0
 2794 007e 0B       		.uleb128 0xb
 2795 007f 0B       		.uleb128 0xb
 2796 0080 00       		.byte	0x0
 2797 0081 00       		.byte	0x0
 2798 0082 0B       		.uleb128 0xb
 2799 0083 13       		.uleb128 0x13
 2800 0084 01       		.byte	0x1
 2801 0085 03       		.uleb128 0x3
 2802 0086 0E       		.uleb128 0xe
 2803 0087 0B       		.uleb128 0xb
 2804 0088 0B       		.uleb128 0xb
 2805 0089 3A       		.uleb128 0x3a
 2806 008a 0B       		.uleb128 0xb
 2807 008b 3B       		.uleb128 0x3b
 2808 008c 05       		.uleb128 0x5
 2809 008d 01       		.uleb128 0x1
 2810 008e 13       		.uleb128 0x13
 2811 008f 00       		.byte	0x0
 2812 0090 00       		.byte	0x0
 2813 0091 0C       		.uleb128 0xc
 2814 0092 0D       		.uleb128 0xd
 2815 0093 00       		.byte	0x0
 2816 0094 03       		.uleb128 0x3
 2817 0095 08       		.uleb128 0x8
 2818 0096 3A       		.uleb128 0x3a
 2819 0097 0B       		.uleb128 0xb
 2820 0098 3B       		.uleb128 0x3b
 2821 0099 05       		.uleb128 0x5
 2822 009a 49       		.uleb128 0x49
 2823 009b 13       		.uleb128 0x13
 2824 009c 38       		.uleb128 0x38
 2825 009d 0A       		.uleb128 0xa
 2826 009e 00       		.byte	0x0
 2827 009f 00       		.byte	0x0
ARM GAS  C:\Users\DNIEL~1\AppData\Local\Temp\ccM4Kr1k.s 			page 51


 2828 00a0 0D       		.uleb128 0xd
 2829 00a1 35       		.uleb128 0x35
 2830 00a2 00       		.byte	0x0
 2831 00a3 49       		.uleb128 0x49
 2832 00a4 13       		.uleb128 0x13
 2833 00a5 00       		.byte	0x0
 2834 00a6 00       		.byte	0x0
 2835 00a7 0E       		.uleb128 0xe
 2836 00a8 17       		.uleb128 0x17
 2837 00a9 01       		.byte	0x1
 2838 00aa 0B       		.uleb128 0xb
 2839 00ab 0B       		.uleb128 0xb
 2840 00ac 3A       		.uleb128 0x3a
 2841 00ad 0B       		.uleb128 0xb
 2842 00ae 3B       		.uleb128 0x3b
 2843 00af 0B       		.uleb128 0xb
 2844 00b0 01       		.uleb128 0x1
 2845 00b1 13       		.uleb128 0x13
 2846 00b2 00       		.byte	0x0
 2847 00b3 00       		.byte	0x0
 2848 00b4 0F       		.uleb128 0xf
 2849 00b5 0D       		.uleb128 0xd
 2850 00b6 00       		.byte	0x0
 2851 00b7 03       		.uleb128 0x3
 2852 00b8 0E       		.uleb128 0xe
 2853 00b9 3A       		.uleb128 0x3a
 2854 00ba 0B       		.uleb128 0xb
 2855 00bb 3B       		.uleb128 0x3b
 2856 00bc 0B       		.uleb128 0xb
 2857 00bd 49       		.uleb128 0x49
 2858 00be 13       		.uleb128 0x13
 2859 00bf 00       		.byte	0x0
 2860 00c0 00       		.byte	0x0
 2861 00c1 10       		.uleb128 0x10
 2862 00c2 26       		.uleb128 0x26
 2863 00c3 00       		.byte	0x0
 2864 00c4 49       		.uleb128 0x49
 2865 00c5 13       		.uleb128 0x13
 2866 00c6 00       		.byte	0x0
 2867 00c7 00       		.byte	0x0
 2868 00c8 11       		.uleb128 0x11
 2869 00c9 15       		.uleb128 0x15
 2870 00ca 01       		.byte	0x1
 2871 00cb 27       		.uleb128 0x27
 2872 00cc 0C       		.uleb128 0xc
 2873 00cd 01       		.uleb128 0x1
 2874 00ce 13       		.uleb128 0x13
 2875 00cf 00       		.byte	0x0
 2876 00d0 00       		.byte	0x0
 2877 00d1 12       		.uleb128 0x12
 2878 00d2 05       		.uleb128 0x5
 2879 00d3 00       		.byte	0x0
 2880 00d4 49       		.uleb128 0x49
 2881 00d5 13       		.uleb128 0x13
 2882 00d6 00       		.byte	0x0
 2883 00d7 00       		.byte	0x0
 2884 00d8 13       		.uleb128 0x13
ARM GAS  C:\Users\DNIEL~1\AppData\Local\Temp\ccM4Kr1k.s 			page 52


 2885 00d9 15       		.uleb128 0x15
 2886 00da 00       		.byte	0x0
 2887 00db 27       		.uleb128 0x27
 2888 00dc 0C       		.uleb128 0xc
 2889 00dd 00       		.byte	0x0
 2890 00de 00       		.byte	0x0
 2891 00df 14       		.uleb128 0x14
 2892 00e0 13       		.uleb128 0x13
 2893 00e1 01       		.byte	0x1
 2894 00e2 0B       		.uleb128 0xb
 2895 00e3 05       		.uleb128 0x5
 2896 00e4 3A       		.uleb128 0x3a
 2897 00e5 0B       		.uleb128 0xb
 2898 00e6 3B       		.uleb128 0x3b
 2899 00e7 0B       		.uleb128 0xb
 2900 00e8 01       		.uleb128 0x1
 2901 00e9 13       		.uleb128 0x13
 2902 00ea 00       		.byte	0x0
 2903 00eb 00       		.byte	0x0
 2904 00ec 15       		.uleb128 0x15
 2905 00ed 01       		.uleb128 0x1
 2906 00ee 01       		.byte	0x1
 2907 00ef 49       		.uleb128 0x49
 2908 00f0 13       		.uleb128 0x13
 2909 00f1 01       		.uleb128 0x1
 2910 00f2 13       		.uleb128 0x13
 2911 00f3 00       		.byte	0x0
 2912 00f4 00       		.byte	0x0
 2913 00f5 16       		.uleb128 0x16
 2914 00f6 21       		.uleb128 0x21
 2915 00f7 00       		.byte	0x0
 2916 00f8 49       		.uleb128 0x49
 2917 00f9 13       		.uleb128 0x13
 2918 00fa 2F       		.uleb128 0x2f
 2919 00fb 0B       		.uleb128 0xb
 2920 00fc 00       		.byte	0x0
 2921 00fd 00       		.byte	0x0
 2922 00fe 17       		.uleb128 0x17
 2923 00ff 17       		.uleb128 0x17
 2924 0100 01       		.byte	0x1
 2925 0101 03       		.uleb128 0x3
 2926 0102 0E       		.uleb128 0xe
 2927 0103 0B       		.uleb128 0xb
 2928 0104 05       		.uleb128 0x5
 2929 0105 3A       		.uleb128 0x3a
 2930 0106 0B       		.uleb128 0xb
 2931 0107 3B       		.uleb128 0x3b
 2932 0108 0B       		.uleb128 0xb
 2933 0109 01       		.uleb128 0x1
 2934 010a 13       		.uleb128 0x13
 2935 010b 00       		.byte	0x0
 2936 010c 00       		.byte	0x0
 2937 010d 18       		.uleb128 0x18
 2938 010e 0D       		.uleb128 0xd
 2939 010f 00       		.byte	0x0
 2940 0110 03       		.uleb128 0x3
 2941 0111 08       		.uleb128 0x8
ARM GAS  C:\Users\DNIEL~1\AppData\Local\Temp\ccM4Kr1k.s 			page 53


 2942 0112 3A       		.uleb128 0x3a
 2943 0113 0B       		.uleb128 0xb
 2944 0114 3B       		.uleb128 0x3b
 2945 0115 0B       		.uleb128 0xb
 2946 0116 49       		.uleb128 0x49
 2947 0117 13       		.uleb128 0x13
 2948 0118 00       		.byte	0x0
 2949 0119 00       		.byte	0x0
 2950 011a 19       		.uleb128 0x19
 2951 011b 21       		.uleb128 0x21
 2952 011c 00       		.byte	0x0
 2953 011d 49       		.uleb128 0x49
 2954 011e 13       		.uleb128 0x13
 2955 011f 2F       		.uleb128 0x2f
 2956 0120 05       		.uleb128 0x5
 2957 0121 00       		.byte	0x0
 2958 0122 00       		.byte	0x0
 2959 0123 1A       		.uleb128 0x1a
 2960 0124 2E       		.uleb128 0x2e
 2961 0125 01       		.byte	0x1
 2962 0126 03       		.uleb128 0x3
 2963 0127 0E       		.uleb128 0xe
 2964 0128 3A       		.uleb128 0x3a
 2965 0129 0B       		.uleb128 0xb
 2966 012a 3B       		.uleb128 0x3b
 2967 012b 0B       		.uleb128 0xb
 2968 012c 27       		.uleb128 0x27
 2969 012d 0C       		.uleb128 0xc
 2970 012e 11       		.uleb128 0x11
 2971 012f 01       		.uleb128 0x1
 2972 0130 12       		.uleb128 0x12
 2973 0131 01       		.uleb128 0x1
 2974 0132 40       		.uleb128 0x40
 2975 0133 0A       		.uleb128 0xa
 2976 0134 01       		.uleb128 0x1
 2977 0135 13       		.uleb128 0x13
 2978 0136 00       		.byte	0x0
 2979 0137 00       		.byte	0x0
 2980 0138 1B       		.uleb128 0x1b
 2981 0139 05       		.uleb128 0x5
 2982 013a 00       		.byte	0x0
 2983 013b 03       		.uleb128 0x3
 2984 013c 08       		.uleb128 0x8
 2985 013d 3A       		.uleb128 0x3a
 2986 013e 0B       		.uleb128 0xb
 2987 013f 3B       		.uleb128 0x3b
 2988 0140 0B       		.uleb128 0xb
 2989 0141 49       		.uleb128 0x49
 2990 0142 13       		.uleb128 0x13
 2991 0143 02       		.uleb128 0x2
 2992 0144 0A       		.uleb128 0xa
 2993 0145 00       		.byte	0x0
 2994 0146 00       		.byte	0x0
 2995 0147 1C       		.uleb128 0x1c
 2996 0148 2E       		.uleb128 0x2e
 2997 0149 01       		.byte	0x1
 2998 014a 03       		.uleb128 0x3
ARM GAS  C:\Users\DNIEL~1\AppData\Local\Temp\ccM4Kr1k.s 			page 54


 2999 014b 0E       		.uleb128 0xe
 3000 014c 3A       		.uleb128 0x3a
 3001 014d 0B       		.uleb128 0xb
 3002 014e 3B       		.uleb128 0x3b
 3003 014f 0B       		.uleb128 0xb
 3004 0150 27       		.uleb128 0x27
 3005 0151 0C       		.uleb128 0xc
 3006 0152 49       		.uleb128 0x49
 3007 0153 13       		.uleb128 0x13
 3008 0154 11       		.uleb128 0x11
 3009 0155 01       		.uleb128 0x1
 3010 0156 12       		.uleb128 0x12
 3011 0157 01       		.uleb128 0x1
 3012 0158 40       		.uleb128 0x40
 3013 0159 06       		.uleb128 0x6
 3014 015a 01       		.uleb128 0x1
 3015 015b 13       		.uleb128 0x13
 3016 015c 00       		.byte	0x0
 3017 015d 00       		.byte	0x0
 3018 015e 1D       		.uleb128 0x1d
 3019 015f 05       		.uleb128 0x5
 3020 0160 00       		.byte	0x0
 3021 0161 03       		.uleb128 0x3
 3022 0162 08       		.uleb128 0x8
 3023 0163 3A       		.uleb128 0x3a
 3024 0164 0B       		.uleb128 0xb
 3025 0165 3B       		.uleb128 0x3b
 3026 0166 0B       		.uleb128 0xb
 3027 0167 49       		.uleb128 0x49
 3028 0168 13       		.uleb128 0x13
 3029 0169 02       		.uleb128 0x2
 3030 016a 06       		.uleb128 0x6
 3031 016b 00       		.byte	0x0
 3032 016c 00       		.byte	0x0
 3033 016d 1E       		.uleb128 0x1e
 3034 016e 2E       		.uleb128 0x2e
 3035 016f 01       		.byte	0x1
 3036 0170 03       		.uleb128 0x3
 3037 0171 0E       		.uleb128 0xe
 3038 0172 3A       		.uleb128 0x3a
 3039 0173 0B       		.uleb128 0xb
 3040 0174 3B       		.uleb128 0x3b
 3041 0175 0B       		.uleb128 0xb
 3042 0176 27       		.uleb128 0x27
 3043 0177 0C       		.uleb128 0xc
 3044 0178 11       		.uleb128 0x11
 3045 0179 01       		.uleb128 0x1
 3046 017a 12       		.uleb128 0x12
 3047 017b 01       		.uleb128 0x1
 3048 017c 40       		.uleb128 0x40
 3049 017d 06       		.uleb128 0x6
 3050 017e 01       		.uleb128 0x1
 3051 017f 13       		.uleb128 0x13
 3052 0180 00       		.byte	0x0
 3053 0181 00       		.byte	0x0
 3054 0182 1F       		.uleb128 0x1f
 3055 0183 34       		.uleb128 0x34
ARM GAS  C:\Users\DNIEL~1\AppData\Local\Temp\ccM4Kr1k.s 			page 55


 3056 0184 00       		.byte	0x0
 3057 0185 03       		.uleb128 0x3
 3058 0186 08       		.uleb128 0x8
 3059 0187 3A       		.uleb128 0x3a
 3060 0188 0B       		.uleb128 0xb
 3061 0189 3B       		.uleb128 0x3b
 3062 018a 0B       		.uleb128 0xb
 3063 018b 49       		.uleb128 0x49
 3064 018c 13       		.uleb128 0x13
 3065 018d 02       		.uleb128 0x2
 3066 018e 06       		.uleb128 0x6
 3067 018f 00       		.byte	0x0
 3068 0190 00       		.byte	0x0
 3069 0191 20       		.uleb128 0x20
 3070 0192 0B       		.uleb128 0xb
 3071 0193 01       		.byte	0x1
 3072 0194 11       		.uleb128 0x11
 3073 0195 01       		.uleb128 0x1
 3074 0196 12       		.uleb128 0x12
 3075 0197 01       		.uleb128 0x1
 3076 0198 00       		.byte	0x0
 3077 0199 00       		.byte	0x0
 3078 019a 21       		.uleb128 0x21
 3079 019b 2E       		.uleb128 0x2e
 3080 019c 00       		.byte	0x0
 3081 019d 03       		.uleb128 0x3
 3082 019e 0E       		.uleb128 0xe
 3083 019f 3A       		.uleb128 0x3a
 3084 01a0 0B       		.uleb128 0xb
 3085 01a1 3B       		.uleb128 0x3b
 3086 01a2 0B       		.uleb128 0xb
 3087 01a3 27       		.uleb128 0x27
 3088 01a4 0C       		.uleb128 0xc
 3089 01a5 11       		.uleb128 0x11
 3090 01a6 01       		.uleb128 0x1
 3091 01a7 12       		.uleb128 0x12
 3092 01a8 01       		.uleb128 0x1
 3093 01a9 40       		.uleb128 0x40
 3094 01aa 06       		.uleb128 0x6
 3095 01ab 00       		.byte	0x0
 3096 01ac 00       		.byte	0x0
 3097 01ad 22       		.uleb128 0x22
 3098 01ae 34       		.uleb128 0x34
 3099 01af 00       		.byte	0x0
 3100 01b0 03       		.uleb128 0x3
 3101 01b1 0E       		.uleb128 0xe
 3102 01b2 3A       		.uleb128 0x3a
 3103 01b3 0B       		.uleb128 0xb
 3104 01b4 3B       		.uleb128 0x3b
 3105 01b5 0B       		.uleb128 0xb
 3106 01b6 49       		.uleb128 0x49
 3107 01b7 13       		.uleb128 0x13
 3108 01b8 3F       		.uleb128 0x3f
 3109 01b9 0C       		.uleb128 0xc
 3110 01ba 3C       		.uleb128 0x3c
 3111 01bb 0C       		.uleb128 0xc
 3112 01bc 00       		.byte	0x0
ARM GAS  C:\Users\DNIEL~1\AppData\Local\Temp\ccM4Kr1k.s 			page 56


 3113 01bd 00       		.byte	0x0
 3114 01be 23       		.uleb128 0x23
 3115 01bf 21       		.uleb128 0x21
 3116 01c0 00       		.byte	0x0
 3117 01c1 00       		.byte	0x0
 3118 01c2 00       		.byte	0x0
 3119 01c3 24       		.uleb128 0x24
 3120 01c4 34       		.uleb128 0x34
 3121 01c5 00       		.byte	0x0
 3122 01c6 03       		.uleb128 0x3
 3123 01c7 08       		.uleb128 0x8
 3124 01c8 3A       		.uleb128 0x3a
 3125 01c9 0B       		.uleb128 0xb
 3126 01ca 3B       		.uleb128 0x3b
 3127 01cb 0B       		.uleb128 0xb
 3128 01cc 49       		.uleb128 0x49
 3129 01cd 13       		.uleb128 0x13
 3130 01ce 3F       		.uleb128 0x3f
 3131 01cf 0C       		.uleb128 0xc
 3132 01d0 3C       		.uleb128 0x3c
 3133 01d1 0C       		.uleb128 0xc
 3134 01d2 00       		.byte	0x0
 3135 01d3 00       		.byte	0x0
 3136 01d4 25       		.uleb128 0x25
 3137 01d5 34       		.uleb128 0x34
 3138 01d6 00       		.byte	0x0
 3139 01d7 03       		.uleb128 0x3
 3140 01d8 08       		.uleb128 0x8
 3141 01d9 3A       		.uleb128 0x3a
 3142 01da 0B       		.uleb128 0xb
 3143 01db 3B       		.uleb128 0x3b
 3144 01dc 0B       		.uleb128 0xb
 3145 01dd 49       		.uleb128 0x49
 3146 01de 13       		.uleb128 0x13
 3147 01df 02       		.uleb128 0x2
 3148 01e0 0A       		.uleb128 0xa
 3149 01e1 00       		.byte	0x0
 3150 01e2 00       		.byte	0x0
 3151 01e3 26       		.uleb128 0x26
 3152 01e4 34       		.uleb128 0x34
 3153 01e5 00       		.byte	0x0
 3154 01e6 03       		.uleb128 0x3
 3155 01e7 0E       		.uleb128 0xe
 3156 01e8 3A       		.uleb128 0x3a
 3157 01e9 0B       		.uleb128 0xb
 3158 01ea 3B       		.uleb128 0x3b
 3159 01eb 0B       		.uleb128 0xb
 3160 01ec 49       		.uleb128 0x49
 3161 01ed 13       		.uleb128 0x13
 3162 01ee 3F       		.uleb128 0x3f
 3163 01ef 0C       		.uleb128 0xc
 3164 01f0 02       		.uleb128 0x2
 3165 01f1 0A       		.uleb128 0xa
 3166 01f2 00       		.byte	0x0
 3167 01f3 00       		.byte	0x0
 3168 01f4 00       		.byte	0x0
 3169              		.section	.debug_pubnames,"",%progbits
ARM GAS  C:\Users\DNIEL~1\AppData\Local\Temp\ccM4Kr1k.s 			page 57


 3170 0000 40000000 		.4byte	0x40
 3171 0004 0200     		.2byte	0x2
 3172 0006 00000000 		.4byte	.Ldebug_info0
 3173 000a 3C080000 		.4byte	0x83c
 3174 000e EA070000 		.4byte	0x7ea
 3175 0012 74657374 		.ascii	"testqueues1\000"
 3175      71756575 
 3175      65733100 
 3176 001e FC070000 		.4byte	0x7fc
 3177 0022 74657374 		.ascii	"testqueues2\000"
 3177      71756575 
 3177      65733200 
 3178 002e 24080000 		.4byte	0x824
 3179 0032 70617474 		.ascii	"patternqueues\000"
 3179      65726E71 
 3179      75657565 
 3179      7300
 3180 0040 00000000 		.4byte	0x0
 3181              		.section	.debug_pubtypes,"",%progbits
 3182 0000 B6010000 		.4byte	0x1b6
 3183 0004 0200     		.2byte	0x2
 3184 0006 00000000 		.4byte	.Ldebug_info0
 3185 000a 3C080000 		.4byte	0x83c
 3186 000e 30000000 		.4byte	0x30
 3187 0012 73697A65 		.ascii	"size_t\000"
 3187      5F7400
 3188 0019 49000000 		.4byte	0x49
 3189 001d 75696E74 		.ascii	"uint8_t\000"
 3189      385F7400 
 3190 0025 69000000 		.4byte	0x69
 3191 0029 696E7433 		.ascii	"int32_t\000"
 3191      325F7400 
 3192 0031 7B000000 		.4byte	0x7b
 3193 0035 75696E74 		.ascii	"uint32_t\000"
 3193      33325F74 
 3193      00
 3194 003e 94000000 		.4byte	0x94
 3195 0042 75696E74 		.ascii	"uint64_t\000"
 3195      36345F74 
 3195      00
 3196 004b A6000000 		.4byte	0xa6
 3197 004f 626F6F6C 		.ascii	"bool_t\000"
 3197      5F7400
 3198 0056 B1000000 		.4byte	0xb1
 3199 005a 746D6F64 		.ascii	"tmode_t\000"
 3199      655F7400 
 3200 0062 BC000000 		.4byte	0xbc
 3201 0066 74737461 		.ascii	"tstate_t\000"
 3201      74655F74 
 3201      00
 3202 006f C7000000 		.4byte	0xc7
 3203 0073 74726566 		.ascii	"trefs_t\000"
 3203      735F7400 
 3204 007b D2000000 		.4byte	0xd2
 3205 007f 74736C69 		.ascii	"tslices_t\000"
 3205      6365735F 
 3205      7400
ARM GAS  C:\Users\DNIEL~1\AppData\Local\Temp\ccM4Kr1k.s 			page 58


 3206 0089 DD000000 		.4byte	0xdd
 3207 008d 74707269 		.ascii	"tprio_t\000"
 3207      6F5F7400 
 3208 0095 E8000000 		.4byte	0xe8
 3209 0099 6D73675F 		.ascii	"msg_t\000"
 3209      7400
 3210 009f F3000000 		.4byte	0xf3
 3211 00a3 6576656E 		.ascii	"eventmask_t\000"
 3211      746D6173 
 3211      6B5F7400 
 3212 00af FE000000 		.4byte	0xfe
 3213 00b3 73797374 		.ascii	"systime_t\000"
 3213      696D655F 
 3213      7400
 3214 00bd 09010000 		.4byte	0x109
 3215 00c1 54687265 		.ascii	"Thread\000"
 3215      616400
 3216 00c8 64020000 		.4byte	0x264
 3217 00cc 54687265 		.ascii	"ThreadsQueue\000"
 3217      61647351 
 3217      75657565 
 3217      00
 3218 00d9 86020000 		.4byte	0x286
 3219 00dd 54687265 		.ascii	"ThreadsList\000"
 3219      6164734C 
 3219      69737400 
 3220 00e9 91020000 		.4byte	0x291
 3221 00ed 72656761 		.ascii	"regarm_t\000"
 3221      726D5F74 
 3221      00
 3222 00f6 9E020000 		.4byte	0x29e
 3223 00fa 73746B61 		.ascii	"stkalign_t\000"
 3223      6C69676E 
 3223      5F7400
 3224 0105 A9020000 		.4byte	0x2a9
 3225 0109 696E7463 		.ascii	"intctx\000"
 3225      747800
 3226 0110 37030000 		.4byte	0x337
 3227 0114 636F6E74 		.ascii	"context\000"
 3227      65787400 
 3228 011c BC030000 		.4byte	0x3bc
 3229 0120 52656164 		.ascii	"ReadyList\000"
 3229      794C6973 
 3229      7400
 3230 012a C7030000 		.4byte	0x3c7
 3231 012e 4D757465 		.ascii	"Mutex\000"
 3231      7800
 3232 0134 04040000 		.4byte	0x404
 3233 0138 4D757465 		.ascii	"Mutex\000"
 3233      7800
 3234 013e 14010000 		.4byte	0x114
 3235 0142 54687265 		.ascii	"Thread\000"
 3235      616400
 3236 0149 5C040000 		.4byte	0x45c
 3237 014d 47656E65 		.ascii	"GenericQueue\000"
 3237      72696351 
 3237      75657565 
ARM GAS  C:\Users\DNIEL~1\AppData\Local\Temp\ccM4Kr1k.s 			page 59


 3237      00
 3238 015a E4040000 		.4byte	0x4e4
 3239 015e 716E6F74 		.ascii	"qnotify_t\000"
 3239      6966795F 
 3239      7400
 3240 0168 67040000 		.4byte	0x467
 3241 016c 47656E65 		.ascii	"GenericQueue\000"
 3241      72696351 
 3241      75657565 
 3241      00
 3242 0179 0D050000 		.4byte	0x50d
 3243 017d 496E7075 		.ascii	"InputQueue\000"
 3243      74517565 
 3243      756500
 3244 0188 18050000 		.4byte	0x518
 3245 018c 4F757470 		.ascii	"OutputQueue\000"
 3245      75745175 
 3245      65756500 
 3246 0198 23050000 		.4byte	0x523
 3247 019c 74657374 		.ascii	"testcase\000"
 3247      63617365 
 3247      00
 3248 01a5 CF050000 		.4byte	0x5cf
 3249 01a9 74657374 		.ascii	"test_buffers\000"
 3249      5F627566 
 3249      66657273 
 3249      00
 3250 01b6 00000000 		.4byte	0x0
 3251              		.section	.debug_aranges,"",%progbits
 3252 0000 4C000000 		.4byte	0x4c
 3253 0004 0200     		.2byte	0x2
 3254 0006 00000000 		.4byte	.Ldebug_info0
 3255 000a 04       		.byte	0x4
 3256 000b 00       		.byte	0x0
 3257 000c 0000     		.2byte	0x0
 3258 000e 0000     		.2byte	0x0
 3259 0010 00000000 		.4byte	.LFB0
 3260 0014 02000000 		.4byte	.LFE0-.LFB0
 3261 0018 00000000 		.4byte	.LFB5
 3262 001c 14000000 		.4byte	.LFE5-.LFB5
 3263 0020 00000000 		.4byte	.LFB6
 3264 0024 A4020000 		.4byte	.LFE6-.LFB6
 3265 0028 00000000 		.4byte	.LFB4
 3266 002c 28000000 		.4byte	.LFE4-.LFB4
 3267 0030 00000000 		.4byte	.LFB2
 3268 0034 14000000 		.4byte	.LFE2-.LFB2
 3269 0038 00000000 		.4byte	.LFB3
 3270 003c D0020000 		.4byte	.LFE3-.LFB3
 3271 0040 00000000 		.4byte	.LFB1
 3272 0044 28000000 		.4byte	.LFE1-.LFB1
 3273 0048 00000000 		.4byte	0x0
 3274 004c 00000000 		.4byte	0x0
 3275              		.section	.debug_ranges,"",%progbits
 3276              	.Ldebug_ranges0:
 3277 0000 00000000 		.4byte	.LFB0
 3278 0004 02000000 		.4byte	.LFE0
 3279 0008 00000000 		.4byte	.LFB5
ARM GAS  C:\Users\DNIEL~1\AppData\Local\Temp\ccM4Kr1k.s 			page 60


 3280 000c 14000000 		.4byte	.LFE5
 3281 0010 00000000 		.4byte	.LFB6
 3282 0014 A4020000 		.4byte	.LFE6
 3283 0018 00000000 		.4byte	.LFB4
 3284 001c 28000000 		.4byte	.LFE4
 3285 0020 00000000 		.4byte	.LFB2
 3286 0024 14000000 		.4byte	.LFE2
 3287 0028 00000000 		.4byte	.LFB3
 3288 002c D0020000 		.4byte	.LFE3
 3289 0030 00000000 		.4byte	.LFB1
 3290 0034 28000000 		.4byte	.LFE1
 3291 0038 00000000 		.4byte	0x0
 3292 003c 00000000 		.4byte	0x0
 3293              		.section	.debug_str,"MS",%progbits,1
 3294              	.LASF38:
 3295 0000 705F6D73 		.ascii	"p_msg\000"
 3295      6700
 3296              	.LASF2:
 3297 0006 73697A65 		.ascii	"size_t\000"
 3297      5F7400
 3298              	.LASF60:
 3299 000d 7264796D 		.ascii	"rdymsg\000"
 3299      736700
 3300              	.LASF12:
 3301 0014 75696E74 		.ascii	"uint64_t\000"
 3301      36345F74 
 3301      00
 3302              	.LASF76:
 3303 001d 4F757470 		.ascii	"OutputQueue\000"
 3303      75745175 
 3303      65756500 
 3304              	.LASF95:
 3305 0029 70617474 		.ascii	"patternqueues\000"
 3305      65726E71 
 3305      75657565 
 3305      7300
 3306              	.LASF13:
 3307 0037 6C6F6E67 		.ascii	"long long unsigned int\000"
 3307      206C6F6E 
 3307      6720756E 
 3307      7369676E 
 3307      65642069 
 3308              	.LASF61:
 3309 004e 65786974 		.ascii	"exitcode\000"
 3309      636F6465 
 3309      00
 3310              	.LASF88:
 3311 0057 71756575 		.ascii	"queues2_setup\000"
 3311      6573325F 
 3311      73657475 
 3311      7000
 3312              	.LASF92:
 3313 0065 74657374 		.ascii	"test\000"
 3313      00
 3314              	.LASF26:
 3315 006a 705F7072 		.ascii	"p_prio\000"
 3315      696F00
ARM GAS  C:\Users\DNIEL~1\AppData\Local\Temp\ccM4Kr1k.s 			page 61


 3316              	.LASF66:
 3317 0071 715F7761 		.ascii	"q_waiting\000"
 3317      6974696E 
 3317      6700
 3318              	.LASF11:
 3319 007b 6C6F6E67 		.ascii	"long long int\000"
 3319      206C6F6E 
 3319      6720696E 
 3319      7400
 3320              	.LASF1:
 3321 0089 7369676E 		.ascii	"signed char\000"
 3321      65642063 
 3321      68617200 
 3322              	.LASF42:
 3323 0095 705F6D70 		.ascii	"p_mpool\000"
 3323      6F6F6C00 
 3324              	.LASF14:
 3325 009d 626F6F6C 		.ascii	"bool_t\000"
 3325      5F7400
 3326              	.LASF57:
 3327 00a4 6D5F7175 		.ascii	"m_queue\000"
 3327      65756500 
 3328              	.LASF18:
 3329 00ac 74736C69 		.ascii	"tslices_t\000"
 3329      6365735F 
 3329      7400
 3330              	.LASF8:
 3331 00b6 6C6F6E67 		.ascii	"long int\000"
 3331      20696E74 
 3331      00
 3332              	.LASF16:
 3333 00bf 74737461 		.ascii	"tstate_t\000"
 3333      74655F74 
 3333      00
 3334              	.LASF68:
 3335 00c8 715F6275 		.ascii	"q_buffer\000"
 3335      66666572 
 3335      00
 3336              	.LASF70:
 3337 00d1 715F7772 		.ascii	"q_wrptr\000"
 3337      70747200 
 3338              	.LASF28:
 3339 00d9 705F6E65 		.ascii	"p_newer\000"
 3339      77657200 
 3340              	.LASF52:
 3341 00e1 725F6E65 		.ascii	"r_newer\000"
 3341      77657200 
 3342              	.LASF45:
 3343 00e9 72656761 		.ascii	"regarm_t\000"
 3343      726D5F74 
 3343      00
 3344              	.LASF0:
 3345 00f2 756E7369 		.ascii	"unsigned int\000"
 3345      676E6564 
 3345      20696E74 
 3345      00
 3346              	.LASF10:
ARM GAS  C:\Users\DNIEL~1\AppData\Local\Temp\ccM4Kr1k.s 			page 62


 3347 00ff 6C6F6E67 		.ascii	"long unsigned int\000"
 3347      20756E73 
 3347      69676E65 
 3347      6420696E 
 3347      7400
 3348              	.LASF80:
 3349 0111 74656172 		.ascii	"teardown\000"
 3349      646F776E 
 3349      00
 3350              	.LASF78:
 3351 011a 6E616D65 		.ascii	"name\000"
 3351      00
 3352              	.LASF48:
 3353 011f 636F6E74 		.ascii	"context\000"
 3353      65787400 
 3354              	.LASF6:
 3355 0127 73686F72 		.ascii	"short unsigned int\000"
 3355      7420756E 
 3355      7369676E 
 3355      65642069 
 3355      6E7400
 3356              	.LASF87:
 3357 013a 71756575 		.ascii	"queues1_execute\000"
 3357      6573315F 
 3357      65786563 
 3357      75746500 
 3358              	.LASF93:
 3359 014a 74657374 		.ascii	"testqueues1\000"
 3359      71756575 
 3359      65733100 
 3360              	.LASF20:
 3361 0156 6D73675F 		.ascii	"msg_t\000"
 3361      7400
 3362              	.LASF15:
 3363 015c 746D6F64 		.ascii	"tmode_t\000"
 3363      655F7400 
 3364              	.LASF44:
 3365 0164 54687265 		.ascii	"ThreadsList\000"
 3365      6164734C 
 3365      69737400 
 3366              	.LASF21:
 3367 0170 6576656E 		.ascii	"eventmask_t\000"
 3367      746D6173 
 3367      6B5F7400 
 3368              	.LASF75:
 3369 017c 496E7075 		.ascii	"InputQueue\000"
 3369      74517565 
 3369      756500
 3370              	.LASF56:
 3371 0187 4D757465 		.ascii	"Mutex\000"
 3371      7800
 3372              	.LASF65:
 3373 018d 47656E65 		.ascii	"GenericQueue\000"
 3373      72696351 
 3373      75657565 
 3373      00
 3374              	.LASF46:
ARM GAS  C:\Users\DNIEL~1\AppData\Local\Temp\ccM4Kr1k.s 			page 63


 3375 019a 73746B61 		.ascii	"stkalign_t\000"
 3375      6C69676E 
 3375      5F7400
 3376              	.LASF83:
 3377 01a5 6E6F7469 		.ascii	"notify\000"
 3377      667900
 3378              	.LASF84:
 3379 01ac 71756575 		.ascii	"queues2_execute\000"
 3379      6573325F 
 3379      65786563 
 3379      75746500 
 3380              	.LASF67:
 3381 01bc 715F636F 		.ascii	"q_counter\000"
 3381      756E7465 
 3381      7200
 3382              	.LASF94:
 3383 01c6 74657374 		.ascii	"testqueues2\000"
 3383      71756575 
 3383      65733200 
 3384              	.LASF29:
 3385 01d2 705F6F6C 		.ascii	"p_older\000"
 3385      64657200 
 3386              	.LASF86:
 3387 01da 74687265 		.ascii	"thread1\000"
 3387      61643100 
 3388              	.LASF85:
 3389 01e2 74687265 		.ascii	"thread2\000"
 3389      61643200 
 3390              	.LASF51:
 3391 01ea 725F6374 		.ascii	"r_ctx\000"
 3391      7800
 3392              	.LASF43:
 3393 01f0 54687265 		.ascii	"ThreadsQueue\000"
 3393      61647351 
 3393      75657565 
 3393      00
 3394              	.LASF79:
 3395 01fd 73657475 		.ascii	"setup\000"
 3395      7000
 3396              	.LASF54:
 3397 0203 725F6375 		.ascii	"r_current\000"
 3397      7272656E 
 3397      7400
 3398              	.LASF53:
 3399 020d 725F6F6C 		.ascii	"r_older\000"
 3399      64657200 
 3400              	.LASF89:
 3401 0215 71756575 		.ascii	"queues1_setup\000"
 3401      6573315F 
 3401      73657475 
 3401      7000
 3402              	.LASF17:
 3403 0223 74726566 		.ascii	"trefs_t\000"
 3403      735F7400 
 3404              	.LASF74:
 3405 022b 716E6F74 		.ascii	"qnotify_t\000"
 3405      6966795F 
ARM GAS  C:\Users\DNIEL~1\AppData\Local\Temp\ccM4Kr1k.s 			page 64


 3405      7400
 3406              	.LASF25:
 3407 0235 705F7072 		.ascii	"p_prev\000"
 3407      657600
 3408              	.LASF98:
 3409 023c 433A5C55 		.ascii	"C:\\Users\\D\341niel\\Dropbox\\Solar Racing\\Szoftv"
 3409      73657273 
 3409      5C44E16E 
 3409      69656C5C 
 3409      44726F70 
 3410 0267 65725C4C 		.ascii	"er\\LuxControl\\LuxControl_v1\\luxcontrol\\firmware"
 3410      7578436F 
 3410      6E74726F 
 3410      6C5C4C75 
 3410      78436F6E 
 3411 0296 00       		.ascii	"\000"
 3412              	.LASF19:
 3413 0297 74707269 		.ascii	"tprio_t\000"
 3413      6F5F7400 
 3414              	.LASF71:
 3415 029f 715F7264 		.ascii	"q_rdptr\000"
 3415      70747200 
 3416              	.LASF7:
 3417 02a7 696E7433 		.ascii	"int32_t\000"
 3417      325F7400 
 3418              	.LASF4:
 3419 02af 756E7369 		.ascii	"unsigned char\000"
 3419      676E6564 
 3419      20636861 
 3419      7200
 3420              	.LASF81:
 3421 02bd 65786563 		.ascii	"execute\000"
 3421      75746500 
 3422              	.LASF40:
 3423 02c5 705F6D74 		.ascii	"p_mtxlist\000"
 3423      786C6973 
 3423      7400
 3424              	.LASF5:
 3425 02cf 73686F72 		.ascii	"short int\000"
 3425      7420696E 
 3425      7400
 3426              	.LASF31:
 3427 02d9 705F7374 		.ascii	"p_state\000"
 3427      61746500 
 3428              	.LASF34:
 3429 02e1 705F7072 		.ascii	"p_preempt\000"
 3429      65656D70 
 3429      7400
 3430              	.LASF91:
 3431 02eb 74687265 		.ascii	"threads\000"
 3431      61647300 
 3432              	.LASF50:
 3433 02f3 725F7072 		.ascii	"r_prio\000"
 3433      696F00
 3434              	.LASF63:
 3435 02fa 65776D61 		.ascii	"ewmask\000"
 3435      736B00
ARM GAS  C:\Users\DNIEL~1\AppData\Local\Temp\ccM4Kr1k.s 			page 65


 3436              	.LASF24:
 3437 0301 705F6E65 		.ascii	"p_next\000"
 3437      787400
 3438              	.LASF32:
 3439 0308 705F666C 		.ascii	"p_flags\000"
 3439      61677300 
 3440              	.LASF23:
 3441 0310 54687265 		.ascii	"Thread\000"
 3441      616400
 3442              	.LASF77:
 3443 0317 74657374 		.ascii	"testcase\000"
 3443      63617365 
 3443      00
 3444              	.LASF97:
 3445 0320 2E2E2F2E 		.ascii	"../../../ChibiOS/test/testqueues.c\000"
 3445      2E2F2E2E 
 3445      2F436869 
 3445      62694F53 
 3445      2F746573 
 3446              	.LASF39:
 3447 0343 705F6570 		.ascii	"p_epending\000"
 3447      656E6469 
 3447      6E6700
 3448              	.LASF9:
 3449 034e 75696E74 		.ascii	"uint32_t\000"
 3449      33325F74 
 3449      00
 3450              	.LASF49:
 3451 0357 725F7175 		.ascii	"r_queue\000"
 3451      65756500 
 3452              	.LASF64:
 3453 035f 63686172 		.ascii	"char\000"
 3453      00
 3454              	.LASF99:
 3455 0364 74657374 		.ascii	"test_buffers\000"
 3455      5F627566 
 3455      66657273 
 3455      00
 3456              	.LASF59:
 3457 0371 6D5F6E65 		.ascii	"m_next\000"
 3457      787400
 3458              	.LASF22:
 3459 0378 73797374 		.ascii	"systime_t\000"
 3459      696D655F 
 3459      7400
 3460              	.LASF41:
 3461 0382 705F7265 		.ascii	"p_realprio\000"
 3461      616C7072 
 3461      696F00
 3462              	.LASF82:
 3463 038d 62756666 		.ascii	"buffer\000"
 3463      657200
 3464              	.LASF35:
 3465 0394 705F7469 		.ascii	"p_time\000"
 3465      6D6500
 3466              	.LASF47:
 3467 039b 696E7463 		.ascii	"intctx\000"
ARM GAS  C:\Users\DNIEL~1\AppData\Local\Temp\ccM4Kr1k.s 			page 66


 3467      747800
 3468              	.LASF37:
 3469 03a2 705F6D73 		.ascii	"p_msgqueue\000"
 3469      67717565 
 3469      756500
 3470              	.LASF69:
 3471 03ad 715F746F 		.ascii	"q_top\000"
 3471      7000
 3472              	.LASF33:
 3473 03b3 705F7265 		.ascii	"p_refs\000"
 3473      667300
 3474              	.LASF55:
 3475 03ba 52656164 		.ascii	"ReadyList\000"
 3475      794C6973 
 3475      7400
 3476              	.LASF72:
 3477 03c4 715F6E6F 		.ascii	"q_notify\000"
 3477      74696679 
 3477      00
 3478              	.LASF90:
 3479 03cd 726C6973 		.ascii	"rlist\000"
 3479      7400
 3480              	.LASF3:
 3481 03d3 75696E74 		.ascii	"uint8_t\000"
 3481      385F7400 
 3482              	.LASF62:
 3483 03db 77746F62 		.ascii	"wtobjp\000"
 3483      6A7000
 3484              	.LASF96:
 3485 03e2 474E5520 		.ascii	"GNU C 4.5.2\000"
 3485      4320342E 
 3485      352E3200 
 3486              	.LASF30:
 3487 03ee 705F6E61 		.ascii	"p_name\000"
 3487      6D6500
 3488              	.LASF73:
 3489 03f5 715F6C69 		.ascii	"q_link\000"
 3489      6E6B00
 3490              	.LASF58:
 3491 03fc 6D5F6F77 		.ascii	"m_owner\000"
 3491      6E657200 
 3492              	.LASF27:
 3493 0404 705F6374 		.ascii	"p_ctx\000"
 3493      7800
 3494              	.LASF36:
 3495 040a 705F7761 		.ascii	"p_waiting\000"
 3495      6974696E 
 3495      6700
 3496              		.ident	"GCC: (Sourcery G++ Lite 2011.03-42) 4.5.2"
ARM GAS  C:\Users\DNIEL~1\AppData\Local\Temp\ccM4Kr1k.s 			page 67


DEFINED SYMBOLS
                            *ABS*:00000000 testqueues.c
C:\Users\DNIEL~1\AppData\Local\Temp\ccM4Kr1k.s:24     .text.notify:00000000 $t
C:\Users\DNIEL~1\AppData\Local\Temp\ccM4Kr1k.s:29     .text.notify:00000000 notify
C:\Users\DNIEL~1\AppData\Local\Temp\ccM4Kr1k.s:44     .text.thread2:00000000 $t
C:\Users\DNIEL~1\AppData\Local\Temp\ccM4Kr1k.s:49     .text.thread2:00000000 thread2
C:\Users\DNIEL~1\AppData\Local\Temp\ccM4Kr1k.s:73     .text.thread2:00000010 $d
C:\Users\DNIEL~1\AppData\Local\Temp\ccM4Kr1k.s:78     .text.queues2_execute:00000000 $t
C:\Users\DNIEL~1\AppData\Local\Temp\ccM4Kr1k.s:83     .text.queues2_execute:00000000 queues2_execute
C:\Users\DNIEL~1\AppData\Local\Temp\ccM4Kr1k.s:539    .text.queues2_execute:0000028c $d
C:\Users\DNIEL~1\AppData\Local\Temp\ccM4Kr1k.s:549    .text.queues2_setup:00000000 $t
C:\Users\DNIEL~1\AppData\Local\Temp\ccM4Kr1k.s:554    .text.queues2_setup:00000000 queues2_setup
C:\Users\DNIEL~1\AppData\Local\Temp\ccM4Kr1k.s:585    .text.queues2_setup:0000001c $d
C:\Users\DNIEL~1\AppData\Local\Temp\ccM4Kr1k.s:592    .text.thread1:00000000 $t
C:\Users\DNIEL~1\AppData\Local\Temp\ccM4Kr1k.s:597    .text.thread1:00000000 thread1
C:\Users\DNIEL~1\AppData\Local\Temp\ccM4Kr1k.s:620    .text.thread1:00000010 $d
C:\Users\DNIEL~1\AppData\Local\Temp\ccM4Kr1k.s:625    .text.queues1_execute:00000000 $t
C:\Users\DNIEL~1\AppData\Local\Temp\ccM4Kr1k.s:630    .text.queues1_execute:00000000 queues1_execute
C:\Users\DNIEL~1\AppData\Local\Temp\ccM4Kr1k.s:1079   .text.queues1_execute:000002b8 $d
C:\Users\DNIEL~1\AppData\Local\Temp\ccM4Kr1k.s:1089   .text.queues1_setup:00000000 $t
C:\Users\DNIEL~1\AppData\Local\Temp\ccM4Kr1k.s:1094   .text.queues1_setup:00000000 queues1_setup
C:\Users\DNIEL~1\AppData\Local\Temp\ccM4Kr1k.s:1125   .text.queues1_setup:0000001c $d
C:\Users\DNIEL~1\AppData\Local\Temp\ccM4Kr1k.s:1138   .rodata.testqueues1:00000000 testqueues1
C:\Users\DNIEL~1\AppData\Local\Temp\ccM4Kr1k.s:1147   .rodata.testqueues2:00000000 testqueues2
C:\Users\DNIEL~1\AppData\Local\Temp\ccM4Kr1k.s:1166   .rodata.patternqueues:00000000 patternqueues
C:\Users\DNIEL~1\AppData\Local\Temp\ccM4Kr1k.s:1135   .rodata.testqueues1:00000000 $d
C:\Users\DNIEL~1\AppData\Local\Temp\ccM4Kr1k.s:1144   .rodata.testqueues2:00000000 $d
C:\Users\DNIEL~1\AppData\Local\Temp\ccM4Kr1k.s:1153   .rodata.str1.4:00000000 $d
C:\Users\DNIEL~1\AppData\Local\Temp\ccM4Kr1k.s:1163   .rodata.patternqueues:00000000 $d
C:\Users\DNIEL~1\AppData\Local\Temp\ccM4Kr1k.s:1171   .data.oq:00000000 $d
C:\Users\DNIEL~1\AppData\Local\Temp\ccM4Kr1k.s:1175   .data.oq:00000000 oq
C:\Users\DNIEL~1\AppData\Local\Temp\ccM4Kr1k.s:1186   .data.iq:00000000 $d
C:\Users\DNIEL~1\AppData\Local\Temp\ccM4Kr1k.s:1190   .data.iq:00000000 iq
                     .debug_frame:00000010 $d
C:\Users\DNIEL~1\AppData\Local\Temp\ccM4Kr1k.s:77     .text.thread2:00000014 $t
C:\Users\DNIEL~1\AppData\Local\Temp\ccM4Kr1k.s:548    .text.queues2_execute:000002a4 $t
C:\Users\DNIEL~1\AppData\Local\Temp\ccM4Kr1k.s:591    .text.queues2_setup:00000028 $t
C:\Users\DNIEL~1\AppData\Local\Temp\ccM4Kr1k.s:624    .text.thread1:00000014 $t
C:\Users\DNIEL~1\AppData\Local\Temp\ccM4Kr1k.s:3496   .text.queues1_setup:00000028 $t

UNDEFINED SYMBOLS
chOQPutTimeout
_port_lock
_test_assert
_port_unlock
chOQGetI
test_emit_token
_test_assert_sequence
chOQWriteTimeout
chThdCreateStatic
test_wait_threads
chOQResetI
wa
rlist
threads
chOQInit
chIQGetTimeout
ARM GAS  C:\Users\DNIEL~1\AppData\Local\Temp\ccM4Kr1k.s 			page 68


chIQPutI
chIQReadTimeout
chIQResetI
chIQInit
test
