ARM GAS  C:\Users\DNIEL~1\AppData\Local\Temp\ccM4Kr1k.s 			page 1


   1              		.syntax unified
   2              		.cpu cortex-m3
   3              		.fpu softvfp
   4              		.eabi_attribute 20, 1
   5              		.eabi_attribute 21, 1
   6              		.eabi_attribute 23, 3
   7              		.eabi_attribute 24, 1
   8              		.eabi_attribute 25, 1
   9              		.eabi_attribute 26, 1
  10              		.eabi_attribute 30, 2
  11              		.eabi_attribute 18, 4
  12              		.thumb
  13              		.file	"testqueues.c"
  20 0000 8E040000 		.text
  20      0200DD01 
  20      00000201 
  20      FB0E0D00 
  20      01010101 
  21              	.Ltext0:
  22              		.cfi_sections	.debug_frame
  23              		.section	.text.notify,"ax",%progbits
  24              		.align	2
  25              		.p2align 4,,15
  26              		.thumb
  27              		.thumb_func
  28              		.type	notify, %function
  29              	notify:
  30              	.LFB0:
  31              		.file 1 "../../../ChibiOS/test/testqueues.c"
  32              		.loc 1 61 0
  33              		.cfi_startproc
  34              		@ args = 0, pretend = 0, frame = 0
  35              		@ frame_needed = 0, uses_anonymous_args = 0
  36              		@ link register save eliminated.
  37              	.LVL0:
  38              		.loc 1 63 0
  39 0000 7047     		bx	lr
  40              		.cfi_endproc
  41              	.LFE0:
  42              		.size	notify, .-notify
  43 0002 00BFAFF3 		.section	.text.thread2,"ax",%progbits
  43      0080AFF3 
  43      0080AFF3 
  43      0080
  44              		.align	2
  45              		.p2align 4,,15
  46              		.thumb
  47              		.thumb_func
  48              		.type	thread2, %function
  49              	thread2:
  50              	.LFB5:
ARM GAS  C:\Users\DNIEL~1\AppData\Local\Temp\ccM4Kr1k.s 			page 2


  51              		.loc 1 174 0
  52              		.cfi_startproc
  53              		@ args = 0, pretend = 0, frame = 0
  54              		@ frame_needed = 0, uses_anonymous_args = 0
  55              	.LVL1:
  56 0000 08B5     		push	{r3, lr}
  57              	.LCFI0:
  58              		.cfi_def_cfa_offset 8
  59              		.loc 1 177 0
  60 0002 0021     		movs	r1, #0
  61 0004 C822     		movs	r2, #200
  62 0006 0248     		ldr	r0, .L3
  63              	.LVL2:
  64              		.cfi_offset 14, -4
  65              		.cfi_offset 3, -8
  66 0008 FFF7FEFF 		bl	chOQPutTimeout
  67              		.loc 1 179 0
  68 000c 0020     		movs	r0, #0
  69 000e 08BD     		pop	{r3, pc}
  70              	.L4:
  71              		.align	2
  72              	.L3:
  73 0010 00000000 		.word	.LANCHOR0
  74              		.cfi_endproc
  75              	.LFE5:
  76              		.size	thread2, .-thread2
  77 0014 AFF30080 		.section	.text.queues2_execute,"ax",%progbits
  77      AFF30080 
  77      AFF30080 
  78              		.align	2
  79              		.p2align 4,,15
  80              		.thumb
  81              		.thumb_func
  82              		.type	queues2_execute, %function
  83              	queues2_execute:
  84              	.LFB6:
  85              		.loc 1 181 0
  86              		.cfi_startproc
  87              		@ args = 0, pretend = 0, frame = 0
  88              		@ frame_needed = 0, uses_anonymous_args = 0
  89 0000 F0B5     		push	{r4, r5, r6, r7, lr}
  90              	.LCFI1:
  91              		.cfi_def_cfa_offset 20
  92 0002 83B0     		sub	sp, sp, #12
  93              	.LCFI2:
  94              		.cfi_def_cfa_offset 32
  95              		.loc 1 186 0
  96              	@ 186 "../../../ChibiOS/test/testqueues.c" 1
  97 0004 FFF7FEFF 		bl      _port_lock
  98              	@ 0 "" 2
  99              		.thumb
 100 0008 A04D     		ldr	r5, .L24
 101              		.cfi_offset 14, -4
 102              		.cfi_offset 7, -8
 103              		.cfi_offset 6, -12
 104              		.cfi_offset 5, -16
 105              		.cfi_offset 4, -20
ARM GAS  C:\Users\DNIEL~1\AppData\Local\Temp\ccM4Kr1k.s 			page 3


 106 000a 6A69     		ldr	r2, [r5, #20]
 107 000c AB69     		ldr	r3, [r5, #24]
 108 000e 9A42     		cmp	r2, r3
 109 0010 6CD0     		beq	.L20
 110 0012 0021     		movs	r1, #0
 111              	.L6:
 112              		.loc 1 186 0 is_stmt 0 discriminator 4
 113 0014 0120     		movs	r0, #1
 114 0016 FFF7FEFF 		bl	_test_assert
 115 001a 0028     		cmp	r0, #0
 116 001c 63D1     		bne	.L21
 117              		.loc 1 186 0 discriminator 6
 118              	@ 186 "../../../ChibiOS/test/testqueues.c" 1
 119 001e FFF7FEFF 		bl      _port_unlock
 120              	@ 0 "" 2
 121              	.LVL3:
 122              		.loc 1 190 0 is_stmt 1 discriminator 6
 123              		.thumb
 124 0022 9A4C     		ldr	r4, .L24
 125 0024 4121     		movs	r1, #65
 126 0026 2046     		mov	r0, r4
 127 0028 4FF0FF32 		mov	r2, #-1
 128 002c FFF7FEFF 		bl	chOQPutTimeout
 129              	.LVL4:
 130 0030 4221     		movs	r1, #66
 131 0032 2046     		mov	r0, r4
 132 0034 4FF0FF32 		mov	r2, #-1
 133 0038 FFF7FEFF 		bl	chOQPutTimeout
 134              	.LVL5:
 135 003c 4321     		movs	r1, #67
 136 003e 2046     		mov	r0, r4
 137 0040 4FF0FF32 		mov	r2, #-1
 138 0044 FFF7FEFF 		bl	chOQPutTimeout
 139              	.LVL6:
 140 0048 2046     		mov	r0, r4
 141 004a 4421     		movs	r1, #68
 142 004c 4FF0FF32 		mov	r2, #-1
 143 0050 FFF7FEFF 		bl	chOQPutTimeout
 144              	.LVL7:
 145              		.loc 1 191 0 discriminator 6
 146              	@ 191 "../../../ChibiOS/test/testqueues.c" 1
 147 0054 FFF7FEFF 		bl      _port_lock
 148              	@ 0 "" 2
 149              		.thumb
 150 0058 AD68     		ldr	r5, [r5, #8]
 151 005a 0220     		movs	r0, #2
 152 005c D5F10101 		rsbs	r1, r5, #1
 153 0060 38BF     		it	cc
 154 0062 0021     		movcc	r1, #0
 155 0064 FFF7FEFF 		bl	_test_assert
 156 0068 0546     		mov	r5, r0
 157 006a 0028     		cmp	r0, #0
 158 006c 38D1     		bne	.L22
 159              		.loc 1 191 0 is_stmt 0 discriminator 2
 160              	@ 191 "../../../ChibiOS/test/testqueues.c" 1
 161 006e FFF7FEFF 		bl      _port_unlock
 162              	@ 0 "" 2
ARM GAS  C:\Users\DNIEL~1\AppData\Local\Temp\ccM4Kr1k.s 			page 4


 163              	.LVL8:
 164              		.thumb
 165              	.LBB2:
 166              		.loc 1 197 0 is_stmt 1 discriminator 2
 167              	@ 197 "../../../ChibiOS/test/testqueues.c" 1
 168 0072 FFF7FEFF 		bl      _port_lock
 169              	@ 0 "" 2
 170              		.loc 1 198 0 discriminator 2
 171              		.thumb
 172 0076 2046     		mov	r0, r4
 173 0078 FFF7FEFF 		bl	chOQGetI
 174              	.LVL9:
 175              		.loc 1 199 0 discriminator 2
 176              	@ 199 "../../../ChibiOS/test/testqueues.c" 1
 177 007c FFF7FEFF 		bl      _port_unlock
 178              	@ 0 "" 2
 179              		.loc 1 200 0 discriminator 2
 180              		.thumb
 181 0080 C0B2     		uxtb	r0, r0
 182              	.LVL10:
 183 0082 FFF7FEFF 		bl	test_emit_token
 184              	.LVL11:
 185              		.loc 1 197 0 discriminator 2
 186              	@ 197 "../../../ChibiOS/test/testqueues.c" 1
 187 0086 FFF7FEFF 		bl      _port_lock
 188              	@ 0 "" 2
 189              		.loc 1 198 0 discriminator 2
 190              		.thumb
 191 008a 2046     		mov	r0, r4
 192 008c FFF7FEFF 		bl	chOQGetI
 193              	.LVL12:
 194              		.loc 1 199 0 discriminator 2
 195              	@ 199 "../../../ChibiOS/test/testqueues.c" 1
 196 0090 FFF7FEFF 		bl      _port_unlock
 197              	@ 0 "" 2
 198              		.loc 1 200 0 discriminator 2
 199              		.thumb
 200 0094 C0B2     		uxtb	r0, r0
 201              	.LVL13:
 202 0096 FFF7FEFF 		bl	test_emit_token
 203              	.LVL14:
 204              		.loc 1 197 0 discriminator 2
 205              	@ 197 "../../../ChibiOS/test/testqueues.c" 1
 206 009a FFF7FEFF 		bl      _port_lock
 207              	@ 0 "" 2
 208              		.loc 1 198 0 discriminator 2
 209              		.thumb
 210 009e 2046     		mov	r0, r4
 211 00a0 FFF7FEFF 		bl	chOQGetI
 212              	.LVL15:
 213              		.loc 1 199 0 discriminator 2
 214              	@ 199 "../../../ChibiOS/test/testqueues.c" 1
 215 00a4 FFF7FEFF 		bl      _port_unlock
 216              	@ 0 "" 2
 217              		.loc 1 200 0 discriminator 2
 218              		.thumb
 219 00a8 C0B2     		uxtb	r0, r0
ARM GAS  C:\Users\DNIEL~1\AppData\Local\Temp\ccM4Kr1k.s 			page 5


 220              	.LVL16:
 221 00aa FFF7FEFF 		bl	test_emit_token
 222              	.LVL17:
 223              		.loc 1 197 0 discriminator 2
 224              	@ 197 "../../../ChibiOS/test/testqueues.c" 1
 225 00ae FFF7FEFF 		bl      _port_lock
 226              	@ 0 "" 2
 227              		.loc 1 198 0 discriminator 2
 228              		.thumb
 229 00b2 2046     		mov	r0, r4
 230 00b4 FFF7FEFF 		bl	chOQGetI
 231              	.LVL18:
 232              		.loc 1 199 0 discriminator 2
 233              	@ 199 "../../../ChibiOS/test/testqueues.c" 1
 234 00b8 FFF7FEFF 		bl      _port_unlock
 235              	@ 0 "" 2
 236              		.loc 1 200 0 discriminator 2
 237              		.thumb
 238 00bc C0B2     		uxtb	r0, r0
 239              	.LVL19:
 240 00be FFF7FEFF 		bl	test_emit_token
 241              	.LVL20:
 242              	.LBE2:
 243              		.loc 1 202 0 discriminator 2
 244              	@ 202 "../../../ChibiOS/test/testqueues.c" 1
 245 00c2 FFF7FEFF 		bl      _port_lock
 246              	@ 0 "" 2
 247              		.thumb
 248 00c6 6069     		ldr	r0, [r4, #20]
 249 00c8 A269     		ldr	r2, [r4, #24]
 250 00ca 9042     		cmp	r0, r2
 251 00cc 2ED0     		beq	.L23
 252              		.loc 1 202 0 is_stmt 0
 253 00ce 2946     		mov	r1, r5
 254              	.L10:
 255              		.loc 1 202 0 discriminator 4
 256 00d0 0320     		movs	r0, #3
 257 00d2 FFF7FEFF 		bl	_test_assert
 258 00d6 70B1     		cbz	r0, .L11
 259              		.loc 1 202 0 discriminator 5
 260              	@ 202 "../../../ChibiOS/test/testqueues.c" 1
 261 00d8 FFF7FEFF 		bl      _port_unlock
 262              	@ 0 "" 2
 263              	.LVL21:
 264              		.thumb
 265              	.L5:
 266              		.loc 1 229 0 is_stmt 1
 267 00dc 03B0     		add	sp, sp, #12
 268 00de F0BD     		pop	{r4, r5, r6, r7, pc}
 269              	.LVL22:
 270              	.L22:
 271              		.loc 1 191 0 discriminator 1
 272              	@ 191 "../../../ChibiOS/test/testqueues.c" 1
 273 00e0 FFF7FEFF 		bl      _port_unlock
 274              	@ 0 "" 2
 275              		.thumb
 276 00e4 FAE7     		b	.L5
ARM GAS  C:\Users\DNIEL~1\AppData\Local\Temp\ccM4Kr1k.s 			page 6


 277              	.LVL23:
 278              	.L21:
 279              		.loc 1 186 0 discriminator 5
 280              	@ 186 "../../../ChibiOS/test/testqueues.c" 1
 281 00e6 FFF7FEFF 		bl      _port_unlock
 282              	@ 0 "" 2
 283              		.thumb
 284 00ea F7E7     		b	.L5
 285              	.L20:
 286              		.loc 1 181 0 discriminator 1
 287 00ec A968     		ldr	r1, [r5, #8]
 288 00ee 0039     		subs	r1, r1, #0
 289 00f0 18BF     		it	ne
 290 00f2 0121     		movne	r1, #1
 291 00f4 8EE7     		b	.L6
 292              	.LVL24:
 293              	.L11:
 294              		.loc 1 202 0 discriminator 6
 295              	@ 202 "../../../ChibiOS/test/testqueues.c" 1
 296 00f6 FFF7FEFF 		bl      _port_unlock
 297              	@ 0 "" 2
 298              		.loc 1 203 0 discriminator 6
 299              		.thumb
 300 00fa 0420     		movs	r0, #4
 301 00fc 6449     		ldr	r1, .L24+4
 302 00fe FFF7FEFF 		bl	_test_assert_sequence
 303 0102 0028     		cmp	r0, #0
 304 0104 EAD1     		bne	.L5
 305              		.loc 1 204 0
 306              	@ 204 "../../../ChibiOS/test/testqueues.c" 1
 307 0106 FFF7FEFF 		bl      _port_lock
 308              	@ 0 "" 2
 309              		.thumb
 310 010a 604C     		ldr	r4, .L24
 311 010c 2046     		mov	r0, r4
 312 010e FFF7FEFF 		bl	chOQGetI
 313 0112 10F1030F 		cmn	r0, #3
 314 0116 14BF     		ite	ne
 315 0118 0021     		movne	r1, #0
 316 011a 0121     		moveq	r1, #1
 317 011c 0520     		movs	r0, #5
 318 011e FFF7FEFF 		bl	_test_assert
 319 0122 0546     		mov	r5, r0
 320 0124 38B1     		cbz	r0, .L12
 321              		.loc 1 204 0 is_stmt 0 discriminator 1
 322              	@ 204 "../../../ChibiOS/test/testqueues.c" 1
 323 0126 FFF7FEFF 		bl      _port_unlock
 324              	@ 0 "" 2
 325              		.thumb
 326 012a D7E7     		b	.L5
 327              	.L23:
 328              		.loc 1 181 0 is_stmt 1 discriminator 1
 329 012c A368     		ldr	r3, [r4, #8]
 330 012e 191E     		subs	r1, r3, #0
 331 0130 18BF     		it	ne
 332 0132 0121     		movne	r1, #1
 333 0134 CCE7     		b	.L10
ARM GAS  C:\Users\DNIEL~1\AppData\Local\Temp\ccM4Kr1k.s 			page 7


 334              	.L12:
 335              		.loc 1 204 0 discriminator 2
 336              	@ 204 "../../../ChibiOS/test/testqueues.c" 1
 337 0136 FFF7FEFF 		bl      _port_unlock
 338              	@ 0 "" 2
 339              		.loc 1 207 0 discriminator 2
 340              		.thumb
 341 013a 564F     		ldr	r7, .L24+8
 342 013c 0822     		movs	r2, #8
 343 013e 7E68     		ldr	r6, [r7, #4]
 344 0140 2046     		mov	r0, r4
 345 0142 3146     		mov	r1, r6
 346 0144 2B46     		mov	r3, r5
 347 0146 FFF7FEFF 		bl	chOQWriteTimeout
 348              	.LVL25:
 349              		.loc 1 208 0 discriminator 2
 350 014a A0F10401 		sub	r1, r0, #4
 351 014e D1F1000C 		rsbs	ip, r1, #0
 352 0152 4CEB0101 		adc	r1, ip, r1
 353 0156 0620     		movs	r0, #6
 354              	.LVL26:
 355 0158 FFF7FEFF 		bl	_test_assert
 356 015c 0028     		cmp	r0, #0
 357 015e BDD1     		bne	.L5
 358              		.loc 1 209 0
 359              	@ 209 "../../../ChibiOS/test/testqueues.c" 1
 360 0160 FFF7FEFF 		bl      _port_lock
 361              	@ 0 "" 2
 362              		.thumb
 363 0164 A568     		ldr	r5, [r4, #8]
 364 0166 0720     		movs	r0, #7
 365 0168 D5F10101 		rsbs	r1, r5, #1
 366 016c 38BF     		it	cc
 367 016e 0021     		movcc	r1, #0
 368 0170 FFF7FEFF 		bl	_test_assert
 369 0174 0546     		mov	r5, r0
 370 0176 10B1     		cbz	r0, .L13
 371              		.loc 1 209 0 is_stmt 0 discriminator 1
 372              	@ 209 "../../../ChibiOS/test/testqueues.c" 1
 373 0178 FFF7FEFF 		bl      _port_unlock
 374              	@ 0 "" 2
 375              		.thumb
 376 017c AEE7     		b	.L5
 377              	.L13:
 378              		.loc 1 209 0 discriminator 2
 379              	@ 209 "../../../ChibiOS/test/testqueues.c" 1
 380 017e FFF7FEFF 		bl      _port_unlock
 381              	@ 0 "" 2
 382              		.loc 1 210 0 is_stmt 1 discriminator 2
 383              		.thumb
 384 0182 454B     		ldr	r3, .L24+12
 385 0184 3868     		ldr	r0, [r7, #0]
 386 0186 9969     		ldr	r1, [r3, #24]
 387 0188 444B     		ldr	r3, .L24+16
 388 018a 8A68     		ldr	r2, [r1, #8]
 389 018c 4FF49871 		mov	r1, #304
 390 0190 0132     		adds	r2, r2, #1
ARM GAS  C:\Users\DNIEL~1\AppData\Local\Temp\ccM4Kr1k.s 			page 8


 391 0192 0095     		str	r5, [sp, #0]
 392 0194 FFF7FEFF 		bl	chThdCreateStatic
 393 0198 414B     		ldr	r3, .L24+20
 394 019a 1860     		str	r0, [r3, #0]
 395              		.loc 1 211 0 discriminator 2
 396              	@ 211 "../../../ChibiOS/test/testqueues.c" 1
 397 019c FFF7FEFF 		bl      _port_lock
 398              	@ 0 "" 2
 399              		.thumb
 400 01a0 2169     		ldr	r1, [r4, #16]
 401 01a2 E268     		ldr	r2, [r4, #12]
 402 01a4 A368     		ldr	r3, [r4, #8]
 403 01a6 881A     		subs	r0, r1, r2
 404 01a8 C31A     		subs	r3, r0, r3
 405 01aa A3F10402 		sub	r2, r3, #4
 406 01ae 0820     		movs	r0, #8
 407 01b0 D2F1000E 		rsbs	lr, r2, #0
 408 01b4 4EEB0201 		adc	r1, lr, r2
 409 01b8 FFF7FEFF 		bl	_test_assert
 410 01bc 10B1     		cbz	r0, .L14
 411              		.loc 1 211 0 is_stmt 0 discriminator 1
 412              	@ 211 "../../../ChibiOS/test/testqueues.c" 1
 413 01be FFF7FEFF 		bl      _port_unlock
 414              	@ 0 "" 2
 415              		.thumb
 416 01c2 8BE7     		b	.L5
 417              	.L14:
 418              		.loc 1 211 0 discriminator 2
 419              	@ 211 "../../../ChibiOS/test/testqueues.c" 1
 420 01c4 FFF7FEFF 		bl      _port_unlock
 421              	@ 0 "" 2
 422              		.loc 1 212 0 is_stmt 1 discriminator 2
 423              		.thumb
 424 01c8 FFF7FEFF 		bl	test_wait_threads
 425              		.loc 1 215 0 discriminator 2
 426              	@ 215 "../../../ChibiOS/test/testqueues.c" 1
 427 01cc FFF7FEFF 		bl      _port_lock
 428              	@ 0 "" 2
 429              		.loc 1 216 0 discriminator 2
 430              		.thumb
 431 01d0 2046     		mov	r0, r4
 432 01d2 FFF7FEFF 		bl	chOQResetI
 433              		.loc 1 217 0 discriminator 2
 434              	@ 217 "../../../ChibiOS/test/testqueues.c" 1
 435 01d6 FFF7FEFF 		bl      _port_unlock
 436              	@ 0 "" 2
 437              		.loc 1 218 0 discriminator 2
 438              	@ 218 "../../../ChibiOS/test/testqueues.c" 1
 439 01da FFF7FEFF 		bl      _port_lock
 440              	@ 0 "" 2
 441              		.thumb
 442 01de 2069     		ldr	r0, [r4, #16]
 443 01e0 E168     		ldr	r1, [r4, #12]
 444 01e2 A368     		ldr	r3, [r4, #8]
 445 01e4 421A     		subs	r2, r0, r1
 446 01e6 C3EB020E 		rsb	lr, r3, r2
 447 01ea 0920     		movs	r0, #9
ARM GAS  C:\Users\DNIEL~1\AppData\Local\Temp\ccM4Kr1k.s 			page 9


 448 01ec DEF1000C 		rsbs	ip, lr, #0
 449 01f0 4CEB0E01 		adc	r1, ip, lr
 450 01f4 FFF7FEFF 		bl	_test_assert
 451 01f8 10B1     		cbz	r0, .L15
 452              		.loc 1 218 0 is_stmt 0 discriminator 1
 453              	@ 218 "../../../ChibiOS/test/testqueues.c" 1
 454 01fa FFF7FEFF 		bl      _port_unlock
 455              	@ 0 "" 2
 456              		.thumb
 457 01fe 6DE7     		b	.L5
 458              	.L15:
 459              		.loc 1 218 0 discriminator 2
 460              	@ 218 "../../../ChibiOS/test/testqueues.c" 1
 461 0200 FFF7FEFF 		bl      _port_unlock
 462              	@ 0 "" 2
 463              		.loc 1 221 0 is_stmt 1 discriminator 2
 464              		.thumb
 465 0204 0222     		movs	r2, #2
 466 0206 0346     		mov	r3, r0
 467 0208 3146     		mov	r1, r6
 468 020a 2046     		mov	r0, r4
 469 020c FFF7FEFF 		bl	chOQWriteTimeout
 470              	.LVL27:
 471              		.loc 1 222 0 discriminator 2
 472 0210 A0F10202 		sub	r2, r0, #2
 473 0214 D2F1000C 		rsbs	ip, r2, #0
 474 0218 4CEB0201 		adc	r1, ip, r2
 475 021c 0A20     		movs	r0, #10
 476              	.LVL28:
 477 021e FFF7FEFF 		bl	_test_assert
 478              	.LVL29:
 479 0222 0346     		mov	r3, r0
 480 0224 0028     		cmp	r0, #0
 481 0226 7FF459AF 		bne	.L5
 482              		.loc 1 223 0
 483 022a 3146     		mov	r1, r6
 484 022c 0222     		movs	r2, #2
 485 022e 2046     		mov	r0, r4
 486 0230 FFF7FEFF 		bl	chOQWriteTimeout
 487              	.LVL30:
 488              		.loc 1 224 0
 489 0234 A0F10200 		sub	r0, r0, #2
 490              	.LVL31:
 491 0238 4342     		rsbs	r3, r0, #0
 492 023a 43EB0001 		adc	r1, r3, r0
 493 023e 0B20     		movs	r0, #11
 494              	.LVL32:
 495 0240 FFF7FEFF 		bl	_test_assert
 496 0244 0028     		cmp	r0, #0
 497 0246 7FF449AF 		bne	.L5
 498              		.loc 1 225 0
 499              	@ 225 "../../../ChibiOS/test/testqueues.c" 1
 500 024a FFF7FEFF 		bl      _port_lock
 501              	@ 0 "" 2
 502              		.thumb
 503 024e A168     		ldr	r1, [r4, #8]
 504 0250 0C30     		adds	r0, r0, #12
ARM GAS  C:\Users\DNIEL~1\AppData\Local\Temp\ccM4Kr1k.s 			page 10


 505 0252 D1F10101 		rsbs	r1, r1, #1
 506 0256 38BF     		it	cc
 507 0258 0021     		movcc	r1, #0
 508 025a FFF7FEFF 		bl	_test_assert
 509 025e 10B1     		cbz	r0, .L16
 510              		.loc 1 225 0 is_stmt 0 discriminator 1
 511              	@ 225 "../../../ChibiOS/test/testqueues.c" 1
 512 0260 FFF7FEFF 		bl      _port_unlock
 513              	@ 0 "" 2
 514              		.thumb
 515 0264 3AE7     		b	.L5
 516              	.L16:
 517              		.loc 1 225 0 discriminator 2
 518              	@ 225 "../../../ChibiOS/test/testqueues.c" 1
 519 0266 FFF7FEFF 		bl      _port_unlock
 520              	@ 0 "" 2
 521              		.loc 1 228 0 is_stmt 1 discriminator 2
 522              		.thumb
 523 026a 0021     		movs	r1, #0
 524 026c 0A22     		movs	r2, #10
 525 026e 0748     		ldr	r0, .L24
 526 0270 FFF7FEFF 		bl	chOQPutTimeout
 527 0274 A0F1FF32 		sub	r2, r0, #-1
 528 0278 D2F1000C 		rsbs	ip, r2, #0
 529 027c 4CEB0201 		adc	r1, ip, r2
 530 0280 0D20     		movs	r0, #13
 531              		.loc 1 229 0 discriminator 2
 532 0282 03B0     		add	sp, sp, #12
 533 0284 BDE8F040 		pop	{r4, r5, r6, r7, lr}
 534              		.loc 1 228 0 discriminator 2
 535 0288 FFF7FEBF 		b	_test_assert
 536              	.L25:
 537              		.align	2
 538              	.L24:
 539 028c 00000000 		.word	.LANCHOR0
 540 0290 00000000 		.word	.LC0
 541 0294 00000000 		.word	wa
 542 0298 00000000 		.word	rlist
 543 029c 00000000 		.word	thread2
 544 02a0 00000000 		.word	threads
 545              		.cfi_endproc
 546              	.LFE6:
 547              		.size	queues2_execute, .-queues2_execute
 548 02a4 AFF30080 		.section	.text.queues2_setup,"ax",%progbits
 548      AFF30080 
 548      AFF30080 
 549              		.align	2
 550              		.p2align 4,,15
 551              		.thumb
 552              		.thumb_func
 553              		.type	queues2_setup, %function
 554              	queues2_setup:
 555              	.LFB4:
 556              		.loc 1 169 0
 557              		.cfi_startproc
 558              		@ args = 0, pretend = 0, frame = 0
 559              		@ frame_needed = 0, uses_anonymous_args = 0
ARM GAS  C:\Users\DNIEL~1\AppData\Local\Temp\ccM4Kr1k.s 			page 11


 560 0000 10B5     		push	{r4, lr}
 561              	.LCFI3:
 562              		.cfi_def_cfa_offset 8
 563              		.loc 1 171 0
 564 0002 064B     		ldr	r3, .L27
 565              		.loc 1 169 0
 566 0004 82B0     		sub	sp, sp, #8
 567              	.LCFI4:
 568              		.cfi_def_cfa_offset 16
 569              		.loc 1 171 0
 570 0006 1968     		ldr	r1, [r3, #0]
 571 0008 0024     		movs	r4, #0
 572              		.cfi_offset 14, -4
 573              		.cfi_offset 4, -8
 574 000a 0548     		ldr	r0, .L27+4
 575 000c 0422     		movs	r2, #4
 576 000e 054B     		ldr	r3, .L27+8
 577 0010 0094     		str	r4, [sp, #0]
 578 0012 FFF7FEFF 		bl	chOQInit
 579              		.loc 1 172 0
 580 0016 02B0     		add	sp, sp, #8
 581 0018 10BD     		pop	{r4, pc}
 582              	.L28:
 583 001a 00BF     		.align	2
 584              	.L27:
 585 001c 00000000 		.word	wa
 586 0020 00000000 		.word	.LANCHOR0
 587 0024 00000000 		.word	notify
 588              		.cfi_endproc
 589              	.LFE4:
 590              		.size	queues2_setup, .-queues2_setup
 591 0028 AFF30080 		.section	.text.thread1,"ax",%progbits
 591      AFF30080 
 592              		.align	2
 593              		.p2align 4,,15
 594              		.thumb
 595              		.thumb_func
 596              		.type	thread1, %function
 597              	thread1:
 598              	.LFB2:
 599              		.loc 1 87 0
 600              		.cfi_startproc
 601              		@ args = 0, pretend = 0, frame = 0
 602              		@ frame_needed = 0, uses_anonymous_args = 0
 603              	.LVL33:
 604 0000 08B5     		push	{r3, lr}
 605              	.LCFI5:
 606              		.cfi_def_cfa_offset 8
 607              		.loc 1 90 0
 608 0002 C821     		movs	r1, #200
 609 0004 0248     		ldr	r0, .L30
 610              	.LVL34:
 611              		.cfi_offset 14, -4
 612              		.cfi_offset 3, -8
 613 0006 FFF7FEFF 		bl	chIQGetTimeout
 614              		.loc 1 92 0
 615 000a 0020     		movs	r0, #0
ARM GAS  C:\Users\DNIEL~1\AppData\Local\Temp\ccM4Kr1k.s 			page 12


 616 000c 08BD     		pop	{r3, pc}
 617              	.L31:
 618 000e 00BF     		.align	2
 619              	.L30:
 620 0010 00000000 		.word	.LANCHOR1
 621              		.cfi_endproc
 622              	.LFE2:
 623              		.size	thread1, .-thread1
 624 0014 AFF30080 		.section	.text.queues1_execute,"ax",%progbits
 624      AFF30080 
 624      AFF30080 
 625              		.align	2
 626              		.p2align 4,,15
 627              		.thumb
 628              		.thumb_func
 629              		.type	queues1_execute, %function
 630              	queues1_execute:
 631              	.LFB3:
 632              		.loc 1 94 0
 633              		.cfi_startproc
 634              		@ args = 0, pretend = 0, frame = 0
 635              		@ frame_needed = 0, uses_anonymous_args = 0
 636 0000 2DE9F041 		push	{r4, r5, r6, r7, r8, lr}
 637              	.LCFI6:
 638              		.cfi_def_cfa_offset 24
 639 0004 82B0     		sub	sp, sp, #8
 640              	.LCFI7:
 641              		.cfi_def_cfa_offset 32
 642              		.loc 1 99 0
 643              	@ 99 "../../../ChibiOS/test/testqueues.c" 1
 644 0006 FFF7FEFF 		bl      _port_lock
 645              	@ 0 "" 2
 646              		.thumb
 647 000a AB4C     		ldr	r4, .L48
 648              		.cfi_offset 14, -4
 649              		.cfi_offset 8, -8
 650              		.cfi_offset 7, -12
 651              		.cfi_offset 6, -16
 652              		.cfi_offset 5, -20
 653              		.cfi_offset 4, -24
 654 000c 0120     		movs	r0, #1
 655 000e A168     		ldr	r1, [r4, #8]
 656 0010 D1F10101 		rsbs	r1, r1, #1
 657 0014 38BF     		it	cc
 658 0016 0021     		movcc	r1, #0
 659 0018 FFF7FEFF 		bl	_test_assert
 660 001c 0546     		mov	r5, r0
 661 001e 0028     		cmp	r0, #0
 662 0020 67D1     		bne	.L44
 663              		.loc 1 99 0 is_stmt 0 discriminator 2
 664              	@ 99 "../../../ChibiOS/test/testqueues.c" 1
 665 0022 FFF7FEFF 		bl      _port_unlock
 666              	@ 0 "" 2
 667              		.loc 1 102 0 is_stmt 1 discriminator 2
 668              	@ 102 "../../../ChibiOS/test/testqueues.c" 1
 669 0026 FFF7FEFF 		bl      _port_lock
 670              	@ 0 "" 2
ARM GAS  C:\Users\DNIEL~1\AppData\Local\Temp\ccM4Kr1k.s 			page 13


 671              	.LVL35:
 672              		.loc 1 104 0 discriminator 2
 673              		.thumb
 674 002a 4121     		movs	r1, #65
 675 002c 2046     		mov	r0, r4
 676 002e FFF7FEFF 		bl	chIQPutI
 677              	.LVL36:
 678 0032 4221     		movs	r1, #66
 679 0034 2046     		mov	r0, r4
 680 0036 FFF7FEFF 		bl	chIQPutI
 681              	.LVL37:
 682 003a 4321     		movs	r1, #67
 683 003c 2046     		mov	r0, r4
 684 003e FFF7FEFF 		bl	chIQPutI
 685              	.LVL38:
 686 0042 2046     		mov	r0, r4
 687 0044 4421     		movs	r1, #68
 688 0046 FFF7FEFF 		bl	chIQPutI
 689              	.LVL39:
 690              		.loc 1 105 0 discriminator 2
 691              	@ 105 "../../../ChibiOS/test/testqueues.c" 1
 692 004a FFF7FEFF 		bl      _port_unlock
 693              	@ 0 "" 2
 694              		.loc 1 106 0 discriminator 2
 695              	@ 106 "../../../ChibiOS/test/testqueues.c" 1
 696 004e FFF7FEFF 		bl      _port_lock
 697              	@ 0 "" 2
 698              		.thumb
 699 0052 6269     		ldr	r2, [r4, #20]
 700 0054 A369     		ldr	r3, [r4, #24]
 701 0056 9A42     		cmp	r2, r3
 702 0058 51D0     		beq	.L45
 703              		.loc 1 106 0 is_stmt 0
 704 005a 2946     		mov	r1, r5
 705              	.L35:
 706              		.loc 1 106 0 discriminator 4
 707 005c 0220     		movs	r0, #2
 708 005e FFF7FEFF 		bl	_test_assert
 709 0062 20B1     		cbz	r0, .L36
 710              		.loc 1 106 0 discriminator 5
 711              	@ 106 "../../../ChibiOS/test/testqueues.c" 1
 712 0064 FFF7FEFF 		bl      _port_unlock
 713              	@ 0 "" 2
 714              	.LVL40:
 715              		.thumb
 716              	.L32:
 717              		.loc 1 151 0 is_stmt 1
 718 0068 02B0     		add	sp, sp, #8
 719 006a BDE8F081 		pop	{r4, r5, r6, r7, r8, pc}
 720              	.LVL41:
 721              	.L36:
 722              		.loc 1 106 0 discriminator 6
 723              	@ 106 "../../../ChibiOS/test/testqueues.c" 1
 724 006e FFF7FEFF 		bl      _port_unlock
 725              	@ 0 "" 2
 726              		.loc 1 107 0 discriminator 6
 727              	@ 107 "../../../ChibiOS/test/testqueues.c" 1
ARM GAS  C:\Users\DNIEL~1\AppData\Local\Temp\ccM4Kr1k.s 			page 14


 728 0072 FFF7FEFF 		bl      _port_lock
 729              	@ 0 "" 2
 730              		.thumb
 731 0076 904D     		ldr	r5, .L48
 732 0078 0146     		mov	r1, r0
 733 007a 2846     		mov	r0, r5
 734 007c FFF7FEFF 		bl	chIQPutI
 735 0080 10F1040F 		cmn	r0, #4
 736 0084 14BF     		ite	ne
 737 0086 0021     		movne	r1, #0
 738 0088 0121     		moveq	r1, #1
 739 008a 0320     		movs	r0, #3
 740 008c FFF7FEFF 		bl	_test_assert
 741 0090 90BB     		cbnz	r0, .L46
 742              		.loc 1 107 0 is_stmt 0 discriminator 2
 743              	@ 107 "../../../ChibiOS/test/testqueues.c" 1
 744 0092 FFF7FEFF 		bl      _port_unlock
 745              	@ 0 "" 2
 746              	.LVL42:
 747              		.loc 1 111 0 is_stmt 1 discriminator 2
 748              		.thumb
 749 0096 4FF0FF31 		mov	r1, #-1
 750 009a 2846     		mov	r0, r5
 751 009c FFF7FEFF 		bl	chIQGetTimeout
 752 00a0 C0B2     		uxtb	r0, r0
 753 00a2 FFF7FEFF 		bl	test_emit_token
 754              	.LVL43:
 755 00a6 4FF0FF31 		mov	r1, #-1
 756 00aa 2846     		mov	r0, r5
 757 00ac FFF7FEFF 		bl	chIQGetTimeout
 758 00b0 C0B2     		uxtb	r0, r0
 759 00b2 FFF7FEFF 		bl	test_emit_token
 760              	.LVL44:
 761 00b6 4FF0FF31 		mov	r1, #-1
 762 00ba 2846     		mov	r0, r5
 763 00bc FFF7FEFF 		bl	chIQGetTimeout
 764 00c0 C0B2     		uxtb	r0, r0
 765 00c2 FFF7FEFF 		bl	test_emit_token
 766              	.LVL45:
 767 00c6 4FF0FF31 		mov	r1, #-1
 768 00ca 2846     		mov	r0, r5
 769 00cc FFF7FEFF 		bl	chIQGetTimeout
 770 00d0 C0B2     		uxtb	r0, r0
 771 00d2 FFF7FEFF 		bl	test_emit_token
 772              	.LVL46:
 773              		.loc 1 112 0 discriminator 2
 774              	@ 112 "../../../ChibiOS/test/testqueues.c" 1
 775 00d6 FFF7FEFF 		bl      _port_lock
 776              	@ 0 "" 2
 777              		.thumb
 778 00da A968     		ldr	r1, [r5, #8]
 779 00dc 0420     		movs	r0, #4
 780 00de D1F10101 		rsbs	r1, r1, #1
 781 00e2 38BF     		it	cc
 782 00e4 0021     		movcc	r1, #0
 783 00e6 FFF7FEFF 		bl	_test_assert
 784 00ea 68B1     		cbz	r0, .L38
ARM GAS  C:\Users\DNIEL~1\AppData\Local\Temp\ccM4Kr1k.s 			page 15


 785              		.loc 1 112 0 is_stmt 0 discriminator 1
 786              	@ 112 "../../../ChibiOS/test/testqueues.c" 1
 787 00ec FFF7FEFF 		bl      _port_unlock
 788              	@ 0 "" 2
 789              		.thumb
 790 00f0 BAE7     		b	.L32
 791              	.LVL47:
 792              	.L44:
 793              		.loc 1 99 0 is_stmt 1 discriminator 1
 794              	@ 99 "../../../ChibiOS/test/testqueues.c" 1
 795 00f2 FFF7FEFF 		bl      _port_unlock
 796              	@ 0 "" 2
 797              		.thumb
 798 00f6 B7E7     		b	.L32
 799              	.LVL48:
 800              	.L46:
 801              		.loc 1 107 0 discriminator 1
 802              	@ 107 "../../../ChibiOS/test/testqueues.c" 1
 803 00f8 FFF7FEFF 		bl      _port_unlock
 804              	@ 0 "" 2
 805              		.thumb
 806 00fc B4E7     		b	.L32
 807              	.L45:
 808              		.loc 1 94 0 discriminator 1
 809 00fe A068     		ldr	r0, [r4, #8]
 810 0100 011E     		subs	r1, r0, #0
 811 0102 18BF     		it	ne
 812 0104 0121     		movne	r1, #1
 813 0106 A9E7     		b	.L35
 814              	.L38:
 815              		.loc 1 112 0 discriminator 2
 816              	@ 112 "../../../ChibiOS/test/testqueues.c" 1
 817 0108 FFF7FEFF 		bl      _port_unlock
 818              	@ 0 "" 2
 819              		.loc 1 113 0 discriminator 2
 820              		.thumb
 821 010c 0520     		movs	r0, #5
 822 010e 6B49     		ldr	r1, .L48+4
 823 0110 FFF7FEFF 		bl	_test_assert_sequence
 824 0114 0646     		mov	r6, r0
 825 0116 0028     		cmp	r0, #0
 826 0118 A6D1     		bne	.L32
 827              		.loc 1 116 0
 828              	@ 116 "../../../ChibiOS/test/testqueues.c" 1
 829 011a FFF7FEFF 		bl      _port_lock
 830              	@ 0 "" 2
 831              	.LVL49:
 832              		.loc 1 118 0
 833              		.thumb
 834 011e 4121     		movs	r1, #65
 835 0120 2846     		mov	r0, r5
 836 0122 FFF7FEFF 		bl	chIQPutI
 837              	.LVL50:
 838 0126 4221     		movs	r1, #66
 839 0128 2846     		mov	r0, r5
 840 012a FFF7FEFF 		bl	chIQPutI
 841              	.LVL51:
ARM GAS  C:\Users\DNIEL~1\AppData\Local\Temp\ccM4Kr1k.s 			page 16


 842 012e 4321     		movs	r1, #67
 843 0130 2846     		mov	r0, r5
 844 0132 FFF7FEFF 		bl	chIQPutI
 845              	.LVL52:
 846 0136 2846     		mov	r0, r5
 847 0138 4421     		movs	r1, #68
 848 013a FFF7FEFF 		bl	chIQPutI
 849              	.LVL53:
 850              		.loc 1 119 0
 851              	@ 119 "../../../ChibiOS/test/testqueues.c" 1
 852 013e FFF7FEFF 		bl      _port_unlock
 853              	@ 0 "" 2
 854              		.loc 1 122 0
 855              		.thumb
 856 0142 5F4F     		ldr	r7, .L48+8
 857 0144 0822     		movs	r2, #8
 858 0146 D7F80480 		ldr	r8, [r7, #4]
 859 014a 2846     		mov	r0, r5
 860 014c 4146     		mov	r1, r8
 861 014e 3346     		mov	r3, r6
 862 0150 FFF7FEFF 		bl	chIQReadTimeout
 863              	.LVL54:
 864              		.loc 1 123 0
 865 0154 A0F10402 		sub	r2, r0, #4
 866 0158 D2F1000C 		rsbs	ip, r2, #0
 867 015c 4CEB0201 		adc	r1, ip, r2
 868 0160 0620     		movs	r0, #6
 869              	.LVL55:
 870 0162 FFF7FEFF 		bl	_test_assert
 871              	.LVL56:
 872 0166 0028     		cmp	r0, #0
 873 0168 7FF47EAF 		bne	.L32
 874              		.loc 1 124 0
 875              	@ 124 "../../../ChibiOS/test/testqueues.c" 1
 876 016c FFF7FEFF 		bl      _port_lock
 877              	@ 0 "" 2
 878              		.thumb
 879 0170 AE68     		ldr	r6, [r5, #8]
 880 0172 0720     		movs	r0, #7
 881 0174 D6F10101 		rsbs	r1, r6, #1
 882 0178 38BF     		it	cc
 883 017a 0021     		movcc	r1, #0
 884 017c FFF7FEFF 		bl	_test_assert
 885 0180 0646     		mov	r6, r0
 886 0182 0028     		cmp	r0, #0
 887 0184 47D1     		bne	.L47
 888              		.loc 1 124 0 is_stmt 0 discriminator 2
 889              	@ 124 "../../../ChibiOS/test/testqueues.c" 1
 890 0186 FFF7FEFF 		bl      _port_unlock
 891              	@ 0 "" 2
 892              		.loc 1 127 0 is_stmt 1 discriminator 2
 893              	@ 127 "../../../ChibiOS/test/testqueues.c" 1
 894 018a FFF7FEFF 		bl      _port_lock
 895              	@ 0 "" 2
 896              	.LVL57:
 897              		.loc 1 129 0 discriminator 2
 898              		.thumb
ARM GAS  C:\Users\DNIEL~1\AppData\Local\Temp\ccM4Kr1k.s 			page 17


 899 018e 4121     		movs	r1, #65
 900 0190 2846     		mov	r0, r5
 901 0192 FFF7FEFF 		bl	chIQPutI
 902              	.LVL58:
 903 0196 4221     		movs	r1, #66
 904 0198 2846     		mov	r0, r5
 905 019a FFF7FEFF 		bl	chIQPutI
 906              	.LVL59:
 907 019e 4321     		movs	r1, #67
 908 01a0 2846     		mov	r0, r5
 909 01a2 FFF7FEFF 		bl	chIQPutI
 910              	.LVL60:
 911 01a6 2846     		mov	r0, r5
 912 01a8 4421     		movs	r1, #68
 913 01aa FFF7FEFF 		bl	chIQPutI
 914              	.LVL61:
 915              		.loc 1 130 0 discriminator 2
 916              	@ 130 "../../../ChibiOS/test/testqueues.c" 1
 917 01ae FFF7FEFF 		bl      _port_unlock
 918              	@ 0 "" 2
 919              		.loc 1 133 0 discriminator 2
 920              		.thumb
 921 01b2 0222     		movs	r2, #2
 922 01b4 4146     		mov	r1, r8
 923 01b6 3346     		mov	r3, r6
 924 01b8 2846     		mov	r0, r5
 925 01ba FFF7FEFF 		bl	chIQReadTimeout
 926              	.LVL62:
 927              		.loc 1 134 0 discriminator 2
 928 01be A0F10203 		sub	r3, r0, #2
 929 01c2 5842     		rsbs	r0, r3, #0
 930              	.LVL63:
 931 01c4 40EB0301 		adc	r1, r0, r3
 932 01c8 0820     		movs	r0, #8
 933 01ca FFF7FEFF 		bl	_test_assert
 934              	.LVL64:
 935 01ce 0346     		mov	r3, r0
 936 01d0 0028     		cmp	r0, #0
 937 01d2 7FF449AF 		bne	.L32
 938              		.loc 1 135 0
 939 01d6 4146     		mov	r1, r8
 940 01d8 0222     		movs	r2, #2
 941 01da 2846     		mov	r0, r5
 942 01dc FFF7FEFF 		bl	chIQReadTimeout
 943              	.LVL65:
 944              		.loc 1 136 0
 945 01e0 A0F1020C 		sub	ip, r0, #2
 946 01e4 DCF10001 		rsbs	r1, ip, #0
 947 01e8 41EB0C01 		adc	r1, r1, ip
 948 01ec 0920     		movs	r0, #9
 949              	.LVL66:
 950 01ee FFF7FEFF 		bl	_test_assert
 951              	.LVL67:
 952 01f2 0028     		cmp	r0, #0
 953 01f4 7FF438AF 		bne	.L32
 954              		.loc 1 137 0
 955              	@ 137 "../../../ChibiOS/test/testqueues.c" 1
ARM GAS  C:\Users\DNIEL~1\AppData\Local\Temp\ccM4Kr1k.s 			page 18


 956 01f8 FFF7FEFF 		bl      _port_lock
 957              	@ 0 "" 2
 958              		.thumb
 959 01fc AA68     		ldr	r2, [r5, #8]
 960 01fe 0A30     		adds	r0, r0, #10
 961 0200 D2F10101 		rsbs	r1, r2, #1
 962 0204 38BF     		it	cc
 963 0206 0021     		movcc	r1, #0
 964 0208 FFF7FEFF 		bl	_test_assert
 965 020c 0146     		mov	r1, r0
 966 020e 28B1     		cbz	r0, .L40
 967              		.loc 1 137 0 is_stmt 0 discriminator 1
 968              	@ 137 "../../../ChibiOS/test/testqueues.c" 1
 969 0210 FFF7FEFF 		bl      _port_unlock
 970              	@ 0 "" 2
 971              		.thumb
 972 0214 28E7     		b	.L32
 973              	.L47:
 974              		.loc 1 124 0 is_stmt 1 discriminator 1
 975              	@ 124 "../../../ChibiOS/test/testqueues.c" 1
 976 0216 FFF7FEFF 		bl      _port_unlock
 977              	@ 0 "" 2
 978              		.thumb
 979 021a 25E7     		b	.L32
 980              	.L40:
 981              		.loc 1 137 0 discriminator 2
 982              	@ 137 "../../../ChibiOS/test/testqueues.c" 1
 983 021c FFF7FEFF 		bl      _port_unlock
 984              	@ 0 "" 2
 985              		.loc 1 140 0 discriminator 2
 986              	@ 140 "../../../ChibiOS/test/testqueues.c" 1
 987 0220 FFF7FEFF 		bl      _port_lock
 988              	@ 0 "" 2
 989              		.loc 1 141 0 discriminator 2
 990              		.thumb
 991 0224 2846     		mov	r0, r5
 992 0226 FFF7FEFF 		bl	chIQPutI
 993              		.loc 1 142 0 discriminator 2
 994 022a 2846     		mov	r0, r5
 995 022c FFF7FEFF 		bl	chIQResetI
 996              		.loc 1 143 0 discriminator 2
 997              	@ 143 "../../../ChibiOS/test/testqueues.c" 1
 998 0230 FFF7FEFF 		bl      _port_unlock
 999              	@ 0 "" 2
 1000              		.loc 1 144 0 discriminator 2
 1001              	@ 144 "../../../ChibiOS/test/testqueues.c" 1
 1002 0234 FFF7FEFF 		bl      _port_lock
 1003              	@ 0 "" 2
 1004              		.thumb
 1005 0238 AB68     		ldr	r3, [r5, #8]
 1006 023a 0B20     		movs	r0, #11
 1007 023c D3F10101 		rsbs	r1, r3, #1
 1008 0240 38BF     		it	cc
 1009 0242 0021     		movcc	r1, #0
 1010 0244 FFF7FEFF 		bl	_test_assert
 1011 0248 10B1     		cbz	r0, .L41
 1012              		.loc 1 144 0 is_stmt 0 discriminator 1
ARM GAS  C:\Users\DNIEL~1\AppData\Local\Temp\ccM4Kr1k.s 			page 19


 1013              	@ 144 "../../../ChibiOS/test/testqueues.c" 1
 1014 024a FFF7FEFF 		bl      _port_unlock
 1015              	@ 0 "" 2
 1016              		.thumb
 1017 024e 0BE7     		b	.L32
 1018              	.L41:
 1019              		.loc 1 144 0 discriminator 2
 1020              	@ 144 "../../../ChibiOS/test/testqueues.c" 1
 1021 0250 FFF7FEFF 		bl      _port_unlock
 1022              	@ 0 "" 2
 1023              		.loc 1 145 0 is_stmt 1 discriminator 2
 1024              		.thumb
 1025 0254 1B48     		ldr	r0, .L48+12
 1026 0256 1C4B     		ldr	r3, .L48+16
 1027 0258 8169     		ldr	r1, [r0, #24]
 1028 025a 3868     		ldr	r0, [r7, #0]
 1029 025c 8D68     		ldr	r5, [r1, #8]
 1030 025e 4FF49871 		mov	r1, #304
 1031 0262 6A1C     		adds	r2, r5, #1
 1032 0264 0025     		movs	r5, #0
 1033 0266 0095     		str	r5, [sp, #0]
 1034 0268 FFF7FEFF 		bl	chThdCreateStatic
 1035 026c 174B     		ldr	r3, .L48+20
 1036 026e 1860     		str	r0, [r3, #0]
 1037              		.loc 1 146 0 discriminator 2
 1038              	@ 146 "../../../ChibiOS/test/testqueues.c" 1
 1039 0270 FFF7FEFF 		bl      _port_lock
 1040              	@ 0 "" 2
 1041              		.thumb
 1042 0274 A268     		ldr	r2, [r4, #8]
 1043 0276 0C20     		movs	r0, #12
 1044 0278 C5EB020E 		rsb	lr, r5, r2
 1045 027c DEF10001 		rsbs	r1, lr, #0
 1046 0280 41EB0E01 		adc	r1, r1, lr
 1047 0284 FFF7FEFF 		bl	_test_assert
 1048 0288 10B1     		cbz	r0, .L42
 1049              		.loc 1 146 0 is_stmt 0 discriminator 1
 1050              	@ 146 "../../../ChibiOS/test/testqueues.c" 1
 1051 028a FFF7FEFF 		bl      _port_unlock
 1052              	@ 0 "" 2
 1053              		.thumb
 1054 028e EBE6     		b	.L32
 1055              	.L42:
 1056              		.loc 1 146 0 discriminator 2
 1057              	@ 146 "../../../ChibiOS/test/testqueues.c" 1
 1058 0290 FFF7FEFF 		bl      _port_unlock
 1059              	@ 0 "" 2
 1060              		.loc 1 147 0 is_stmt 1 discriminator 2
 1061              		.thumb
 1062 0294 FFF7FEFF 		bl	test_wait_threads
 1063              		.loc 1 150 0 discriminator 2
 1064 0298 0A21     		movs	r1, #10
 1065 029a 0748     		ldr	r0, .L48
 1066 029c FFF7FEFF 		bl	chIQGetTimeout
 1067 02a0 A0F1FF32 		sub	r2, r0, #-1
 1068 02a4 D2F1000C 		rsbs	ip, r2, #0
 1069 02a8 4CEB0201 		adc	r1, ip, r2
ARM GAS  C:\Users\DNIEL~1\AppData\Local\Temp\ccM4Kr1k.s 			page 20


 1070 02ac 0D20     		movs	r0, #13
 1071              		.loc 1 151 0 discriminator 2
 1072 02ae 02B0     		add	sp, sp, #8
 1073 02b0 BDE8F041 		pop	{r4, r5, r6, r7, r8, lr}
 1074              		.loc 1 150 0 discriminator 2
 1075 02b4 FFF7FEBF 		b	_test_assert
 1076              	.L49:
 1077              		.align	2
 1078              	.L48:
 1079 02b8 00000000 		.word	.LANCHOR1
 1080 02bc 00000000 		.word	.LC0
 1081 02c0 00000000 		.word	wa
 1082 02c4 00000000 		.word	rlist
 1083 02c8 00000000 		.word	thread1
 1084 02cc 00000000 		.word	threads
 1085              		.cfi_endproc
 1086              	.LFE3:
 1087              		.size	queues1_execute, .-queues1_execute
 1088              		.section	.text.queues1_setup,"ax",%progbits
 1089              		.align	2
 1090              		.p2align 4,,15
 1091              		.thumb
 1092              		.thumb_func
 1093              		.type	queues1_setup, %function
 1094              	queues1_setup:
 1095              	.LFB1:
 1096              		.loc 1 82 0
 1097              		.cfi_startproc
 1098              		@ args = 0, pretend = 0, frame = 0
 1099              		@ frame_needed = 0, uses_anonymous_args = 0
 1100 0000 10B5     		push	{r4, lr}
 1101              	.LCFI8:
 1102              		.cfi_def_cfa_offset 8
 1103              		.loc 1 84 0
 1104 0002 064B     		ldr	r3, .L51
 1105              		.loc 1 82 0
 1106 0004 82B0     		sub	sp, sp, #8
 1107              	.LCFI9:
 1108              		.cfi_def_cfa_offset 16
 1109              		.loc 1 84 0
 1110 0006 1968     		ldr	r1, [r3, #0]
 1111 0008 0024     		movs	r4, #0
 1112              		.cfi_offset 14, -4
 1113              		.cfi_offset 4, -8
 1114 000a 0548     		ldr	r0, .L51+4
 1115 000c 0422     		movs	r2, #4
 1116 000e 054B     		ldr	r3, .L51+8
 1117 0010 0094     		str	r4, [sp, #0]
 1118 0012 FFF7FEFF 		bl	chIQInit
 1119              		.loc 1 85 0
 1120 0016 02B0     		add	sp, sp, #8
 1121 0018 10BD     		pop	{r4, pc}
 1122              	.L52:
 1123 001a 00BF     		.align	2
 1124              	.L51:
 1125 001c 00000000 		.word	wa
 1126 0020 00000000 		.word	.LANCHOR1
ARM GAS  C:\Users\DNIEL~1\AppData\Local\Temp\ccM4Kr1k.s 			page 21


 1127 0024 00000000 		.word	notify
 1128              		.cfi_endproc
 1129              	.LFE1:
 1130              		.size	queues1_setup, .-queues1_setup
 1131              		.global	testqueues1
 1132              		.global	testqueues2
 1133              		.global	patternqueues
 1134              		.section	.rodata.testqueues1,"a",%progbits
 1135              		.align	2
 1136              		.type	testqueues1, %object
 1137              		.size	testqueues1, 16
 1138              	testqueues1:
 1139 0000 08000000 		.word	.LC1
 1140 0004 00000000 		.word	queues1_setup
 1141 0008 00000000 		.word	0
 1142 000c 00000000 		.word	queues1_execute
 1143              		.section	.rodata.testqueues2,"a",%progbits
 1144              		.align	2
 1145              		.type	testqueues2, %object
 1146              		.size	testqueues2, 16
 1147              	testqueues2:
 1148 0000 20000000 		.word	.LC2
 1149 0004 00000000 		.word	queues2_setup
 1150 0008 00000000 		.word	0
 1151 000c 00000000 		.word	queues2_execute
 1152              		.section	.rodata.str1.4,"aMS",%progbits,1
 1153              		.align	2
 1154              	.LC0:
 1155 0000 41424344 		.ascii	"ABCD\000"
 1155      00
 1156 0005 000000   		.space	3
 1157              	.LC1:
 1158 0008 51756575 		.ascii	"Queues, input queues\000"
 1158      65732C20 
 1158      696E7075 
 1158      74207175 
 1158      65756573 
 1159 001d 000000   		.space	3
 1160              	.LC2:
 1161 0020 51756575 		.ascii	"Queues, output queues\000"
 1161      65732C20 
 1161      6F757470 
 1161      75742071 
 1161      75657565 
 1162 0036 0000     		.section	.rodata.patternqueues,"a",%progbits
 1163              		.align	2
 1164              		.type	patternqueues, %object
 1165              		.size	patternqueues, 12
 1166              	patternqueues:
 1167 0000 00000000 		.word	testqueues1
 1168 0004 00000000 		.word	testqueues2
 1169 0008 00000000 		.word	0
 1170              		.section	.data.oq,"aw",%progbits
 1171              		.align	2
 1172              		.set	.LANCHOR0,. + 0
 1173              		.type	oq, %object
 1174              		.size	oq, 36
ARM GAS  C:\Users\DNIEL~1\AppData\Local\Temp\ccM4Kr1k.s 			page 22


 1175              	oq:
 1176 0000 00000000 		.word	oq
 1177 0004 00000000 		.word	oq
 1178 0008 04000000 		.word	4
 1179 000c 30010000 		.word	test+304
 1180 0010 34010000 		.word	test+308
 1181 0014 30010000 		.word	test+304
 1182 0018 30010000 		.word	test+304
 1183 001c 00000000 		.word	notify
 1184 0020 00000000 		.word	0
 1185              		.section	.data.iq,"aw",%progbits
 1186              		.align	2
 1187              		.set	.LANCHOR1,. + 0
 1188              		.type	iq, %object
 1189              		.size	iq, 36
 1190              	iq:
 1191 0000 00000000 		.word	iq
 1192 0004 00000000 		.word	iq
 1193 0008 00000000 		.word	0
 1194 000c 00000000 		.word	test
 1195 0010 04000000 		.word	test+4
 1196 0014 00000000 		.word	test
 1197 0018 00000000 		.word	test
 1198 001c 00000000 		.word	notify
 1199 0020 00000000 		.word	0
 1200              		.text
 1201              	.Letext0: