ARM GAS  C:\Users\DNIEL~1\AppData\Local\Temp\ccXoGZ7Z.s 			page 1


   1              		.syntax unified
   2              		.cpu cortex-m3
   3              		.fpu softvfp
   4              		.eabi_attribute 20, 1
   5              		.eabi_attribute 21, 1
   6              		.eabi_attribute 23, 3
   7              		.eabi_attribute 24, 1
   8              		.eabi_attribute 25, 1
   9              		.eabi_attribute 26, 1
  10              		.eabi_attribute 30, 2
  11              		.eabi_attribute 18, 4
  12              		.thumb
  13              		.file	"testsem.c"
  20 0000 0B030000 		.text
  20      02008001 
  20      00000201 
  20      FB0E0D00 
  20      01010101 
  21              	.Ltext0:
  22              		.cfi_sections	.debug_frame
  23              		.section	.text.sem3_setup,"ax",%progbits
  24              		.align	2
  25              		.p2align 4,,15
  26              		.thumb
  27              		.thumb_func
  28              		.type	sem3_setup, %function
  29              	sem3_setup:
  30              	.LFB6:
  31              		.file 1 "../../../ChibiOS/test/testsem.c"
  32              		.loc 1 205 0
  33              		.cfi_startproc
  34              		@ args = 0, pretend = 0, frame = 0
  35              		@ frame_needed = 0, uses_anonymous_args = 0
  36              		@ link register save eliminated.
  37              		.loc 1 207 0
  38 0000 0148     		ldr	r0, .L2
  39 0002 0021     		movs	r1, #0
  40              		.loc 1 208 0
  41              		.loc 1 207 0
  42 0004 FFF7FEBF 		b	chSemInit
  43              	.L3:
  44              		.align	2
  45              	.L2:
  46 0008 00000000 		.word	.LANCHOR0
  47              		.cfi_endproc
  48              	.LFE6:
  49              		.size	sem3_setup, .-sem3_setup
  50 000c AFF30080 		.section	.text.sem2_setup,"ax",%progbits
  51              		.align	2
  52              		.p2align 4,,15
  53              		.thumb
ARM GAS  C:\Users\DNIEL~1\AppData\Local\Temp\ccXoGZ7Z.s 			page 2


  54              		.thumb_func
  55              		.type	sem2_setup, %function
  56              	sem2_setup:
  57              	.LFB3:
  58              		.loc 1 129 0
  59              		.cfi_startproc
  60              		@ args = 0, pretend = 0, frame = 0
  61              		@ frame_needed = 0, uses_anonymous_args = 0
  62              		@ link register save eliminated.
  63              		.loc 1 131 0
  64 0000 0148     		ldr	r0, .L5
  65 0002 0021     		movs	r1, #0
  66              		.loc 1 132 0
  67              		.loc 1 131 0
  68 0004 FFF7FEBF 		b	chSemInit
  69              	.L6:
  70              		.align	2
  71              	.L5:
  72 0008 00000000 		.word	.LANCHOR0
  73              		.cfi_endproc
  74              	.LFE3:
  75              		.size	sem2_setup, .-sem2_setup
  76 000c AFF30080 		.section	.text.sem1_setup,"ax",%progbits
  77              		.align	2
  78              		.p2align 4,,15
  79              		.thumb
  80              		.thumb_func
  81              		.type	sem1_setup, %function
  82              	sem1_setup:
  83              	.LFB0:
  84              		.loc 1 72 0
  85              		.cfi_startproc
  86              		@ args = 0, pretend = 0, frame = 0
  87              		@ frame_needed = 0, uses_anonymous_args = 0
  88              		@ link register save eliminated.
  89              		.loc 1 74 0
  90 0000 0148     		ldr	r0, .L8
  91 0002 0021     		movs	r1, #0
  92              		.loc 1 75 0
  93              		.loc 1 74 0
  94 0004 FFF7FEBF 		b	chSemInit
  95              	.L9:
  96              		.align	2
  97              	.L8:
  98 0008 00000000 		.word	.LANCHOR0
  99              		.cfi_endproc
 100              	.LFE0:
 101              		.size	sem1_setup, .-sem1_setup
 102 000c AFF30080 		.section	.text.sem4_execute,"ax",%progbits
 103              		.align	2
 104              		.p2align 4,,15
 105              		.thumb
 106              		.thumb_func
 107              		.type	sem4_execute, %function
 108              	sem4_execute:
 109              	.LFB10:
 110              		.loc 1 252 0
ARM GAS  C:\Users\DNIEL~1\AppData\Local\Temp\ccXoGZ7Z.s 			page 3


 111              		.cfi_startproc
 112              		@ args = 0, pretend = 0, frame = 16
 113              		@ frame_needed = 0, uses_anonymous_args = 0
 114 0000 10B5     		push	{r4, lr}
 115              	.LCFI0:
 116              		.cfi_def_cfa_offset 8
 117 0002 86B0     		sub	sp, sp, #24
 118              	.LCFI1:
 119              		.cfi_def_cfa_offset 32
 120              		.loc 1 256 0
 121 0004 0021     		movs	r1, #0
 122 0006 03A8     		add	r0, sp, #12
 123              		.cfi_offset 14, -4
 124              		.cfi_offset 4, -8
 125 0008 FFF7FEFF 		bl	chSemInit
 126              		.loc 1 257 0
 127 000c 0021     		movs	r1, #0
 128 000e 03A8     		add	r0, sp, #12
 129 0010 FFF7FEFF 		bl	chSemReset
 130              		.loc 1 258 0
 131 0014 0599     		ldr	r1, [sp, #20]
 132 0016 0120     		movs	r0, #1
 133 0018 0029     		cmp	r1, #0
 134 001a CCBF     		ite	gt
 135 001c 0021     		movgt	r1, #0
 136 001e 0121     		movle	r1, #1
 137 0020 FFF7FEFF 		bl	_test_assert
 138 0024 08B1     		cbz	r0, .L15
 139              	.L10:
 140              		.loc 1 280 0
 141 0026 06B0     		add	sp, sp, #24
 142 0028 10BD     		pop	{r4, pc}
 143              	.L15:
 144              		.loc 1 262 0
 145 002a 304C     		ldr	r4, .L18
 146              		.loc 1 261 0
 147 002c 3048     		ldr	r0, .L18+4
 148              		.loc 1 262 0
 149 002e A169     		ldr	r1, [r4, #24]
 150              		.loc 1 261 0
 151 0030 304B     		ldr	r3, .L18+8
 152 0032 8A68     		ldr	r2, [r1, #8]
 153 0034 0068     		ldr	r0, [r0, #0]
 154 0036 4FF4A871 		mov	r1, #336
 155 003a 013A     		subs	r2, r2, #1
 156 003c 03AC     		add	r4, sp, #12
 157 003e 0094     		str	r4, [sp, #0]
 158 0040 FFF7FEFF 		bl	chThdCreateStatic
 159 0044 2C4B     		ldr	r3, .L18+12
 160 0046 1860     		str	r0, [r3, #0]
 161              		.loc 1 265 0
 162 0048 03A8     		add	r0, sp, #12
 163 004a FFF7FEFF 		bl	chSemWait
 164              		.loc 1 268 0
 165 004e 0599     		ldr	r1, [sp, #20]
 166 0050 0220     		movs	r0, #2
 167 0052 0029     		cmp	r1, #0
ARM GAS  C:\Users\DNIEL~1\AppData\Local\Temp\ccXoGZ7Z.s 			page 4


 168 0054 CCBF     		ite	gt
 169 0056 0021     		movgt	r1, #0
 170 0058 0121     		movle	r1, #1
 171 005a FFF7FEFF 		bl	_test_assert
 172 005e 0028     		cmp	r0, #0
 173 0060 E1D1     		bne	.L10
 174              		.loc 1 272 0
 175              	@ 272 "../../../ChibiOS/test/testsem.c" 1
 176 0062 FFF7FEFF 		bl      _port_lock
 177              	@ 0 "" 2
 178              		.thumb
 179 0066 059B     		ldr	r3, [sp, #20]
 180 0068 002B     		cmp	r3, #0
 181 006a 3ADD     		ble	.L16
 182              	.L12:
 183              		.loc 1 272 0 is_stmt 0 discriminator 2
 184 006c FFF7FEFF 		bl	chSchRescheduleS
 185              	@ 272 "../../../ChibiOS/test/testsem.c" 1
 186 0070 FFF7FEFF 		bl      _port_unlock
 187              	@ 0 "" 2
 188              		.loc 1 273 0 is_stmt 1 discriminator 2
 189              		.thumb
 190 0074 0599     		ldr	r1, [sp, #20]
 191 0076 0320     		movs	r0, #3
 192 0078 0029     		cmp	r1, #0
 193 007a D4BF     		ite	le
 194 007c 0021     		movle	r1, #0
 195 007e 0121     		movgt	r1, #1
 196 0080 FFF7FEFF 		bl	_test_assert
 197 0084 0028     		cmp	r0, #0
 198 0086 CED1     		bne	.L10
 199              		.loc 1 274 0
 200 0088 059A     		ldr	r2, [sp, #20]
 201 008a 0420     		movs	r0, #4
 202 008c A2F1010E 		sub	lr, r2, #1
 203 0090 DEF1000C 		rsbs	ip, lr, #0
 204 0094 4CEB0E01 		adc	r1, ip, lr
 205 0098 FFF7FEFF 		bl	_test_assert
 206 009c 0028     		cmp	r0, #0
 207 009e C2D1     		bne	.L10
 208              		.loc 1 277 0
 209              	@ 277 "../../../ChibiOS/test/testsem.c" 1
 210 00a0 FFF7FEFF 		bl      _port_lock
 211              	@ 0 "" 2
 212              		.thumb
 213 00a4 0598     		ldr	r0, [sp, #20]
 214 00a6 0028     		cmp	r0, #0
 215 00a8 17DD     		ble	.L17
 216              	.L13:
 217              		.loc 1 277 0 is_stmt 0 discriminator 2
 218 00aa FFF7FEFF 		bl	chSchRescheduleS
 219              	@ 277 "../../../ChibiOS/test/testsem.c" 1
 220 00ae FFF7FEFF 		bl      _port_unlock
 221              	@ 0 "" 2
 222              		.loc 1 278 0 is_stmt 1 discriminator 2
 223              		.thumb
 224 00b2 0599     		ldr	r1, [sp, #20]
ARM GAS  C:\Users\DNIEL~1\AppData\Local\Temp\ccXoGZ7Z.s 			page 5


 225 00b4 0320     		movs	r0, #3
 226 00b6 0029     		cmp	r1, #0
 227 00b8 D4BF     		ite	le
 228 00ba 0021     		movle	r1, #0
 229 00bc 0121     		movgt	r1, #1
 230 00be FFF7FEFF 		bl	_test_assert
 231 00c2 0028     		cmp	r0, #0
 232 00c4 AFD1     		bne	.L10
 233              		.loc 1 279 0
 234 00c6 059A     		ldr	r2, [sp, #20]
 235 00c8 0520     		movs	r0, #5
 236 00ca A2F10103 		sub	r3, r2, #1
 237 00ce 5942     		rsbs	r1, r3, #0
 238 00d0 41EB0301 		adc	r1, r1, r3
 239 00d4 FFF7FEFF 		bl	_test_assert
 240 00d8 A5E7     		b	.L10
 241              	.L17:
 242              		.loc 1 277 0 discriminator 1
 243 00da 03A8     		add	r0, sp, #12
 244 00dc FFF7FEFF 		bl	chSemSignalI
 245 00e0 E3E7     		b	.L13
 246              	.L16:
 247              		.loc 1 272 0 discriminator 1
 248 00e2 03A8     		add	r0, sp, #12
 249 00e4 FFF7FEFF 		bl	chSemSignalI
 250 00e8 C0E7     		b	.L12
 251              	.L19:
 252 00ea 00BF     		.align	2
 253              	.L18:
 254 00ec 00000000 		.word	rlist
 255 00f0 00000000 		.word	wa
 256 00f4 00000000 		.word	thread4
 257 00f8 00000000 		.word	threads
 258              		.cfi_endproc
 259              	.LFE10:
 260              		.size	sem4_execute, .-sem4_execute
 261 00fc AFF30080 		.section	.text.thread4,"ax",%progbits
 262              		.align	2
 263              		.p2align 4,,15
 264              		.thumb
 265              		.thumb_func
 266              		.type	thread4, %function
 267              	thread4:
 268              	.LFB9:
 269              		.loc 1 246 0
 270              		.cfi_startproc
 271              		@ args = 0, pretend = 0, frame = 0
 272              		@ frame_needed = 0, uses_anonymous_args = 0
 273              	.LVL0:
 274 0000 08B5     		push	{r3, lr}
 275              	.LCFI2:
 276              		.cfi_def_cfa_offset 8
 277              		.loc 1 248 0
 278              	@ 248 "../../../ChibiOS/test/testsem.c" 1
 279 0002 FFF7FEFF 		bl      _port_lock
 280              	@ 0 "" 2
 281              		.thumb
ARM GAS  C:\Users\DNIEL~1\AppData\Local\Temp\ccXoGZ7Z.s 			page 6


 282 0006 8368     		ldr	r3, [r0, #8]
 283              		.cfi_offset 14, -4
 284              		.cfi_offset 3, -8
 285 0008 002B     		cmp	r3, #0
 286 000a 05DD     		ble	.L22
 287              		.loc 1 248 0 is_stmt 0 discriminator 2
 288 000c FFF7FEFF 		bl	chSchRescheduleS
 289              	.LVL1:
 290              	@ 248 "../../../ChibiOS/test/testsem.c" 1
 291 0010 FFF7FEFF 		bl      _port_unlock
 292              	@ 0 "" 2
 293              		.loc 1 250 0 is_stmt 1 discriminator 2
 294              		.thumb
 295 0014 0020     		movs	r0, #0
 296 0016 08BD     		pop	{r3, pc}
 297              	.LVL2:
 298              	.L22:
 299              		.loc 1 248 0 discriminator 1
 300 0018 FFF7FEFF 		bl	chSemSignalI
 301              	.LVL3:
 302 001c FFF7FEFF 		bl	chSchRescheduleS
 303              	@ 248 "../../../ChibiOS/test/testsem.c" 1
 304 0020 FFF7FEFF 		bl      _port_unlock
 305              	@ 0 "" 2
 306              		.loc 1 250 0 discriminator 1
 307              		.thumb
 308 0024 0020     		movs	r0, #0
 309 0026 08BD     		pop	{r3, pc}
 310              		.cfi_endproc
 311              	.LFE9:
 312              		.size	thread4, .-thread4
 313 0028 AFF30080 		.section	.text.sem3_execute,"ax",%progbits
 313      AFF30080 
 314              		.align	2
 315              		.p2align 4,,15
 316              		.thumb
 317              		.thumb_func
 318              		.type	sem3_execute, %function
 319              	sem3_execute:
 320              	.LFB8:
 321              		.loc 1 218 0
 322              		.cfi_startproc
 323              		@ args = 0, pretend = 0, frame = 0
 324              		@ frame_needed = 0, uses_anonymous_args = 0
 325              		.loc 1 220 0
 326 0000 234B     		ldr	r3, .L26
 327              		.loc 1 218 0
 328 0002 10B5     		push	{r4, lr}
 329              	.LCFI3:
 330              		.cfi_def_cfa_offset 8
 331              		.loc 1 220 0
 332 0004 9969     		ldr	r1, [r3, #24]
 333 0006 2348     		ldr	r0, .L26+4
 334 0008 8A68     		ldr	r2, [r1, #8]
 335              		.loc 1 218 0
 336 000a 82B0     		sub	sp, sp, #8
 337              	.LCFI4:
ARM GAS  C:\Users\DNIEL~1\AppData\Local\Temp\ccXoGZ7Z.s 			page 7


 338              		.cfi_def_cfa_offset 16
 339              		.loc 1 220 0
 340 000c 0132     		adds	r2, r2, #1
 341 000e 0024     		movs	r4, #0
 342              		.cfi_offset 14, -4
 343              		.cfi_offset 4, -8
 344 0010 4FF4A871 		mov	r1, #336
 345 0014 204B     		ldr	r3, .L26+8
 346 0016 0068     		ldr	r0, [r0, #0]
 347 0018 0094     		str	r4, [sp, #0]
 348 001a FFF7FEFF 		bl	chThdCreateStatic
 349              		.loc 1 221 0
 350 001e 1F4C     		ldr	r4, .L26+12
 351              		.loc 1 220 0
 352 0020 1F4B     		ldr	r3, .L26+16
 353              		.loc 1 221 0
 354 0022 2146     		mov	r1, r4
 355              		.loc 1 220 0
 356 0024 1860     		str	r0, [r3, #0]
 357              		.loc 1 221 0
 358 0026 2046     		mov	r0, r4
 359 0028 FFF7FEFF 		bl	chSemSignalWait
 360              		.loc 1 222 0
 361 002c 2268     		ldr	r2, [r4, #0]
 362 002e 0120     		movs	r0, #1
 363 0030 C4EB020C 		rsb	ip, r4, r2
 364 0034 DCF10001 		rsbs	r1, ip, #0
 365 0038 41EB0C01 		adc	r1, r1, ip
 366 003c FFF7FEFF 		bl	_test_assert
 367 0040 08B1     		cbz	r0, .L25
 368              	.L23:
 369              		.loc 1 228 0
 370 0042 02B0     		add	sp, sp, #8
 371 0044 10BD     		pop	{r4, pc}
 372              	.L25:
 373              		.loc 1 223 0
 374 0046 A268     		ldr	r2, [r4, #8]
 375 0048 0220     		movs	r0, #2
 376 004a D2F10101 		rsbs	r1, r2, #1
 377 004e 38BF     		it	cc
 378 0050 0021     		movcc	r1, #0
 379 0052 FFF7FEFF 		bl	_test_assert
 380 0056 0028     		cmp	r0, #0
 381 0058 F3D1     		bne	.L23
 382              		.loc 1 225 0
 383 005a 2146     		mov	r1, r4
 384 005c 2046     		mov	r0, r4
 385 005e FFF7FEFF 		bl	chSemSignalWait
 386              		.loc 1 226 0
 387 0062 2168     		ldr	r1, [r4, #0]
 388 0064 0320     		movs	r0, #3
 389 0066 C1EB040E 		rsb	lr, r1, r4
 390 006a DEF1000C 		rsbs	ip, lr, #0
 391 006e 4CEB0E01 		adc	r1, ip, lr
 392 0072 FFF7FEFF 		bl	_test_assert
 393 0076 0028     		cmp	r0, #0
 394 0078 E3D1     		bne	.L23
ARM GAS  C:\Users\DNIEL~1\AppData\Local\Temp\ccXoGZ7Z.s 			page 8


 395              		.loc 1 227 0
 396 007a A368     		ldr	r3, [r4, #8]
 397 007c 0420     		movs	r0, #4
 398 007e D3F10101 		rsbs	r1, r3, #1
 399 0082 38BF     		it	cc
 400 0084 0021     		movcc	r1, #0
 401              		.loc 1 228 0
 402 0086 02B0     		add	sp, sp, #8
 403 0088 BDE81040 		pop	{r4, lr}
 404              		.loc 1 227 0
 405 008c FFF7FEBF 		b	_test_assert
 406              	.L27:
 407              		.align	2
 408              	.L26:
 409 0090 00000000 		.word	rlist
 410 0094 00000000 		.word	wa
 411 0098 00000000 		.word	thread3
 412 009c 00000000 		.word	.LANCHOR0
 413 00a0 00000000 		.word	threads
 414              		.cfi_endproc
 415              	.LFE8:
 416              		.size	sem3_execute, .-sem3_execute
 417 00a4 AFF30080 		.section	.text.thread3,"ax",%progbits
 417      AFF30080 
 417      AFF30080 
 418              		.align	2
 419              		.p2align 4,,15
 420              		.thumb
 421              		.thumb_func
 422              		.type	thread3, %function
 423              	thread3:
 424              	.LFB7:
 425              		.loc 1 210 0
 426              		.cfi_startproc
 427              		@ args = 0, pretend = 0, frame = 0
 428              		@ frame_needed = 0, uses_anonymous_args = 0
 429              	.LVL4:
 430 0000 10B5     		push	{r4, lr}
 431              	.LCFI5:
 432              		.cfi_def_cfa_offset 8
 433              		.loc 1 213 0
 434 0002 044C     		ldr	r4, .L29
 435              		.cfi_offset 14, -4
 436              		.cfi_offset 4, -8
 437 0004 2046     		mov	r0, r4
 438              	.LVL5:
 439 0006 FFF7FEFF 		bl	chSemWait
 440              		.loc 1 214 0
 441 000a 2046     		mov	r0, r4
 442 000c FFF7FEFF 		bl	chSemSignal
 443              		.loc 1 216 0
 444 0010 0020     		movs	r0, #0
 445 0012 10BD     		pop	{r4, pc}
 446              	.L30:
 447              		.align	2
 448              	.L29:
 449 0014 00000000 		.word	.LANCHOR0
ARM GAS  C:\Users\DNIEL~1\AppData\Local\Temp\ccXoGZ7Z.s 			page 9


 450              		.cfi_endproc
 451              	.LFE7:
 452              		.size	thread3, .-thread3
 453 0018 AFF30080 		.section	.text.thread1,"ax",%progbits
 453      AFF30080 
 454              		.align	2
 455              		.p2align 4,,15
 456              		.thumb
 457              		.thumb_func
 458              		.type	thread1, %function
 459              	thread1:
 460              	.LFB1:
 461              		.loc 1 77 0
 462              		.cfi_startproc
 463              		@ args = 0, pretend = 0, frame = 0
 464              		@ frame_needed = 0, uses_anonymous_args = 0
 465              	.LVL6:
 466 0000 10B5     		push	{r4, lr}
 467              	.LCFI6:
 468              		.cfi_def_cfa_offset 8
 469              		.loc 1 77 0
 470 0002 0446     		mov	r4, r0
 471              		.cfi_offset 14, -4
 472              		.cfi_offset 4, -8
 473              		.loc 1 79 0
 474 0004 0348     		ldr	r0, .L32
 475              	.LVL7:
 476 0006 FFF7FEFF 		bl	chSemWait
 477              		.loc 1 80 0
 478 000a 2078     		ldrb	r0, [r4, #0]	@ zero_extendqisi2
 479 000c FFF7FEFF 		bl	test_emit_token
 480              		.loc 1 82 0
 481 0010 0020     		movs	r0, #0
 482 0012 10BD     		pop	{r4, pc}
 483              	.L33:
 484              		.align	2
 485              	.L32:
 486 0014 00000000 		.word	.LANCHOR0
 487              		.cfi_endproc
 488              	.LFE1:
 489              		.size	thread1, .-thread1
 490 0018 AFF30080 		.section	.text.sem2_execute,"ax",%progbits
 490      AFF30080 
 491              		.align	2
 492              		.p2align 4,,15
 493              		.thumb
 494              		.thumb_func
 495              		.type	sem2_execute, %function
 496              	sem2_execute:
 497              	.LFB5:
 498              		.loc 1 145 0
 499              		.cfi_startproc
 500              		@ args = 0, pretend = 0, frame = 0
 501              		@ frame_needed = 0, uses_anonymous_args = 0
 502 0000 F0B5     		push	{r4, r5, r6, r7, lr}
 503              	.LCFI7:
 504              		.cfi_def_cfa_offset 20
ARM GAS  C:\Users\DNIEL~1\AppData\Local\Temp\ccXoGZ7Z.s 			page 10


 505              		.loc 1 153 0
 506 0002 A34C     		ldr	r4, .L37
 507              		.cfi_offset 14, -4
 508              		.cfi_offset 7, -8
 509              		.cfi_offset 6, -12
 510              		.cfi_offset 5, -16
 511              		.cfi_offset 4, -20
 512 0004 0021     		movs	r1, #0
 513              		.loc 1 145 0
 514 0006 83B0     		sub	sp, sp, #12
 515              	.LCFI8:
 516              		.cfi_def_cfa_offset 32
 517              		.loc 1 153 0
 518 0008 2046     		mov	r0, r4
 519 000a FFF7FEFF 		bl	chSemWaitTimeout
 520              	.LVL8:
 521              		.loc 1 154 0
 522 000e A0F1FF33 		sub	r3, r0, #-1
 523 0012 5942     		rsbs	r1, r3, #0
 524 0014 41EB0301 		adc	r1, r1, r3
 525 0018 0120     		movs	r0, #1
 526              	.LVL9:
 527 001a FFF7FEFF 		bl	_test_assert
 528              	.LVL10:
 529 001e 08B1     		cbz	r0, .L36
 530              	.L34:
 531              		.loc 1 183 0
 532 0020 03B0     		add	sp, sp, #12
 533 0022 F0BD     		pop	{r4, r5, r6, r7, pc}
 534              	.L36:
 535              		.loc 1 155 0
 536 0024 2168     		ldr	r1, [r4, #0]
 537 0026 0220     		movs	r0, #2
 538 0028 C4EB010C 		rsb	ip, r4, r1
 539 002c DCF10002 		rsbs	r2, ip, #0
 540 0030 42EB0C01 		adc	r1, r2, ip
 541 0034 FFF7FEFF 		bl	_test_assert
 542 0038 0028     		cmp	r0, #0
 543 003a F1D1     		bne	.L34
 544              		.loc 1 156 0
 545 003c A668     		ldr	r6, [r4, #8]
 546 003e 0320     		movs	r0, #3
 547 0040 D6F10101 		rsbs	r1, r6, #1
 548 0044 38BF     		it	cc
 549 0046 0021     		movcc	r1, #0
 550 0048 FFF7FEFF 		bl	_test_assert
 551 004c 0646     		mov	r6, r0
 552 004e 0028     		cmp	r0, #0
 553 0050 E6D1     		bne	.L34
 554              		.loc 1 161 0
 555 0052 904B     		ldr	r3, .L37+4
 556 0054 9048     		ldr	r0, .L37+8
 557 0056 9969     		ldr	r1, [r3, #24]
 558 0058 0068     		ldr	r0, [r0, #0]
 559 005a 8A68     		ldr	r2, [r1, #8]
 560 005c 8F4B     		ldr	r3, .L37+12
 561 005e 013A     		subs	r2, r2, #1
ARM GAS  C:\Users\DNIEL~1\AppData\Local\Temp\ccXoGZ7Z.s 			page 11


 562 0060 4FF4A871 		mov	r1, #336
 563 0064 0096     		str	r6, [sp, #0]
 564 0066 FFF7FEFF 		bl	chThdCreateStatic
 565 006a 8D4B     		ldr	r3, .L37+16
 566              		.loc 1 163 0
 567 006c 4FF4FA71 		mov	r1, #500
 568              		.loc 1 161 0
 569 0070 1860     		str	r0, [r3, #0]
 570              		.loc 1 163 0
 571 0072 2046     		mov	r0, r4
 572 0074 FFF7FEFF 		bl	chSemWaitTimeout
 573 0078 0646     		mov	r6, r0
 574              	.LVL11:
 575              		.loc 1 164 0
 576 007a FFF7FEFF 		bl	test_wait_threads
 577              	.LVL12:
 578              		.loc 1 165 0
 579 007e 0420     		movs	r0, #4
 580 0080 D6F10101 		rsbs	r1, r6, #1
 581 0084 38BF     		it	cc
 582 0086 0021     		movcc	r1, #0
 583 0088 FFF7FEFF 		bl	_test_assert
 584 008c 0028     		cmp	r0, #0
 585 008e C7D1     		bne	.L34
 586              		.loc 1 166 0
 587 0090 2268     		ldr	r2, [r4, #0]
 588 0092 0520     		movs	r0, #5
 589 0094 C2EB040E 		rsb	lr, r2, r4
 590 0098 DEF1000C 		rsbs	ip, lr, #0
 591 009c 4CEB0E01 		adc	r1, ip, lr
 592 00a0 FFF7FEFF 		bl	_test_assert
 593 00a4 0028     		cmp	r0, #0
 594 00a6 BBD1     		bne	.L34
 595              		.loc 1 167 0
 596 00a8 A168     		ldr	r1, [r4, #8]
 597 00aa 0620     		movs	r0, #6
 598 00ac D1F10101 		rsbs	r1, r1, #1
 599 00b0 38BF     		it	cc
 600 00b2 0021     		movcc	r1, #0
 601 00b4 FFF7FEFF 		bl	_test_assert
 602 00b8 0028     		cmp	r0, #0
 603 00ba B1D1     		bne	.L34
 604              		.loc 1 173 0
 605 00bc 794F     		ldr	r7, .L37+20
 606              		.loc 1 172 0
 607 00be FFF7FEFF 		bl	test_wait_tick
 608              		.loc 1 175 0
 609 00c2 4120     		movs	r0, #65
 610              		.loc 1 173 0
 611 00c4 FF68     		ldr	r7, [r7, #12]
 612              	.LVL13:
 613              		.loc 1 175 0
 614 00c6 FFF7FEFF 		bl	test_emit_token
 615              		.loc 1 176 0
 616 00ca 4FF4FA71 		mov	r1, #500
 617 00ce 2046     		mov	r0, r4
 618 00d0 FFF7FEFF 		bl	chSemWaitTimeout
ARM GAS  C:\Users\DNIEL~1\AppData\Local\Temp\ccXoGZ7Z.s 			page 12


 619              	.LVL14:
 620              		.loc 1 177 0
 621 00d4 A0F1FF33 		sub	r3, r0, #-1
 622 00d8 5842     		rsbs	r0, r3, #0
 623              	.LVL15:
 624 00da 40EB0301 		adc	r1, r0, r3
 625 00de 0720     		movs	r0, #7
 626 00e0 FFF7FEFF 		bl	_test_assert
 627              	.LVL16:
 628 00e4 0028     		cmp	r0, #0
 629 00e6 9BD1     		bne	.L34
 630              		.loc 1 178 0
 631 00e8 2268     		ldr	r2, [r4, #0]
 632 00ea 0820     		movs	r0, #8
 633 00ec C2EB040E 		rsb	lr, r2, r4
 634 00f0 DEF1000C 		rsbs	ip, lr, #0
 635 00f4 4CEB0E01 		adc	r1, ip, lr
 636 00f8 FFF7FEFF 		bl	_test_assert
 637 00fc 0028     		cmp	r0, #0
 638 00fe 8FD1     		bne	.L34
 639              		.loc 1 179 0
 640 0100 A168     		ldr	r1, [r4, #8]
 641 0102 0920     		movs	r0, #9
 642 0104 D1F10101 		rsbs	r1, r1, #1
 643 0108 38BF     		it	cc
 644 010a 0021     		movcc	r1, #0
 645 010c FFF7FEFF 		bl	_test_assert
 646 0110 0028     		cmp	r0, #0
 647 0112 85D1     		bne	.L34
 648              	.LVL17:
 649              		.loc 1 175 0
 650 0114 4220     		movs	r0, #66
 651 0116 FFF7FEFF 		bl	test_emit_token
 652              		.loc 1 176 0
 653 011a 4FF4FA71 		mov	r1, #500
 654 011e 2046     		mov	r0, r4
 655 0120 FFF7FEFF 		bl	chSemWaitTimeout
 656              	.LVL18:
 657              		.loc 1 177 0
 658 0124 A0F1FF33 		sub	r3, r0, #-1
 659 0128 5842     		rsbs	r0, r3, #0
 660              	.LVL19:
 661 012a 40EB0301 		adc	r1, r0, r3
 662 012e 0720     		movs	r0, #7
 663 0130 FFF7FEFF 		bl	_test_assert
 664              	.LVL20:
 665 0134 0028     		cmp	r0, #0
 666 0136 7FF473AF 		bne	.L34
 667              		.loc 1 178 0
 668 013a 2268     		ldr	r2, [r4, #0]
 669 013c 0820     		movs	r0, #8
 670 013e C2EB040E 		rsb	lr, r2, r4
 671 0142 DEF1000C 		rsbs	ip, lr, #0
 672 0146 4CEB0E01 		adc	r1, ip, lr
 673 014a FFF7FEFF 		bl	_test_assert
 674 014e 0028     		cmp	r0, #0
 675 0150 7FF466AF 		bne	.L34
ARM GAS  C:\Users\DNIEL~1\AppData\Local\Temp\ccXoGZ7Z.s 			page 13


 676              		.loc 1 179 0
 677 0154 A168     		ldr	r1, [r4, #8]
 678 0156 0920     		movs	r0, #9
 679 0158 D1F10101 		rsbs	r1, r1, #1
 680 015c 38BF     		it	cc
 681 015e 0021     		movcc	r1, #0
 682 0160 FFF7FEFF 		bl	_test_assert
 683 0164 0028     		cmp	r0, #0
 684 0166 7FF45BAF 		bne	.L34
 685              	.LVL21:
 686              		.loc 1 175 0
 687 016a 4320     		movs	r0, #67
 688 016c FFF7FEFF 		bl	test_emit_token
 689              		.loc 1 176 0
 690 0170 4FF4FA71 		mov	r1, #500
 691 0174 2046     		mov	r0, r4
 692 0176 FFF7FEFF 		bl	chSemWaitTimeout
 693              	.LVL22:
 694              		.loc 1 177 0
 695 017a A0F1FF33 		sub	r3, r0, #-1
 696 017e 5842     		rsbs	r0, r3, #0
 697              	.LVL23:
 698 0180 40EB0301 		adc	r1, r0, r3
 699 0184 0720     		movs	r0, #7
 700 0186 FFF7FEFF 		bl	_test_assert
 701              	.LVL24:
 702 018a 0028     		cmp	r0, #0
 703 018c 7FF448AF 		bne	.L34
 704              		.loc 1 178 0
 705 0190 2268     		ldr	r2, [r4, #0]
 706 0192 0820     		movs	r0, #8
 707 0194 C2EB040E 		rsb	lr, r2, r4
 708 0198 DEF1000C 		rsbs	ip, lr, #0
 709 019c 4CEB0E01 		adc	r1, ip, lr
 710 01a0 FFF7FEFF 		bl	_test_assert
 711 01a4 0028     		cmp	r0, #0
 712 01a6 7FF43BAF 		bne	.L34
 713              		.loc 1 179 0
 714 01aa A168     		ldr	r1, [r4, #8]
 715 01ac 0920     		movs	r0, #9
 716 01ae D1F10101 		rsbs	r1, r1, #1
 717 01b2 38BF     		it	cc
 718 01b4 0021     		movcc	r1, #0
 719 01b6 FFF7FEFF 		bl	_test_assert
 720 01ba 0028     		cmp	r0, #0
 721 01bc 7FF430AF 		bne	.L34
 722              	.LVL25:
 723              		.loc 1 175 0
 724 01c0 4420     		movs	r0, #68
 725 01c2 FFF7FEFF 		bl	test_emit_token
 726              		.loc 1 176 0
 727 01c6 4FF4FA71 		mov	r1, #500
 728 01ca 2046     		mov	r0, r4
 729 01cc FFF7FEFF 		bl	chSemWaitTimeout
 730              	.LVL26:
 731              		.loc 1 177 0
 732 01d0 A0F1FF33 		sub	r3, r0, #-1
ARM GAS  C:\Users\DNIEL~1\AppData\Local\Temp\ccXoGZ7Z.s 			page 14


 733 01d4 5842     		rsbs	r0, r3, #0
 734              	.LVL27:
 735 01d6 40EB0301 		adc	r1, r0, r3
 736 01da 0720     		movs	r0, #7
 737 01dc FFF7FEFF 		bl	_test_assert
 738              	.LVL28:
 739 01e0 0028     		cmp	r0, #0
 740 01e2 7FF41DAF 		bne	.L34
 741              		.loc 1 178 0
 742 01e6 2268     		ldr	r2, [r4, #0]
 743 01e8 0820     		movs	r0, #8
 744 01ea C2EB040E 		rsb	lr, r2, r4
 745 01ee DEF1000C 		rsbs	ip, lr, #0
 746 01f2 4CEB0E01 		adc	r1, ip, lr
 747 01f6 FFF7FEFF 		bl	_test_assert
 748 01fa 0028     		cmp	r0, #0
 749 01fc 7FF410AF 		bne	.L34
 750              		.loc 1 179 0
 751 0200 A168     		ldr	r1, [r4, #8]
 752 0202 0920     		movs	r0, #9
 753 0204 D1F10101 		rsbs	r1, r1, #1
 754 0208 38BF     		it	cc
 755 020a 0021     		movcc	r1, #0
 756 020c FFF7FEFF 		bl	_test_assert
 757 0210 0028     		cmp	r0, #0
 758 0212 7FF405AF 		bne	.L34
 759              	.LVL29:
 760              		.loc 1 175 0
 761 0216 4520     		movs	r0, #69
 762 0218 FFF7FEFF 		bl	test_emit_token
 763              		.loc 1 176 0
 764 021c 4FF4FA71 		mov	r1, #500
 765 0220 2046     		mov	r0, r4
 766 0222 FFF7FEFF 		bl	chSemWaitTimeout
 767              	.LVL30:
 768              		.loc 1 177 0
 769 0226 A0F1FF33 		sub	r3, r0, #-1
 770 022a 5842     		rsbs	r0, r3, #0
 771              	.LVL31:
 772 022c 40EB0301 		adc	r1, r0, r3
 773 0230 0720     		movs	r0, #7
 774 0232 FFF7FEFF 		bl	_test_assert
 775              	.LVL32:
 776 0236 0028     		cmp	r0, #0
 777 0238 7FF4F2AE 		bne	.L34
 778              		.loc 1 178 0
 779 023c 2268     		ldr	r2, [r4, #0]
 780 023e 0820     		movs	r0, #8
 781 0240 C2EB040E 		rsb	lr, r2, r4
 782 0244 DEF1000C 		rsbs	ip, lr, #0
 783 0248 4CEB0E01 		adc	r1, ip, lr
 784 024c FFF7FEFF 		bl	_test_assert
 785 0250 0028     		cmp	r0, #0
 786 0252 7FF4E5AE 		bne	.L34
 787              		.loc 1 179 0
 788 0256 A168     		ldr	r1, [r4, #8]
 789 0258 0920     		movs	r0, #9
ARM GAS  C:\Users\DNIEL~1\AppData\Local\Temp\ccXoGZ7Z.s 			page 15


 790 025a D1F10101 		rsbs	r1, r1, #1
 791 025e 38BF     		it	cc
 792 0260 0021     		movcc	r1, #0
 793 0262 FFF7FEFF 		bl	_test_assert
 794 0266 0028     		cmp	r0, #0
 795 0268 7FF4DAAE 		bne	.L34
 796              	.LVL33:
 797              		.loc 1 181 0
 798 026c 0A20     		movs	r0, #10
 799 026e 0E49     		ldr	r1, .L37+24
 800 0270 FFF7FEFF 		bl	_test_assert_sequence
 801 0274 0028     		cmp	r0, #0
 802 0276 7FF4D3AE 		bne	.L34
 803              		.loc 1 173 0
 804 027a 07F51C62 		add	r2, r7, #2496
 805              		.loc 1 182 0
 806 027e 111D     		adds	r1, r2, #4
 807 0280 0B20     		movs	r0, #11
 808 0282 0932     		adds	r2, r2, #9
 809              		.loc 1 183 0
 810 0284 03B0     		add	sp, sp, #12
 811 0286 BDE8F040 		pop	{r4, r5, r6, r7, lr}
 812              		.loc 1 182 0
 813 028a FFF7FEBF 		b	_test_assert_time_window
 814              	.L38:
 815 028e 00BF     		.align	2
 816              	.L37:
 817 0290 00000000 		.word	.LANCHOR0
 818 0294 00000000 		.word	rlist
 819 0298 00000000 		.word	wa
 820 029c 00000000 		.word	thread2
 821 02a0 00000000 		.word	threads
 822 02a4 00000000 		.word	vtlist
 823 02a8 00000000 		.word	.LC0
 824              		.cfi_endproc
 825              	.LFE5:
 826              		.size	sem2_execute, .-sem2_execute
 827 02ac AFF30080 		.section	.text.thread2,"ax",%progbits
 828              		.align	2
 829              		.p2align 4,,15
 830              		.thumb
 831              		.thumb_func
 832              		.type	thread2, %function
 833              	thread2:
 834              	.LFB4:
 835              		.loc 1 134 0
 836              		.cfi_startproc
 837              		@ args = 0, pretend = 0, frame = 0
 838              		@ frame_needed = 0, uses_anonymous_args = 0
 839              	.LVL34:
 840 0000 08B5     		push	{r3, lr}
 841              	.LCFI9:
 842              		.cfi_def_cfa_offset 8
 843              		.loc 1 137 0
 844 0002 3220     		movs	r0, #50
 845              	.LVL35:
 846              		.cfi_offset 14, -4
ARM GAS  C:\Users\DNIEL~1\AppData\Local\Temp\ccXoGZ7Z.s 			page 16


 847              		.cfi_offset 3, -8
 848 0004 FFF7FEFF 		bl	chThdSleep
 849              		.loc 1 138 0
 850              	@ 138 "../../../ChibiOS/test/testsem.c" 1
 851 0008 FFF7FEFF 		bl      _port_lock
 852              	@ 0 "" 2
 853              		.loc 1 139 0
 854              		.thumb
 855 000c 0448     		ldr	r0, .L40
 856 000e FFF7FEFF 		bl	chSemSignalI
 857              		.loc 1 140 0
 858 0012 FFF7FEFF 		bl	chSchRescheduleS
 859              		.loc 1 141 0
 860              	@ 141 "../../../ChibiOS/test/testsem.c" 1
 861 0016 FFF7FEFF 		bl      _port_unlock
 862              	@ 0 "" 2
 863              		.loc 1 143 0
 864              		.thumb
 865 001a 0020     		movs	r0, #0
 866 001c 08BD     		pop	{r3, pc}
 867              	.L41:
 868 001e 00BF     		.align	2
 869              	.L40:
 870 0020 00000000 		.word	.LANCHOR0
 871              		.cfi_endproc
 872              	.LFE4:
 873              		.size	thread2, .-thread2
 874              		.section	.text.sem1_execute,"ax",%progbits
 875              		.align	2
 876              		.p2align 4,,15
 877              		.thumb
 878              		.thumb_func
 879              		.type	sem1_execute, %function
 880              	sem1_execute:
 881              	.LFB2:
 882              		.loc 1 84 0
 883              		.cfi_startproc
 884              		@ args = 0, pretend = 0, frame = 0
 885              		@ frame_needed = 0, uses_anonymous_args = 0
 886 0000 2DE9F041 		push	{r4, r5, r6, r7, r8, lr}
 887              	.LCFI10:
 888              		.cfi_def_cfa_offset 24
 889              		.loc 1 86 0
 890 0004 464E     		ldr	r6, .L45
 891              		.cfi_offset 14, -4
 892              		.cfi_offset 8, -8
 893              		.cfi_offset 7, -12
 894              		.cfi_offset 6, -16
 895              		.cfi_offset 5, -20
 896              		.cfi_offset 4, -24
 897 0006 474C     		ldr	r4, .L45+4
 898 0008 B569     		ldr	r5, [r6, #24]
 899 000a D4F80080 		ldr	r8, [r4, #0]
 900 000e A868     		ldr	r0, [r5, #8]
 901 0010 454F     		ldr	r7, .L45+8
 902              		.loc 1 84 0
 903 0012 82B0     		sub	sp, sp, #8
ARM GAS  C:\Users\DNIEL~1\AppData\Local\Temp\ccXoGZ7Z.s 			page 17


 904              	.LCFI11:
 905              		.cfi_def_cfa_offset 32
 906              		.loc 1 86 0
 907 0014 421D     		adds	r2, r0, #5
 908 0016 4FF4A871 		mov	r1, #336
 909 001a 444B     		ldr	r3, .L45+12
 910 001c 4046     		mov	r0, r8
 911 001e 0097     		str	r7, [sp, #0]
 912 0020 FFF7FEFF 		bl	chThdCreateStatic
 913              		.loc 1 87 0
 914 0024 B169     		ldr	r1, [r6, #24]
 915              		.loc 1 86 0
 916 0026 424D     		ldr	r5, .L45+16
 917              		.loc 1 87 0
 918 0028 8B68     		ldr	r3, [r1, #8]
 919 002a D4F804C0 		ldr	ip, [r4, #4]
 920 002e DFF810E1 		ldr	lr, .L45+32
 921              		.loc 1 86 0
 922 0032 2860     		str	r0, [r5, #0]
 923              		.loc 1 87 0
 924 0034 5A1C     		adds	r2, r3, #1
 925 0036 4FF4A871 		mov	r1, #336
 926 003a 3C4B     		ldr	r3, .L45+12
 927 003c 6046     		mov	r0, ip
 928 003e CDF800E0 		str	lr, [sp, #0]
 929 0042 FFF7FEFF 		bl	chThdCreateStatic
 930              		.loc 1 88 0
 931 0046 B269     		ldr	r2, [r6, #24]
 932 0048 D4F808C0 		ldr	ip, [r4, #8]
 933 004c 9368     		ldr	r3, [r2, #8]
 934 004e DFF8F4E0 		ldr	lr, .L45+36
 935              		.loc 1 87 0
 936 0052 6860     		str	r0, [r5, #4]
 937              		.loc 1 88 0
 938 0054 DA1C     		adds	r2, r3, #3
 939 0056 4FF4A871 		mov	r1, #336
 940 005a 344B     		ldr	r3, .L45+12
 941 005c 6046     		mov	r0, ip
 942 005e CDF800E0 		str	lr, [sp, #0]
 943 0062 FFF7FEFF 		bl	chThdCreateStatic
 944              		.loc 1 89 0
 945 0066 B169     		ldr	r1, [r6, #24]
 946 0068 D4F80CC0 		ldr	ip, [r4, #12]
 947 006c 8A68     		ldr	r2, [r1, #8]
 948 006e DFF8D8E0 		ldr	lr, .L45+40
 949              		.loc 1 88 0
 950 0072 A860     		str	r0, [r5, #8]
 951              		.loc 1 89 0
 952 0074 4FF4A871 		mov	r1, #336
 953 0078 6046     		mov	r0, ip
 954 007a 0432     		adds	r2, r2, #4
 955 007c 2B4B     		ldr	r3, .L45+12
 956 007e CDF800E0 		str	lr, [sp, #0]
 957 0082 FFF7FEFF 		bl	chThdCreateStatic
 958              		.loc 1 90 0
 959 0086 B369     		ldr	r3, [r6, #24]
 960 0088 2469     		ldr	r4, [r4, #16]
ARM GAS  C:\Users\DNIEL~1\AppData\Local\Temp\ccXoGZ7Z.s 			page 18


 961 008a 9A68     		ldr	r2, [r3, #8]
 962              		.loc 1 89 0
 963 008c E860     		str	r0, [r5, #12]
 964              		.loc 1 90 0
 965 008e 2046     		mov	r0, r4
 966 0090 284C     		ldr	r4, .L45+20
 967 0092 4FF4A871 		mov	r1, #336
 968 0096 0232     		adds	r2, r2, #2
 969 0098 244B     		ldr	r3, .L45+12
 970 009a 0094     		str	r4, [sp, #0]
 971 009c FFF7FEFF 		bl	chThdCreateStatic
 972              		.loc 1 91 0
 973 00a0 254C     		ldr	r4, .L45+24
 974              		.loc 1 90 0
 975 00a2 2861     		str	r0, [r5, #16]
 976              		.loc 1 91 0
 977 00a4 2046     		mov	r0, r4
 978 00a6 FFF7FEFF 		bl	chSemSignal
 979              		.loc 1 92 0
 980 00aa 2046     		mov	r0, r4
 981 00ac FFF7FEFF 		bl	chSemSignal
 982              		.loc 1 93 0
 983 00b0 2046     		mov	r0, r4
 984 00b2 FFF7FEFF 		bl	chSemSignal
 985              		.loc 1 94 0
 986 00b6 2046     		mov	r0, r4
 987 00b8 FFF7FEFF 		bl	chSemSignal
 988              		.loc 1 95 0
 989 00bc 2046     		mov	r0, r4
 990 00be FFF7FEFF 		bl	chSemSignal
 991              		.loc 1 96 0
 992 00c2 FFF7FEFF 		bl	test_wait_threads
 993              		.loc 1 100 0
 994 00c6 0120     		movs	r0, #1
 995 00c8 1C49     		ldr	r1, .L45+28
 996 00ca FFF7FEFF 		bl	_test_assert_sequence
 997 00ce 10B1     		cbz	r0, .L44
 998              		.loc 1 109 0
 999 00d0 02B0     		add	sp, sp, #8
 1000 00d2 BDE8F081 		pop	{r4, r5, r6, r7, r8, pc}
 1001              	.L44:
 1002              		.loc 1 102 0
 1003 00d6 B169     		ldr	r1, [r6, #24]
 1004 00d8 4046     		mov	r0, r8
 1005 00da 8A68     		ldr	r2, [r1, #8]
 1006 00dc 134B     		ldr	r3, .L45+12
 1007 00de 4FF4A871 		mov	r1, #336
 1008 00e2 0532     		adds	r2, r2, #5
 1009 00e4 0097     		str	r7, [sp, #0]
 1010 00e6 FFF7FEFF 		bl	chThdCreateStatic
 1011 00ea 2860     		str	r0, [r5, #0]
 1012              		.loc 1 103 0
 1013              	@ 103 "../../../ChibiOS/test/testsem.c" 1
 1014 00ec FFF7FEFF 		bl      _port_lock
 1015              	@ 0 "" 2
 1016              		.loc 1 104 0
 1017              		.thumb
ARM GAS  C:\Users\DNIEL~1\AppData\Local\Temp\ccXoGZ7Z.s 			page 19


 1018 00f0 0221     		movs	r1, #2
 1019 00f2 2046     		mov	r0, r4
 1020 00f4 FFF7FEFF 		bl	chSemAddCounterI
 1021              		.loc 1 105 0
 1022 00f8 FFF7FEFF 		bl	chSchRescheduleS
 1023              		.loc 1 106 0
 1024              	@ 106 "../../../ChibiOS/test/testsem.c" 1
 1025 00fc FFF7FEFF 		bl      _port_unlock
 1026              	@ 0 "" 2
 1027              		.loc 1 107 0
 1028              		.thumb
 1029 0100 FFF7FEFF 		bl	test_wait_threads
 1030              		.loc 1 108 0
 1031 0104 A368     		ldr	r3, [r4, #8]
 1032 0106 0220     		movs	r0, #2
 1033 0108 A3F10102 		sub	r2, r3, #1
 1034 010c D2F1000C 		rsbs	ip, r2, #0
 1035 0110 4CEB0201 		adc	r1, ip, r2
 1036              		.loc 1 109 0
 1037 0114 02B0     		add	sp, sp, #8
 1038 0116 BDE8F041 		pop	{r4, r5, r6, r7, r8, lr}
 1039              		.loc 1 108 0
 1040 011a FFF7FEBF 		b	_test_assert
 1041              	.L46:
 1042 011e 00BF     		.align	2
 1043              	.L45:
 1044 0120 00000000 		.word	rlist
 1045 0124 00000000 		.word	wa
 1046 0128 08000000 		.word	.LC1
 1047 012c 00000000 		.word	thread1
 1048 0130 00000000 		.word	threads
 1049 0134 18000000 		.word	.LC5
 1050 0138 00000000 		.word	.LANCHOR0
 1051 013c 00000000 		.word	.LC0
 1052 0140 0C000000 		.word	.LC2
 1053 0144 10000000 		.word	.LC3
 1054 0148 14000000 		.word	.LC4
 1055              		.cfi_endproc
 1056              	.LFE2:
 1057              		.size	sem1_execute, .-sem1_execute
 1058              		.global	testsem1
 1059              		.global	testsem2
 1060              		.global	testsem3
 1061              		.global	testsem4
 1062              		.global	patternsem
 1063 014c AFF30080 		.section	.rodata.testsem1,"a",%progbits
 1064              		.align	2
 1065              		.type	testsem1, %object
 1066              		.size	testsem1, 16
 1067              	testsem1:
 1068 0000 1C000000 		.word	.LC6
 1069 0004 00000000 		.word	sem1_setup
 1070 0008 00000000 		.word	0
 1071 000c 00000000 		.word	sem1_execute
 1072              		.section	.rodata.testsem2,"a",%progbits
 1073              		.align	2
 1074              		.type	testsem2, %object
ARM GAS  C:\Users\DNIEL~1\AppData\Local\Temp\ccXoGZ7Z.s 			page 20


 1075              		.size	testsem2, 16
 1076              	testsem2:
 1077 0000 34000000 		.word	.LC7
 1078 0004 00000000 		.word	sem2_setup
 1079 0008 00000000 		.word	0
 1080 000c 00000000 		.word	sem2_execute
 1081              		.section	.rodata.testsem3,"a",%progbits
 1082              		.align	2
 1083              		.type	testsem3, %object
 1084              		.size	testsem3, 16
 1085              	testsem3:
 1086 0000 48000000 		.word	.LC8
 1087 0004 00000000 		.word	sem3_setup
 1088 0008 00000000 		.word	0
 1089 000c 00000000 		.word	sem3_execute
 1090              		.section	.rodata.testsem4,"a",%progbits
 1091              		.align	2
 1092              		.type	testsem4, %object
 1093              		.size	testsem4, 16
 1094              	testsem4:
 1095 0000 68000000 		.word	.LC9
 1096 0004 00000000 		.word	0
 1097 0008 00000000 		.word	0
 1098 000c 00000000 		.word	sem4_execute
 1099              		.section	.data.sem1,"aw",%progbits
 1100              		.align	2
 1101              		.set	.LANCHOR0,. + 0
 1102              		.type	sem1, %object
 1103              		.size	sem1, 12
 1104              	sem1:
 1105 0000 00000000 		.word	sem1
 1106 0004 00000000 		.word	sem1
 1107 0008 00000000 		.word	0
 1108              		.section	.rodata.patternsem,"a",%progbits
 1109              		.align	2
 1110              		.type	patternsem, %object
 1111              		.size	patternsem, 20
 1112              	patternsem:
 1113 0000 00000000 		.word	testsem1
 1114 0004 00000000 		.word	testsem2
 1115 0008 00000000 		.word	testsem3
 1116 000c 00000000 		.word	testsem4
 1117 0010 00000000 		.word	0
 1118              		.section	.rodata.str1.4,"aMS",%progbits,1
 1119              		.align	2
 1120              	.LC0:
 1121 0000 41424344 		.ascii	"ABCDE\000"
 1121      4500
 1122 0006 0000     		.space	2
 1123              	.LC1:
 1124 0008 4100     		.ascii	"A\000"
 1125 000a 0000     		.space	2
 1126              	.LC2:
 1127 000c 4200     		.ascii	"B\000"
 1128 000e 0000     		.space	2
 1129              	.LC3:
 1130 0010 4300     		.ascii	"C\000"
ARM GAS  C:\Users\DNIEL~1\AppData\Local\Temp\ccXoGZ7Z.s 			page 21


 1131 0012 0000     		.space	2
 1132              	.LC4:
 1133 0014 4400     		.ascii	"D\000"
 1134 0016 0000     		.space	2
 1135              	.LC5:
 1136 0018 4500     		.ascii	"E\000"
 1137 001a 0000     		.space	2
 1138              	.LC6:
 1139 001c 53656D61 		.ascii	"Semaphores, enqueuing\000"
 1139      70686F72 
 1139      65732C20 
 1139      656E7175 
 1139      6575696E 
 1140 0032 0000     		.space	2
 1141              	.LC7:
 1142 0034 53656D61 		.ascii	"Semaphores, timeout\000"
 1142      70686F72 
 1142      65732C20 
 1142      74696D65 
 1142      6F757400 
 1143              	.LC8:
 1144 0048 53656D61 		.ascii	"Semaphores, atomic signal-wait\000"
 1144      70686F72 
 1144      65732C20 
 1144      61746F6D 
 1144      69632073 
 1145 0067 00       		.space	1
 1146              	.LC9:
 1147 0068 42696E61 		.ascii	"Binary Semaphores, functionality\000"
 1147      72792053 
 1147      656D6170 
 1147      686F7265 
 1147      732C2066 
 1148 0089 000000   		.text
 1149              	.Letext0: