ARM GAS  C:\Users\DNIEL~1\AppData\Local\Temp\ccnKqQvF.s 			page 1


   1              		.syntax unified
   2              		.cpu cortex-m3
   3              		.fpu softvfp
   4              		.eabi_attribute 20, 1
   5              		.eabi_attribute 21, 1
   6              		.eabi_attribute 23, 3
   7              		.eabi_attribute 24, 1
   8              		.eabi_attribute 25, 1
   9              		.eabi_attribute 26, 1
  10              		.eabi_attribute 30, 2
  11              		.eabi_attribute 18, 4
  12              		.thumb
  13              		.file	"testthd.c"
  20 0000 14020000 		.text
  20      02006901 
  20      00000201 
  20      FB0E0D00 
  20      01010101 
  21              	.Ltext0:
  22              		.cfi_sections	.debug_frame
  23              		.section	.text.thd4_execute,"ax",%progbits
  24              		.align	2
  25              		.p2align 4,,15
  26              		.thumb
  27              		.thumb_func
  28              		.type	thd4_execute, %function
  29              	thd4_execute:
  30              	.LFB4:
  31              		.file 1 "../../../ChibiOS/test/testthd.c"
  32              		.loc 1 189 0
  33              		.cfi_startproc
  34              		@ args = 0, pretend = 0, frame = 0
  35              		@ frame_needed = 0, uses_anonymous_args = 0
  36 0000 70B5     		push	{r4, r5, r6, lr}
  37              	.LCFI0:
  38              		.cfi_def_cfa_offset 16
  39              		.loc 1 195 0
  40 0002 1C4C     		ldr	r4, .L5
  41              		.cfi_offset 14, -4
  42              		.cfi_offset 6, -8
  43              		.cfi_offset 5, -12
  44              		.cfi_offset 4, -16
  45              		.loc 1 192 0
  46 0004 FFF7FEFF 		bl	test_wait_tick
  47              		.loc 1 195 0
  48 0008 E568     		ldr	r5, [r4, #12]
  49              	.LVL0:
  50              		.loc 1 196 0
  51 000a 6420     		movs	r0, #100
  52 000c FFF7FEFF 		bl	chThdSleep
  53              		.loc 1 197 0
ARM GAS  C:\Users\DNIEL~1\AppData\Local\Temp\ccnKqQvF.s 			page 2


  54 0010 0120     		movs	r0, #1
  55 0012 05F16401 		add	r1, r5, #100
  56 0016 05F16502 		add	r2, r5, #101
  57 001a FFF7FEFF 		bl	_test_assert_time_window
  58 001e 00B1     		cbz	r0, .L4
  59              	.L1:
  60 0020 70BD     		pop	{r4, r5, r6, pc}
  61              	.L4:
  62              		.loc 1 200 0
  63 0022 E568     		ldr	r5, [r4, #12]
  64              	.LVL1:
  65              		.loc 1 201 0
  66 0024 6420     		movs	r0, #100
  67 0026 FFF7FEFF 		bl	chThdSleep
  68              		.loc 1 202 0
  69 002a 0220     		movs	r0, #2
  70 002c 05F16401 		add	r1, r5, #100
  71 0030 05F16502 		add	r2, r5, #101
  72 0034 FFF7FEFF 		bl	_test_assert_time_window
  73 0038 0028     		cmp	r0, #0
  74 003a F1D1     		bne	.L1
  75              		.loc 1 205 0
  76 003c E568     		ldr	r5, [r4, #12]
  77              	.LVL2:
  78              		.loc 1 206 0
  79 003e 4FF47A70 		mov	r0, #1000
  80 0042 FFF7FEFF 		bl	chThdSleep
  81              		.loc 1 207 0
  82 0046 05F57A71 		add	r1, r5, #1000
  83 004a 0320     		movs	r0, #3
  84 004c 4A1C     		adds	r2, r1, #1
  85 004e FFF7FEFF 		bl	_test_assert_time_window
  86 0052 0028     		cmp	r0, #0
  87 0054 E4D1     		bne	.L1
  88              		.loc 1 210 0
  89 0056 E468     		ldr	r4, [r4, #12]
  90 0058 04F16405 		add	r5, r4, #100
  91              	.LVL3:
  92              		.loc 1 211 0
  93 005c 2846     		mov	r0, r5
  94 005e FFF7FEFF 		bl	chThdSleepUntil
  95              		.loc 1 212 0
  96 0062 0420     		movs	r0, #4
  97 0064 2946     		mov	r1, r5
  98 0066 04F16502 		add	r2, r4, #101
  99              		.loc 1 213 0
 100 006a BDE87040 		pop	{r4, r5, r6, lr}
 101              		.loc 1 212 0
 102 006e FFF7FEBF 		b	_test_assert_time_window
 103              	.L6:
 104 0072 00BF     		.align	2
 105              	.L5:
 106 0074 00000000 		.word	vtlist
 107              		.cfi_endproc
 108              	.LFE4:
 109              		.size	thd4_execute, .-thd4_execute
 110 0078 AFF30080 		.section	.text.thd3_execute,"ax",%progbits
ARM GAS  C:\Users\DNIEL~1\AppData\Local\Temp\ccnKqQvF.s 			page 3


 110      AFF30080 
 111              		.align	2
 112              		.p2align 4,,15
 113              		.thumb
 114              		.thumb_func
 115              		.type	thd3_execute, %function
 116              	thd3_execute:
 117              	.LFB3:
 118              		.loc 1 126 0
 119              		.cfi_startproc
 120              		@ args = 0, pretend = 0, frame = 0
 121              		@ frame_needed = 0, uses_anonymous_args = 0
 122 0000 F8B5     		push	{r3, r4, r5, r6, r7, lr}
 123              	.LCFI1:
 124              		.cfi_def_cfa_offset 24
 125              		.loc 1 129 0
 126 0002 514E     		ldr	r6, .L10
 127              		.cfi_offset 14, -4
 128              		.cfi_offset 7, -8
 129              		.cfi_offset 6, -12
 130              		.cfi_offset 5, -16
 131              		.cfi_offset 4, -20
 132              		.cfi_offset 3, -24
 133 0004 B369     		ldr	r3, [r6, #24]
 134 0006 9C68     		ldr	r4, [r3, #8]
 135              	.LVL4:
 136              		.loc 1 130 0
 137 0008 651C     		adds	r5, r4, #1
 138 000a 2846     		mov	r0, r5
 139 000c FFF7FEFF 		bl	chThdSetPriority
 140              	.LVL5:
 141              		.loc 1 131 0
 142 0010 021B     		subs	r2, r0, r4
 143 0012 5142     		rsbs	r1, r2, #0
 144 0014 41EB0201 		adc	r1, r1, r2
 145              		.loc 1 130 0
 146 0018 0746     		mov	r7, r0
 147              	.LVL6:
 148              		.loc 1 131 0
 149 001a 0120     		movs	r0, #1
 150              	.LVL7:
 151 001c FFF7FEFF 		bl	_test_assert
 152 0020 00B1     		cbz	r0, .L9
 153              	.LVL8:
 154              	.L7:
 155 0022 F8BD     		pop	{r3, r4, r5, r6, r7, pc}
 156              	.LVL9:
 157              	.L9:
 158              		.loc 1 133 0
 159 0024 B269     		ldr	r2, [r6, #24]
 160 0026 0220     		movs	r0, #2
 161 0028 9168     		ldr	r1, [r2, #8]
 162 002a C1EB050E 		rsb	lr, r1, r5
 163 002e DEF1000C 		rsbs	ip, lr, #0
 164 0032 4CEB0E01 		adc	r1, ip, lr
 165 0036 FFF7FEFF 		bl	_test_assert
 166 003a 0028     		cmp	r0, #0
ARM GAS  C:\Users\DNIEL~1\AppData\Local\Temp\ccnKqQvF.s 			page 4


 167 003c F1D1     		bne	.L7
 168              		.loc 1 135 0
 169 003e 3846     		mov	r0, r7
 170 0040 FFF7FEFF 		bl	chThdSetPriority
 171              	.LVL10:
 172              		.loc 1 136 0
 173 0044 2B1A     		subs	r3, r5, r0
 174 0046 5842     		rsbs	r0, r3, #0
 175              	.LVL11:
 176 0048 40EB0301 		adc	r1, r0, r3
 177 004c 0320     		movs	r0, #3
 178 004e FFF7FEFF 		bl	_test_assert
 179 0052 0028     		cmp	r0, #0
 180 0054 E5D1     		bne	.L7
 181              		.loc 1 138 0
 182 0056 B269     		ldr	r2, [r6, #24]
 183 0058 0420     		movs	r0, #4
 184 005a 9168     		ldr	r1, [r2, #8]
 185 005c C4EB010E 		rsb	lr, r4, r1
 186 0060 DEF1000C 		rsbs	ip, lr, #0
 187 0064 4CEB0E01 		adc	r1, ip, lr
 188 0068 FFF7FEFF 		bl	_test_assert
 189 006c 0028     		cmp	r0, #0
 190 006e D8D1     		bne	.L7
 191              		.loc 1 143 0
 192              	@ 143 "../../../ChibiOS/test/testthd.c" 1
 193 0070 FFF7FEFF 		bl      _port_lock
 194              	@ 0 "" 2
 195              		.loc 1 144 0
 196              		.thumb
 197 0074 B369     		ldr	r3, [r6, #24]
 198 0076 9A68     		ldr	r2, [r3, #8]
 199 0078 971C     		adds	r7, r2, #2
 200 007a 9F60     		str	r7, [r3, #8]
 201              		.loc 1 145 0
 202              	@ 145 "../../../ChibiOS/test/testthd.c" 1
 203 007c FFF7FEFF 		bl      _port_unlock
 204              	@ 0 "" 2
 205              		.loc 1 146 0
 206              		.thumb
 207 0080 B069     		ldr	r0, [r6, #24]
 208 0082 A71C     		adds	r7, r4, #2
 209 0084 8168     		ldr	r1, [r0, #8]
 210 0086 0520     		movs	r0, #5
 211 0088 C7EB010C 		rsb	ip, r7, r1
 212 008c DCF10003 		rsbs	r3, ip, #0
 213 0090 43EB0C01 		adc	r1, r3, ip
 214 0094 FFF7FEFF 		bl	_test_assert
 215 0098 0028     		cmp	r0, #0
 216 009a C2D1     		bne	.L7
 217              		.loc 1 150 0
 218 009c 2846     		mov	r0, r5
 219 009e FFF7FEFF 		bl	chThdSetPriority
 220              	.LVL12:
 221              		.loc 1 151 0
 222 00a2 011B     		subs	r1, r0, r4
 223 00a4 D1F1000C 		rsbs	ip, r1, #0
ARM GAS  C:\Users\DNIEL~1\AppData\Local\Temp\ccnKqQvF.s 			page 5


 224 00a8 4CEB0101 		adc	r1, ip, r1
 225 00ac 0620     		movs	r0, #6
 226              	.LVL13:
 227 00ae FFF7FEFF 		bl	_test_assert
 228 00b2 0028     		cmp	r0, #0
 229 00b4 B5D1     		bne	.L7
 230              		.loc 1 153 0
 231 00b6 B169     		ldr	r1, [r6, #24]
 232 00b8 0720     		movs	r0, #7
 233 00ba 8A68     		ldr	r2, [r1, #8]
 234 00bc BB1A     		subs	r3, r7, r2
 235 00be D3F1000E 		rsbs	lr, r3, #0
 236 00c2 4EEB0301 		adc	r1, lr, r3
 237 00c6 FFF7FEFF 		bl	_test_assert
 238 00ca 0028     		cmp	r0, #0
 239 00cc A9D1     		bne	.L7
 240              		.loc 1 155 0
 241 00ce B269     		ldr	r2, [r6, #24]
 242 00d0 0820     		movs	r0, #8
 243 00d2 136C     		ldr	r3, [r2, #64]
 244 00d4 C3EB050E 		rsb	lr, r3, r5
 245 00d8 DEF1000C 		rsbs	ip, lr, #0
 246 00dc 4CEB0E01 		adc	r1, ip, lr
 247 00e0 FFF7FEFF 		bl	_test_assert
 248 00e4 0028     		cmp	r0, #0
 249 00e6 9CD1     		bne	.L7
 250              		.loc 1 159 0
 251 00e8 E71C     		adds	r7, r4, #3
 252 00ea 3846     		mov	r0, r7
 253 00ec FFF7FEFF 		bl	chThdSetPriority
 254              	.LVL14:
 255              		.loc 1 160 0
 256 00f0 281A     		subs	r0, r5, r0
 257              	.LVL15:
 258 00f2 4142     		rsbs	r1, r0, #0
 259 00f4 41EB0001 		adc	r1, r1, r0
 260 00f8 0920     		movs	r0, #9
 261 00fa FFF7FEFF 		bl	_test_assert
 262 00fe 0028     		cmp	r0, #0
 263 0100 8FD1     		bne	.L7
 264              		.loc 1 162 0
 265 0102 B269     		ldr	r2, [r6, #24]
 266 0104 0A30     		adds	r0, r0, #10
 267 0106 9368     		ldr	r3, [r2, #8]
 268 0108 C3EB070E 		rsb	lr, r3, r7
 269 010c DEF1000C 		rsbs	ip, lr, #0
 270 0110 4CEB0E01 		adc	r1, ip, lr
 271 0114 FFF7FEFF 		bl	_test_assert
 272 0118 0028     		cmp	r0, #0
 273 011a 82D1     		bne	.L7
 274              		.loc 1 164 0
 275 011c B269     		ldr	r2, [r6, #24]
 276 011e 0B30     		adds	r0, r0, #11
 277 0120 136C     		ldr	r3, [r2, #64]
 278 0122 C3EB070C 		rsb	ip, r3, r7
 279 0126 DCF10001 		rsbs	r1, ip, #0
 280 012a 41EB0C01 		adc	r1, r1, ip
ARM GAS  C:\Users\DNIEL~1\AppData\Local\Temp\ccnKqQvF.s 			page 6


 281 012e FFF7FEFF 		bl	_test_assert
 282 0132 0028     		cmp	r0, #0
 283 0134 7FF475AF 		bne	.L7
 284              		.loc 1 167 0
 285              	@ 167 "../../../ChibiOS/test/testthd.c" 1
 286 0138 FFF7FEFF 		bl      _port_lock
 287              	@ 0 "" 2
 288              		.loc 1 168 0
 289              		.thumb
 290 013c B069     		ldr	r0, [r6, #24]
 291 013e 8460     		str	r4, [r0, #8]
 292              		.loc 1 169 0
 293 0140 0464     		str	r4, [r0, #64]
 294              		.loc 1 170 0
 295              	@ 170 "../../../ChibiOS/test/testthd.c" 1
 296 0142 FFF7FEFF 		bl      _port_unlock
 297              	@ 0 "" 2
 298              		.thumb
 299 0146 6CE7     		b	.L7
 300              	.L11:
 301              		.align	2
 302              	.L10:
 303 0148 00000000 		.word	rlist
 304              		.cfi_endproc
 305              	.LFE3:
 306              		.size	thd3_execute, .-thd3_execute
 307 014c AFF30080 		.section	.text.thd2_execute,"ax",%progbits
 308              		.align	2
 309              		.p2align 4,,15
 310              		.thumb
 311              		.thumb_func
 312              		.type	thd2_execute, %function
 313              	thd2_execute:
 314              	.LFB2:
 315              		.loc 1 94 0
 316              		.cfi_startproc
 317              		@ args = 0, pretend = 0, frame = 0
 318              		@ frame_needed = 0, uses_anonymous_args = 0
 319 0000 F0B5     		push	{r4, r5, r6, r7, lr}
 320              	.LCFI2:
 321              		.cfi_def_cfa_offset 20
 322              		.loc 1 96 0
 323 0002 2D4F     		ldr	r7, .L13
 324              		.cfi_offset 14, -4
 325              		.cfi_offset 7, -8
 326              		.cfi_offset 6, -12
 327              		.cfi_offset 5, -16
 328              		.cfi_offset 4, -20
 329 0004 2D4E     		ldr	r6, .L13+4
 330 0006 B869     		ldr	r0, [r7, #24]
 331 0008 2D4D     		ldr	r5, .L13+8
 332 000a 8168     		ldr	r1, [r0, #8]
 333 000c 2D4C     		ldr	r4, .L13+12
 334              		.loc 1 94 0
 335 000e 83B0     		sub	sp, sp, #12
 336              	.LCFI3:
 337              		.cfi_def_cfa_offset 32
ARM GAS  C:\Users\DNIEL~1\AppData\Local\Temp\ccnKqQvF.s 			page 7


 338              		.loc 1 96 0
 339 0010 0A1F     		subs	r2, r1, #4
 340 0012 2B46     		mov	r3, r5
 341 0014 7068     		ldr	r0, [r6, #4]
 342 0016 4FF4A871 		mov	r1, #336
 343 001a 0094     		str	r4, [sp, #0]
 344 001c FFF7FEFF 		bl	chThdCreateStatic
 345              		.loc 1 97 0
 346 0020 BB69     		ldr	r3, [r7, #24]
 347              		.loc 1 96 0
 348 0022 294C     		ldr	r4, .L13+16
 349              		.loc 1 97 0
 350 0024 9A68     		ldr	r2, [r3, #8]
 351 0026 3168     		ldr	r1, [r6, #0]
 352 0028 DFF8A8E0 		ldr	lr, .L13+28
 353              		.loc 1 96 0
 354 002c 6060     		str	r0, [r4, #4]
 355              		.loc 1 97 0
 356 002e 053A     		subs	r2, r2, #5
 357 0030 2B46     		mov	r3, r5
 358 0032 0846     		mov	r0, r1
 359 0034 4FF4A871 		mov	r1, #336
 360 0038 CDF800E0 		str	lr, [sp, #0]
 361 003c FFF7FEFF 		bl	chThdCreateStatic
 362              		.loc 1 98 0
 363 0040 BB69     		ldr	r3, [r7, #24]
 364 0042 3169     		ldr	r1, [r6, #16]
 365 0044 9A68     		ldr	r2, [r3, #8]
 366 0046 DFF890C0 		ldr	ip, .L13+32
 367              		.loc 1 97 0
 368 004a 2060     		str	r0, [r4, #0]
 369              		.loc 1 98 0
 370 004c 013A     		subs	r2, r2, #1
 371 004e 2B46     		mov	r3, r5
 372 0050 0846     		mov	r0, r1
 373 0052 4FF4A871 		mov	r1, #336
 374 0056 CDF800C0 		str	ip, [sp, #0]
 375 005a FFF7FEFF 		bl	chThdCreateStatic
 376              		.loc 1 99 0
 377 005e B969     		ldr	r1, [r7, #24]
 378 0060 F368     		ldr	r3, [r6, #12]
 379 0062 8A68     		ldr	r2, [r1, #8]
 380 0064 DFF874E0 		ldr	lr, .L13+36
 381              		.loc 1 98 0
 382 0068 2061     		str	r0, [r4, #16]
 383              		.loc 1 99 0
 384 006a 4FF4A871 		mov	r1, #336
 385 006e 1846     		mov	r0, r3
 386 0070 023A     		subs	r2, r2, #2
 387 0072 2B46     		mov	r3, r5
 388 0074 CDF800E0 		str	lr, [sp, #0]
 389 0078 FFF7FEFF 		bl	chThdCreateStatic
 390 007c E060     		str	r0, [r4, #12]
 391              		.loc 1 101 0
 392              	@ 101 "../../../ChibiOS/test/testthd.c" 1
 393 007e FFF7FEFF 		bl      _port_lock
 394              	@ 0 "" 2
ARM GAS  C:\Users\DNIEL~1\AppData\Local\Temp\ccnKqQvF.s 			page 8


 395              		.loc 1 102 0
 396              		.thumb
 397 0082 BB69     		ldr	r3, [r7, #24]
 398 0084 B068     		ldr	r0, [r6, #8]
 399 0086 9A68     		ldr	r2, [r3, #8]
 400 0088 2B46     		mov	r3, r5
 401 008a 104D     		ldr	r5, .L13+20
 402 008c 4FF4A871 		mov	r1, #336
 403 0090 033A     		subs	r2, r2, #3
 404 0092 0095     		str	r5, [sp, #0]
 405 0094 FFF7FEFF 		bl	chThdCreateI
 406 0098 A060     		str	r0, [r4, #8]
 407              		.loc 1 103 0
 408              	@ 103 "../../../ChibiOS/test/testthd.c" 1
 409 009a FFF7FEFF 		bl      _port_unlock
 410              	@ 0 "" 2
 411              		.loc 1 104 0
 412              		.thumb
 413 009e A068     		ldr	r0, [r4, #8]
 414 00a0 FFF7FEFF 		bl	chThdResume
 415              		.loc 1 105 0
 416 00a4 FFF7FEFF 		bl	test_wait_threads
 417              		.loc 1 106 0
 418 00a8 0949     		ldr	r1, .L13+24
 419 00aa 0120     		movs	r0, #1
 420              		.loc 1 107 0
 421 00ac 03B0     		add	sp, sp, #12
 422 00ae BDE8F040 		pop	{r4, r5, r6, r7, lr}
 423              		.loc 1 106 0
 424 00b2 FFF7FEBF 		b	_test_assert_sequence
 425              	.L14:
 426 00b6 00BF     		.align	2
 427              	.L13:
 428 00b8 00000000 		.word	rlist
 429 00bc 00000000 		.word	wa
 430 00c0 00000000 		.word	thread
 431 00c4 00000000 		.word	.LC0
 432 00c8 00000000 		.word	threads
 433 00cc 10000000 		.word	.LC4
 434 00d0 14000000 		.word	.LC5
 435 00d4 04000000 		.word	.LC1
 436 00d8 08000000 		.word	.LC2
 437 00dc 0C000000 		.word	.LC3
 438              		.cfi_endproc
 439              	.LFE2:
 440              		.size	thd2_execute, .-thd2_execute
 441              		.section	.text.thd1_execute,"ax",%progbits
 442              		.align	2
 443              		.p2align 4,,15
 444              		.thumb
 445              		.thumb_func
 446              		.type	thd1_execute, %function
 447              	thd1_execute:
 448              	.LFB1:
 449              		.loc 1 66 0
 450              		.cfi_startproc
 451              		@ args = 0, pretend = 0, frame = 0
ARM GAS  C:\Users\DNIEL~1\AppData\Local\Temp\ccnKqQvF.s 			page 9


 452              		@ frame_needed = 0, uses_anonymous_args = 0
 453 0000 F0B5     		push	{r4, r5, r6, r7, lr}
 454              	.LCFI4:
 455              		.cfi_def_cfa_offset 20
 456              		.loc 1 68 0
 457 0002 2B4F     		ldr	r7, .L16
 458              		.cfi_offset 14, -4
 459              		.cfi_offset 7, -8
 460              		.cfi_offset 6, -12
 461              		.cfi_offset 5, -16
 462              		.cfi_offset 4, -20
 463 0004 2B4D     		ldr	r5, .L16+4
 464 0006 B869     		ldr	r0, [r7, #24]
 465 0008 2B4E     		ldr	r6, .L16+8
 466 000a 8268     		ldr	r2, [r0, #8]
 467 000c 2B4C     		ldr	r4, .L16+12
 468              		.loc 1 66 0
 469 000e 83B0     		sub	sp, sp, #12
 470              	.LCFI5:
 471              		.cfi_def_cfa_offset 32
 472              		.loc 1 68 0
 473 0010 053A     		subs	r2, r2, #5
 474 0012 2B46     		mov	r3, r5
 475 0014 3068     		ldr	r0, [r6, #0]
 476 0016 4FF4A871 		mov	r1, #336
 477 001a 0094     		str	r4, [sp, #0]
 478 001c FFF7FEFF 		bl	chThdCreateStatic
 479              		.loc 1 69 0
 480 0020 B969     		ldr	r1, [r7, #24]
 481              		.loc 1 68 0
 482 0022 274C     		ldr	r4, .L16+16
 483              		.loc 1 69 0
 484 0024 8B68     		ldr	r3, [r1, #8]
 485 0026 D6F804C0 		ldr	ip, [r6, #4]
 486 002a DFF8A0E0 		ldr	lr, .L16+28
 487              		.loc 1 68 0
 488 002e 2060     		str	r0, [r4, #0]
 489              		.loc 1 69 0
 490 0030 1A1F     		subs	r2, r3, #4
 491 0032 4FF4A871 		mov	r1, #336
 492 0036 2B46     		mov	r3, r5
 493 0038 6046     		mov	r0, ip
 494 003a CDF800E0 		str	lr, [sp, #0]
 495 003e FFF7FEFF 		bl	chThdCreateStatic
 496              		.loc 1 70 0
 497 0042 BA69     		ldr	r2, [r7, #24]
 498 0044 D6F808C0 		ldr	ip, [r6, #8]
 499 0048 9368     		ldr	r3, [r2, #8]
 500 004a DFF884E0 		ldr	lr, .L16+32
 501              		.loc 1 69 0
 502 004e 6060     		str	r0, [r4, #4]
 503              		.loc 1 70 0
 504 0050 DA1E     		subs	r2, r3, #3
 505 0052 4FF4A871 		mov	r1, #336
 506 0056 2B46     		mov	r3, r5
 507 0058 6046     		mov	r0, ip
 508 005a CDF800E0 		str	lr, [sp, #0]
ARM GAS  C:\Users\DNIEL~1\AppData\Local\Temp\ccnKqQvF.s 			page 10


 509 005e FFF7FEFF 		bl	chThdCreateStatic
 510              		.loc 1 71 0
 511 0062 B969     		ldr	r1, [r7, #24]
 512 0064 D6F80CC0 		ldr	ip, [r6, #12]
 513 0068 8A68     		ldr	r2, [r1, #8]
 514 006a DFF868E0 		ldr	lr, .L16+36
 515              		.loc 1 70 0
 516 006e A060     		str	r0, [r4, #8]
 517              		.loc 1 71 0
 518 0070 023A     		subs	r2, r2, #2
 519 0072 6046     		mov	r0, ip
 520 0074 2B46     		mov	r3, r5
 521 0076 4FF4A871 		mov	r1, #336
 522 007a CDF800E0 		str	lr, [sp, #0]
 523 007e FFF7FEFF 		bl	chThdCreateStatic
 524              		.loc 1 72 0
 525 0082 BB69     		ldr	r3, [r7, #24]
 526 0084 3669     		ldr	r6, [r6, #16]
 527 0086 9A68     		ldr	r2, [r3, #8]
 528 0088 2B46     		mov	r3, r5
 529 008a 0E4D     		ldr	r5, .L16+20
 530              		.loc 1 71 0
 531 008c E060     		str	r0, [r4, #12]
 532              		.loc 1 72 0
 533 008e 4FF4A871 		mov	r1, #336
 534 0092 013A     		subs	r2, r2, #1
 535 0094 3046     		mov	r0, r6
 536 0096 0095     		str	r5, [sp, #0]
 537 0098 FFF7FEFF 		bl	chThdCreateStatic
 538 009c 2061     		str	r0, [r4, #16]
 539              		.loc 1 73 0
 540 009e FFF7FEFF 		bl	test_wait_threads
 541              		.loc 1 74 0
 542 00a2 0949     		ldr	r1, .L16+24
 543 00a4 0120     		movs	r0, #1
 544              		.loc 1 75 0
 545 00a6 03B0     		add	sp, sp, #12
 546 00a8 BDE8F040 		pop	{r4, r5, r6, r7, lr}
 547              		.loc 1 74 0
 548 00ac FFF7FEBF 		b	_test_assert_sequence
 549              	.L17:
 550              		.align	2
 551              	.L16:
 552 00b0 00000000 		.word	rlist
 553 00b4 00000000 		.word	thread
 554 00b8 00000000 		.word	wa
 555 00bc 04000000 		.word	.LC1
 556 00c0 00000000 		.word	threads
 557 00c4 08000000 		.word	.LC2
 558 00c8 14000000 		.word	.LC5
 559 00cc 00000000 		.word	.LC0
 560 00d0 10000000 		.word	.LC4
 561 00d4 0C000000 		.word	.LC3
 562              		.cfi_endproc
 563              	.LFE1:
 564              		.size	thd1_execute, .-thd1_execute
 565 00d8 AFF30080 		.section	.text.thread,"ax",%progbits
ARM GAS  C:\Users\DNIEL~1\AppData\Local\Temp\ccnKqQvF.s 			page 11


 565      AFF30080 
 566              		.align	2
 567              		.p2align 4,,15
 568              		.thumb
 569              		.thumb_func
 570              		.type	thread, %function
 571              	thread:
 572              	.LFB0:
 573              		.loc 1 60 0
 574              		.cfi_startproc
 575              		@ args = 0, pretend = 0, frame = 0
 576              		@ frame_needed = 0, uses_anonymous_args = 0
 577              	.LVL16:
 578 0000 08B5     		push	{r3, lr}
 579              	.LCFI6:
 580              		.cfi_def_cfa_offset 8
 581              		.loc 1 62 0
 582 0002 0078     		ldrb	r0, [r0, #0]	@ zero_extendqisi2
 583              	.LVL17:
 584              		.cfi_offset 14, -4
 585              		.cfi_offset 3, -8
 586 0004 FFF7FEFF 		bl	test_emit_token
 587              		.loc 1 64 0
 588 0008 0020     		movs	r0, #0
 589 000a 08BD     		pop	{r3, pc}
 590              		.cfi_endproc
 591              	.LFE0:
 592              		.size	thread, .-thread
 593              		.global	testthd1
 594              		.global	testthd2
 595              		.global	testthd3
 596              		.global	testthd4
 597              		.global	patternthd
 598 000c AFF30080 		.section	.rodata.testthd1,"a",%progbits
 599              		.align	2
 600              		.type	testthd1, %object
 601              		.size	testthd1, 16
 602              	testthd1:
 603 0000 1C000000 		.word	.LC6
 604 0004 00000000 		.word	0
 605 0008 00000000 		.word	0
 606 000c 00000000 		.word	thd1_execute
 607              		.section	.rodata.testthd2,"a",%progbits
 608              		.align	2
 609              		.type	testthd2, %object
 610              		.size	testthd2, 16
 611              	testthd2:
 612 0000 38000000 		.word	.LC7
 613 0004 00000000 		.word	0
 614 0008 00000000 		.word	0
 615 000c 00000000 		.word	thd2_execute
 616              		.section	.rodata.testthd3,"a",%progbits
 617              		.align	2
 618              		.type	testthd3, %object
 619              		.size	testthd3, 16
 620              	testthd3:
 621 0000 54000000 		.word	.LC8
ARM GAS  C:\Users\DNIEL~1\AppData\Local\Temp\ccnKqQvF.s 			page 12


 622 0004 00000000 		.word	0
 623 0008 00000000 		.word	0
 624 000c 00000000 		.word	thd3_execute
 625              		.section	.rodata.testthd4,"a",%progbits
 626              		.align	2
 627              		.type	testthd4, %object
 628              		.size	testthd4, 16
 629              	testthd4:
 630 0000 70000000 		.word	.LC9
 631 0004 00000000 		.word	0
 632 0008 00000000 		.word	0
 633 000c 00000000 		.word	thd4_execute
 634              		.section	.rodata.patternthd,"a",%progbits
 635              		.align	2
 636              		.type	patternthd, %object
 637              		.size	patternthd, 20
 638              	patternthd:
 639 0000 00000000 		.word	testthd1
 640 0004 00000000 		.word	testthd2
 641 0008 00000000 		.word	testthd3
 642 000c 00000000 		.word	testthd4
 643 0010 00000000 		.word	0
 644              		.section	.rodata.str1.4,"aMS",%progbits,1
 645              		.align	2
 646              	.LC0:
 647 0000 4400     		.ascii	"D\000"
 648 0002 0000     		.space	2
 649              	.LC1:
 650 0004 4500     		.ascii	"E\000"
 651 0006 0000     		.space	2
 652              	.LC2:
 653 0008 4100     		.ascii	"A\000"
 654 000a 0000     		.space	2
 655              	.LC3:
 656 000c 4200     		.ascii	"B\000"
 657 000e 0000     		.space	2
 658              	.LC4:
 659 0010 4300     		.ascii	"C\000"
 660 0012 0000     		.space	2
 661              	.LC5:
 662 0014 41424344 		.ascii	"ABCDE\000"
 662      4500
 663 001a 0000     		.space	2
 664              	.LC6:
 665 001c 54687265 		.ascii	"Threads, enqueuing test #1\000"
 665      6164732C 
 665      20656E71 
 665      75657569 
 665      6E672074 
 666 0037 00       		.space	1
 667              	.LC7:
 668 0038 54687265 		.ascii	"Threads, enqueuing test #2\000"
 668      6164732C 
 668      20656E71 
 668      75657569 
 668      6E672074 
 669 0053 00       		.space	1
ARM GAS  C:\Users\DNIEL~1\AppData\Local\Temp\ccnKqQvF.s 			page 13


 670              	.LC8:
 671 0054 54687265 		.ascii	"Threads, priority change\000"
 671      6164732C 
 671      20707269 
 671      6F726974 
 671      79206368 
 672 006d 000000   		.space	3
 673              	.LC9:
 674 0070 54687265 		.ascii	"Threads, delays\000"
 674      6164732C 
 674      2064656C 
 674      61797300 
 675              		.text
 676              	.Letext0: